ARM GAS  C:\Users\stijn\AppData\Local\Temp\ccTi8xqa.s 			page 1


   1              		.syntax unified
   2              		.cpu cortex-m0plus
   3              		.fpu softvfp
   4              		.eabi_attribute 20, 1
   5              		.eabi_attribute 21, 1
   6              		.eabi_attribute 23, 3
   7              		.eabi_attribute 24, 1
   8              		.eabi_attribute 25, 1
   9              		.eabi_attribute 26, 1
  10              		.eabi_attribute 30, 1
  11              		.eabi_attribute 34, 0
  12              		.eabi_attribute 18, 4
  13              		.thumb
  14              		.syntax unified
  15              		.file	"AMuxSeq.c"
  16              		.text
  17              	.Ltext0:
  18              		.cfi_sections	.debug_frame
  19              		.section	.text.AMuxSeq_Start,"ax",%progbits
  20              		.align	2
  21              		.global	AMuxSeq_Start
  22              		.code	16
  23              		.thumb_func
  24              		.type	AMuxSeq_Start, %function
  25              	AMuxSeq_Start:
  26              	.LFB45:
  27              		.file 1 "Generated_Source\\PSoC6\\AMuxSeq.c"
   1:Generated_Source\PSoC6/AMuxSeq.c **** /*******************************************************************************
   2:Generated_Source\PSoC6/AMuxSeq.c **** * File Name: AMuxSeq.c
   3:Generated_Source\PSoC6/AMuxSeq.c **** * Version 1.80
   4:Generated_Source\PSoC6/AMuxSeq.c **** *
   5:Generated_Source\PSoC6/AMuxSeq.c **** *  Description:
   6:Generated_Source\PSoC6/AMuxSeq.c **** *    This file contains functions for the AMuxSeq.
   7:Generated_Source\PSoC6/AMuxSeq.c **** *
   8:Generated_Source\PSoC6/AMuxSeq.c **** *   Note:
   9:Generated_Source\PSoC6/AMuxSeq.c **** *
  10:Generated_Source\PSoC6/AMuxSeq.c **** *******************************************************************************
  11:Generated_Source\PSoC6/AMuxSeq.c **** * Copyright 2008-2010, Cypress Semiconductor Corporation.  All rights reserved.
  12:Generated_Source\PSoC6/AMuxSeq.c **** * You may use this file only in accordance with the license, terms, conditions, 
  13:Generated_Source\PSoC6/AMuxSeq.c **** * disclaimers, and limitations in the end user license agreement accompanying 
  14:Generated_Source\PSoC6/AMuxSeq.c **** * the software package with which this file was provided.
  15:Generated_Source\PSoC6/AMuxSeq.c **** ********************************************************************************/
  16:Generated_Source\PSoC6/AMuxSeq.c **** 
  17:Generated_Source\PSoC6/AMuxSeq.c **** #include "AMuxSeq.h"
  18:Generated_Source\PSoC6/AMuxSeq.c **** 
  19:Generated_Source\PSoC6/AMuxSeq.c **** uint8 AMuxSeq_initVar = 0u;
  20:Generated_Source\PSoC6/AMuxSeq.c **** 
  21:Generated_Source\PSoC6/AMuxSeq.c **** 
  22:Generated_Source\PSoC6/AMuxSeq.c **** /*******************************************************************************
  23:Generated_Source\PSoC6/AMuxSeq.c **** * Function Name: AMuxSeq_Start
  24:Generated_Source\PSoC6/AMuxSeq.c **** ********************************************************************************
  25:Generated_Source\PSoC6/AMuxSeq.c **** * Summary:
  26:Generated_Source\PSoC6/AMuxSeq.c **** *  Disconnect all channels. The next time Next is called, channel 0 will be
  27:Generated_Source\PSoC6/AMuxSeq.c **** *  connected.
  28:Generated_Source\PSoC6/AMuxSeq.c **** *
  29:Generated_Source\PSoC6/AMuxSeq.c **** * Parameters:
  30:Generated_Source\PSoC6/AMuxSeq.c **** *  void
ARM GAS  C:\Users\stijn\AppData\Local\Temp\ccTi8xqa.s 			page 2


  31:Generated_Source\PSoC6/AMuxSeq.c **** *
  32:Generated_Source\PSoC6/AMuxSeq.c **** * Return:
  33:Generated_Source\PSoC6/AMuxSeq.c **** *  void
  34:Generated_Source\PSoC6/AMuxSeq.c **** *
  35:Generated_Source\PSoC6/AMuxSeq.c **** *******************************************************************************/
  36:Generated_Source\PSoC6/AMuxSeq.c **** void AMuxSeq_Start(void)
  37:Generated_Source\PSoC6/AMuxSeq.c **** {
  28              		.loc 1 37 0
  29              		.cfi_startproc
  30              		@ args = 0, pretend = 0, frame = 0
  31              		@ frame_needed = 0, uses_anonymous_args = 0
  32 0000 10B5     		push	{r4, lr}
  33              		.cfi_def_cfa_offset 8
  34              		.cfi_offset 4, -8
  35              		.cfi_offset 14, -4
  38:Generated_Source\PSoC6/AMuxSeq.c ****     AMuxSeq_DisconnectAll();
  36              		.loc 1 38 0
  37 0002 FFF7FEFF 		bl	AMuxSeq_DisconnectAll
  38              	.LVL0:
  39:Generated_Source\PSoC6/AMuxSeq.c ****     AMuxSeq_initVar = 1u;
  39              		.loc 1 39 0
  40 0006 0122     		movs	r2, #1
  41 0008 014B     		ldr	r3, .L2
  42 000a 1A70     		strb	r2, [r3]
  40:Generated_Source\PSoC6/AMuxSeq.c **** }
  43              		.loc 1 40 0
  44              		@ sp needed
  45 000c 10BD     		pop	{r4, pc}
  46              	.L3:
  47 000e C046     		.align	2
  48              	.L2:
  49 0010 00000000 		.word	.LANCHOR0
  50              		.cfi_endproc
  51              	.LFE45:
  52              		.size	AMuxSeq_Start, .-AMuxSeq_Start
  53              		.section	.text.AMuxSeq_Init,"ax",%progbits
  54              		.align	2
  55              		.global	AMuxSeq_Init
  56              		.code	16
  57              		.thumb_func
  58              		.type	AMuxSeq_Init, %function
  59              	AMuxSeq_Init:
  60              	.LFB46:
  41:Generated_Source\PSoC6/AMuxSeq.c **** 
  42:Generated_Source\PSoC6/AMuxSeq.c **** 
  43:Generated_Source\PSoC6/AMuxSeq.c **** /*******************************************************************************
  44:Generated_Source\PSoC6/AMuxSeq.c **** * Function Name: AMuxSeq_Init
  45:Generated_Source\PSoC6/AMuxSeq.c **** ********************************************************************************
  46:Generated_Source\PSoC6/AMuxSeq.c **** * Summary:
  47:Generated_Source\PSoC6/AMuxSeq.c **** *  Disconnect all channels. The next time Next is called, channel 0 will be
  48:Generated_Source\PSoC6/AMuxSeq.c **** *  connected.
  49:Generated_Source\PSoC6/AMuxSeq.c **** *
  50:Generated_Source\PSoC6/AMuxSeq.c **** * Parameters:
  51:Generated_Source\PSoC6/AMuxSeq.c **** *  void
  52:Generated_Source\PSoC6/AMuxSeq.c **** *
  53:Generated_Source\PSoC6/AMuxSeq.c **** * Return:
  54:Generated_Source\PSoC6/AMuxSeq.c **** *  void
ARM GAS  C:\Users\stijn\AppData\Local\Temp\ccTi8xqa.s 			page 3


  55:Generated_Source\PSoC6/AMuxSeq.c **** *
  56:Generated_Source\PSoC6/AMuxSeq.c **** *******************************************************************************/
  57:Generated_Source\PSoC6/AMuxSeq.c **** void AMuxSeq_Init(void)
  58:Generated_Source\PSoC6/AMuxSeq.c **** {
  61              		.loc 1 58 0
  62              		.cfi_startproc
  63              		@ args = 0, pretend = 0, frame = 0
  64              		@ frame_needed = 0, uses_anonymous_args = 0
  65 0000 10B5     		push	{r4, lr}
  66              		.cfi_def_cfa_offset 8
  67              		.cfi_offset 4, -8
  68              		.cfi_offset 14, -4
  59:Generated_Source\PSoC6/AMuxSeq.c ****     AMuxSeq_DisconnectAll();
  69              		.loc 1 59 0
  70 0002 FFF7FEFF 		bl	AMuxSeq_DisconnectAll
  71              	.LVL1:
  60:Generated_Source\PSoC6/AMuxSeq.c **** }
  72              		.loc 1 60 0
  73              		@ sp needed
  74 0006 10BD     		pop	{r4, pc}
  75              		.cfi_endproc
  76              	.LFE46:
  77              		.size	AMuxSeq_Init, .-AMuxSeq_Init
  78              		.section	.text.AMuxSeq_Stop,"ax",%progbits
  79              		.align	2
  80              		.global	AMuxSeq_Stop
  81              		.code	16
  82              		.thumb_func
  83              		.type	AMuxSeq_Stop, %function
  84              	AMuxSeq_Stop:
  85              	.LFB47:
  61:Generated_Source\PSoC6/AMuxSeq.c **** 
  62:Generated_Source\PSoC6/AMuxSeq.c **** 
  63:Generated_Source\PSoC6/AMuxSeq.c **** /*******************************************************************************
  64:Generated_Source\PSoC6/AMuxSeq.c **** * Function Name: AMuxSeq_Stop
  65:Generated_Source\PSoC6/AMuxSeq.c **** ********************************************************************************
  66:Generated_Source\PSoC6/AMuxSeq.c **** * Summary:
  67:Generated_Source\PSoC6/AMuxSeq.c **** *  Disconnect all channels. The next time Next is called, channel 0 will be
  68:Generated_Source\PSoC6/AMuxSeq.c **** *  connected.
  69:Generated_Source\PSoC6/AMuxSeq.c **** *
  70:Generated_Source\PSoC6/AMuxSeq.c **** * Parameters:
  71:Generated_Source\PSoC6/AMuxSeq.c **** *  void
  72:Generated_Source\PSoC6/AMuxSeq.c **** *
  73:Generated_Source\PSoC6/AMuxSeq.c **** * Return:
  74:Generated_Source\PSoC6/AMuxSeq.c **** *  void
  75:Generated_Source\PSoC6/AMuxSeq.c **** *
  76:Generated_Source\PSoC6/AMuxSeq.c **** *******************************************************************************/
  77:Generated_Source\PSoC6/AMuxSeq.c **** void AMuxSeq_Stop(void)
  78:Generated_Source\PSoC6/AMuxSeq.c **** {
  86              		.loc 1 78 0
  87              		.cfi_startproc
  88              		@ args = 0, pretend = 0, frame = 0
  89              		@ frame_needed = 0, uses_anonymous_args = 0
  90 0000 10B5     		push	{r4, lr}
  91              		.cfi_def_cfa_offset 8
  92              		.cfi_offset 4, -8
  93              		.cfi_offset 14, -4
ARM GAS  C:\Users\stijn\AppData\Local\Temp\ccTi8xqa.s 			page 4


  79:Generated_Source\PSoC6/AMuxSeq.c ****     AMuxSeq_DisconnectAll();
  94              		.loc 1 79 0
  95 0002 FFF7FEFF 		bl	AMuxSeq_DisconnectAll
  96              	.LVL2:
  80:Generated_Source\PSoC6/AMuxSeq.c **** }
  97              		.loc 1 80 0
  98              		@ sp needed
  99 0006 10BD     		pop	{r4, pc}
 100              		.cfi_endproc
 101              	.LFE47:
 102              		.size	AMuxSeq_Stop, .-AMuxSeq_Stop
 103              		.section	.text.AMuxSeq_GetChannel,"ax",%progbits
 104              		.align	2
 105              		.global	AMuxSeq_GetChannel
 106              		.code	16
 107              		.thumb_func
 108              		.type	AMuxSeq_GetChannel, %function
 109              	AMuxSeq_GetChannel:
 110              	.LFB48:
  81:Generated_Source\PSoC6/AMuxSeq.c **** 
  82:Generated_Source\PSoC6/AMuxSeq.c **** #if (AMuxSeq_MUXTYPE == AMuxSeq_MUX_DIFF)
  83:Generated_Source\PSoC6/AMuxSeq.c **** 
  84:Generated_Source\PSoC6/AMuxSeq.c **** /*******************************************************************************
  85:Generated_Source\PSoC6/AMuxSeq.c **** * Function Name: AMuxSeq_Next
  86:Generated_Source\PSoC6/AMuxSeq.c **** ********************************************************************************
  87:Generated_Source\PSoC6/AMuxSeq.c **** * Summary:
  88:Generated_Source\PSoC6/AMuxSeq.c **** *  Disconnects the previous channel and connects the next one in the sequence.
  89:Generated_Source\PSoC6/AMuxSeq.c **** *  When Next is called for the first time after Init, Start, Enable, Stop, or
  90:Generated_Source\PSoC6/AMuxSeq.c **** *  DisconnectAll, it connects channel 0.
  91:Generated_Source\PSoC6/AMuxSeq.c **** *
  92:Generated_Source\PSoC6/AMuxSeq.c **** * Parameters:
  93:Generated_Source\PSoC6/AMuxSeq.c **** *  void
  94:Generated_Source\PSoC6/AMuxSeq.c **** *
  95:Generated_Source\PSoC6/AMuxSeq.c **** * Return:
  96:Generated_Source\PSoC6/AMuxSeq.c **** *  void
  97:Generated_Source\PSoC6/AMuxSeq.c **** *
  98:Generated_Source\PSoC6/AMuxSeq.c **** *******************************************************************************/
  99:Generated_Source\PSoC6/AMuxSeq.c **** void AMuxSeq_Next(void)
 100:Generated_Source\PSoC6/AMuxSeq.c **** {
 101:Generated_Source\PSoC6/AMuxSeq.c ****     AMuxSeq_CYAMUXSIDE_A_Next();
 102:Generated_Source\PSoC6/AMuxSeq.c ****     AMuxSeq_CYAMUXSIDE_B_Next();
 103:Generated_Source\PSoC6/AMuxSeq.c **** }
 104:Generated_Source\PSoC6/AMuxSeq.c **** 
 105:Generated_Source\PSoC6/AMuxSeq.c **** 
 106:Generated_Source\PSoC6/AMuxSeq.c **** /*******************************************************************************
 107:Generated_Source\PSoC6/AMuxSeq.c **** * Function Name: AMuxSeq_DisconnectAll
 108:Generated_Source\PSoC6/AMuxSeq.c **** ********************************************************************************
 109:Generated_Source\PSoC6/AMuxSeq.c **** * Summary:
 110:Generated_Source\PSoC6/AMuxSeq.c **** *  This function disconnects all channels. The next time Next is called, channel
 111:Generated_Source\PSoC6/AMuxSeq.c **** *  0 will be connected.
 112:Generated_Source\PSoC6/AMuxSeq.c **** *
 113:Generated_Source\PSoC6/AMuxSeq.c **** * Parameters:
 114:Generated_Source\PSoC6/AMuxSeq.c **** *  void
 115:Generated_Source\PSoC6/AMuxSeq.c **** *
 116:Generated_Source\PSoC6/AMuxSeq.c **** * Return:
 117:Generated_Source\PSoC6/AMuxSeq.c **** *  void
 118:Generated_Source\PSoC6/AMuxSeq.c **** *
ARM GAS  C:\Users\stijn\AppData\Local\Temp\ccTi8xqa.s 			page 5


 119:Generated_Source\PSoC6/AMuxSeq.c **** *******************************************************************************/
 120:Generated_Source\PSoC6/AMuxSeq.c **** void AMuxSeq_DisconnectAll(void)
 121:Generated_Source\PSoC6/AMuxSeq.c **** {
 122:Generated_Source\PSoC6/AMuxSeq.c ****     AMuxSeq_CYAMUXSIDE_A_DisconnectAll();
 123:Generated_Source\PSoC6/AMuxSeq.c ****     AMuxSeq_CYAMUXSIDE_B_DisconnectAll();
 124:Generated_Source\PSoC6/AMuxSeq.c **** }
 125:Generated_Source\PSoC6/AMuxSeq.c **** 
 126:Generated_Source\PSoC6/AMuxSeq.c **** 
 127:Generated_Source\PSoC6/AMuxSeq.c **** /*******************************************************************************
 128:Generated_Source\PSoC6/AMuxSeq.c **** * Function Name: AMuxSeq_GetChannel
 129:Generated_Source\PSoC6/AMuxSeq.c **** ********************************************************************************
 130:Generated_Source\PSoC6/AMuxSeq.c **** * Summary:
 131:Generated_Source\PSoC6/AMuxSeq.c **** *  The currently connected channel is retuned. If no channel is connected
 132:Generated_Source\PSoC6/AMuxSeq.c **** *  returns -1.
 133:Generated_Source\PSoC6/AMuxSeq.c **** *
 134:Generated_Source\PSoC6/AMuxSeq.c **** * Parameters:
 135:Generated_Source\PSoC6/AMuxSeq.c **** *  void
 136:Generated_Source\PSoC6/AMuxSeq.c **** *
 137:Generated_Source\PSoC6/AMuxSeq.c **** * Return:
 138:Generated_Source\PSoC6/AMuxSeq.c **** *  The current channel or -1.
 139:Generated_Source\PSoC6/AMuxSeq.c **** *
 140:Generated_Source\PSoC6/AMuxSeq.c **** *******************************************************************************/
 141:Generated_Source\PSoC6/AMuxSeq.c **** int8 AMuxSeq_GetChannel(void)
 142:Generated_Source\PSoC6/AMuxSeq.c **** {
 143:Generated_Source\PSoC6/AMuxSeq.c ****     return AMuxSeq_CYAMUXSIDE_A_curChannel;
 144:Generated_Source\PSoC6/AMuxSeq.c **** }
 145:Generated_Source\PSoC6/AMuxSeq.c **** 
 146:Generated_Source\PSoC6/AMuxSeq.c **** #else
 147:Generated_Source\PSoC6/AMuxSeq.c **** 
 148:Generated_Source\PSoC6/AMuxSeq.c **** /*******************************************************************************
 149:Generated_Source\PSoC6/AMuxSeq.c **** * Function Name: AMuxSeq_GetChannel
 150:Generated_Source\PSoC6/AMuxSeq.c **** ********************************************************************************
 151:Generated_Source\PSoC6/AMuxSeq.c **** * Summary:
 152:Generated_Source\PSoC6/AMuxSeq.c **** *  The currently connected channel is retuned. If no channel is connected
 153:Generated_Source\PSoC6/AMuxSeq.c **** *  returns -1.
 154:Generated_Source\PSoC6/AMuxSeq.c **** *
 155:Generated_Source\PSoC6/AMuxSeq.c **** * Parameters:
 156:Generated_Source\PSoC6/AMuxSeq.c **** *  void
 157:Generated_Source\PSoC6/AMuxSeq.c **** *
 158:Generated_Source\PSoC6/AMuxSeq.c **** * Return:
 159:Generated_Source\PSoC6/AMuxSeq.c **** *  The current channel or -1.
 160:Generated_Source\PSoC6/AMuxSeq.c **** *
 161:Generated_Source\PSoC6/AMuxSeq.c **** *******************************************************************************/
 162:Generated_Source\PSoC6/AMuxSeq.c **** int8 AMuxSeq_GetChannel(void)
 163:Generated_Source\PSoC6/AMuxSeq.c **** {
 111              		.loc 1 163 0
 112              		.cfi_startproc
 113              		@ args = 0, pretend = 0, frame = 0
 114              		@ frame_needed = 0, uses_anonymous_args = 0
 115              		@ link register save eliminated.
 164:Generated_Source\PSoC6/AMuxSeq.c ****     return AMuxSeq_curChannel;
 116              		.loc 1 164 0
 117 0000 014B     		ldr	r3, .L7
 118 0002 0020     		movs	r0, #0
 119 0004 1856     		ldrsb	r0, [r3, r0]
 165:Generated_Source\PSoC6/AMuxSeq.c **** }
 120              		.loc 1 165 0
ARM GAS  C:\Users\stijn\AppData\Local\Temp\ccTi8xqa.s 			page 6


 121              		@ sp needed
 122 0006 7047     		bx	lr
 123              	.L8:
 124              		.align	2
 125              	.L7:
 126 0008 00000000 		.word	AMuxSeq_curChannel
 127              		.cfi_endproc
 128              	.LFE48:
 129              		.size	AMuxSeq_GetChannel, .-AMuxSeq_GetChannel
 130              		.global	AMuxSeq_initVar
 131              		.bss
 132              		.set	.LANCHOR0,. + 0
 133              		.type	AMuxSeq_initVar, %object
 134              		.size	AMuxSeq_initVar, 1
 135              	AMuxSeq_initVar:
 136 0000 00       		.space	1
 137              		.text
 138              	.Letext0:
 139              		.file 2 "c:\\program files (x86)\\cypress\\psoc creator\\4.2\\psoc creator\\import\\gnu\\arm\\5.4.
 140              		.file 3 "c:\\program files (x86)\\cypress\\psoc creator\\4.2\\psoc creator\\import\\gnu\\arm\\5.4.
 141              		.file 4 "Generated_Source\\PSoC6\\pdl\\drivers/peripheral/syslib/cy_syslib.h"
 142              		.file 5 "Generated_Source\\PSoC6\\cyfitter_cfg.h"