ARM GAS  C:\Users\stijn\AppData\Local\Temp\ccD67Zpt.s 			page 1


   1              		.syntax unified
   2              		.cpu cortex-m4
   3              		.eabi_attribute 27, 1
   4              		.fpu fpv4-sp-d16
   5              		.eabi_attribute 20, 1
   6              		.eabi_attribute 21, 1
   7              		.eabi_attribute 23, 3
   8              		.eabi_attribute 24, 1
   9              		.eabi_attribute 25, 1
  10              		.eabi_attribute 26, 1
  11              		.eabi_attribute 30, 1
  12              		.eabi_attribute 34, 1
  13              		.eabi_attribute 18, 4
  14              		.thumb
  15              		.syntax unified
  16              		.file	"AMuxSeq.c"
  17              		.text
  18              	.Ltext0:
  19              		.cfi_sections	.debug_frame
  20              		.section	.text.AMuxSeq_Start,"ax",%progbits
  21              		.align	2
  22              		.global	AMuxSeq_Start
  23              		.thumb
  24              		.thumb_func
  25              		.type	AMuxSeq_Start, %function
  26              	AMuxSeq_Start:
  27              	.LFB132:
  28              		.file 1 "Generated_Source\\PSoC6\\AMuxSeq.c"
   1:Generated_Source\PSoC6/AMuxSeq.c **** /*******************************************************************************
   2:Generated_Source\PSoC6/AMuxSeq.c **** * File Name: AMuxSeq.c
   3:Generated_Source\PSoC6/AMuxSeq.c **** * Version 1.80
   4:Generated_Source\PSoC6/AMuxSeq.c **** *
   5:Generated_Source\PSoC6/AMuxSeq.c **** *  Description:
   6:Generated_Source\PSoC6/AMuxSeq.c **** *    This file contains functions for the AMuxSeq.
   7:Generated_Source\PSoC6/AMuxSeq.c **** *
   8:Generated_Source\PSoC6/AMuxSeq.c **** *   Note:
   9:Generated_Source\PSoC6/AMuxSeq.c **** *
  10:Generated_Source\PSoC6/AMuxSeq.c **** *******************************************************************************
  11:Generated_Source\PSoC6/AMuxSeq.c **** * Copyright 2008-2010, Cypress Semiconductor Corporation.  All rights reserved.
  12:Generated_Source\PSoC6/AMuxSeq.c **** * You may use this file only in accordance with the license, terms, conditions, 
  13:Generated_Source\PSoC6/AMuxSeq.c **** * disclaimers, and limitations in the end user license agreement accompanying 
  14:Generated_Source\PSoC6/AMuxSeq.c **** * the software package with which this file was provided.
  15:Generated_Source\PSoC6/AMuxSeq.c **** ********************************************************************************/
  16:Generated_Source\PSoC6/AMuxSeq.c **** 
  17:Generated_Source\PSoC6/AMuxSeq.c **** #include "AMuxSeq.h"
  18:Generated_Source\PSoC6/AMuxSeq.c **** 
  19:Generated_Source\PSoC6/AMuxSeq.c **** uint8 AMuxSeq_initVar = 0u;
  20:Generated_Source\PSoC6/AMuxSeq.c **** 
  21:Generated_Source\PSoC6/AMuxSeq.c **** 
  22:Generated_Source\PSoC6/AMuxSeq.c **** /*******************************************************************************
  23:Generated_Source\PSoC6/AMuxSeq.c **** * Function Name: AMuxSeq_Start
  24:Generated_Source\PSoC6/AMuxSeq.c **** ********************************************************************************
  25:Generated_Source\PSoC6/AMuxSeq.c **** * Summary:
  26:Generated_Source\PSoC6/AMuxSeq.c **** *  Disconnect all channels. The next time Next is called, channel 0 will be
  27:Generated_Source\PSoC6/AMuxSeq.c **** *  connected.
  28:Generated_Source\PSoC6/AMuxSeq.c **** *
  29:Generated_Source\PSoC6/AMuxSeq.c **** * Parameters:
ARM GAS  C:\Users\stijn\AppData\Local\Temp\ccD67Zpt.s 			page 2


  30:Generated_Source\PSoC6/AMuxSeq.c **** *  void
  31:Generated_Source\PSoC6/AMuxSeq.c **** *
  32:Generated_Source\PSoC6/AMuxSeq.c **** * Return:
  33:Generated_Source\PSoC6/AMuxSeq.c **** *  void
  34:Generated_Source\PSoC6/AMuxSeq.c **** *
  35:Generated_Source\PSoC6/AMuxSeq.c **** *******************************************************************************/
  36:Generated_Source\PSoC6/AMuxSeq.c **** void AMuxSeq_Start(void)
  37:Generated_Source\PSoC6/AMuxSeq.c **** {
  29              		.loc 1 37 0
  30              		.cfi_startproc
  31              		@ args = 0, pretend = 0, frame = 0
  32              		@ frame_needed = 0, uses_anonymous_args = 0
  33 0000 08B5     		push	{r3, lr}
  34              		.cfi_def_cfa_offset 8
  35              		.cfi_offset 3, -8
  36              		.cfi_offset 14, -4
  38:Generated_Source\PSoC6/AMuxSeq.c ****     AMuxSeq_DisconnectAll();
  37              		.loc 1 38 0
  38 0002 FFF7FEFF 		bl	AMuxSeq_DisconnectAll
  39              	.LVL0:
  39:Generated_Source\PSoC6/AMuxSeq.c ****     AMuxSeq_initVar = 1u;
  40              		.loc 1 39 0
  41 0006 0122     		movs	r2, #1
  42 0008 014B     		ldr	r3, .L3
  43 000a 1A70     		strb	r2, [r3]
  44 000c 08BD     		pop	{r3, pc}
  45              	.L4:
  46 000e 00BF     		.align	2
  47              	.L3:
  48 0010 00000000 		.word	.LANCHOR0
  49              		.cfi_endproc
  50              	.LFE132:
  51              		.size	AMuxSeq_Start, .-AMuxSeq_Start
  52              		.section	.text.AMuxSeq_Init,"ax",%progbits
  53              		.align	2
  54              		.global	AMuxSeq_Init
  55              		.thumb
  56              		.thumb_func
  57              		.type	AMuxSeq_Init, %function
  58              	AMuxSeq_Init:
  59              	.LFB133:
  40:Generated_Source\PSoC6/AMuxSeq.c **** }
  41:Generated_Source\PSoC6/AMuxSeq.c **** 
  42:Generated_Source\PSoC6/AMuxSeq.c **** 
  43:Generated_Source\PSoC6/AMuxSeq.c **** /*******************************************************************************
  44:Generated_Source\PSoC6/AMuxSeq.c **** * Function Name: AMuxSeq_Init
  45:Generated_Source\PSoC6/AMuxSeq.c **** ********************************************************************************
  46:Generated_Source\PSoC6/AMuxSeq.c **** * Summary:
  47:Generated_Source\PSoC6/AMuxSeq.c **** *  Disconnect all channels. The next time Next is called, channel 0 will be
  48:Generated_Source\PSoC6/AMuxSeq.c **** *  connected.
  49:Generated_Source\PSoC6/AMuxSeq.c **** *
  50:Generated_Source\PSoC6/AMuxSeq.c **** * Parameters:
  51:Generated_Source\PSoC6/AMuxSeq.c **** *  void
  52:Generated_Source\PSoC6/AMuxSeq.c **** *
  53:Generated_Source\PSoC6/AMuxSeq.c **** * Return:
  54:Generated_Source\PSoC6/AMuxSeq.c **** *  void
  55:Generated_Source\PSoC6/AMuxSeq.c **** *
ARM GAS  C:\Users\stijn\AppData\Local\Temp\ccD67Zpt.s 			page 3


  56:Generated_Source\PSoC6/AMuxSeq.c **** *******************************************************************************/
  57:Generated_Source\PSoC6/AMuxSeq.c **** void AMuxSeq_Init(void)
  58:Generated_Source\PSoC6/AMuxSeq.c **** {
  60              		.loc 1 58 0
  61              		.cfi_startproc
  62              		@ args = 0, pretend = 0, frame = 0
  63              		@ frame_needed = 0, uses_anonymous_args = 0
  64 0000 08B5     		push	{r3, lr}
  65              		.cfi_def_cfa_offset 8
  66              		.cfi_offset 3, -8
  67              		.cfi_offset 14, -4
  59:Generated_Source\PSoC6/AMuxSeq.c ****     AMuxSeq_DisconnectAll();
  68              		.loc 1 59 0
  69 0002 FFF7FEFF 		bl	AMuxSeq_DisconnectAll
  70              	.LVL1:
  71 0006 08BD     		pop	{r3, pc}
  72              		.cfi_endproc
  73              	.LFE133:
  74              		.size	AMuxSeq_Init, .-AMuxSeq_Init
  75              		.section	.text.AMuxSeq_Stop,"ax",%progbits
  76              		.align	2
  77              		.global	AMuxSeq_Stop
  78              		.thumb
  79              		.thumb_func
  80              		.type	AMuxSeq_Stop, %function
  81              	AMuxSeq_Stop:
  82              	.LFB134:
  60:Generated_Source\PSoC6/AMuxSeq.c **** }
  61:Generated_Source\PSoC6/AMuxSeq.c **** 
  62:Generated_Source\PSoC6/AMuxSeq.c **** 
  63:Generated_Source\PSoC6/AMuxSeq.c **** /*******************************************************************************
  64:Generated_Source\PSoC6/AMuxSeq.c **** * Function Name: AMuxSeq_Stop
  65:Generated_Source\PSoC6/AMuxSeq.c **** ********************************************************************************
  66:Generated_Source\PSoC6/AMuxSeq.c **** * Summary:
  67:Generated_Source\PSoC6/AMuxSeq.c **** *  Disconnect all channels. The next time Next is called, channel 0 will be
  68:Generated_Source\PSoC6/AMuxSeq.c **** *  connected.
  69:Generated_Source\PSoC6/AMuxSeq.c **** *
  70:Generated_Source\PSoC6/AMuxSeq.c **** * Parameters:
  71:Generated_Source\PSoC6/AMuxSeq.c **** *  void
  72:Generated_Source\PSoC6/AMuxSeq.c **** *
  73:Generated_Source\PSoC6/AMuxSeq.c **** * Return:
  74:Generated_Source\PSoC6/AMuxSeq.c **** *  void
  75:Generated_Source\PSoC6/AMuxSeq.c **** *
  76:Generated_Source\PSoC6/AMuxSeq.c **** *******************************************************************************/
  77:Generated_Source\PSoC6/AMuxSeq.c **** void AMuxSeq_Stop(void)
  78:Generated_Source\PSoC6/AMuxSeq.c **** {
  83              		.loc 1 78 0
  84              		.cfi_startproc
  85              		@ args = 0, pretend = 0, frame = 0
  86              		@ frame_needed = 0, uses_anonymous_args = 0
  87 0000 08B5     		push	{r3, lr}
  88              		.cfi_def_cfa_offset 8
  89              		.cfi_offset 3, -8
  90              		.cfi_offset 14, -4
  79:Generated_Source\PSoC6/AMuxSeq.c ****     AMuxSeq_DisconnectAll();
  91              		.loc 1 79 0
  92 0002 FFF7FEFF 		bl	AMuxSeq_DisconnectAll
ARM GAS  C:\Users\stijn\AppData\Local\Temp\ccD67Zpt.s 			page 4


  93              	.LVL2:
  94 0006 08BD     		pop	{r3, pc}
  95              		.cfi_endproc
  96              	.LFE134:
  97              		.size	AMuxSeq_Stop, .-AMuxSeq_Stop
  98              		.section	.text.AMuxSeq_GetChannel,"ax",%progbits
  99              		.align	2
 100              		.global	AMuxSeq_GetChannel
 101              		.thumb
 102              		.thumb_func
 103              		.type	AMuxSeq_GetChannel, %function
 104              	AMuxSeq_GetChannel:
 105              	.LFB135:
  80:Generated_Source\PSoC6/AMuxSeq.c **** }
  81:Generated_Source\PSoC6/AMuxSeq.c **** 
  82:Generated_Source\PSoC6/AMuxSeq.c **** #if (AMuxSeq_MUXTYPE == AMuxSeq_MUX_DIFF)
  83:Generated_Source\PSoC6/AMuxSeq.c **** 
  84:Generated_Source\PSoC6/AMuxSeq.c **** /*******************************************************************************
  85:Generated_Source\PSoC6/AMuxSeq.c **** * Function Name: AMuxSeq_Next
  86:Generated_Source\PSoC6/AMuxSeq.c **** ********************************************************************************
  87:Generated_Source\PSoC6/AMuxSeq.c **** * Summary:
  88:Generated_Source\PSoC6/AMuxSeq.c **** *  Disconnects the previous channel and connects the next one in the sequence.
  89:Generated_Source\PSoC6/AMuxSeq.c **** *  When Next is called for the first time after Init, Start, Enable, Stop, or
  90:Generated_Source\PSoC6/AMuxSeq.c **** *  DisconnectAll, it connects channel 0.
  91:Generated_Source\PSoC6/AMuxSeq.c **** *
  92:Generated_Source\PSoC6/AMuxSeq.c **** * Parameters:
  93:Generated_Source\PSoC6/AMuxSeq.c **** *  void
  94:Generated_Source\PSoC6/AMuxSeq.c **** *
  95:Generated_Source\PSoC6/AMuxSeq.c **** * Return:
  96:Generated_Source\PSoC6/AMuxSeq.c **** *  void
  97:Generated_Source\PSoC6/AMuxSeq.c **** *
  98:Generated_Source\PSoC6/AMuxSeq.c **** *******************************************************************************/
  99:Generated_Source\PSoC6/AMuxSeq.c **** void AMuxSeq_Next(void)
 100:Generated_Source\PSoC6/AMuxSeq.c **** {
 101:Generated_Source\PSoC6/AMuxSeq.c ****     AMuxSeq_CYAMUXSIDE_A_Next();
 102:Generated_Source\PSoC6/AMuxSeq.c ****     AMuxSeq_CYAMUXSIDE_B_Next();
 103:Generated_Source\PSoC6/AMuxSeq.c **** }
 104:Generated_Source\PSoC6/AMuxSeq.c **** 
 105:Generated_Source\PSoC6/AMuxSeq.c **** 
 106:Generated_Source\PSoC6/AMuxSeq.c **** /*******************************************************************************
 107:Generated_Source\PSoC6/AMuxSeq.c **** * Function Name: AMuxSeq_DisconnectAll
 108:Generated_Source\PSoC6/AMuxSeq.c **** ********************************************************************************
 109:Generated_Source\PSoC6/AMuxSeq.c **** * Summary:
 110:Generated_Source\PSoC6/AMuxSeq.c **** *  This function disconnects all channels. The next time Next is called, channel
 111:Generated_Source\PSoC6/AMuxSeq.c **** *  0 will be connected.
 112:Generated_Source\PSoC6/AMuxSeq.c **** *
 113:Generated_Source\PSoC6/AMuxSeq.c **** * Parameters:
 114:Generated_Source\PSoC6/AMuxSeq.c **** *  void
 115:Generated_Source\PSoC6/AMuxSeq.c **** *
 116:Generated_Source\PSoC6/AMuxSeq.c **** * Return:
 117:Generated_Source\PSoC6/AMuxSeq.c **** *  void
 118:Generated_Source\PSoC6/AMuxSeq.c **** *
 119:Generated_Source\PSoC6/AMuxSeq.c **** *******************************************************************************/
 120:Generated_Source\PSoC6/AMuxSeq.c **** void AMuxSeq_DisconnectAll(void)
 121:Generated_Source\PSoC6/AMuxSeq.c **** {
 122:Generated_Source\PSoC6/AMuxSeq.c ****     AMuxSeq_CYAMUXSIDE_A_DisconnectAll();
 123:Generated_Source\PSoC6/AMuxSeq.c ****     AMuxSeq_CYAMUXSIDE_B_DisconnectAll();
ARM GAS  C:\Users\stijn\AppData\Local\Temp\ccD67Zpt.s 			page 5


 124:Generated_Source\PSoC6/AMuxSeq.c **** }
 125:Generated_Source\PSoC6/AMuxSeq.c **** 
 126:Generated_Source\PSoC6/AMuxSeq.c **** 
 127:Generated_Source\PSoC6/AMuxSeq.c **** /*******************************************************************************
 128:Generated_Source\PSoC6/AMuxSeq.c **** * Function Name: AMuxSeq_GetChannel
 129:Generated_Source\PSoC6/AMuxSeq.c **** ********************************************************************************
 130:Generated_Source\PSoC6/AMuxSeq.c **** * Summary:
 131:Generated_Source\PSoC6/AMuxSeq.c **** *  The currently connected channel is retuned. If no channel is connected
 132:Generated_Source\PSoC6/AMuxSeq.c **** *  returns -1.
 133:Generated_Source\PSoC6/AMuxSeq.c **** *
 134:Generated_Source\PSoC6/AMuxSeq.c **** * Parameters:
 135:Generated_Source\PSoC6/AMuxSeq.c **** *  void
 136:Generated_Source\PSoC6/AMuxSeq.c **** *
 137:Generated_Source\PSoC6/AMuxSeq.c **** * Return:
 138:Generated_Source\PSoC6/AMuxSeq.c **** *  The current channel or -1.
 139:Generated_Source\PSoC6/AMuxSeq.c **** *
 140:Generated_Source\PSoC6/AMuxSeq.c **** *******************************************************************************/
 141:Generated_Source\PSoC6/AMuxSeq.c **** int8 AMuxSeq_GetChannel(void)
 142:Generated_Source\PSoC6/AMuxSeq.c **** {
 143:Generated_Source\PSoC6/AMuxSeq.c ****     return AMuxSeq_CYAMUXSIDE_A_curChannel;
 144:Generated_Source\PSoC6/AMuxSeq.c **** }
 145:Generated_Source\PSoC6/AMuxSeq.c **** 
 146:Generated_Source\PSoC6/AMuxSeq.c **** #else
 147:Generated_Source\PSoC6/AMuxSeq.c **** 
 148:Generated_Source\PSoC6/AMuxSeq.c **** /*******************************************************************************
 149:Generated_Source\PSoC6/AMuxSeq.c **** * Function Name: AMuxSeq_GetChannel
 150:Generated_Source\PSoC6/AMuxSeq.c **** ********************************************************************************
 151:Generated_Source\PSoC6/AMuxSeq.c **** * Summary:
 152:Generated_Source\PSoC6/AMuxSeq.c **** *  The currently connected channel is retuned. If no channel is connected
 153:Generated_Source\PSoC6/AMuxSeq.c **** *  returns -1.
 154:Generated_Source\PSoC6/AMuxSeq.c **** *
 155:Generated_Source\PSoC6/AMuxSeq.c **** * Parameters:
 156:Generated_Source\PSoC6/AMuxSeq.c **** *  void
 157:Generated_Source\PSoC6/AMuxSeq.c **** *
 158:Generated_Source\PSoC6/AMuxSeq.c **** * Return:
 159:Generated_Source\PSoC6/AMuxSeq.c **** *  The current channel or -1.
 160:Generated_Source\PSoC6/AMuxSeq.c **** *
 161:Generated_Source\PSoC6/AMuxSeq.c **** *******************************************************************************/
 162:Generated_Source\PSoC6/AMuxSeq.c **** int8 AMuxSeq_GetChannel(void)
 163:Generated_Source\PSoC6/AMuxSeq.c **** {
 106              		.loc 1 163 0
 107              		.cfi_startproc
 108              		@ args = 0, pretend = 0, frame = 0
 109              		@ frame_needed = 0, uses_anonymous_args = 0
 110              		@ link register save eliminated.
 164:Generated_Source\PSoC6/AMuxSeq.c ****     return AMuxSeq_curChannel;
 165:Generated_Source\PSoC6/AMuxSeq.c **** }
 111              		.loc 1 165 0
 112 0000 014B     		ldr	r3, .L10
 113 0002 93F90000 		ldrsb	r0, [r3]
 114 0006 7047     		bx	lr
 115              	.L11:
 116              		.align	2
 117              	.L10:
 118 0008 00000000 		.word	AMuxSeq_curChannel
 119              		.cfi_endproc
 120              	.LFE135:
ARM GAS  C:\Users\stijn\AppData\Local\Temp\ccD67Zpt.s 			page 6


 121              		.size	AMuxSeq_GetChannel, .-AMuxSeq_GetChannel
 122              		.global	AMuxSeq_initVar
 123              		.bss
 124              		.set	.LANCHOR0,. + 0
 125              		.type	AMuxSeq_initVar, %object
 126              		.size	AMuxSeq_initVar, 1
 127              	AMuxSeq_initVar:
 128 0000 00       		.space	1
 129              		.text
 130              	.Letext0:
 131              		.file 2 "c:\\program files (x86)\\cypress\\psoc creator\\4.2\\psoc creator\\import\\gnu\\arm\\5.4.
 132              		.file 3 "c:\\program files (x86)\\cypress\\psoc creator\\4.2\\psoc creator\\import\\gnu\\arm\\5.4.
 133              		.file 4 "Generated_Source\\PSoC6\\pdl\\drivers/peripheral/syslib/cy_syslib.h"
 134              		.file 5 "Generated_Source\\PSoC6\\pdl\\cmsis/include/core_cm4.h"
 135              		.file 6 "Generated_Source\\PSoC6\\cyfitter_cfg.h"