ARM GAS  C:\Users\stijn\AppData\Local\Temp\ccF4CHCG.s 			page 1


   1              		.syntax unified
   2              		.cpu cortex-m4
   3              		.eabi_attribute 27, 1
   4              		.fpu fpv4-sp-d16
   5              		.eabi_attribute 20, 1
   6              		.eabi_attribute 21, 1
   7              		.eabi_attribute 23, 3
   8              		.eabi_attribute 24, 1
   9              		.eabi_attribute 25, 1
  10              		.eabi_attribute 26, 1
  11              		.eabi_attribute 30, 6
  12              		.eabi_attribute 34, 1
  13              		.eabi_attribute 18, 4
  14              		.thumb
  15              		.syntax unified
  16              		.file	"AMuxCtrl.c"
  17              		.text
  18              	.Ltext0:
  19              		.cfi_sections	.debug_frame
  20              		.section	.text.AMuxCtrl_Write,"ax",%progbits
  21              		.align	2
  22              		.global	AMuxCtrl_Write
  23              		.thumb
  24              		.thumb_func
  25              		.type	AMuxCtrl_Write, %function
  26              	AMuxCtrl_Write:
  27              	.LFB132:
  28              		.file 1 "Generated_Source\\PSoC6\\AMuxCtrl.c"
   1:Generated_Source\PSoC6/AMuxCtrl.c **** /*******************************************************************************
   2:Generated_Source\PSoC6/AMuxCtrl.c **** * File Name: AMuxCtrl.c  
   3:Generated_Source\PSoC6/AMuxCtrl.c **** * Version 1.80
   4:Generated_Source\PSoC6/AMuxCtrl.c **** *
   5:Generated_Source\PSoC6/AMuxCtrl.c **** * Description:
   6:Generated_Source\PSoC6/AMuxCtrl.c **** *  This file contains API to enable firmware control of a Control Register.
   7:Generated_Source\PSoC6/AMuxCtrl.c **** *
   8:Generated_Source\PSoC6/AMuxCtrl.c **** * Note:
   9:Generated_Source\PSoC6/AMuxCtrl.c **** *
  10:Generated_Source\PSoC6/AMuxCtrl.c **** ********************************************************************************
  11:Generated_Source\PSoC6/AMuxCtrl.c **** * Copyright 2008-2015, Cypress Semiconductor Corporation.  All rights reserved.
  12:Generated_Source\PSoC6/AMuxCtrl.c **** * You may use this file only in accordance with the license, terms, conditions, 
  13:Generated_Source\PSoC6/AMuxCtrl.c **** * disclaimers, and limitations in the end user license agreement accompanying 
  14:Generated_Source\PSoC6/AMuxCtrl.c **** * the software package with which this file was provided.
  15:Generated_Source\PSoC6/AMuxCtrl.c **** *******************************************************************************/
  16:Generated_Source\PSoC6/AMuxCtrl.c **** 
  17:Generated_Source\PSoC6/AMuxCtrl.c **** #include "AMuxCtrl.h"
  18:Generated_Source\PSoC6/AMuxCtrl.c **** 
  19:Generated_Source\PSoC6/AMuxCtrl.c **** /* Check for removal by optimization */
  20:Generated_Source\PSoC6/AMuxCtrl.c **** #if !defined(AMuxCtrl_Sync_ctrl_reg__REMOVED)
  21:Generated_Source\PSoC6/AMuxCtrl.c **** 
  22:Generated_Source\PSoC6/AMuxCtrl.c ****     
  23:Generated_Source\PSoC6/AMuxCtrl.c **** /*******************************************************************************
  24:Generated_Source\PSoC6/AMuxCtrl.c **** * Function Name: AMuxCtrl_Write
  25:Generated_Source\PSoC6/AMuxCtrl.c **** ********************************************************************************
  26:Generated_Source\PSoC6/AMuxCtrl.c **** *
  27:Generated_Source\PSoC6/AMuxCtrl.c **** * Summary:
  28:Generated_Source\PSoC6/AMuxCtrl.c **** *  Write a byte to the Control Register.
  29:Generated_Source\PSoC6/AMuxCtrl.c **** *
ARM GAS  C:\Users\stijn\AppData\Local\Temp\ccF4CHCG.s 			page 2


  30:Generated_Source\PSoC6/AMuxCtrl.c **** * Parameters:
  31:Generated_Source\PSoC6/AMuxCtrl.c **** *  control:  The value to be assigned to the Control Register.
  32:Generated_Source\PSoC6/AMuxCtrl.c **** *
  33:Generated_Source\PSoC6/AMuxCtrl.c **** * Return:
  34:Generated_Source\PSoC6/AMuxCtrl.c **** *  None.
  35:Generated_Source\PSoC6/AMuxCtrl.c **** *
  36:Generated_Source\PSoC6/AMuxCtrl.c **** *******************************************************************************/
  37:Generated_Source\PSoC6/AMuxCtrl.c **** void AMuxCtrl_Write(uint8 control) 
  38:Generated_Source\PSoC6/AMuxCtrl.c **** {
  29              		.loc 1 38 0
  30              		.cfi_startproc
  31              		@ args = 0, pretend = 0, frame = 8
  32              		@ frame_needed = 1, uses_anonymous_args = 0
  33              		@ link register save eliminated.
  34 0000 80B4     		push	{r7}
  35              		.cfi_def_cfa_offset 4
  36              		.cfi_offset 7, -4
  37 0002 83B0     		sub	sp, sp, #12
  38              		.cfi_def_cfa_offset 16
  39 0004 00AF     		add	r7, sp, #0
  40              		.cfi_def_cfa_register 7
  41 0006 0346     		mov	r3, r0
  42 0008 FB71     		strb	r3, [r7, #7]
  39:Generated_Source\PSoC6/AMuxCtrl.c ****     AMuxCtrl_Control = control;
  43              		.loc 1 39 0
  44 000a 044A     		ldr	r2, .L2
  45 000c FB79     		ldrb	r3, [r7, #7]
  46 000e 1370     		strb	r3, [r2]
  40:Generated_Source\PSoC6/AMuxCtrl.c **** }
  47              		.loc 1 40 0
  48 0010 00BF     		nop
  49 0012 0C37     		adds	r7, r7, #12
  50              		.cfi_def_cfa_offset 4
  51 0014 BD46     		mov	sp, r7
  52              		.cfi_def_cfa_register 13
  53              		@ sp needed
  54 0016 5DF8047B 		ldr	r7, [sp], #4
  55              		.cfi_restore 7
  56              		.cfi_def_cfa_offset 0
  57 001a 7047     		bx	lr
  58              	.L3:
  59              		.align	2
  60              	.L2:
  61 001c 1C173440 		.word	1077155612
  62              		.cfi_endproc
  63              	.LFE132:
  64              		.size	AMuxCtrl_Write, .-AMuxCtrl_Write
  65              		.section	.text.AMuxCtrl_Read,"ax",%progbits
  66              		.align	2
  67              		.global	AMuxCtrl_Read
  68              		.thumb
  69              		.thumb_func
  70              		.type	AMuxCtrl_Read, %function
  71              	AMuxCtrl_Read:
  72              	.LFB133:
  41:Generated_Source\PSoC6/AMuxCtrl.c **** 
  42:Generated_Source\PSoC6/AMuxCtrl.c **** 
ARM GAS  C:\Users\stijn\AppData\Local\Temp\ccF4CHCG.s 			page 3


  43:Generated_Source\PSoC6/AMuxCtrl.c **** /*******************************************************************************
  44:Generated_Source\PSoC6/AMuxCtrl.c **** * Function Name: AMuxCtrl_Read
  45:Generated_Source\PSoC6/AMuxCtrl.c **** ********************************************************************************
  46:Generated_Source\PSoC6/AMuxCtrl.c **** *
  47:Generated_Source\PSoC6/AMuxCtrl.c **** * Summary:
  48:Generated_Source\PSoC6/AMuxCtrl.c **** *  Reads the current value assigned to the Control Register.
  49:Generated_Source\PSoC6/AMuxCtrl.c **** *
  50:Generated_Source\PSoC6/AMuxCtrl.c **** * Parameters:
  51:Generated_Source\PSoC6/AMuxCtrl.c **** *  None.
  52:Generated_Source\PSoC6/AMuxCtrl.c **** *
  53:Generated_Source\PSoC6/AMuxCtrl.c **** * Return:
  54:Generated_Source\PSoC6/AMuxCtrl.c **** *  Returns the current value in the Control Register.
  55:Generated_Source\PSoC6/AMuxCtrl.c **** *
  56:Generated_Source\PSoC6/AMuxCtrl.c **** *******************************************************************************/
  57:Generated_Source\PSoC6/AMuxCtrl.c **** uint8 AMuxCtrl_Read(void) 
  58:Generated_Source\PSoC6/AMuxCtrl.c **** {
  73              		.loc 1 58 0
  74              		.cfi_startproc
  75              		@ args = 0, pretend = 0, frame = 0
  76              		@ frame_needed = 1, uses_anonymous_args = 0
  77              		@ link register save eliminated.
  78 0000 80B4     		push	{r7}
  79              		.cfi_def_cfa_offset 4
  80              		.cfi_offset 7, -4
  81 0002 00AF     		add	r7, sp, #0
  82              		.cfi_def_cfa_register 7
  59:Generated_Source\PSoC6/AMuxCtrl.c ****     return AMuxCtrl_Control;
  83              		.loc 1 59 0
  84 0004 034B     		ldr	r3, .L6
  85 0006 1B78     		ldrb	r3, [r3]
  86 0008 DBB2     		uxtb	r3, r3
  60:Generated_Source\PSoC6/AMuxCtrl.c **** }
  87              		.loc 1 60 0
  88 000a 1846     		mov	r0, r3
  89 000c BD46     		mov	sp, r7
  90              		.cfi_def_cfa_register 13
  91              		@ sp needed
  92 000e 5DF8047B 		ldr	r7, [sp], #4
  93              		.cfi_restore 7
  94              		.cfi_def_cfa_offset 0
  95 0012 7047     		bx	lr
  96              	.L7:
  97              		.align	2
  98              	.L6:
  99 0014 1C173440 		.word	1077155612
 100              		.cfi_endproc
 101              	.LFE133:
 102              		.size	AMuxCtrl_Read, .-AMuxCtrl_Read
 103              		.text
 104              	.Letext0:
 105              		.file 2 "c:\\program files (x86)\\cypress\\psoc creator\\4.2\\psoc creator\\import\\gnu\\arm\\5.4.
 106              		.file 3 "c:\\program files (x86)\\cypress\\psoc creator\\4.2\\psoc creator\\import\\gnu\\arm\\5.4.
 107              		.file 4 "Generated_Source\\PSoC6\\pdl\\drivers/peripheral/syslib/cy_syslib.h"
 108              		.file 5 "Generated_Source\\PSoC6\\pdl\\cmsis/include/core_cm4.h"