ARM GAS  C:\Users\stijn\AppData\Local\Temp\ccVPn9Mg.s 			page 1


   1              		.syntax unified
   2              		.cpu cortex-m4
   3              		.eabi_attribute 27, 1
   4              		.fpu fpv4-sp-d16
   5              		.eabi_attribute 20, 1
   6              		.eabi_attribute 21, 1
   7              		.eabi_attribute 23, 3
   8              		.eabi_attribute 24, 1
   9              		.eabi_attribute 25, 1
  10              		.eabi_attribute 26, 1
  11              		.eabi_attribute 30, 1
  12              		.eabi_attribute 34, 1
  13              		.eabi_attribute 18, 4
  14              		.thumb
  15              		.syntax unified
  16              		.file	"analog.c"
  17              		.text
  18              	.Ltext0:
  19              		.cfi_sections	.debug_frame
  20              		.section	.text.initADC,"ax",%progbits
  21              		.align	2
  22              		.global	initADC
  23              		.thumb
  24              		.thumb_func
  25              		.type	initADC, %function
  26              	initADC:
  27              	.LFB560:
  28              		.file 1 "analog.c"
   1:analog.c      **** /*  ____  ____      _    __  __  ____ ___
   2:analog.c      ****  * |  _ \|  _ \    / \  |  \/  |/ ___/ _ \
   3:analog.c      ****  * | | | | |_) |  / _ \ | |\/| | |  | | | |
   4:analog.c      ****  * | |_| |  _ <  / ___ \| |  | | |__| |_| |
   5:analog.c      ****  * |____/|_| \_\/_/   \_\_|  |_|\____\___/
   6:analog.c      ****  *                           research group
   7:analog.c      ****  *                             dramco.be/
   8:analog.c      ****  *
   9:analog.c      ****  *  KU Leuven - Technology Campus Gent,
  10:analog.c      ****  *  Gebroeders De Smetstraat 1,
  11:analog.c      ****  *  B-9000 Gent, Belgium
  12:analog.c      ****  *
  13:analog.c      ****  *         File: analog.c
  14:analog.c      ****  *      Created: 2019-04-11
  15:analog.c      ****  *       Author: Stijn Crul
  16:analog.c      ****  *      Version: 0.1
  17:analog.c      ****  *
  18:analog.c      ****  *  Description: ADC library for reading the ADC on a PSOC 6 development kit using an RTOS task
  19:analog.c      ****  */
  20:analog.c      **** 
  21:analog.c      **** #include "analog.h"
  22:analog.c      **** #include "FreeRTOS.h"
  23:analog.c      **** #include "task.h"
  24:analog.c      **** 
  25:analog.c      **** /*
  26:analog.c      **** * Initialize ADC things
  27:analog.c      **** */
  28:analog.c      **** void initADC(){
  29              		.loc 1 28 0
ARM GAS  C:\Users\stijn\AppData\Local\Temp\ccVPn9Mg.s 			page 2


  30              		.cfi_startproc
  31              		@ args = 0, pretend = 0, frame = 0
  32              		@ frame_needed = 0, uses_anonymous_args = 0
  33 0000 08B5     		push	{r3, lr}
  34              		.cfi_def_cfa_offset 8
  35              		.cfi_offset 3, -8
  36              		.cfi_offset 14, -4
  29:analog.c      ****     ADC_Start();
  37              		.loc 1 29 0
  38 0002 FFF7FEFF 		bl	ADC_Start
  39              	.LVL0:
  30:analog.c      ****     ADC_IRQ_Enable();
  40              		.loc 1 30 0
  41 0006 FFF7FEFF 		bl	ADC_IRQ_Enable
  42              	.LVL1:
  31:analog.c      ****     AMuxSeq_Init();
  43              		.loc 1 31 0
  44 000a FFF7FEFF 		bl	AMuxSeq_Init
  45              	.LVL2:
  46 000e 08BD     		pop	{r3, pc}
  47              		.cfi_endproc
  48              	.LFE560:
  49              		.size	initADC, .-initADC
  50              		.section	.text.ADCTask,"ax",%progbits
  51              		.align	2
  52              		.global	ADCTask
  53              		.thumb
  54              		.thumb_func
  55              		.type	ADCTask, %function
  56              	ADCTask:
  57              	.LFB561:
  32:analog.c      **** }
  33:analog.c      **** 
  34:analog.c      **** /* 
  35:analog.c      **** * create a task where the data from the ADC (in free running mode) is processed 
  36:analog.c      **** */
  37:analog.c      **** void ADCTask(){
  58              		.loc 1 37 0
  59              		.cfi_startproc
  60              		@ args = 0, pretend = 0, frame = 8
  61              		@ frame_needed = 0, uses_anonymous_args = 0
  62 0000 00B5     		push	{lr}
  63              		.cfi_def_cfa_offset 4
  64              		.cfi_offset 14, -4
  65 0002 83B0     		sub	sp, sp, #12
  66              		.cfi_def_cfa_offset 16
  67              	.LVL3:
  38:analog.c      ****     // Variables for creating a periodic function using delayUntil
  39:analog.c      ****     TickType_t xLastWakeTime ;
  40:analog.c      ****     const TickType_t xFrequency = 10000;
  41:analog.c      ****     
  42:analog.c      ****     int16_t newReading = 0;
  43:analog.c      **** 
  44:analog.c      ****     ADC_StartConvert();
  68              		.loc 1 44 0
  69 0004 FFF7FEFF 		bl	ADC_StartConvert
  70              	.LVL4:
ARM GAS  C:\Users\stijn\AppData\Local\Temp\ccVPn9Mg.s 			page 3


  45:analog.c      **** 
  46:analog.c      ****     xLastWakeTime = xTaskGetTickCount();    
  71              		.loc 1 46 0
  72 0008 FFF7FEFF 		bl	xTaskGetTickCount
  73              	.LVL5:
  74 000c 0190     		str	r0, [sp, #4]
  75              	.LVL6:
  76              	.L4:
  47:analog.c      ****     for(;;){
  48:analog.c      ****         // Wait for the next cycle determined by xFrequency
  49:analog.c      ****         vTaskDelayUntil(&xLastWakeTime, xFrequency);
  77              		.loc 1 49 0
  78 000e 42F21071 		movw	r1, #10000
  79 0012 01A8     		add	r0, sp, #4
  80 0014 FFF7FEFF 		bl	vTaskDelayUntil
  81              	.LVL7:
  50:analog.c      ****         if(dataReady != 0){
  82              		.loc 1 50 0
  83 0018 034B     		ldr	r3, .L7
  84 001a 1B78     		ldrb	r3, [r3]	@ zero_extendqisi2
  85 001c 002B     		cmp	r3, #0
  86 001e F6D0     		beq	.L4
  51:analog.c      ****             dataReady = 0;
  87              		.loc 1 51 0
  88 0020 0022     		movs	r2, #0
  89 0022 014B     		ldr	r3, .L7
  90 0024 1A70     		strb	r2, [r3]
  91              	.LVL8:
  92 0026 F2E7     		b	.L4
  93              	.L8:
  94              		.align	2
  95              	.L7:
  96 0028 00000000 		.word	.LANCHOR0
  97              		.cfi_endproc
  98              	.LFE561:
  99              		.size	ADCTask, .-ADCTask
 100              		.section	.text.ADCSampleTask,"ax",%progbits
 101              		.align	2
 102              		.global	ADCSampleTask
 103              		.thumb
 104              		.thumb_func
 105              		.type	ADCSampleTask, %function
 106              	ADCSampleTask:
 107              	.LFB562:
  52:analog.c      ****             newReading = result;
  53:analog.c      ****             // todo: Process newReading
  54:analog.c      ****         }
  55:analog.c      ****     }
  56:analog.c      **** }
  57:analog.c      **** 
  58:analog.c      **** /* 
  59:analog.c      **** * create a task where the data from the ADC is sampled by the RTOS, set timing and a pin for measur
  60:analog.c      **** */
  61:analog.c      **** void ADCSampleTask(void * pvChannel){
 108              		.loc 1 61 0
 109              		.cfi_startproc
 110              		@ args = 0, pretend = 0, frame = 8
ARM GAS  C:\Users\stijn\AppData\Local\Temp\ccVPn9Mg.s 			page 4


 111              		@ frame_needed = 0, uses_anonymous_args = 0
 112              	.LVL9:
 113 0000 F0B5     		push	{r4, r5, r6, r7, lr}
 114              		.cfi_def_cfa_offset 20
 115              		.cfi_offset 4, -20
 116              		.cfi_offset 5, -16
 117              		.cfi_offset 6, -12
 118              		.cfi_offset 7, -8
 119              		.cfi_offset 14, -4
 120 0002 83B0     		sub	sp, sp, #12
 121              		.cfi_def_cfa_offset 32
 122 0004 0446     		mov	r4, r0
 123              	.LVL10:
  62:analog.c      ****     CH *pxChannel = (CH*) pvChannel;
  63:analog.c      ****     
  64:analog.c      ****     // Variables for creating a periodic function using delayUntil
  65:analog.c      ****     TickType_t xLastWakeTime ;
  66:analog.c      ****     const TickType_t xFrequency = pxChannel->timing;
 124              		.loc 1 66 0
 125 0006 8568     		ldr	r5, [r0, #8]
 126              	.LVL11:
  67:analog.c      ****     
  68:analog.c      ****     int16_t newReading = 0;
  69:analog.c      ****     int16_t newReading1 = 0;
  70:analog.c      ****     int16_t newReading2 = 0;
  71:analog.c      ****     int16_t newReading3 = 0;
  72:analog.c      **** 
  73:analog.c      ****     xLastWakeTime = xTaskGetTickCount();    
 127              		.loc 1 73 0
 128 0008 FFF7FEFF 		bl	xTaskGetTickCount
 129              	.LVL12:
 130 000c 0190     		str	r0, [sp, #4]
 131              	.L15:
  74:analog.c      ****     for(;;){
  75:analog.c      ****         // Wait for the next cycle determined by xFrequency
  76:analog.c      ****         vTaskDelayUntil(&xLastWakeTime, xFrequency);
 132              		.loc 1 76 0
 133 000e 2946     		mov	r1, r5
 134 0010 01A8     		add	r0, sp, #4
 135 0012 FFF7FEFF 		bl	vTaskDelayUntil
 136              	.LVL13:
  77:analog.c      ****         
  78:analog.c      ****         //set a pin high
  79:analog.c      ****         //set channel
  80:analog.c      ****         //do a convert
  81:analog.c      ****         //get result
  82:analog.c      ****         //set a pin low
  83:analog.c      ****         Cy_GPIO_Write(pxChannel->port, pxChannel->pin, 1);
 137              		.loc 1 83 0
 138 0016 2768     		ldr	r7, [r4]
 139 0018 6668     		ldr	r6, [r4, #4]
 140              	.LVL14:
 141              	.LBB12:
 142              	.LBB13:
 143              		.file 2 "Generated_Source\\PSoC6\\pdl\\drivers/peripheral/gpio/cy_gpio.h"
   1:Generated_Source\PSoC6\pdl\drivers/peripheral/gpio/cy_gpio.h **** /***************************************************************************//**
   2:Generated_Source\PSoC6\pdl\drivers/peripheral/gpio/cy_gpio.h **** * \file cy_gpio.h
ARM GAS  C:\Users\stijn\AppData\Local\Temp\ccVPn9Mg.s 			page 5


   3:Generated_Source\PSoC6\pdl\drivers/peripheral/gpio/cy_gpio.h **** * \version 1.20
   4:Generated_Source\PSoC6\pdl\drivers/peripheral/gpio/cy_gpio.h **** *
   5:Generated_Source\PSoC6\pdl\drivers/peripheral/gpio/cy_gpio.h **** * Provides an API declaration of the GPIO driver
   6:Generated_Source\PSoC6\pdl\drivers/peripheral/gpio/cy_gpio.h **** *
   7:Generated_Source\PSoC6\pdl\drivers/peripheral/gpio/cy_gpio.h **** ********************************************************************************
   8:Generated_Source\PSoC6\pdl\drivers/peripheral/gpio/cy_gpio.h **** * \copyright
   9:Generated_Source\PSoC6\pdl\drivers/peripheral/gpio/cy_gpio.h **** * Copyright 2016-2018, Cypress Semiconductor Corporation. All rights reserved.
  10:Generated_Source\PSoC6\pdl\drivers/peripheral/gpio/cy_gpio.h **** * You may use this file only in accordance with the license, terms, conditions,
  11:Generated_Source\PSoC6\pdl\drivers/peripheral/gpio/cy_gpio.h **** * disclaimers, and limitations in the end user license agreement accompanying
  12:Generated_Source\PSoC6\pdl\drivers/peripheral/gpio/cy_gpio.h **** * the software package with which this file was provided.
  13:Generated_Source\PSoC6\pdl\drivers/peripheral/gpio/cy_gpio.h **** *******************************************************************************/
  14:Generated_Source\PSoC6\pdl\drivers/peripheral/gpio/cy_gpio.h **** 
  15:Generated_Source\PSoC6\pdl\drivers/peripheral/gpio/cy_gpio.h **** /**
  16:Generated_Source\PSoC6\pdl\drivers/peripheral/gpio/cy_gpio.h **** * \addtogroup group_gpio
  17:Generated_Source\PSoC6\pdl\drivers/peripheral/gpio/cy_gpio.h **** * \{
  18:Generated_Source\PSoC6\pdl\drivers/peripheral/gpio/cy_gpio.h **** * The GPIO driver provides an API to configure and access device Input/Output pins.
  19:Generated_Source\PSoC6\pdl\drivers/peripheral/gpio/cy_gpio.h **** *
  20:Generated_Source\PSoC6\pdl\drivers/peripheral/gpio/cy_gpio.h **** * The functions and other declarations used in this driver are in cy_gpio.h. 
  21:Generated_Source\PSoC6\pdl\drivers/peripheral/gpio/cy_gpio.h **** * You can include cy_pdl.h (ModusToolbox only) to get access to all functions 
  22:Generated_Source\PSoC6\pdl\drivers/peripheral/gpio/cy_gpio.h **** * and declarations in the PDL.
  23:Generated_Source\PSoC6\pdl\drivers/peripheral/gpio/cy_gpio.h **** *
  24:Generated_Source\PSoC6\pdl\drivers/peripheral/gpio/cy_gpio.h **** * IO pins include all general purpose types such as GPIO, SIO, HSIO, AUXIO, and
  25:Generated_Source\PSoC6\pdl\drivers/peripheral/gpio/cy_gpio.h **** * their variants.
  26:Generated_Source\PSoC6\pdl\drivers/peripheral/gpio/cy_gpio.h **** *
  27:Generated_Source\PSoC6\pdl\drivers/peripheral/gpio/cy_gpio.h **** * Initialization can be performed either at the port level or by configuring the
  28:Generated_Source\PSoC6\pdl\drivers/peripheral/gpio/cy_gpio.h **** * individual pins. For efficient use of code space, port
  29:Generated_Source\PSoC6\pdl\drivers/peripheral/gpio/cy_gpio.h **** * configuration should be used in the field. Refer to the product device header files 
  30:Generated_Source\PSoC6\pdl\drivers/peripheral/gpio/cy_gpio.h **** * for the list of supported ports and pins.
  31:Generated_Source\PSoC6\pdl\drivers/peripheral/gpio/cy_gpio.h **** * 
  32:Generated_Source\PSoC6\pdl\drivers/peripheral/gpio/cy_gpio.h **** * - Single pin configuration is performed by using \ref Cy_GPIO_Pin_FastInit 
  33:Generated_Source\PSoC6\pdl\drivers/peripheral/gpio/cy_gpio.h **** *   (provide specific values) or \ref Cy_GPIO_Pin_Init (provide a filled
  34:Generated_Source\PSoC6\pdl\drivers/peripheral/gpio/cy_gpio.h **** *   cy_stc_gpio_pin_config_t structure).
  35:Generated_Source\PSoC6\pdl\drivers/peripheral/gpio/cy_gpio.h **** * - An entire port can be configured using \ref Cy_GPIO_Port_Init. Provide a filled 
  36:Generated_Source\PSoC6\pdl\drivers/peripheral/gpio/cy_gpio.h **** *   cy_stc_gpio_prt_config_t structure. The values in the structure are 
  37:Generated_Source\PSoC6\pdl\drivers/peripheral/gpio/cy_gpio.h **** *   bitfields representing the desired value for each pin in the port.
  38:Generated_Source\PSoC6\pdl\drivers/peripheral/gpio/cy_gpio.h **** * - Pin configuration and management is based on the port address and pin number.
  39:Generated_Source\PSoC6\pdl\drivers/peripheral/gpio/cy_gpio.h **** *   \ref Cy_GPIO_PortToAddr function can optionally be used to calculate the port
  40:Generated_Source\PSoC6\pdl\drivers/peripheral/gpio/cy_gpio.h **** *   address from the port number at run-time.
  41:Generated_Source\PSoC6\pdl\drivers/peripheral/gpio/cy_gpio.h **** *
  42:Generated_Source\PSoC6\pdl\drivers/peripheral/gpio/cy_gpio.h **** * Once the pin/port initialization is complete, each pin can be accessed by 
  43:Generated_Source\PSoC6\pdl\drivers/peripheral/gpio/cy_gpio.h **** * specifying the port (GPIO_PRT_Type) and the pin (0-7) in the provided API 
  44:Generated_Source\PSoC6\pdl\drivers/peripheral/gpio/cy_gpio.h **** * functions.
  45:Generated_Source\PSoC6\pdl\drivers/peripheral/gpio/cy_gpio.h **** *
  46:Generated_Source\PSoC6\pdl\drivers/peripheral/gpio/cy_gpio.h **** * \section group_gpio_configuration Configuration Considerations
  47:Generated_Source\PSoC6\pdl\drivers/peripheral/gpio/cy_gpio.h **** *
  48:Generated_Source\PSoC6\pdl\drivers/peripheral/gpio/cy_gpio.h **** * 1. Pin multiplexing is controlled through the High-Speed IO Matrix (HSIOM) selection.
  49:Generated_Source\PSoC6\pdl\drivers/peripheral/gpio/cy_gpio.h **** *    This allows the pin to connect to signal sources/sinks throughout the device,
  50:Generated_Source\PSoC6\pdl\drivers/peripheral/gpio/cy_gpio.h **** *    as defined by the pin HSIOM selection options (en_hsiom_sel_t).
  51:Generated_Source\PSoC6\pdl\drivers/peripheral/gpio/cy_gpio.h **** * 2. All pins are initialized to High-Z drive mode with HSIOM connected to CPU (SW
  52:Generated_Source\PSoC6\pdl\drivers/peripheral/gpio/cy_gpio.h **** *    control digital pin only) at Power-On-Reset(POR).
  53:Generated_Source\PSoC6\pdl\drivers/peripheral/gpio/cy_gpio.h **** * 3. Some API functions perform read-modify-write operations on shared port
  54:Generated_Source\PSoC6\pdl\drivers/peripheral/gpio/cy_gpio.h **** *    registers. These functions are not thread safe and care must be taken when
  55:Generated_Source\PSoC6\pdl\drivers/peripheral/gpio/cy_gpio.h **** *    called by the application.
  56:Generated_Source\PSoC6\pdl\drivers/peripheral/gpio/cy_gpio.h **** * 4. Digital input buffer provides a high-impedance buffer for the external 
  57:Generated_Source\PSoC6\pdl\drivers/peripheral/gpio/cy_gpio.h **** *    digital input. The input buffer is connected to the HSIOM for routing to 
  58:Generated_Source\PSoC6\pdl\drivers/peripheral/gpio/cy_gpio.h **** *    the CPU port registers and selected peripheral. Enabling the input 
  59:Generated_Source\PSoC6\pdl\drivers/peripheral/gpio/cy_gpio.h **** *    buffer provides possibility to read the pin state via the CPU.
ARM GAS  C:\Users\stijn\AppData\Local\Temp\ccVPn9Mg.s 			page 6


  60:Generated_Source\PSoC6\pdl\drivers/peripheral/gpio/cy_gpio.h **** *    If pin is connected to an analog signal, the input buffer should be 
  61:Generated_Source\PSoC6\pdl\drivers/peripheral/gpio/cy_gpio.h **** *    disabled to avoid crowbar currents. For more information refer to device 
  62:Generated_Source\PSoC6\pdl\drivers/peripheral/gpio/cy_gpio.h **** *    TRM and the device datasheet.
  63:Generated_Source\PSoC6\pdl\drivers/peripheral/gpio/cy_gpio.h **** *
  64:Generated_Source\PSoC6\pdl\drivers/peripheral/gpio/cy_gpio.h **** * Multiple pins on a port can be updated using direct port register writes with an
  65:Generated_Source\PSoC6\pdl\drivers/peripheral/gpio/cy_gpio.h **** * appropriate port mask. An example is shown below, highlighting the different ways of 
  66:Generated_Source\PSoC6\pdl\drivers/peripheral/gpio/cy_gpio.h **** * configuring Port 1 pins using:
  67:Generated_Source\PSoC6\pdl\drivers/peripheral/gpio/cy_gpio.h **** * 
  68:Generated_Source\PSoC6\pdl\drivers/peripheral/gpio/cy_gpio.h **** * - Port output data register
  69:Generated_Source\PSoC6\pdl\drivers/peripheral/gpio/cy_gpio.h **** * - Port output data set register
  70:Generated_Source\PSoC6\pdl\drivers/peripheral/gpio/cy_gpio.h **** * - Port output data clear register
  71:Generated_Source\PSoC6\pdl\drivers/peripheral/gpio/cy_gpio.h **** *
  72:Generated_Source\PSoC6\pdl\drivers/peripheral/gpio/cy_gpio.h **** * \snippet gpio/gpio_v1_10_sut_01.cydsn/main_cm4.c Cy_GPIO_Snippet
  73:Generated_Source\PSoC6\pdl\drivers/peripheral/gpio/cy_gpio.h **** *
  74:Generated_Source\PSoC6\pdl\drivers/peripheral/gpio/cy_gpio.h **** * \section group_gpio_more_information More Information
  75:Generated_Source\PSoC6\pdl\drivers/peripheral/gpio/cy_gpio.h **** *
  76:Generated_Source\PSoC6\pdl\drivers/peripheral/gpio/cy_gpio.h **** * Refer to the technical reference manual (TRM) and the device datasheet.
  77:Generated_Source\PSoC6\pdl\drivers/peripheral/gpio/cy_gpio.h **** *
  78:Generated_Source\PSoC6\pdl\drivers/peripheral/gpio/cy_gpio.h **** * \section group_gpio_MISRA MISRA-C Compliance
  79:Generated_Source\PSoC6\pdl\drivers/peripheral/gpio/cy_gpio.h **** * The GPIO driver has the following specific deviations:
  80:Generated_Source\PSoC6\pdl\drivers/peripheral/gpio/cy_gpio.h **** *
  81:Generated_Source\PSoC6\pdl\drivers/peripheral/gpio/cy_gpio.h **** * <table class="doxtable">
  82:Generated_Source\PSoC6\pdl\drivers/peripheral/gpio/cy_gpio.h **** *   <tr>
  83:Generated_Source\PSoC6\pdl\drivers/peripheral/gpio/cy_gpio.h **** *     <th>MISRA Rule</th>
  84:Generated_Source\PSoC6\pdl\drivers/peripheral/gpio/cy_gpio.h **** *     <th>Rule Class (Required/Advisory)</th>
  85:Generated_Source\PSoC6\pdl\drivers/peripheral/gpio/cy_gpio.h **** *     <th>Rule Description</th>
  86:Generated_Source\PSoC6\pdl\drivers/peripheral/gpio/cy_gpio.h **** *     <th>Description of Deviation(s)</th>
  87:Generated_Source\PSoC6\pdl\drivers/peripheral/gpio/cy_gpio.h **** *   </tr>
  88:Generated_Source\PSoC6\pdl\drivers/peripheral/gpio/cy_gpio.h **** *   <tr>
  89:Generated_Source\PSoC6\pdl\drivers/peripheral/gpio/cy_gpio.h **** *     <td>11.4</td>
  90:Generated_Source\PSoC6\pdl\drivers/peripheral/gpio/cy_gpio.h **** *     <td>A</td>
  91:Generated_Source\PSoC6\pdl\drivers/peripheral/gpio/cy_gpio.h **** *     <td>A cast should not be performed between a pointer to object type and
  92:Generated_Source\PSoC6\pdl\drivers/peripheral/gpio/cy_gpio.h **** *         a different pointer to object type.</td>
  93:Generated_Source\PSoC6\pdl\drivers/peripheral/gpio/cy_gpio.h **** *     <td> This code is safe because the elements of both GPIO_PRT_V1_Type and GPIO_PRT_V2_Type 
  94:Generated_Source\PSoC6\pdl\drivers/peripheral/gpio/cy_gpio.h **** *          types have identical alignment.</td>
  95:Generated_Source\PSoC6\pdl\drivers/peripheral/gpio/cy_gpio.h **** *   </tr>
  96:Generated_Source\PSoC6\pdl\drivers/peripheral/gpio/cy_gpio.h **** *   <tr>
  97:Generated_Source\PSoC6\pdl\drivers/peripheral/gpio/cy_gpio.h **** *     <td>16.7</td>
  98:Generated_Source\PSoC6\pdl\drivers/peripheral/gpio/cy_gpio.h **** *     <td>A</td>
  99:Generated_Source\PSoC6\pdl\drivers/peripheral/gpio/cy_gpio.h **** *     <td>A pointer parameter in a function prototype should be declared as pointer 
 100:Generated_Source\PSoC6\pdl\drivers/peripheral/gpio/cy_gpio.h **** *         to const if the pointer is not used to modify the addressed object.</td>
 101:Generated_Source\PSoC6\pdl\drivers/peripheral/gpio/cy_gpio.h **** *     <td>The objects pointed to by the base addresses of the GPIO port are not always modified.
 102:Generated_Source\PSoC6\pdl\drivers/peripheral/gpio/cy_gpio.h **** *         While a const qualifier can be used in select scenarios, it brings little benefit
 103:Generated_Source\PSoC6\pdl\drivers/peripheral/gpio/cy_gpio.h **** *         in adding this to the affected functions. </td>
 104:Generated_Source\PSoC6\pdl\drivers/peripheral/gpio/cy_gpio.h **** *   </tr>
 105:Generated_Source\PSoC6\pdl\drivers/peripheral/gpio/cy_gpio.h **** * </table>
 106:Generated_Source\PSoC6\pdl\drivers/peripheral/gpio/cy_gpio.h **** *
 107:Generated_Source\PSoC6\pdl\drivers/peripheral/gpio/cy_gpio.h **** * \section group_gpio_changelog Changelog
 108:Generated_Source\PSoC6\pdl\drivers/peripheral/gpio/cy_gpio.h **** * <table class="doxtable">
 109:Generated_Source\PSoC6\pdl\drivers/peripheral/gpio/cy_gpio.h **** *   <tr><th>Version</th><th>Changes</th><th>Reason for Change</th></tr>
 110:Generated_Source\PSoC6\pdl\drivers/peripheral/gpio/cy_gpio.h **** *   <tr>
 111:Generated_Source\PSoC6\pdl\drivers/peripheral/gpio/cy_gpio.h **** *     <td rowspan="3">1.20</td>
 112:Generated_Source\PSoC6\pdl\drivers/peripheral/gpio/cy_gpio.h **** *     <td>Flattened the organization of the driver source code into the single source directory and
 113:Generated_Source\PSoC6\pdl\drivers/peripheral/gpio/cy_gpio.h **** *     <td>Driver library directory-structure simplification.</td>
 114:Generated_Source\PSoC6\pdl\drivers/peripheral/gpio/cy_gpio.h **** *   </tr>
 115:Generated_Source\PSoC6\pdl\drivers/peripheral/gpio/cy_gpio.h **** *   <tr>
 116:Generated_Source\PSoC6\pdl\drivers/peripheral/gpio/cy_gpio.h **** *     <td>Added the functions for configuring the AMux bus splitter switch cells:
ARM GAS  C:\Users\stijn\AppData\Local\Temp\ccVPn9Mg.s 			page 7


 117:Generated_Source\PSoC6\pdl\drivers/peripheral/gpio/cy_gpio.h **** *     - \ref Cy_GPIO_SetAmuxSplit
 118:Generated_Source\PSoC6\pdl\drivers/peripheral/gpio/cy_gpio.h **** *     - \ref Cy_GPIO_GetAmuxSplit
 119:Generated_Source\PSoC6\pdl\drivers/peripheral/gpio/cy_gpio.h **** *     </td>
 120:Generated_Source\PSoC6\pdl\drivers/peripheral/gpio/cy_gpio.h **** *     <td>Added a new functionality related to AMux bus.</td>
 121:Generated_Source\PSoC6\pdl\drivers/peripheral/gpio/cy_gpio.h **** *   </tr>
 122:Generated_Source\PSoC6\pdl\drivers/peripheral/gpio/cy_gpio.h **** *   <tr>
 123:Generated_Source\PSoC6\pdl\drivers/peripheral/gpio/cy_gpio.h **** *     <td>Added register access layer. Use register access macros instead
 124:Generated_Source\PSoC6\pdl\drivers/peripheral/gpio/cy_gpio.h **** *         of direct register access using dereferenced pointers.</td>
 125:Generated_Source\PSoC6\pdl\drivers/peripheral/gpio/cy_gpio.h **** *     <td>Makes register access device-independent, so that the PDL does 
 126:Generated_Source\PSoC6\pdl\drivers/peripheral/gpio/cy_gpio.h **** *         not need to be recompiled for each supported part number.</td>
 127:Generated_Source\PSoC6\pdl\drivers/peripheral/gpio/cy_gpio.h **** *   </tr>
 128:Generated_Source\PSoC6\pdl\drivers/peripheral/gpio/cy_gpio.h **** *   <tr>
 129:Generated_Source\PSoC6\pdl\drivers/peripheral/gpio/cy_gpio.h **** *     <td>1.10.1</td>
 130:Generated_Source\PSoC6\pdl\drivers/peripheral/gpio/cy_gpio.h **** *     <td>Updated description for the functions: \ref Cy_GPIO_GetInterruptStatus, 
 131:Generated_Source\PSoC6\pdl\drivers/peripheral/gpio/cy_gpio.h **** *         \ref Cy_GPIO_GetInterruptMask, \ref Cy_GPIO_GetInterruptStatusMasked.
 132:Generated_Source\PSoC6\pdl\drivers/peripheral/gpio/cy_gpio.h **** *
 133:Generated_Source\PSoC6\pdl\drivers/peripheral/gpio/cy_gpio.h **** *         Minor documentation edits.
 134:Generated_Source\PSoC6\pdl\drivers/peripheral/gpio/cy_gpio.h **** *     </td>
 135:Generated_Source\PSoC6\pdl\drivers/peripheral/gpio/cy_gpio.h **** *     <td>Documentation update and clarification</td>
 136:Generated_Source\PSoC6\pdl\drivers/peripheral/gpio/cy_gpio.h **** *   </tr>
 137:Generated_Source\PSoC6\pdl\drivers/peripheral/gpio/cy_gpio.h **** *   <tr>
 138:Generated_Source\PSoC6\pdl\drivers/peripheral/gpio/cy_gpio.h **** *     <td>1.10</td>
 139:Generated_Source\PSoC6\pdl\drivers/peripheral/gpio/cy_gpio.h **** *     <td>Added input parameter validation to the API functions</td>
 140:Generated_Source\PSoC6\pdl\drivers/peripheral/gpio/cy_gpio.h **** *     <td></td>
 141:Generated_Source\PSoC6\pdl\drivers/peripheral/gpio/cy_gpio.h **** *   </tr>
 142:Generated_Source\PSoC6\pdl\drivers/peripheral/gpio/cy_gpio.h **** *   <tr>
 143:Generated_Source\PSoC6\pdl\drivers/peripheral/gpio/cy_gpio.h **** *     <td>1.0</td>
 144:Generated_Source\PSoC6\pdl\drivers/peripheral/gpio/cy_gpio.h **** *     <td>Initial version</td>
 145:Generated_Source\PSoC6\pdl\drivers/peripheral/gpio/cy_gpio.h **** *     <td></td>
 146:Generated_Source\PSoC6\pdl\drivers/peripheral/gpio/cy_gpio.h **** *   </tr>
 147:Generated_Source\PSoC6\pdl\drivers/peripheral/gpio/cy_gpio.h **** * </table>
 148:Generated_Source\PSoC6\pdl\drivers/peripheral/gpio/cy_gpio.h **** *
 149:Generated_Source\PSoC6\pdl\drivers/peripheral/gpio/cy_gpio.h **** * \defgroup group_gpio_macros Macros
 150:Generated_Source\PSoC6\pdl\drivers/peripheral/gpio/cy_gpio.h **** * \defgroup group_gpio_functions Functions
 151:Generated_Source\PSoC6\pdl\drivers/peripheral/gpio/cy_gpio.h **** * \{
 152:Generated_Source\PSoC6\pdl\drivers/peripheral/gpio/cy_gpio.h **** *   \defgroup group_gpio_functions_init       Initialization Functions
 153:Generated_Source\PSoC6\pdl\drivers/peripheral/gpio/cy_gpio.h **** *   \defgroup group_gpio_functions_gpio       GPIO Functions
 154:Generated_Source\PSoC6\pdl\drivers/peripheral/gpio/cy_gpio.h **** *   \defgroup group_gpio_functions_sio        SIO Functions
 155:Generated_Source\PSoC6\pdl\drivers/peripheral/gpio/cy_gpio.h **** *   \defgroup group_gpio_functions_interrupt  Port Interrupt Functions
 156:Generated_Source\PSoC6\pdl\drivers/peripheral/gpio/cy_gpio.h **** * \}
 157:Generated_Source\PSoC6\pdl\drivers/peripheral/gpio/cy_gpio.h **** * \defgroup group_gpio_data_structures Data Structures
 158:Generated_Source\PSoC6\pdl\drivers/peripheral/gpio/cy_gpio.h **** * \defgroup group_gpio_enums Enumerated Types
 159:Generated_Source\PSoC6\pdl\drivers/peripheral/gpio/cy_gpio.h **** */
 160:Generated_Source\PSoC6\pdl\drivers/peripheral/gpio/cy_gpio.h **** 
 161:Generated_Source\PSoC6\pdl\drivers/peripheral/gpio/cy_gpio.h **** #if !defined(CY_GPIO_H)
 162:Generated_Source\PSoC6\pdl\drivers/peripheral/gpio/cy_gpio.h **** #define CY_GPIO_H
 163:Generated_Source\PSoC6\pdl\drivers/peripheral/gpio/cy_gpio.h **** 
 164:Generated_Source\PSoC6\pdl\drivers/peripheral/gpio/cy_gpio.h **** #include <stddef.h>
 165:Generated_Source\PSoC6\pdl\drivers/peripheral/gpio/cy_gpio.h **** #include "cy_device.h"
 166:Generated_Source\PSoC6\pdl\drivers/peripheral/gpio/cy_gpio.h **** #include "cy_device_headers.h"
 167:Generated_Source\PSoC6\pdl\drivers/peripheral/gpio/cy_gpio.h **** #include "cy_syslib.h"
 168:Generated_Source\PSoC6\pdl\drivers/peripheral/gpio/cy_gpio.h **** 
 169:Generated_Source\PSoC6\pdl\drivers/peripheral/gpio/cy_gpio.h **** #if defined(__cplusplus)
 170:Generated_Source\PSoC6\pdl\drivers/peripheral/gpio/cy_gpio.h **** extern "C" {
 171:Generated_Source\PSoC6\pdl\drivers/peripheral/gpio/cy_gpio.h **** #endif
 172:Generated_Source\PSoC6\pdl\drivers/peripheral/gpio/cy_gpio.h **** 
 173:Generated_Source\PSoC6\pdl\drivers/peripheral/gpio/cy_gpio.h **** /** \addtogroup group_gpio_macros
ARM GAS  C:\Users\stijn\AppData\Local\Temp\ccVPn9Mg.s 			page 8


 174:Generated_Source\PSoC6\pdl\drivers/peripheral/gpio/cy_gpio.h **** * \{
 175:Generated_Source\PSoC6\pdl\drivers/peripheral/gpio/cy_gpio.h **** */
 176:Generated_Source\PSoC6\pdl\drivers/peripheral/gpio/cy_gpio.h **** 
 177:Generated_Source\PSoC6\pdl\drivers/peripheral/gpio/cy_gpio.h **** /** Driver major version */
 178:Generated_Source\PSoC6\pdl\drivers/peripheral/gpio/cy_gpio.h **** #define CY_GPIO_DRV_VERSION_MAJOR       1
 179:Generated_Source\PSoC6\pdl\drivers/peripheral/gpio/cy_gpio.h **** 
 180:Generated_Source\PSoC6\pdl\drivers/peripheral/gpio/cy_gpio.h **** /** Driver minor version */
 181:Generated_Source\PSoC6\pdl\drivers/peripheral/gpio/cy_gpio.h **** #define CY_GPIO_DRV_VERSION_MINOR       20
 182:Generated_Source\PSoC6\pdl\drivers/peripheral/gpio/cy_gpio.h **** 
 183:Generated_Source\PSoC6\pdl\drivers/peripheral/gpio/cy_gpio.h **** /** GPIO driver ID */
 184:Generated_Source\PSoC6\pdl\drivers/peripheral/gpio/cy_gpio.h **** #define CY_GPIO_ID CY_PDL_DRV_ID(0x16U)
 185:Generated_Source\PSoC6\pdl\drivers/peripheral/gpio/cy_gpio.h **** 
 186:Generated_Source\PSoC6\pdl\drivers/peripheral/gpio/cy_gpio.h **** /** \} group_gpio_macros */
 187:Generated_Source\PSoC6\pdl\drivers/peripheral/gpio/cy_gpio.h **** 
 188:Generated_Source\PSoC6\pdl\drivers/peripheral/gpio/cy_gpio.h **** 
 189:Generated_Source\PSoC6\pdl\drivers/peripheral/gpio/cy_gpio.h **** /***************************************
 190:Generated_Source\PSoC6\pdl\drivers/peripheral/gpio/cy_gpio.h **** *       Enumerations
 191:Generated_Source\PSoC6\pdl\drivers/peripheral/gpio/cy_gpio.h **** ***************************************/
 192:Generated_Source\PSoC6\pdl\drivers/peripheral/gpio/cy_gpio.h **** /**
 193:Generated_Source\PSoC6\pdl\drivers/peripheral/gpio/cy_gpio.h **** * \addtogroup group_gpio_enums
 194:Generated_Source\PSoC6\pdl\drivers/peripheral/gpio/cy_gpio.h **** * \{
 195:Generated_Source\PSoC6\pdl\drivers/peripheral/gpio/cy_gpio.h **** */
 196:Generated_Source\PSoC6\pdl\drivers/peripheral/gpio/cy_gpio.h **** 
 197:Generated_Source\PSoC6\pdl\drivers/peripheral/gpio/cy_gpio.h **** /** GPIO Driver error codes */
 198:Generated_Source\PSoC6\pdl\drivers/peripheral/gpio/cy_gpio.h **** typedef enum 
 199:Generated_Source\PSoC6\pdl\drivers/peripheral/gpio/cy_gpio.h **** {
 200:Generated_Source\PSoC6\pdl\drivers/peripheral/gpio/cy_gpio.h ****     CY_GPIO_SUCCESS   = 0x00U,                                    /**< Returned successful */
 201:Generated_Source\PSoC6\pdl\drivers/peripheral/gpio/cy_gpio.h ****     CY_GPIO_BAD_PARAM = CY_GPIO_ID | CY_PDL_STATUS_ERROR | 0x01U, /**< Bad parameter was passed */
 202:Generated_Source\PSoC6\pdl\drivers/peripheral/gpio/cy_gpio.h **** } cy_en_gpio_status_t;
 203:Generated_Source\PSoC6\pdl\drivers/peripheral/gpio/cy_gpio.h **** 
 204:Generated_Source\PSoC6\pdl\drivers/peripheral/gpio/cy_gpio.h **** /** AMux switch open/close config */
 205:Generated_Source\PSoC6\pdl\drivers/peripheral/gpio/cy_gpio.h **** typedef enum
 206:Generated_Source\PSoC6\pdl\drivers/peripheral/gpio/cy_gpio.h **** {
 207:Generated_Source\PSoC6\pdl\drivers/peripheral/gpio/cy_gpio.h ****     CY_GPIO_AMUX_OPENALL,   /**< Open ground switch. Open right switch. Open left switch */
 208:Generated_Source\PSoC6\pdl\drivers/peripheral/gpio/cy_gpio.h ****     CY_GPIO_AMUX_L,         /**< Open ground switch. Open right switch. Close left switch */
 209:Generated_Source\PSoC6\pdl\drivers/peripheral/gpio/cy_gpio.h ****     CY_GPIO_AMUX_R,         /**< Open ground switch. Close right switch. Open left switch */
 210:Generated_Source\PSoC6\pdl\drivers/peripheral/gpio/cy_gpio.h ****     CY_GPIO_AMUX_LR,        /**< Open ground switch. Close right switch. Close left switch */
 211:Generated_Source\PSoC6\pdl\drivers/peripheral/gpio/cy_gpio.h ****     CY_GPIO_AMUX_G,         /**< Close ground switch. Open right switch. Open left switch */
 212:Generated_Source\PSoC6\pdl\drivers/peripheral/gpio/cy_gpio.h ****     CY_GPIO_AMUX_GL,        /**< Close ground switch. Open right switch. Close left switch */
 213:Generated_Source\PSoC6\pdl\drivers/peripheral/gpio/cy_gpio.h ****     CY_GPIO_AMUX_GR,        /**< Close ground switch. Close right switch. Open left switch */
 214:Generated_Source\PSoC6\pdl\drivers/peripheral/gpio/cy_gpio.h ****     CY_GPIO_AMUX_GLR,       /**< Close ground switch. Close right switch. Close left switch */
 215:Generated_Source\PSoC6\pdl\drivers/peripheral/gpio/cy_gpio.h **** }cy_en_gpio_amuxconnect_t;
 216:Generated_Source\PSoC6\pdl\drivers/peripheral/gpio/cy_gpio.h **** 
 217:Generated_Source\PSoC6\pdl\drivers/peripheral/gpio/cy_gpio.h **** /**
 218:Generated_Source\PSoC6\pdl\drivers/peripheral/gpio/cy_gpio.h **** * AMux Bus selection
 219:Generated_Source\PSoC6\pdl\drivers/peripheral/gpio/cy_gpio.h **** */
 220:Generated_Source\PSoC6\pdl\drivers/peripheral/gpio/cy_gpio.h **** typedef enum
 221:Generated_Source\PSoC6\pdl\drivers/peripheral/gpio/cy_gpio.h **** {
 222:Generated_Source\PSoC6\pdl\drivers/peripheral/gpio/cy_gpio.h ****     CY_GPIO_AMUXBUSA,       /**< AMuxBus A */
 223:Generated_Source\PSoC6\pdl\drivers/peripheral/gpio/cy_gpio.h ****     CY_GPIO_AMUXBUSB        /**< AMuxBus B */
 224:Generated_Source\PSoC6\pdl\drivers/peripheral/gpio/cy_gpio.h **** }cy_en_gpio_amuxselect_t;
 225:Generated_Source\PSoC6\pdl\drivers/peripheral/gpio/cy_gpio.h **** 
 226:Generated_Source\PSoC6\pdl\drivers/peripheral/gpio/cy_gpio.h **** /** \} group_gpio_enums */
 227:Generated_Source\PSoC6\pdl\drivers/peripheral/gpio/cy_gpio.h **** 
 228:Generated_Source\PSoC6\pdl\drivers/peripheral/gpio/cy_gpio.h **** 
 229:Generated_Source\PSoC6\pdl\drivers/peripheral/gpio/cy_gpio.h **** /***************************************
 230:Generated_Source\PSoC6\pdl\drivers/peripheral/gpio/cy_gpio.h **** *       Configuration Structures
ARM GAS  C:\Users\stijn\AppData\Local\Temp\ccVPn9Mg.s 			page 9


 231:Generated_Source\PSoC6\pdl\drivers/peripheral/gpio/cy_gpio.h **** ***************************************/
 232:Generated_Source\PSoC6\pdl\drivers/peripheral/gpio/cy_gpio.h **** 
 233:Generated_Source\PSoC6\pdl\drivers/peripheral/gpio/cy_gpio.h **** /**
 234:Generated_Source\PSoC6\pdl\drivers/peripheral/gpio/cy_gpio.h **** * \addtogroup group_gpio_data_structures
 235:Generated_Source\PSoC6\pdl\drivers/peripheral/gpio/cy_gpio.h **** * \{
 236:Generated_Source\PSoC6\pdl\drivers/peripheral/gpio/cy_gpio.h **** */
 237:Generated_Source\PSoC6\pdl\drivers/peripheral/gpio/cy_gpio.h **** 
 238:Generated_Source\PSoC6\pdl\drivers/peripheral/gpio/cy_gpio.h **** /** This structure is used to initialize a port of GPIO pins */
 239:Generated_Source\PSoC6\pdl\drivers/peripheral/gpio/cy_gpio.h **** typedef struct 
 240:Generated_Source\PSoC6\pdl\drivers/peripheral/gpio/cy_gpio.h **** {
 241:Generated_Source\PSoC6\pdl\drivers/peripheral/gpio/cy_gpio.h ****     uint32_t out;           /**< Initial output data for the IO pins in the port */
 242:Generated_Source\PSoC6\pdl\drivers/peripheral/gpio/cy_gpio.h ****     uint32_t intrMask;      /**< Interrupt enable mask for the port interrupt */
 243:Generated_Source\PSoC6\pdl\drivers/peripheral/gpio/cy_gpio.h ****     uint32_t intrCfg;       /**< Port pin interrupt edge detection configuration */
 244:Generated_Source\PSoC6\pdl\drivers/peripheral/gpio/cy_gpio.h ****     uint32_t cfg;           /**< Port pin drive modes and input buffer enable configuration */
 245:Generated_Source\PSoC6\pdl\drivers/peripheral/gpio/cy_gpio.h ****     uint32_t cfgIn;         /**< Port pin input buffer configuration */
 246:Generated_Source\PSoC6\pdl\drivers/peripheral/gpio/cy_gpio.h ****     uint32_t cfgOut;        /**< Port pin output buffer configuration */
 247:Generated_Source\PSoC6\pdl\drivers/peripheral/gpio/cy_gpio.h ****     uint32_t cfgSIO;        /**< Port SIO pins configuration */
 248:Generated_Source\PSoC6\pdl\drivers/peripheral/gpio/cy_gpio.h ****     uint32_t sel0Active;    /**< HSIOM selection for port pins 0,1,2,3 */
 249:Generated_Source\PSoC6\pdl\drivers/peripheral/gpio/cy_gpio.h ****     uint32_t sel1Active;    /**< HSIOM selection for port pins 4,5,6,7 */
 250:Generated_Source\PSoC6\pdl\drivers/peripheral/gpio/cy_gpio.h **** } cy_stc_gpio_prt_config_t;
 251:Generated_Source\PSoC6\pdl\drivers/peripheral/gpio/cy_gpio.h **** 
 252:Generated_Source\PSoC6\pdl\drivers/peripheral/gpio/cy_gpio.h **** /** This structure is used to initialize a single GPIO pin */
 253:Generated_Source\PSoC6\pdl\drivers/peripheral/gpio/cy_gpio.h **** typedef struct
 254:Generated_Source\PSoC6\pdl\drivers/peripheral/gpio/cy_gpio.h **** {
 255:Generated_Source\PSoC6\pdl\drivers/peripheral/gpio/cy_gpio.h ****     uint32_t outVal;         /**< Pin output state */
 256:Generated_Source\PSoC6\pdl\drivers/peripheral/gpio/cy_gpio.h ****     uint32_t driveMode;      /**< Drive mode */
 257:Generated_Source\PSoC6\pdl\drivers/peripheral/gpio/cy_gpio.h ****     en_hsiom_sel_t hsiom;    /**< HSIOM selection */
 258:Generated_Source\PSoC6\pdl\drivers/peripheral/gpio/cy_gpio.h ****     uint32_t intEdge;        /**< Interrupt Edge type */
 259:Generated_Source\PSoC6\pdl\drivers/peripheral/gpio/cy_gpio.h ****     uint32_t intMask;        /**< Interrupt enable mask */
 260:Generated_Source\PSoC6\pdl\drivers/peripheral/gpio/cy_gpio.h ****     uint32_t vtrip;          /**< Input buffer voltage trip type */
 261:Generated_Source\PSoC6\pdl\drivers/peripheral/gpio/cy_gpio.h ****     uint32_t slewRate;       /**< Output buffer slew rate */
 262:Generated_Source\PSoC6\pdl\drivers/peripheral/gpio/cy_gpio.h ****     uint32_t driveSel;       /**< Drive strength */
 263:Generated_Source\PSoC6\pdl\drivers/peripheral/gpio/cy_gpio.h ****     uint32_t vregEn;         /**< SIO pair output buffer mode */
 264:Generated_Source\PSoC6\pdl\drivers/peripheral/gpio/cy_gpio.h ****     uint32_t ibufMode;       /**< SIO pair input buffer mode */
 265:Generated_Source\PSoC6\pdl\drivers/peripheral/gpio/cy_gpio.h ****     uint32_t vtripSel;       /**< SIO pair input buffer trip point */
 266:Generated_Source\PSoC6\pdl\drivers/peripheral/gpio/cy_gpio.h ****     uint32_t vrefSel;        /**< SIO pair reference voltage for input buffer trip point */
 267:Generated_Source\PSoC6\pdl\drivers/peripheral/gpio/cy_gpio.h ****     uint32_t vohSel;         /**< SIO pair regulated voltage output level */
 268:Generated_Source\PSoC6\pdl\drivers/peripheral/gpio/cy_gpio.h **** } cy_stc_gpio_pin_config_t;
 269:Generated_Source\PSoC6\pdl\drivers/peripheral/gpio/cy_gpio.h **** 
 270:Generated_Source\PSoC6\pdl\drivers/peripheral/gpio/cy_gpio.h **** /** \} group_gpio_data_structures */
 271:Generated_Source\PSoC6\pdl\drivers/peripheral/gpio/cy_gpio.h **** 
 272:Generated_Source\PSoC6\pdl\drivers/peripheral/gpio/cy_gpio.h **** /***************************************
 273:Generated_Source\PSoC6\pdl\drivers/peripheral/gpio/cy_gpio.h **** *        Constants
 274:Generated_Source\PSoC6\pdl\drivers/peripheral/gpio/cy_gpio.h **** ***************************************/
 275:Generated_Source\PSoC6\pdl\drivers/peripheral/gpio/cy_gpio.h **** 
 276:Generated_Source\PSoC6\pdl\drivers/peripheral/gpio/cy_gpio.h **** /** \cond INTERNAL */
 277:Generated_Source\PSoC6\pdl\drivers/peripheral/gpio/cy_gpio.h **** 
 278:Generated_Source\PSoC6\pdl\drivers/peripheral/gpio/cy_gpio.h **** /* General Constants */
 279:Generated_Source\PSoC6\pdl\drivers/peripheral/gpio/cy_gpio.h **** #define CY_GPIO_PRT_HALF                       (4UL)      /**< Half-way point of a GPIO port */
 280:Generated_Source\PSoC6\pdl\drivers/peripheral/gpio/cy_gpio.h **** #define CY_GPIO_PRT_DEINIT                     (0UL)      /**< De-init value for port registers */
 281:Generated_Source\PSoC6\pdl\drivers/peripheral/gpio/cy_gpio.h **** 
 282:Generated_Source\PSoC6\pdl\drivers/peripheral/gpio/cy_gpio.h **** /* GPIO Masks */
 283:Generated_Source\PSoC6\pdl\drivers/peripheral/gpio/cy_gpio.h **** #define CY_GPIO_HSIOM_MASK                     (0x1FUL)   /**< HSIOM selection mask */
 284:Generated_Source\PSoC6\pdl\drivers/peripheral/gpio/cy_gpio.h **** #define CY_GPIO_OUT_MASK                       (0x01UL)   /**< Single pin mask for OUT register */
 285:Generated_Source\PSoC6\pdl\drivers/peripheral/gpio/cy_gpio.h **** #define CY_GPIO_IN_MASK                        (0x01UL)   /**< Single pin mask for IN register */
 286:Generated_Source\PSoC6\pdl\drivers/peripheral/gpio/cy_gpio.h **** #define CY_GPIO_CFG_DM_MASK                    (0x0FUL)   /**< Single pin mask for drive mode in CF
 287:Generated_Source\PSoC6\pdl\drivers/peripheral/gpio/cy_gpio.h **** #define CY_GPIO_CFG_IN_VTRIP_SEL_MASK          (0x01UL)   /**< Single pin mask for VTRIP selection 
ARM GAS  C:\Users\stijn\AppData\Local\Temp\ccVPn9Mg.s 			page 10


 288:Generated_Source\PSoC6\pdl\drivers/peripheral/gpio/cy_gpio.h **** #define CY_GPIO_CFG_OUT_SLOW_MASK              (0x01UL)   /**< Single pin mask for slew rate in CFG
 289:Generated_Source\PSoC6\pdl\drivers/peripheral/gpio/cy_gpio.h **** #define CY_GPIO_CFG_OUT_DRIVE_SEL_MASK         (0x03UL)   /**< Single pin mask for drive strength i
 290:Generated_Source\PSoC6\pdl\drivers/peripheral/gpio/cy_gpio.h **** #define CY_GPIO_INTR_STATUS_MASK               (0x01UL)   /**< Single pin mask for interrupt status
 291:Generated_Source\PSoC6\pdl\drivers/peripheral/gpio/cy_gpio.h **** #define CY_GPIO_INTR_EN_MASK                   (0x01UL)   /**< Single pin mask for interrupt status
 292:Generated_Source\PSoC6\pdl\drivers/peripheral/gpio/cy_gpio.h **** #define CY_GPIO_INTR_MASKED_MASK               (0x01UL)   /**< Single pin mask for masked interrupt
 293:Generated_Source\PSoC6\pdl\drivers/peripheral/gpio/cy_gpio.h **** #define CY_GPIO_INTR_SET_MASK                  (0x01UL)   /**< Single pin mask for setting the inte
 294:Generated_Source\PSoC6\pdl\drivers/peripheral/gpio/cy_gpio.h **** #define CY_GPIO_INTR_EDGE_MASK                 (0x03UL)   /**< Single pin mask for interrupt edge t
 295:Generated_Source\PSoC6\pdl\drivers/peripheral/gpio/cy_gpio.h **** #define CY_GPIO_INTR_FLT_EDGE_MASK             (0x07UL)   /**< Single pin mask for setting filtered
 296:Generated_Source\PSoC6\pdl\drivers/peripheral/gpio/cy_gpio.h **** 
 297:Generated_Source\PSoC6\pdl\drivers/peripheral/gpio/cy_gpio.h **** /* SIO Masks */
 298:Generated_Source\PSoC6\pdl\drivers/peripheral/gpio/cy_gpio.h **** #define CY_GPIO_VREG_EN_MASK                   (0x01UL)   /**< Single SIO pin mask for voltage regu
 299:Generated_Source\PSoC6\pdl\drivers/peripheral/gpio/cy_gpio.h **** #define CY_GPIO_IBUF_MASK                      (0x01UL)   /**< Single SIO pin mask for input buffer
 300:Generated_Source\PSoC6\pdl\drivers/peripheral/gpio/cy_gpio.h **** #define CY_GPIO_IBUF_SHIFT                     (0x01UL)   /**< Single SIO pin shift for input buffe
 301:Generated_Source\PSoC6\pdl\drivers/peripheral/gpio/cy_gpio.h **** #define CY_GPIO_VTRIP_SEL_MASK                 (0x01UL)   /**< Single SIO pin mask for the input bu
 302:Generated_Source\PSoC6\pdl\drivers/peripheral/gpio/cy_gpio.h **** #define CY_GPIO_VTRIP_SEL_SHIFT                (0x02UL)   /**< Single SIO pin shift for the input b
 303:Generated_Source\PSoC6\pdl\drivers/peripheral/gpio/cy_gpio.h **** #define CY_GPIO_VREF_SEL_MASK                  (0x03UL)   /**< Single SIO pin mask for voltage refe
 304:Generated_Source\PSoC6\pdl\drivers/peripheral/gpio/cy_gpio.h **** #define CY_GPIO_VREF_SEL_SHIFT                 (0x03UL)   /**< Single SIO pin shift for voltage ref
 305:Generated_Source\PSoC6\pdl\drivers/peripheral/gpio/cy_gpio.h **** #define CY_GPIO_VOH_SEL_MASK                   (0x07UL)   /**< Single SIO pin mask for VOH */
 306:Generated_Source\PSoC6\pdl\drivers/peripheral/gpio/cy_gpio.h **** #define CY_GPIO_VOH_SEL_SHIFT                  (0x05UL)   /**< Single SIO pin shift for VOH */
 307:Generated_Source\PSoC6\pdl\drivers/peripheral/gpio/cy_gpio.h **** 
 308:Generated_Source\PSoC6\pdl\drivers/peripheral/gpio/cy_gpio.h **** /* Special mask for SIO pin pair setting */
 309:Generated_Source\PSoC6\pdl\drivers/peripheral/gpio/cy_gpio.h **** #define CY_GPIO_SIO_ODD_PIN_MASK               (0x00FEUL) /**< SIO pin pair selection mask */
 310:Generated_Source\PSoC6\pdl\drivers/peripheral/gpio/cy_gpio.h **** #define CY_GPIO_SIO_PIN_MASK                   (0x00FFUL) /**< SIO pin pair mask */
 311:Generated_Source\PSoC6\pdl\drivers/peripheral/gpio/cy_gpio.h **** 
 312:Generated_Source\PSoC6\pdl\drivers/peripheral/gpio/cy_gpio.h **** /* Offsets */
 313:Generated_Source\PSoC6\pdl\drivers/peripheral/gpio/cy_gpio.h **** #define CY_GPIO_HSIOM_OFFSET                   (3UL)      /**< Offset for HSIOM */
 314:Generated_Source\PSoC6\pdl\drivers/peripheral/gpio/cy_gpio.h **** #define CY_GPIO_DRIVE_MODE_OFFSET              (2UL)      /**< Offset for Drive mode */
 315:Generated_Source\PSoC6\pdl\drivers/peripheral/gpio/cy_gpio.h **** #define CY_GPIO_INBUF_OFFSET                   (3UL)      /**< Offset for input buffer */
 316:Generated_Source\PSoC6\pdl\drivers/peripheral/gpio/cy_gpio.h **** #define CY_GPIO_CFG_OUT_DRIVE_OFFSET           (16UL)     /**< Offset for drive strength */
 317:Generated_Source\PSoC6\pdl\drivers/peripheral/gpio/cy_gpio.h **** #define CY_GPIO_INTR_CFG_OFFSET                (1UL)      /**< Offset for interrupt config */
 318:Generated_Source\PSoC6\pdl\drivers/peripheral/gpio/cy_gpio.h **** #define CY_GPIO_INTR_FILT_OFFSET               (18UL)     /**< Offset for filtered interrupt config
 319:Generated_Source\PSoC6\pdl\drivers/peripheral/gpio/cy_gpio.h **** #define CY_GPIO_CFG_SIO_OFFSET                 (2UL)      /**< Offset for SIO config */
 320:Generated_Source\PSoC6\pdl\drivers/peripheral/gpio/cy_gpio.h **** 
 321:Generated_Source\PSoC6\pdl\drivers/peripheral/gpio/cy_gpio.h **** /* Parameter validation constants */
 322:Generated_Source\PSoC6\pdl\drivers/peripheral/gpio/cy_gpio.h **** #define CY_GPIO_PINS_MAX                       (8UL)      /**< Number of pins in the port */
 323:Generated_Source\PSoC6\pdl\drivers/peripheral/gpio/cy_gpio.h **** #define CY_GPIO_PRT_PINS_MASK                  (0x0000000FFUL)
 324:Generated_Source\PSoC6\pdl\drivers/peripheral/gpio/cy_gpio.h **** #define CY_GPIO_PRT_INTR_CFG_EDGE_SEL_MASK     (GPIO_PRT_INTR_CFG_EDGE0_SEL_Msk | \
 325:Generated_Source\PSoC6\pdl\drivers/peripheral/gpio/cy_gpio.h ****                                                 GPIO_PRT_INTR_CFG_EDGE1_SEL_Msk | \
 326:Generated_Source\PSoC6\pdl\drivers/peripheral/gpio/cy_gpio.h ****                                                 GPIO_PRT_INTR_CFG_EDGE2_SEL_Msk | \
 327:Generated_Source\PSoC6\pdl\drivers/peripheral/gpio/cy_gpio.h ****                                                 GPIO_PRT_INTR_CFG_EDGE3_SEL_Msk | \
 328:Generated_Source\PSoC6\pdl\drivers/peripheral/gpio/cy_gpio.h ****                                                 GPIO_PRT_INTR_CFG_EDGE4_SEL_Msk | \
 329:Generated_Source\PSoC6\pdl\drivers/peripheral/gpio/cy_gpio.h ****                                                 GPIO_PRT_INTR_CFG_EDGE5_SEL_Msk | \
 330:Generated_Source\PSoC6\pdl\drivers/peripheral/gpio/cy_gpio.h ****                                                 GPIO_PRT_INTR_CFG_EDGE6_SEL_Msk | \
 331:Generated_Source\PSoC6\pdl\drivers/peripheral/gpio/cy_gpio.h ****                                                 GPIO_PRT_INTR_CFG_EDGE7_SEL_Msk)
 332:Generated_Source\PSoC6\pdl\drivers/peripheral/gpio/cy_gpio.h **** #define CY_GPIO_PRT_INTR_CFG_RANGE_MASK        (CY_GPIO_PRT_INTR_CFG_EDGE_SEL_MASK | \
 333:Generated_Source\PSoC6\pdl\drivers/peripheral/gpio/cy_gpio.h ****                                                 GPIO_PRT_INTR_CFG_FLT_EDGE_SEL_Msk | \
 334:Generated_Source\PSoC6\pdl\drivers/peripheral/gpio/cy_gpio.h ****                                                 GPIO_PRT_INTR_CFG_FLT_SEL_Msk)
 335:Generated_Source\PSoC6\pdl\drivers/peripheral/gpio/cy_gpio.h **** #define CY_GPIO_PRT_INT_MASK_MASK              (0x0000001FFUL)
 336:Generated_Source\PSoC6\pdl\drivers/peripheral/gpio/cy_gpio.h **** #define CY_GPIO_PRT_SEL_ACTIVE_MASK            (0x1FFFFFFFUL)
 337:Generated_Source\PSoC6\pdl\drivers/peripheral/gpio/cy_gpio.h **** 
 338:Generated_Source\PSoC6\pdl\drivers/peripheral/gpio/cy_gpio.h **** #define GPIO_MAX_SPLIT_CELL_SEGMENTS           (9U)
 339:Generated_Source\PSoC6\pdl\drivers/peripheral/gpio/cy_gpio.h **** 
 340:Generated_Source\PSoC6\pdl\drivers/peripheral/gpio/cy_gpio.h **** /* Parameter validation macros */
 341:Generated_Source\PSoC6\pdl\drivers/peripheral/gpio/cy_gpio.h **** #define CY_GPIO_IS_PIN_VALID(pinNum)           (CY_GPIO_PINS_MAX > (pinNum))
 342:Generated_Source\PSoC6\pdl\drivers/peripheral/gpio/cy_gpio.h **** #define CY_GPIO_IS_FILTER_PIN_VALID(pinNum)    (CY_GPIO_PINS_MAX >= (pinNum))
 343:Generated_Source\PSoC6\pdl\drivers/peripheral/gpio/cy_gpio.h **** #define CY_GPIO_IS_VALUE_VALID(outVal)         (1UL >= (outVal))
 344:Generated_Source\PSoC6\pdl\drivers/peripheral/gpio/cy_gpio.h **** #define CY_GPIO_IS_DM_VALID(driveMode)         (0U == ((driveMode) & (uint32_t)~CY_GPIO_CFG_DM_MASK
ARM GAS  C:\Users\stijn\AppData\Local\Temp\ccVPn9Mg.s 			page 11


 345:Generated_Source\PSoC6\pdl\drivers/peripheral/gpio/cy_gpio.h **** 
 346:Generated_Source\PSoC6\pdl\drivers/peripheral/gpio/cy_gpio.h **** #define CY_GPIO_IS_HSIOM_VALID(hsiom)          (0U == ((hsiom) & (uint32_t)~CY_GPIO_HSIOM_MASK))
 347:Generated_Source\PSoC6\pdl\drivers/peripheral/gpio/cy_gpio.h **** 
 348:Generated_Source\PSoC6\pdl\drivers/peripheral/gpio/cy_gpio.h **** #define CY_GPIO_IS_INT_EDGE_VALID(intEdge)     ((CY_GPIO_INTR_DISABLE  == (intEdge)) || \
 349:Generated_Source\PSoC6\pdl\drivers/peripheral/gpio/cy_gpio.h ****                                                 (CY_GPIO_INTR_RISING   == (intEdge)) || \
 350:Generated_Source\PSoC6\pdl\drivers/peripheral/gpio/cy_gpio.h ****                                                 (CY_GPIO_INTR_FALLING  == (intEdge)) || \
 351:Generated_Source\PSoC6\pdl\drivers/peripheral/gpio/cy_gpio.h ****                                                 (CY_GPIO_INTR_BOTH     == (intEdge)))
 352:Generated_Source\PSoC6\pdl\drivers/peripheral/gpio/cy_gpio.h **** 
 353:Generated_Source\PSoC6\pdl\drivers/peripheral/gpio/cy_gpio.h **** #define CY_GPIO_IS_DRIVE_SEL_VALID(driveSel)   ((CY_GPIO_DRIVE_FULL    == (driveSel)) || \
 354:Generated_Source\PSoC6\pdl\drivers/peripheral/gpio/cy_gpio.h ****                                                 (CY_GPIO_DRIVE_1_2     == (driveSel)) || \
 355:Generated_Source\PSoC6\pdl\drivers/peripheral/gpio/cy_gpio.h ****                                                 (CY_GPIO_DRIVE_1_4     == (driveSel)) || \
 356:Generated_Source\PSoC6\pdl\drivers/peripheral/gpio/cy_gpio.h ****                                                 (CY_GPIO_DRIVE_1_8     == (driveSel)))
 357:Generated_Source\PSoC6\pdl\drivers/peripheral/gpio/cy_gpio.h **** 
 358:Generated_Source\PSoC6\pdl\drivers/peripheral/gpio/cy_gpio.h **** #define CY_GPIO_IS_VREF_SEL_VALID(vrefSel)     ((CY_SIO_VREF_PINREF    == (vrefSel)) || \
 359:Generated_Source\PSoC6\pdl\drivers/peripheral/gpio/cy_gpio.h ****                                                 (CY_SIO_VREF_1_2V      == (vrefSel)) || \
 360:Generated_Source\PSoC6\pdl\drivers/peripheral/gpio/cy_gpio.h ****                                                 (CY_SIO_VREF_AMUX_A    == (vrefSel)) || \
 361:Generated_Source\PSoC6\pdl\drivers/peripheral/gpio/cy_gpio.h ****                                                 (CY_SIO_VREF_AMUX_B    == (vrefSel)))
 362:Generated_Source\PSoC6\pdl\drivers/peripheral/gpio/cy_gpio.h **** 
 363:Generated_Source\PSoC6\pdl\drivers/peripheral/gpio/cy_gpio.h **** #define CY_GPIO_IS_VOH_SEL_VALID(vrefSel)      ((CY_SIO_VOH_1_00       == (vrefSel)) || \
 364:Generated_Source\PSoC6\pdl\drivers/peripheral/gpio/cy_gpio.h ****                                                 (CY_SIO_VOH_1_25       == (vrefSel)) || \
 365:Generated_Source\PSoC6\pdl\drivers/peripheral/gpio/cy_gpio.h ****                                                 (CY_SIO_VOH_1_49       == (vrefSel)) || \
 366:Generated_Source\PSoC6\pdl\drivers/peripheral/gpio/cy_gpio.h ****                                                 (CY_SIO_VOH_1_67       == (vrefSel)) || \
 367:Generated_Source\PSoC6\pdl\drivers/peripheral/gpio/cy_gpio.h ****                                                 (CY_SIO_VOH_2_08       == (vrefSel)) || \
 368:Generated_Source\PSoC6\pdl\drivers/peripheral/gpio/cy_gpio.h ****                                                 (CY_SIO_VOH_2_50       == (vrefSel)) || \
 369:Generated_Source\PSoC6\pdl\drivers/peripheral/gpio/cy_gpio.h ****                                                 (CY_SIO_VOH_2_78       == (vrefSel)) || \
 370:Generated_Source\PSoC6\pdl\drivers/peripheral/gpio/cy_gpio.h ****                                                 (CY_SIO_VOH_4_16       == (vrefSel)))
 371:Generated_Source\PSoC6\pdl\drivers/peripheral/gpio/cy_gpio.h ****                    
 372:Generated_Source\PSoC6\pdl\drivers/peripheral/gpio/cy_gpio.h **** #define CY_GPIO_IS_PIN_BIT_VALID(pinBit)       (0U == ((pinBit) & (uint32_t)~CY_GPIO_PRT_PINS_MASK)
 373:Generated_Source\PSoC6\pdl\drivers/peripheral/gpio/cy_gpio.h **** #define CY_GPIO_IS_INTR_CFG_VALID(intrCfg)     (0U == ((intrCfg) & (uint32_t)~CY_GPIO_PRT_INTR_CFG_
 374:Generated_Source\PSoC6\pdl\drivers/peripheral/gpio/cy_gpio.h **** #define CY_GPIO_IS_INTR_MASK_VALID(intrMask)   (0U == ((intrMask) & (uint32_t)~CY_GPIO_PRT_INT_MASK
 375:Generated_Source\PSoC6\pdl\drivers/peripheral/gpio/cy_gpio.h **** #define CY_GPIO_IS_SEL_ACT_VALID(selActive)    (0U == ((selActive) & (uint32_t)~CY_GPIO_PRT_SEL_ACT
 376:Generated_Source\PSoC6\pdl\drivers/peripheral/gpio/cy_gpio.h **** 
 377:Generated_Source\PSoC6\pdl\drivers/peripheral/gpio/cy_gpio.h **** #define CY_GPIO_IS_AMUX_SPLIT_VALID(switchCtrl)       (((uint32_t) (switchCtrl)) < GPIO_MAX_SPLIT_C
 378:Generated_Source\PSoC6\pdl\drivers/peripheral/gpio/cy_gpio.h **** 
 379:Generated_Source\PSoC6\pdl\drivers/peripheral/gpio/cy_gpio.h **** #define CY_GPIO_IS_AMUX_CONNECT_VALID(amuxConnect)    ((CY_GPIO_AMUX_OPENALL == (amuxConnect)) || \
 380:Generated_Source\PSoC6\pdl\drivers/peripheral/gpio/cy_gpio.h ****                                                        (CY_GPIO_AMUX_L       == (amuxConnect)) || \
 381:Generated_Source\PSoC6\pdl\drivers/peripheral/gpio/cy_gpio.h ****                                                        (CY_GPIO_AMUX_R       == (amuxConnect)) || \
 382:Generated_Source\PSoC6\pdl\drivers/peripheral/gpio/cy_gpio.h ****                                                        (CY_GPIO_AMUX_LR      == (amuxConnect)) || \
 383:Generated_Source\PSoC6\pdl\drivers/peripheral/gpio/cy_gpio.h ****                                                        (CY_GPIO_AMUX_G       == (amuxConnect)) || \
 384:Generated_Source\PSoC6\pdl\drivers/peripheral/gpio/cy_gpio.h ****                                                        (CY_GPIO_AMUX_GL      == (amuxConnect)) || \
 385:Generated_Source\PSoC6\pdl\drivers/peripheral/gpio/cy_gpio.h ****                                                        (CY_GPIO_AMUX_GR      == (amuxConnect)) || \
 386:Generated_Source\PSoC6\pdl\drivers/peripheral/gpio/cy_gpio.h ****                                                        (CY_GPIO_AMUX_GLR     == (amuxConnect)))
 387:Generated_Source\PSoC6\pdl\drivers/peripheral/gpio/cy_gpio.h **** 
 388:Generated_Source\PSoC6\pdl\drivers/peripheral/gpio/cy_gpio.h **** #define CY_GPIO_IS_AMUX_SELECT_VALID(amuxBus)       ((CY_GPIO_AMUXBUSA       == (amuxBus)) || \
 389:Generated_Source\PSoC6\pdl\drivers/peripheral/gpio/cy_gpio.h ****                                                      (CY_GPIO_AMUXBUSB       == (amuxBus)))
 390:Generated_Source\PSoC6\pdl\drivers/peripheral/gpio/cy_gpio.h **** /** \endcond */
 391:Generated_Source\PSoC6\pdl\drivers/peripheral/gpio/cy_gpio.h **** 
 392:Generated_Source\PSoC6\pdl\drivers/peripheral/gpio/cy_gpio.h **** 
 393:Generated_Source\PSoC6\pdl\drivers/peripheral/gpio/cy_gpio.h **** /***************************************
 394:Generated_Source\PSoC6\pdl\drivers/peripheral/gpio/cy_gpio.h **** *        Function Constants
 395:Generated_Source\PSoC6\pdl\drivers/peripheral/gpio/cy_gpio.h **** ***************************************/
 396:Generated_Source\PSoC6\pdl\drivers/peripheral/gpio/cy_gpio.h **** 
 397:Generated_Source\PSoC6\pdl\drivers/peripheral/gpio/cy_gpio.h **** /**
 398:Generated_Source\PSoC6\pdl\drivers/peripheral/gpio/cy_gpio.h **** * \addtogroup group_gpio_macros
 399:Generated_Source\PSoC6\pdl\drivers/peripheral/gpio/cy_gpio.h **** * \{
 400:Generated_Source\PSoC6\pdl\drivers/peripheral/gpio/cy_gpio.h **** */
 401:Generated_Source\PSoC6\pdl\drivers/peripheral/gpio/cy_gpio.h **** 
ARM GAS  C:\Users\stijn\AppData\Local\Temp\ccVPn9Mg.s 			page 12


 402:Generated_Source\PSoC6\pdl\drivers/peripheral/gpio/cy_gpio.h **** /**
 403:Generated_Source\PSoC6\pdl\drivers/peripheral/gpio/cy_gpio.h **** * \defgroup group_gpio_driveModes Pin drive mode
 404:Generated_Source\PSoC6\pdl\drivers/peripheral/gpio/cy_gpio.h **** * \{
 405:Generated_Source\PSoC6\pdl\drivers/peripheral/gpio/cy_gpio.h **** * Constants to be used for setting the drive mode of the pin.
 406:Generated_Source\PSoC6\pdl\drivers/peripheral/gpio/cy_gpio.h **** */
 407:Generated_Source\PSoC6\pdl\drivers/peripheral/gpio/cy_gpio.h **** #define CY_GPIO_DM_ANALOG                      (0x00UL) /**< Analog High-Z. Input buffer off */
 408:Generated_Source\PSoC6\pdl\drivers/peripheral/gpio/cy_gpio.h **** #define CY_GPIO_DM_PULLUP_IN_OFF               (0x02UL) /**< Resistive Pull-Up. Input buffer off */
 409:Generated_Source\PSoC6\pdl\drivers/peripheral/gpio/cy_gpio.h **** #define CY_GPIO_DM_PULLDOWN_IN_OFF             (0x03UL) /**< Resistive Pull-Down. Input buffer off 
 410:Generated_Source\PSoC6\pdl\drivers/peripheral/gpio/cy_gpio.h **** #define CY_GPIO_DM_OD_DRIVESLOW_IN_OFF         (0x04UL) /**< Open Drain, Drives Low. Input buffer o
 411:Generated_Source\PSoC6\pdl\drivers/peripheral/gpio/cy_gpio.h **** #define CY_GPIO_DM_OD_DRIVESHIGH_IN_OFF        (0x05UL) /**< Open Drain, Drives High. Input buffer 
 412:Generated_Source\PSoC6\pdl\drivers/peripheral/gpio/cy_gpio.h **** #define CY_GPIO_DM_STRONG_IN_OFF               (0x06UL) /**< Strong Drive. Input buffer off */
 413:Generated_Source\PSoC6\pdl\drivers/peripheral/gpio/cy_gpio.h **** #define CY_GPIO_DM_PULLUP_DOWN_IN_OFF          (0x07UL) /**< Resistive Pull-Up/Down. Input buffer o
 414:Generated_Source\PSoC6\pdl\drivers/peripheral/gpio/cy_gpio.h **** #define CY_GPIO_DM_HIGHZ                       (0x08UL) /**< Digital High-Z. Input buffer on */
 415:Generated_Source\PSoC6\pdl\drivers/peripheral/gpio/cy_gpio.h **** #define CY_GPIO_DM_PULLUP                      (0x0AUL) /**< Resistive Pull-Up. Input buffer on */
 416:Generated_Source\PSoC6\pdl\drivers/peripheral/gpio/cy_gpio.h **** #define CY_GPIO_DM_PULLDOWN                    (0x0BUL) /**< Resistive Pull-Down. Input buffer on *
 417:Generated_Source\PSoC6\pdl\drivers/peripheral/gpio/cy_gpio.h **** #define CY_GPIO_DM_OD_DRIVESLOW                (0x0CUL) /**< Open Drain, Drives Low. Input buffer o
 418:Generated_Source\PSoC6\pdl\drivers/peripheral/gpio/cy_gpio.h **** #define CY_GPIO_DM_OD_DRIVESHIGH               (0x0DUL) /**< Open Drain, Drives High. Input buffer 
 419:Generated_Source\PSoC6\pdl\drivers/peripheral/gpio/cy_gpio.h **** #define CY_GPIO_DM_STRONG                      (0x0EUL) /**< Strong Drive. Input buffer on */
 420:Generated_Source\PSoC6\pdl\drivers/peripheral/gpio/cy_gpio.h **** #define CY_GPIO_DM_PULLUP_DOWN                 (0x0FUL) /**< Resistive Pull-Up/Down. Input buffer o
 421:Generated_Source\PSoC6\pdl\drivers/peripheral/gpio/cy_gpio.h **** /** \} */
 422:Generated_Source\PSoC6\pdl\drivers/peripheral/gpio/cy_gpio.h **** 
 423:Generated_Source\PSoC6\pdl\drivers/peripheral/gpio/cy_gpio.h **** /**
 424:Generated_Source\PSoC6\pdl\drivers/peripheral/gpio/cy_gpio.h **** * \defgroup group_gpio_vtrip Voltage trip mode
 425:Generated_Source\PSoC6\pdl\drivers/peripheral/gpio/cy_gpio.h **** * \{
 426:Generated_Source\PSoC6\pdl\drivers/peripheral/gpio/cy_gpio.h **** * Constants to be used for setting the voltage trip type on the pin.
 427:Generated_Source\PSoC6\pdl\drivers/peripheral/gpio/cy_gpio.h **** */
 428:Generated_Source\PSoC6\pdl\drivers/peripheral/gpio/cy_gpio.h **** #define CY_GPIO_VTRIP_CMOS                     (0x00UL) /**< Input buffer compatible with CMOS and 
 429:Generated_Source\PSoC6\pdl\drivers/peripheral/gpio/cy_gpio.h **** #define CY_GPIO_VTRIP_TTL                      (0x01UL) /**< Input buffer compatible with TTL and M
 430:Generated_Source\PSoC6\pdl\drivers/peripheral/gpio/cy_gpio.h **** /** \} */
 431:Generated_Source\PSoC6\pdl\drivers/peripheral/gpio/cy_gpio.h **** 
 432:Generated_Source\PSoC6\pdl\drivers/peripheral/gpio/cy_gpio.h **** /**
 433:Generated_Source\PSoC6\pdl\drivers/peripheral/gpio/cy_gpio.h **** * \defgroup group_gpio_slewRate Slew Rate Mode
 434:Generated_Source\PSoC6\pdl\drivers/peripheral/gpio/cy_gpio.h **** * \{
 435:Generated_Source\PSoC6\pdl\drivers/peripheral/gpio/cy_gpio.h **** * Constants to be used for setting the slew rate of the pin.
 436:Generated_Source\PSoC6\pdl\drivers/peripheral/gpio/cy_gpio.h **** */
 437:Generated_Source\PSoC6\pdl\drivers/peripheral/gpio/cy_gpio.h **** #define CY_GPIO_SLEW_FAST                      (0x00UL) /**< Fast slew rate */
 438:Generated_Source\PSoC6\pdl\drivers/peripheral/gpio/cy_gpio.h **** #define CY_GPIO_SLEW_SLOW                      (0x01UL) /**< Slow slew rate */
 439:Generated_Source\PSoC6\pdl\drivers/peripheral/gpio/cy_gpio.h **** /** \} */
 440:Generated_Source\PSoC6\pdl\drivers/peripheral/gpio/cy_gpio.h **** 
 441:Generated_Source\PSoC6\pdl\drivers/peripheral/gpio/cy_gpio.h **** /**
 442:Generated_Source\PSoC6\pdl\drivers/peripheral/gpio/cy_gpio.h **** * \defgroup group_gpio_driveStrength Pin drive strength
 443:Generated_Source\PSoC6\pdl\drivers/peripheral/gpio/cy_gpio.h **** * \{
 444:Generated_Source\PSoC6\pdl\drivers/peripheral/gpio/cy_gpio.h **** * Constants to be used for setting the drive strength of the pin.
 445:Generated_Source\PSoC6\pdl\drivers/peripheral/gpio/cy_gpio.h **** */
 446:Generated_Source\PSoC6\pdl\drivers/peripheral/gpio/cy_gpio.h **** #define CY_GPIO_DRIVE_FULL                     (0x00UL) /**< Full drive strength: Max drive current
 447:Generated_Source\PSoC6\pdl\drivers/peripheral/gpio/cy_gpio.h **** #define CY_GPIO_DRIVE_1_2                      (0x01UL) /**< 1/2 drive strength: 1/2 drive current 
 448:Generated_Source\PSoC6\pdl\drivers/peripheral/gpio/cy_gpio.h **** #define CY_GPIO_DRIVE_1_4                      (0x02UL) /**< 1/4 drive strength: 1/4 drive current 
 449:Generated_Source\PSoC6\pdl\drivers/peripheral/gpio/cy_gpio.h **** #define CY_GPIO_DRIVE_1_8                      (0x03UL) /**< 1/8 drive strength: 1/8 drive current 
 450:Generated_Source\PSoC6\pdl\drivers/peripheral/gpio/cy_gpio.h **** /** \} */
 451:Generated_Source\PSoC6\pdl\drivers/peripheral/gpio/cy_gpio.h **** 
 452:Generated_Source\PSoC6\pdl\drivers/peripheral/gpio/cy_gpio.h **** /**
 453:Generated_Source\PSoC6\pdl\drivers/peripheral/gpio/cy_gpio.h **** * \defgroup group_gpio_interruptTrigger Interrupt trigger type
 454:Generated_Source\PSoC6\pdl\drivers/peripheral/gpio/cy_gpio.h **** * \{
 455:Generated_Source\PSoC6\pdl\drivers/peripheral/gpio/cy_gpio.h **** * Constants to be used for setting the interrupt trigger type on the pin.
 456:Generated_Source\PSoC6\pdl\drivers/peripheral/gpio/cy_gpio.h **** */
 457:Generated_Source\PSoC6\pdl\drivers/peripheral/gpio/cy_gpio.h **** #define CY_GPIO_INTR_DISABLE                   (0x00UL) /**< Disable the pin interrupt generation *
 458:Generated_Source\PSoC6\pdl\drivers/peripheral/gpio/cy_gpio.h **** #define CY_GPIO_INTR_RISING                    (0x01UL) /**< Rising-Edge interrupt */
ARM GAS  C:\Users\stijn\AppData\Local\Temp\ccVPn9Mg.s 			page 13


 459:Generated_Source\PSoC6\pdl\drivers/peripheral/gpio/cy_gpio.h **** #define CY_GPIO_INTR_FALLING                   (0x02UL) /**< Falling-Edge interrupt */
 460:Generated_Source\PSoC6\pdl\drivers/peripheral/gpio/cy_gpio.h **** #define CY_GPIO_INTR_BOTH                      (0x03UL) /**< Both-Edge interrupt */
 461:Generated_Source\PSoC6\pdl\drivers/peripheral/gpio/cy_gpio.h **** /** \} */
 462:Generated_Source\PSoC6\pdl\drivers/peripheral/gpio/cy_gpio.h **** 
 463:Generated_Source\PSoC6\pdl\drivers/peripheral/gpio/cy_gpio.h **** /**
 464:Generated_Source\PSoC6\pdl\drivers/peripheral/gpio/cy_gpio.h **** * \defgroup group_gpio_sioVreg SIO output buffer mode
 465:Generated_Source\PSoC6\pdl\drivers/peripheral/gpio/cy_gpio.h **** * \{
 466:Generated_Source\PSoC6\pdl\drivers/peripheral/gpio/cy_gpio.h **** * Constants to be used for setting the SIO output buffer mode on the pin.
 467:Generated_Source\PSoC6\pdl\drivers/peripheral/gpio/cy_gpio.h **** */
 468:Generated_Source\PSoC6\pdl\drivers/peripheral/gpio/cy_gpio.h **** #define CY_SIO_VREG_UNREGULATED                (0x00UL) /**< Unregulated output buffer */
 469:Generated_Source\PSoC6\pdl\drivers/peripheral/gpio/cy_gpio.h **** #define CY_SIO_VREG_REGULATED                  (0x01UL) /**< Regulated output buffer */
 470:Generated_Source\PSoC6\pdl\drivers/peripheral/gpio/cy_gpio.h **** /** \} */
 471:Generated_Source\PSoC6\pdl\drivers/peripheral/gpio/cy_gpio.h **** 
 472:Generated_Source\PSoC6\pdl\drivers/peripheral/gpio/cy_gpio.h **** /**
 473:Generated_Source\PSoC6\pdl\drivers/peripheral/gpio/cy_gpio.h **** * \defgroup group_gpio_sioIbuf SIO input buffer mode
 474:Generated_Source\PSoC6\pdl\drivers/peripheral/gpio/cy_gpio.h **** * \{
 475:Generated_Source\PSoC6\pdl\drivers/peripheral/gpio/cy_gpio.h **** * Constants to be used for setting the SIO input buffer mode on the pin.
 476:Generated_Source\PSoC6\pdl\drivers/peripheral/gpio/cy_gpio.h **** */
 477:Generated_Source\PSoC6\pdl\drivers/peripheral/gpio/cy_gpio.h **** #define CY_SIO_IBUF_SINGLEENDED                (0x00UL) /**< Single ended input buffer */
 478:Generated_Source\PSoC6\pdl\drivers/peripheral/gpio/cy_gpio.h **** #define CY_SIO_IBUF_DIFFERENTIAL               (0x01UL) /**< Differential input buffer */
 479:Generated_Source\PSoC6\pdl\drivers/peripheral/gpio/cy_gpio.h **** /** \} */
 480:Generated_Source\PSoC6\pdl\drivers/peripheral/gpio/cy_gpio.h **** 
 481:Generated_Source\PSoC6\pdl\drivers/peripheral/gpio/cy_gpio.h **** /**
 482:Generated_Source\PSoC6\pdl\drivers/peripheral/gpio/cy_gpio.h **** * \defgroup group_gpio_sioVtrip SIO input buffer trip-point
 483:Generated_Source\PSoC6\pdl\drivers/peripheral/gpio/cy_gpio.h **** * \{
 484:Generated_Source\PSoC6\pdl\drivers/peripheral/gpio/cy_gpio.h **** * Constants to be used for setting the SIO input buffer trip-point of the pin.
 485:Generated_Source\PSoC6\pdl\drivers/peripheral/gpio/cy_gpio.h **** */
 486:Generated_Source\PSoC6\pdl\drivers/peripheral/gpio/cy_gpio.h **** #define CY_SIO_VTRIP_CMOS                      (0x00UL) /**< CMOS input buffer (single-ended) */
 487:Generated_Source\PSoC6\pdl\drivers/peripheral/gpio/cy_gpio.h **** #define CY_SIO_VTRIP_TTL                       (0x01UL) /**< TTL input buffer (single-ended) */
 488:Generated_Source\PSoC6\pdl\drivers/peripheral/gpio/cy_gpio.h **** #define CY_SIO_VTRIP_0_5VDDIO_0_5VOH           (0x00UL) /**< 0.5xVddio or 0.5xVoh (differential) */
 489:Generated_Source\PSoC6\pdl\drivers/peripheral/gpio/cy_gpio.h **** #define CY_SIO_VTRIP_0_4VDDIO_1_0VREF          (0x01UL) /**< 0.4xVddio or 0.4xVoh (differential) */
 490:Generated_Source\PSoC6\pdl\drivers/peripheral/gpio/cy_gpio.h **** /** \} */
 491:Generated_Source\PSoC6\pdl\drivers/peripheral/gpio/cy_gpio.h **** 
 492:Generated_Source\PSoC6\pdl\drivers/peripheral/gpio/cy_gpio.h **** /**
 493:Generated_Source\PSoC6\pdl\drivers/peripheral/gpio/cy_gpio.h **** * \defgroup group_gpio_sioVref SIO reference voltage for input buffer trip-point
 494:Generated_Source\PSoC6\pdl\drivers/peripheral/gpio/cy_gpio.h **** * \{
 495:Generated_Source\PSoC6\pdl\drivers/peripheral/gpio/cy_gpio.h **** * Constants to be used for setting the reference voltage of SIO input buffer trip-point.
 496:Generated_Source\PSoC6\pdl\drivers/peripheral/gpio/cy_gpio.h **** */
 497:Generated_Source\PSoC6\pdl\drivers/peripheral/gpio/cy_gpio.h **** #define CY_SIO_VREF_PINREF                     (0x00UL) /**< Vref from analog pin */
 498:Generated_Source\PSoC6\pdl\drivers/peripheral/gpio/cy_gpio.h **** #define CY_SIO_VREF_1_2V                       (0x01UL) /**< Vref from internal 1.2V reference */
 499:Generated_Source\PSoC6\pdl\drivers/peripheral/gpio/cy_gpio.h **** #define CY_SIO_VREF_AMUX_A                     (0x02UL) /**< Vref from AMUXBUS_A */
 500:Generated_Source\PSoC6\pdl\drivers/peripheral/gpio/cy_gpio.h **** #define CY_SIO_VREF_AMUX_B                     (0x03UL) /**< Vref from AMUXBUS_B */
 501:Generated_Source\PSoC6\pdl\drivers/peripheral/gpio/cy_gpio.h **** /** \} */
 502:Generated_Source\PSoC6\pdl\drivers/peripheral/gpio/cy_gpio.h **** 
 503:Generated_Source\PSoC6\pdl\drivers/peripheral/gpio/cy_gpio.h **** /**
 504:Generated_Source\PSoC6\pdl\drivers/peripheral/gpio/cy_gpio.h **** * \defgroup group_gpio_sioVoh Regulated output voltage level (Voh) and input buffer trip-point of a
 505:Generated_Source\PSoC6\pdl\drivers/peripheral/gpio/cy_gpio.h **** * \{
 506:Generated_Source\PSoC6\pdl\drivers/peripheral/gpio/cy_gpio.h **** * Constants to be used for setting the Voh and input buffer trip-point of an SIO pair
 507:Generated_Source\PSoC6\pdl\drivers/peripheral/gpio/cy_gpio.h **** */
 508:Generated_Source\PSoC6\pdl\drivers/peripheral/gpio/cy_gpio.h **** #define CY_SIO_VOH_1_00                        (0x00UL) /**< Voh = 1 x Reference */
 509:Generated_Source\PSoC6\pdl\drivers/peripheral/gpio/cy_gpio.h **** #define CY_SIO_VOH_1_25                        (0x01UL) /**< Voh = 1.25 x Reference */
 510:Generated_Source\PSoC6\pdl\drivers/peripheral/gpio/cy_gpio.h **** #define CY_SIO_VOH_1_49                        (0x02UL) /**< Voh = 1.49 x Reference */
 511:Generated_Source\PSoC6\pdl\drivers/peripheral/gpio/cy_gpio.h **** #define CY_SIO_VOH_1_67                        (0x03UL) /**< Voh = 1.67 x Reference */
 512:Generated_Source\PSoC6\pdl\drivers/peripheral/gpio/cy_gpio.h **** #define CY_SIO_VOH_2_08                        (0x04UL) /**< Voh = 2.08 x Reference */
 513:Generated_Source\PSoC6\pdl\drivers/peripheral/gpio/cy_gpio.h **** #define CY_SIO_VOH_2_50                        (0x05UL) /**< Voh = 2.50 x Reference */
 514:Generated_Source\PSoC6\pdl\drivers/peripheral/gpio/cy_gpio.h **** #define CY_SIO_VOH_2_78                        (0x06UL) /**< Voh = 2.78 x Reference */
 515:Generated_Source\PSoC6\pdl\drivers/peripheral/gpio/cy_gpio.h **** #define CY_SIO_VOH_4_16                        (0x07UL) /**< Voh = 4.16 x Reference */
ARM GAS  C:\Users\stijn\AppData\Local\Temp\ccVPn9Mg.s 			page 14


 516:Generated_Source\PSoC6\pdl\drivers/peripheral/gpio/cy_gpio.h **** /** \} */
 517:Generated_Source\PSoC6\pdl\drivers/peripheral/gpio/cy_gpio.h **** 
 518:Generated_Source\PSoC6\pdl\drivers/peripheral/gpio/cy_gpio.h **** /** \} group_gpio_macros */
 519:Generated_Source\PSoC6\pdl\drivers/peripheral/gpio/cy_gpio.h **** 
 520:Generated_Source\PSoC6\pdl\drivers/peripheral/gpio/cy_gpio.h **** /***************************************
 521:Generated_Source\PSoC6\pdl\drivers/peripheral/gpio/cy_gpio.h **** *        Function Prototypes
 522:Generated_Source\PSoC6\pdl\drivers/peripheral/gpio/cy_gpio.h **** ***************************************/
 523:Generated_Source\PSoC6\pdl\drivers/peripheral/gpio/cy_gpio.h **** 
 524:Generated_Source\PSoC6\pdl\drivers/peripheral/gpio/cy_gpio.h **** /**
 525:Generated_Source\PSoC6\pdl\drivers/peripheral/gpio/cy_gpio.h **** * \addtogroup group_gpio_functions
 526:Generated_Source\PSoC6\pdl\drivers/peripheral/gpio/cy_gpio.h **** * \{
 527:Generated_Source\PSoC6\pdl\drivers/peripheral/gpio/cy_gpio.h **** */
 528:Generated_Source\PSoC6\pdl\drivers/peripheral/gpio/cy_gpio.h **** 
 529:Generated_Source\PSoC6\pdl\drivers/peripheral/gpio/cy_gpio.h **** /**
 530:Generated_Source\PSoC6\pdl\drivers/peripheral/gpio/cy_gpio.h **** * \addtogroup group_gpio_functions_init
 531:Generated_Source\PSoC6\pdl\drivers/peripheral/gpio/cy_gpio.h **** * \{
 532:Generated_Source\PSoC6\pdl\drivers/peripheral/gpio/cy_gpio.h **** */
 533:Generated_Source\PSoC6\pdl\drivers/peripheral/gpio/cy_gpio.h **** 
 534:Generated_Source\PSoC6\pdl\drivers/peripheral/gpio/cy_gpio.h **** cy_en_gpio_status_t Cy_GPIO_Pin_Init(GPIO_PRT_Type* base, uint32_t pinNum, const cy_stc_gpio_pin_co
 535:Generated_Source\PSoC6\pdl\drivers/peripheral/gpio/cy_gpio.h **** cy_en_gpio_status_t Cy_GPIO_Port_Init(GPIO_PRT_Type* base, const cy_stc_gpio_prt_config_t *config);
 536:Generated_Source\PSoC6\pdl\drivers/peripheral/gpio/cy_gpio.h **** void Cy_GPIO_Pin_FastInit(GPIO_PRT_Type* base, uint32_t pinNum, uint32_t driveMode, uint32_t outVal
 537:Generated_Source\PSoC6\pdl\drivers/peripheral/gpio/cy_gpio.h **** void Cy_GPIO_Port_Deinit(GPIO_PRT_Type* base);
 538:Generated_Source\PSoC6\pdl\drivers/peripheral/gpio/cy_gpio.h **** __STATIC_INLINE void Cy_GPIO_SetHSIOM(GPIO_PRT_Type* base, uint32_t pinNum, en_hsiom_sel_t value);
 539:Generated_Source\PSoC6\pdl\drivers/peripheral/gpio/cy_gpio.h **** __STATIC_INLINE en_hsiom_sel_t Cy_GPIO_GetHSIOM(GPIO_PRT_Type* base, uint32_t pinNum);
 540:Generated_Source\PSoC6\pdl\drivers/peripheral/gpio/cy_gpio.h **** __STATIC_INLINE GPIO_PRT_Type* Cy_GPIO_PortToAddr(uint32_t portNum);
 541:Generated_Source\PSoC6\pdl\drivers/peripheral/gpio/cy_gpio.h **** 
 542:Generated_Source\PSoC6\pdl\drivers/peripheral/gpio/cy_gpio.h **** /** \} group_gpio_functions_init */
 543:Generated_Source\PSoC6\pdl\drivers/peripheral/gpio/cy_gpio.h **** 
 544:Generated_Source\PSoC6\pdl\drivers/peripheral/gpio/cy_gpio.h **** /**
 545:Generated_Source\PSoC6\pdl\drivers/peripheral/gpio/cy_gpio.h **** * \addtogroup group_gpio_functions_gpio
 546:Generated_Source\PSoC6\pdl\drivers/peripheral/gpio/cy_gpio.h **** * \{
 547:Generated_Source\PSoC6\pdl\drivers/peripheral/gpio/cy_gpio.h **** */
 548:Generated_Source\PSoC6\pdl\drivers/peripheral/gpio/cy_gpio.h **** 
 549:Generated_Source\PSoC6\pdl\drivers/peripheral/gpio/cy_gpio.h **** void Cy_GPIO_SetAmuxSplit(cy_en_amux_split_t switchCtrl, cy_en_gpio_amuxconnect_t amuxConnect, cy_e
 550:Generated_Source\PSoC6\pdl\drivers/peripheral/gpio/cy_gpio.h **** cy_en_gpio_amuxconnect_t Cy_GPIO_GetAmuxSplit(cy_en_amux_split_t switchCtrl, cy_en_gpio_amuxselect_
 551:Generated_Source\PSoC6\pdl\drivers/peripheral/gpio/cy_gpio.h **** 
 552:Generated_Source\PSoC6\pdl\drivers/peripheral/gpio/cy_gpio.h **** __STATIC_INLINE uint32_t Cy_GPIO_Read(GPIO_PRT_Type* base, uint32_t pinNum);
 553:Generated_Source\PSoC6\pdl\drivers/peripheral/gpio/cy_gpio.h **** __STATIC_INLINE void Cy_GPIO_Write(GPIO_PRT_Type* base, uint32_t pinNum, uint32_t value);
 554:Generated_Source\PSoC6\pdl\drivers/peripheral/gpio/cy_gpio.h **** __STATIC_INLINE uint32_t Cy_GPIO_ReadOut(GPIO_PRT_Type* base, uint32_t pinNum);
 555:Generated_Source\PSoC6\pdl\drivers/peripheral/gpio/cy_gpio.h **** __STATIC_INLINE void Cy_GPIO_Set(GPIO_PRT_Type* base, uint32_t pinNum);
 556:Generated_Source\PSoC6\pdl\drivers/peripheral/gpio/cy_gpio.h **** __STATIC_INLINE void Cy_GPIO_Clr(GPIO_PRT_Type* base, uint32_t pinNum);
 557:Generated_Source\PSoC6\pdl\drivers/peripheral/gpio/cy_gpio.h **** __STATIC_INLINE void Cy_GPIO_Inv(GPIO_PRT_Type* base, uint32_t pinNum);
 558:Generated_Source\PSoC6\pdl\drivers/peripheral/gpio/cy_gpio.h **** __STATIC_INLINE void Cy_GPIO_SetDrivemode(GPIO_PRT_Type* base, uint32_t pinNum, uint32_t value);
 559:Generated_Source\PSoC6\pdl\drivers/peripheral/gpio/cy_gpio.h **** __STATIC_INLINE uint32_t Cy_GPIO_GetDrivemode(GPIO_PRT_Type* base, uint32_t pinNum);
 560:Generated_Source\PSoC6\pdl\drivers/peripheral/gpio/cy_gpio.h **** __STATIC_INLINE void Cy_GPIO_SetVtrip(GPIO_PRT_Type* base, uint32_t pinNum, uint32_t value);
 561:Generated_Source\PSoC6\pdl\drivers/peripheral/gpio/cy_gpio.h **** __STATIC_INLINE uint32_t Cy_GPIO_GetVtrip(GPIO_PRT_Type* base, uint32_t pinNum);
 562:Generated_Source\PSoC6\pdl\drivers/peripheral/gpio/cy_gpio.h **** __STATIC_INLINE void Cy_GPIO_SetSlewRate(GPIO_PRT_Type* base, uint32_t pinNum, uint32_t value);
 563:Generated_Source\PSoC6\pdl\drivers/peripheral/gpio/cy_gpio.h **** __STATIC_INLINE uint32_t Cy_GPIO_GetSlewRate(GPIO_PRT_Type* base, uint32_t pinNum);
 564:Generated_Source\PSoC6\pdl\drivers/peripheral/gpio/cy_gpio.h **** __STATIC_INLINE void Cy_GPIO_SetDriveSel(GPIO_PRT_Type* base, uint32_t pinNum, uint32_t value);
 565:Generated_Source\PSoC6\pdl\drivers/peripheral/gpio/cy_gpio.h **** __STATIC_INLINE uint32_t Cy_GPIO_GetDriveSel(GPIO_PRT_Type* base, uint32_t pinNum);
 566:Generated_Source\PSoC6\pdl\drivers/peripheral/gpio/cy_gpio.h **** 
 567:Generated_Source\PSoC6\pdl\drivers/peripheral/gpio/cy_gpio.h **** /** \} group_gpio_functions_gpio */
 568:Generated_Source\PSoC6\pdl\drivers/peripheral/gpio/cy_gpio.h **** 
 569:Generated_Source\PSoC6\pdl\drivers/peripheral/gpio/cy_gpio.h **** /**
 570:Generated_Source\PSoC6\pdl\drivers/peripheral/gpio/cy_gpio.h **** * \addtogroup group_gpio_functions_sio
 571:Generated_Source\PSoC6\pdl\drivers/peripheral/gpio/cy_gpio.h **** * \{
 572:Generated_Source\PSoC6\pdl\drivers/peripheral/gpio/cy_gpio.h **** */
ARM GAS  C:\Users\stijn\AppData\Local\Temp\ccVPn9Mg.s 			page 15


 573:Generated_Source\PSoC6\pdl\drivers/peripheral/gpio/cy_gpio.h **** 
 574:Generated_Source\PSoC6\pdl\drivers/peripheral/gpio/cy_gpio.h **** __STATIC_INLINE void Cy_GPIO_SetVregEn(GPIO_PRT_Type* base, uint32_t pinNum, uint32_t value);
 575:Generated_Source\PSoC6\pdl\drivers/peripheral/gpio/cy_gpio.h **** __STATIC_INLINE uint32_t Cy_GPIO_GetVregEn(GPIO_PRT_Type* base, uint32_t pinNum);
 576:Generated_Source\PSoC6\pdl\drivers/peripheral/gpio/cy_gpio.h **** __STATIC_INLINE void Cy_GPIO_SetIbufMode(GPIO_PRT_Type* base, uint32_t pinNum, uint32_t value);
 577:Generated_Source\PSoC6\pdl\drivers/peripheral/gpio/cy_gpio.h **** __STATIC_INLINE uint32_t Cy_GPIO_GetIbufMode(GPIO_PRT_Type* base, uint32_t pinNum);
 578:Generated_Source\PSoC6\pdl\drivers/peripheral/gpio/cy_gpio.h **** __STATIC_INLINE void Cy_GPIO_SetVtripSel(GPIO_PRT_Type* base, uint32_t pinNum, uint32_t value);
 579:Generated_Source\PSoC6\pdl\drivers/peripheral/gpio/cy_gpio.h **** __STATIC_INLINE uint32_t Cy_GPIO_GetVtripSel(GPIO_PRT_Type* base, uint32_t pinNum);
 580:Generated_Source\PSoC6\pdl\drivers/peripheral/gpio/cy_gpio.h **** __STATIC_INLINE void Cy_GPIO_SetVrefSel(GPIO_PRT_Type* base, uint32_t pinNum, uint32_t value);
 581:Generated_Source\PSoC6\pdl\drivers/peripheral/gpio/cy_gpio.h **** __STATIC_INLINE uint32_t Cy_GPIO_GetVrefSel(GPIO_PRT_Type* base, uint32_t pinNum);
 582:Generated_Source\PSoC6\pdl\drivers/peripheral/gpio/cy_gpio.h **** __STATIC_INLINE void Cy_GPIO_SetVohSel(GPIO_PRT_Type* base, uint32_t pinNum, uint32_t value);
 583:Generated_Source\PSoC6\pdl\drivers/peripheral/gpio/cy_gpio.h **** __STATIC_INLINE uint32_t Cy_GPIO_GetVohSel(GPIO_PRT_Type* base, uint32_t pinNum);
 584:Generated_Source\PSoC6\pdl\drivers/peripheral/gpio/cy_gpio.h **** 
 585:Generated_Source\PSoC6\pdl\drivers/peripheral/gpio/cy_gpio.h **** /** \} group_gpio_functions_sio */
 586:Generated_Source\PSoC6\pdl\drivers/peripheral/gpio/cy_gpio.h **** 
 587:Generated_Source\PSoC6\pdl\drivers/peripheral/gpio/cy_gpio.h **** /**
 588:Generated_Source\PSoC6\pdl\drivers/peripheral/gpio/cy_gpio.h **** * \addtogroup group_gpio_functions_interrupt
 589:Generated_Source\PSoC6\pdl\drivers/peripheral/gpio/cy_gpio.h **** * \{
 590:Generated_Source\PSoC6\pdl\drivers/peripheral/gpio/cy_gpio.h **** */
 591:Generated_Source\PSoC6\pdl\drivers/peripheral/gpio/cy_gpio.h **** 
 592:Generated_Source\PSoC6\pdl\drivers/peripheral/gpio/cy_gpio.h **** __STATIC_INLINE uint32_t Cy_GPIO_GetInterruptStatus(GPIO_PRT_Type* base, uint32_t pinNum);
 593:Generated_Source\PSoC6\pdl\drivers/peripheral/gpio/cy_gpio.h **** __STATIC_INLINE void Cy_GPIO_ClearInterrupt(GPIO_PRT_Type* base, uint32_t pinNum);
 594:Generated_Source\PSoC6\pdl\drivers/peripheral/gpio/cy_gpio.h **** __STATIC_INLINE void Cy_GPIO_SetInterruptMask(GPIO_PRT_Type* base, uint32_t pinNum, uint32_t value)
 595:Generated_Source\PSoC6\pdl\drivers/peripheral/gpio/cy_gpio.h **** __STATIC_INLINE uint32_t Cy_GPIO_GetInterruptMask(GPIO_PRT_Type* base, uint32_t pinNum);
 596:Generated_Source\PSoC6\pdl\drivers/peripheral/gpio/cy_gpio.h **** __STATIC_INLINE uint32_t Cy_GPIO_GetInterruptStatusMasked(GPIO_PRT_Type* base, uint32_t pinNum);
 597:Generated_Source\PSoC6\pdl\drivers/peripheral/gpio/cy_gpio.h **** __STATIC_INLINE void Cy_GPIO_SetSwInterrupt(GPIO_PRT_Type* base, uint32_t pinNum);
 598:Generated_Source\PSoC6\pdl\drivers/peripheral/gpio/cy_gpio.h **** __STATIC_INLINE void Cy_GPIO_SetInterruptEdge(GPIO_PRT_Type* base, uint32_t pinNum, uint32_t value)
 599:Generated_Source\PSoC6\pdl\drivers/peripheral/gpio/cy_gpio.h **** __STATIC_INLINE uint32_t Cy_GPIO_GetInterruptEdge(GPIO_PRT_Type* base, uint32_t pinNum);
 600:Generated_Source\PSoC6\pdl\drivers/peripheral/gpio/cy_gpio.h **** __STATIC_INLINE void Cy_GPIO_SetFilter(GPIO_PRT_Type* base, uint32_t value);
 601:Generated_Source\PSoC6\pdl\drivers/peripheral/gpio/cy_gpio.h **** __STATIC_INLINE uint32_t Cy_GPIO_GetFilter(GPIO_PRT_Type* base);
 602:Generated_Source\PSoC6\pdl\drivers/peripheral/gpio/cy_gpio.h **** 
 603:Generated_Source\PSoC6\pdl\drivers/peripheral/gpio/cy_gpio.h **** __STATIC_INLINE uint32_t Cy_GPIO_GetInterruptCause0(void);
 604:Generated_Source\PSoC6\pdl\drivers/peripheral/gpio/cy_gpio.h **** __STATIC_INLINE uint32_t Cy_GPIO_GetInterruptCause1(void);
 605:Generated_Source\PSoC6\pdl\drivers/peripheral/gpio/cy_gpio.h **** __STATIC_INLINE uint32_t Cy_GPIO_GetInterruptCause2(void);
 606:Generated_Source\PSoC6\pdl\drivers/peripheral/gpio/cy_gpio.h **** __STATIC_INLINE uint32_t Cy_GPIO_GetInterruptCause3(void);
 607:Generated_Source\PSoC6\pdl\drivers/peripheral/gpio/cy_gpio.h **** 
 608:Generated_Source\PSoC6\pdl\drivers/peripheral/gpio/cy_gpio.h **** /** \} group_gpio_functions_interrupt */
 609:Generated_Source\PSoC6\pdl\drivers/peripheral/gpio/cy_gpio.h **** 
 610:Generated_Source\PSoC6\pdl\drivers/peripheral/gpio/cy_gpio.h **** 
 611:Generated_Source\PSoC6\pdl\drivers/peripheral/gpio/cy_gpio.h **** /**
 612:Generated_Source\PSoC6\pdl\drivers/peripheral/gpio/cy_gpio.h **** * \addtogroup group_gpio_functions_init
 613:Generated_Source\PSoC6\pdl\drivers/peripheral/gpio/cy_gpio.h **** * \{
 614:Generated_Source\PSoC6\pdl\drivers/peripheral/gpio/cy_gpio.h **** */
 615:Generated_Source\PSoC6\pdl\drivers/peripheral/gpio/cy_gpio.h **** 
 616:Generated_Source\PSoC6\pdl\drivers/peripheral/gpio/cy_gpio.h **** /*******************************************************************************
 617:Generated_Source\PSoC6\pdl\drivers/peripheral/gpio/cy_gpio.h **** * Function Name: Cy_GPIO_SetHSIOM
 618:Generated_Source\PSoC6\pdl\drivers/peripheral/gpio/cy_gpio.h **** ****************************************************************************//**
 619:Generated_Source\PSoC6\pdl\drivers/peripheral/gpio/cy_gpio.h **** *
 620:Generated_Source\PSoC6\pdl\drivers/peripheral/gpio/cy_gpio.h **** * Configures the HSIOM connection to the pin.
 621:Generated_Source\PSoC6\pdl\drivers/peripheral/gpio/cy_gpio.h **** *
 622:Generated_Source\PSoC6\pdl\drivers/peripheral/gpio/cy_gpio.h **** * Connects the specified High-Speed Input Output Multiplexer (HSIOM) selection
 623:Generated_Source\PSoC6\pdl\drivers/peripheral/gpio/cy_gpio.h **** * to the pin.
 624:Generated_Source\PSoC6\pdl\drivers/peripheral/gpio/cy_gpio.h **** *
 625:Generated_Source\PSoC6\pdl\drivers/peripheral/gpio/cy_gpio.h **** * \param base
 626:Generated_Source\PSoC6\pdl\drivers/peripheral/gpio/cy_gpio.h **** * Pointer to the pin's port register base address
 627:Generated_Source\PSoC6\pdl\drivers/peripheral/gpio/cy_gpio.h **** *
 628:Generated_Source\PSoC6\pdl\drivers/peripheral/gpio/cy_gpio.h **** * \param pinNum
 629:Generated_Source\PSoC6\pdl\drivers/peripheral/gpio/cy_gpio.h **** * Position of the pin bit-field within the port register
ARM GAS  C:\Users\stijn\AppData\Local\Temp\ccVPn9Mg.s 			page 16


 630:Generated_Source\PSoC6\pdl\drivers/peripheral/gpio/cy_gpio.h **** *
 631:Generated_Source\PSoC6\pdl\drivers/peripheral/gpio/cy_gpio.h **** * \param value
 632:Generated_Source\PSoC6\pdl\drivers/peripheral/gpio/cy_gpio.h **** * HSIOM input selection
 633:Generated_Source\PSoC6\pdl\drivers/peripheral/gpio/cy_gpio.h **** *
 634:Generated_Source\PSoC6\pdl\drivers/peripheral/gpio/cy_gpio.h **** * \note 
 635:Generated_Source\PSoC6\pdl\drivers/peripheral/gpio/cy_gpio.h **** * This function modifies a port register in a read-modify-write operation. It is
 636:Generated_Source\PSoC6\pdl\drivers/peripheral/gpio/cy_gpio.h **** * not thread safe as the resource is shared among multiple pins on a port.
 637:Generated_Source\PSoC6\pdl\drivers/peripheral/gpio/cy_gpio.h **** *
 638:Generated_Source\PSoC6\pdl\drivers/peripheral/gpio/cy_gpio.h **** * \funcusage
 639:Generated_Source\PSoC6\pdl\drivers/peripheral/gpio/cy_gpio.h **** * \snippet gpio/gpio_v1_10_sut_01.cydsn/main_cm4.c snippet_Cy_GPIO_SetHSIOM
 640:Generated_Source\PSoC6\pdl\drivers/peripheral/gpio/cy_gpio.h **** *
 641:Generated_Source\PSoC6\pdl\drivers/peripheral/gpio/cy_gpio.h **** *******************************************************************************/
 642:Generated_Source\PSoC6\pdl\drivers/peripheral/gpio/cy_gpio.h **** __STATIC_INLINE void Cy_GPIO_SetHSIOM(GPIO_PRT_Type* base, uint32_t pinNum, en_hsiom_sel_t value)
 643:Generated_Source\PSoC6\pdl\drivers/peripheral/gpio/cy_gpio.h **** {
 644:Generated_Source\PSoC6\pdl\drivers/peripheral/gpio/cy_gpio.h ****     uint32_t portNum;
 645:Generated_Source\PSoC6\pdl\drivers/peripheral/gpio/cy_gpio.h ****     uint32_t tempReg;
 646:Generated_Source\PSoC6\pdl\drivers/peripheral/gpio/cy_gpio.h ****     HSIOM_PRT_V1_Type* portAddrHSIOM;
 647:Generated_Source\PSoC6\pdl\drivers/peripheral/gpio/cy_gpio.h **** 
 648:Generated_Source\PSoC6\pdl\drivers/peripheral/gpio/cy_gpio.h ****     CY_ASSERT_L2(CY_GPIO_IS_PIN_VALID(pinNum));
 649:Generated_Source\PSoC6\pdl\drivers/peripheral/gpio/cy_gpio.h ****     CY_ASSERT_L2(CY_GPIO_IS_HSIOM_VALID(value));
 650:Generated_Source\PSoC6\pdl\drivers/peripheral/gpio/cy_gpio.h **** 
 651:Generated_Source\PSoC6\pdl\drivers/peripheral/gpio/cy_gpio.h ****     portNum = ((uint32_t)(base) - CY_GPIO_BASE) / GPIO_PRT_SECTION_SIZE;
 652:Generated_Source\PSoC6\pdl\drivers/peripheral/gpio/cy_gpio.h ****     portAddrHSIOM = (HSIOM_PRT_V1_Type*)(CY_HSIOM_BASE + (HSIOM_PRT_SECTION_SIZE * portNum));
 653:Generated_Source\PSoC6\pdl\drivers/peripheral/gpio/cy_gpio.h **** 
 654:Generated_Source\PSoC6\pdl\drivers/peripheral/gpio/cy_gpio.h ****     if(pinNum < CY_GPIO_PRT_HALF)
 655:Generated_Source\PSoC6\pdl\drivers/peripheral/gpio/cy_gpio.h ****     {
 656:Generated_Source\PSoC6\pdl\drivers/peripheral/gpio/cy_gpio.h ****         tempReg = HSIOM_PRT_PORT_SEL0(portAddrHSIOM) & ~(CY_GPIO_HSIOM_MASK << (pinNum << CY_GPIO_H
 657:Generated_Source\PSoC6\pdl\drivers/peripheral/gpio/cy_gpio.h ****         HSIOM_PRT_PORT_SEL0(portAddrHSIOM) = tempReg | ((value & CY_GPIO_HSIOM_MASK) << (pinNum << 
 658:Generated_Source\PSoC6\pdl\drivers/peripheral/gpio/cy_gpio.h ****     }
 659:Generated_Source\PSoC6\pdl\drivers/peripheral/gpio/cy_gpio.h ****     else
 660:Generated_Source\PSoC6\pdl\drivers/peripheral/gpio/cy_gpio.h ****     {
 661:Generated_Source\PSoC6\pdl\drivers/peripheral/gpio/cy_gpio.h ****         pinNum -= CY_GPIO_PRT_HALF;
 662:Generated_Source\PSoC6\pdl\drivers/peripheral/gpio/cy_gpio.h ****         tempReg = HSIOM_PRT_PORT_SEL1(portAddrHSIOM) & ~(CY_GPIO_HSIOM_MASK << (pinNum << CY_GPIO_H
 663:Generated_Source\PSoC6\pdl\drivers/peripheral/gpio/cy_gpio.h ****         HSIOM_PRT_PORT_SEL1(portAddrHSIOM) = tempReg | ((value & CY_GPIO_HSIOM_MASK) << (pinNum << 
 664:Generated_Source\PSoC6\pdl\drivers/peripheral/gpio/cy_gpio.h ****     }
 665:Generated_Source\PSoC6\pdl\drivers/peripheral/gpio/cy_gpio.h **** }
 666:Generated_Source\PSoC6\pdl\drivers/peripheral/gpio/cy_gpio.h **** 
 667:Generated_Source\PSoC6\pdl\drivers/peripheral/gpio/cy_gpio.h **** 
 668:Generated_Source\PSoC6\pdl\drivers/peripheral/gpio/cy_gpio.h **** /*******************************************************************************
 669:Generated_Source\PSoC6\pdl\drivers/peripheral/gpio/cy_gpio.h **** * Function Name: Cy_GPIO_GetHSIOM
 670:Generated_Source\PSoC6\pdl\drivers/peripheral/gpio/cy_gpio.h **** ****************************************************************************//**
 671:Generated_Source\PSoC6\pdl\drivers/peripheral/gpio/cy_gpio.h **** *
 672:Generated_Source\PSoC6\pdl\drivers/peripheral/gpio/cy_gpio.h **** * Returns the current HSIOM multiplexer connection to the pin.
 673:Generated_Source\PSoC6\pdl\drivers/peripheral/gpio/cy_gpio.h **** *
 674:Generated_Source\PSoC6\pdl\drivers/peripheral/gpio/cy_gpio.h **** * \param base
 675:Generated_Source\PSoC6\pdl\drivers/peripheral/gpio/cy_gpio.h **** * Pointer to the pin's port register base address
 676:Generated_Source\PSoC6\pdl\drivers/peripheral/gpio/cy_gpio.h **** *
 677:Generated_Source\PSoC6\pdl\drivers/peripheral/gpio/cy_gpio.h **** * \param pinNum
 678:Generated_Source\PSoC6\pdl\drivers/peripheral/gpio/cy_gpio.h **** * Position of the pin bit-field within the port register
 679:Generated_Source\PSoC6\pdl\drivers/peripheral/gpio/cy_gpio.h **** *
 680:Generated_Source\PSoC6\pdl\drivers/peripheral/gpio/cy_gpio.h **** * \return
 681:Generated_Source\PSoC6\pdl\drivers/peripheral/gpio/cy_gpio.h **** * HSIOM input selection
 682:Generated_Source\PSoC6\pdl\drivers/peripheral/gpio/cy_gpio.h **** *
 683:Generated_Source\PSoC6\pdl\drivers/peripheral/gpio/cy_gpio.h **** * \funcusage
 684:Generated_Source\PSoC6\pdl\drivers/peripheral/gpio/cy_gpio.h **** * \snippet gpio/gpio_v1_10_sut_01.cydsn/main_cm4.c snippet_Cy_GPIO_SetHSIOM
 685:Generated_Source\PSoC6\pdl\drivers/peripheral/gpio/cy_gpio.h **** *
 686:Generated_Source\PSoC6\pdl\drivers/peripheral/gpio/cy_gpio.h **** *******************************************************************************/
ARM GAS  C:\Users\stijn\AppData\Local\Temp\ccVPn9Mg.s 			page 17


 687:Generated_Source\PSoC6\pdl\drivers/peripheral/gpio/cy_gpio.h **** __STATIC_INLINE en_hsiom_sel_t Cy_GPIO_GetHSIOM(GPIO_PRT_Type* base, uint32_t pinNum)
 688:Generated_Source\PSoC6\pdl\drivers/peripheral/gpio/cy_gpio.h **** {
 689:Generated_Source\PSoC6\pdl\drivers/peripheral/gpio/cy_gpio.h ****     uint32_t returnValue;
 690:Generated_Source\PSoC6\pdl\drivers/peripheral/gpio/cy_gpio.h ****     uint32_t portNum;
 691:Generated_Source\PSoC6\pdl\drivers/peripheral/gpio/cy_gpio.h ****     HSIOM_PRT_V1_Type* portAddrHSIOM;
 692:Generated_Source\PSoC6\pdl\drivers/peripheral/gpio/cy_gpio.h ****     
 693:Generated_Source\PSoC6\pdl\drivers/peripheral/gpio/cy_gpio.h ****     CY_ASSERT_L2(CY_GPIO_IS_PIN_VALID(pinNum));
 694:Generated_Source\PSoC6\pdl\drivers/peripheral/gpio/cy_gpio.h **** 
 695:Generated_Source\PSoC6\pdl\drivers/peripheral/gpio/cy_gpio.h ****     portNum = ((uint32_t)(base) - CY_GPIO_BASE) / GPIO_PRT_SECTION_SIZE;
 696:Generated_Source\PSoC6\pdl\drivers/peripheral/gpio/cy_gpio.h ****     portAddrHSIOM = (HSIOM_PRT_V1_Type*)(CY_HSIOM_BASE + (HSIOM_PRT_SECTION_SIZE * portNum));
 697:Generated_Source\PSoC6\pdl\drivers/peripheral/gpio/cy_gpio.h **** 
 698:Generated_Source\PSoC6\pdl\drivers/peripheral/gpio/cy_gpio.h ****     if(pinNum < CY_GPIO_PRT_HALF)
 699:Generated_Source\PSoC6\pdl\drivers/peripheral/gpio/cy_gpio.h ****     {
 700:Generated_Source\PSoC6\pdl\drivers/peripheral/gpio/cy_gpio.h ****         returnValue = (HSIOM_PRT_PORT_SEL0(portAddrHSIOM) >> (pinNum << CY_GPIO_HSIOM_OFFSET)) & CY
 701:Generated_Source\PSoC6\pdl\drivers/peripheral/gpio/cy_gpio.h ****     }
 702:Generated_Source\PSoC6\pdl\drivers/peripheral/gpio/cy_gpio.h ****     else
 703:Generated_Source\PSoC6\pdl\drivers/peripheral/gpio/cy_gpio.h ****     {
 704:Generated_Source\PSoC6\pdl\drivers/peripheral/gpio/cy_gpio.h ****         pinNum -= CY_GPIO_PRT_HALF;
 705:Generated_Source\PSoC6\pdl\drivers/peripheral/gpio/cy_gpio.h ****         returnValue = (HSIOM_PRT_PORT_SEL1(portAddrHSIOM) >> (pinNum << CY_GPIO_HSIOM_OFFSET)) & CY
 706:Generated_Source\PSoC6\pdl\drivers/peripheral/gpio/cy_gpio.h ****     }
 707:Generated_Source\PSoC6\pdl\drivers/peripheral/gpio/cy_gpio.h **** 
 708:Generated_Source\PSoC6\pdl\drivers/peripheral/gpio/cy_gpio.h ****     return (en_hsiom_sel_t)returnValue;
 709:Generated_Source\PSoC6\pdl\drivers/peripheral/gpio/cy_gpio.h **** }
 710:Generated_Source\PSoC6\pdl\drivers/peripheral/gpio/cy_gpio.h **** 
 711:Generated_Source\PSoC6\pdl\drivers/peripheral/gpio/cy_gpio.h **** 
 712:Generated_Source\PSoC6\pdl\drivers/peripheral/gpio/cy_gpio.h **** /*******************************************************************************
 713:Generated_Source\PSoC6\pdl\drivers/peripheral/gpio/cy_gpio.h **** * Function Name: Cy_GPIO_PortToAddr
 714:Generated_Source\PSoC6\pdl\drivers/peripheral/gpio/cy_gpio.h **** ****************************************************************************//**
 715:Generated_Source\PSoC6\pdl\drivers/peripheral/gpio/cy_gpio.h **** *
 716:Generated_Source\PSoC6\pdl\drivers/peripheral/gpio/cy_gpio.h **** * Retrieves the port address based on the given port number.
 717:Generated_Source\PSoC6\pdl\drivers/peripheral/gpio/cy_gpio.h **** *
 718:Generated_Source\PSoC6\pdl\drivers/peripheral/gpio/cy_gpio.h **** * This is a helper function to calculate the port base address when given a port
 719:Generated_Source\PSoC6\pdl\drivers/peripheral/gpio/cy_gpio.h **** * number. It is to be used when pin access needs to be calculated at runtime.
 720:Generated_Source\PSoC6\pdl\drivers/peripheral/gpio/cy_gpio.h **** *
 721:Generated_Source\PSoC6\pdl\drivers/peripheral/gpio/cy_gpio.h **** * \param portNum
 722:Generated_Source\PSoC6\pdl\drivers/peripheral/gpio/cy_gpio.h **** * Port number
 723:Generated_Source\PSoC6\pdl\drivers/peripheral/gpio/cy_gpio.h **** *
 724:Generated_Source\PSoC6\pdl\drivers/peripheral/gpio/cy_gpio.h **** * \return
 725:Generated_Source\PSoC6\pdl\drivers/peripheral/gpio/cy_gpio.h **** * Base address of the port register structure
 726:Generated_Source\PSoC6\pdl\drivers/peripheral/gpio/cy_gpio.h **** *
 727:Generated_Source\PSoC6\pdl\drivers/peripheral/gpio/cy_gpio.h **** * \funcusage
 728:Generated_Source\PSoC6\pdl\drivers/peripheral/gpio/cy_gpio.h **** * \snippet gpio/gpio_v1_10_sut_01.cydsn/main_cm4.c snippet_Cy_GPIO_PortToAddr
 729:Generated_Source\PSoC6\pdl\drivers/peripheral/gpio/cy_gpio.h **** *
 730:Generated_Source\PSoC6\pdl\drivers/peripheral/gpio/cy_gpio.h **** *******************************************************************************/
 731:Generated_Source\PSoC6\pdl\drivers/peripheral/gpio/cy_gpio.h **** __STATIC_INLINE GPIO_PRT_Type* Cy_GPIO_PortToAddr(uint32_t portNum)
 732:Generated_Source\PSoC6\pdl\drivers/peripheral/gpio/cy_gpio.h **** {
 733:Generated_Source\PSoC6\pdl\drivers/peripheral/gpio/cy_gpio.h ****     GPIO_PRT_Type* portBase;
 734:Generated_Source\PSoC6\pdl\drivers/peripheral/gpio/cy_gpio.h ****     
 735:Generated_Source\PSoC6\pdl\drivers/peripheral/gpio/cy_gpio.h ****     if(portNum < (uint32_t)IOSS_GPIO_GPIO_PORT_NR)
 736:Generated_Source\PSoC6\pdl\drivers/peripheral/gpio/cy_gpio.h ****     {
 737:Generated_Source\PSoC6\pdl\drivers/peripheral/gpio/cy_gpio.h ****         portBase = (GPIO_PRT_Type *)(CY_GPIO_BASE + (GPIO_PRT_SECTION_SIZE * portNum));
 738:Generated_Source\PSoC6\pdl\drivers/peripheral/gpio/cy_gpio.h ****     }
 739:Generated_Source\PSoC6\pdl\drivers/peripheral/gpio/cy_gpio.h ****     else
 740:Generated_Source\PSoC6\pdl\drivers/peripheral/gpio/cy_gpio.h ****     {
 741:Generated_Source\PSoC6\pdl\drivers/peripheral/gpio/cy_gpio.h ****         /* Error: Return default base address */
 742:Generated_Source\PSoC6\pdl\drivers/peripheral/gpio/cy_gpio.h ****         portBase = (GPIO_PRT_Type *)(CY_GPIO_BASE);
 743:Generated_Source\PSoC6\pdl\drivers/peripheral/gpio/cy_gpio.h ****     }
ARM GAS  C:\Users\stijn\AppData\Local\Temp\ccVPn9Mg.s 			page 18


 744:Generated_Source\PSoC6\pdl\drivers/peripheral/gpio/cy_gpio.h **** 
 745:Generated_Source\PSoC6\pdl\drivers/peripheral/gpio/cy_gpio.h ****     return (portBase);
 746:Generated_Source\PSoC6\pdl\drivers/peripheral/gpio/cy_gpio.h **** }
 747:Generated_Source\PSoC6\pdl\drivers/peripheral/gpio/cy_gpio.h **** 
 748:Generated_Source\PSoC6\pdl\drivers/peripheral/gpio/cy_gpio.h **** /** \} group_gpio_functions_init */
 749:Generated_Source\PSoC6\pdl\drivers/peripheral/gpio/cy_gpio.h **** 
 750:Generated_Source\PSoC6\pdl\drivers/peripheral/gpio/cy_gpio.h **** /**
 751:Generated_Source\PSoC6\pdl\drivers/peripheral/gpio/cy_gpio.h **** * \addtogroup group_gpio_functions_gpio
 752:Generated_Source\PSoC6\pdl\drivers/peripheral/gpio/cy_gpio.h **** * \{
 753:Generated_Source\PSoC6\pdl\drivers/peripheral/gpio/cy_gpio.h **** */
 754:Generated_Source\PSoC6\pdl\drivers/peripheral/gpio/cy_gpio.h **** 
 755:Generated_Source\PSoC6\pdl\drivers/peripheral/gpio/cy_gpio.h **** /*******************************************************************************
 756:Generated_Source\PSoC6\pdl\drivers/peripheral/gpio/cy_gpio.h **** * Function Name: Cy_GPIO_Read
 757:Generated_Source\PSoC6\pdl\drivers/peripheral/gpio/cy_gpio.h **** ****************************************************************************//**
 758:Generated_Source\PSoC6\pdl\drivers/peripheral/gpio/cy_gpio.h **** *
 759:Generated_Source\PSoC6\pdl\drivers/peripheral/gpio/cy_gpio.h **** * Reads the current logic level on the input buffer of the pin.
 760:Generated_Source\PSoC6\pdl\drivers/peripheral/gpio/cy_gpio.h **** *
 761:Generated_Source\PSoC6\pdl\drivers/peripheral/gpio/cy_gpio.h **** * \param base
 762:Generated_Source\PSoC6\pdl\drivers/peripheral/gpio/cy_gpio.h **** * Pointer to the pin's port register base address
 763:Generated_Source\PSoC6\pdl\drivers/peripheral/gpio/cy_gpio.h **** *
 764:Generated_Source\PSoC6\pdl\drivers/peripheral/gpio/cy_gpio.h **** * \param pinNum
 765:Generated_Source\PSoC6\pdl\drivers/peripheral/gpio/cy_gpio.h **** * Position of the pin bit-field within the port register.
 766:Generated_Source\PSoC6\pdl\drivers/peripheral/gpio/cy_gpio.h **** * Bit position 8 is the routed pin through the port glitch filter.
 767:Generated_Source\PSoC6\pdl\drivers/peripheral/gpio/cy_gpio.h **** *
 768:Generated_Source\PSoC6\pdl\drivers/peripheral/gpio/cy_gpio.h **** * \return
 769:Generated_Source\PSoC6\pdl\drivers/peripheral/gpio/cy_gpio.h **** * Logic level present on the pin
 770:Generated_Source\PSoC6\pdl\drivers/peripheral/gpio/cy_gpio.h **** *
 771:Generated_Source\PSoC6\pdl\drivers/peripheral/gpio/cy_gpio.h **** * \funcusage
 772:Generated_Source\PSoC6\pdl\drivers/peripheral/gpio/cy_gpio.h **** * \snippet gpio/gpio_v1_10_sut_01.cydsn/main_cm4.c snippet_Cy_GPIO_Read
 773:Generated_Source\PSoC6\pdl\drivers/peripheral/gpio/cy_gpio.h **** *
 774:Generated_Source\PSoC6\pdl\drivers/peripheral/gpio/cy_gpio.h **** *******************************************************************************/
 775:Generated_Source\PSoC6\pdl\drivers/peripheral/gpio/cy_gpio.h **** __STATIC_INLINE uint32_t Cy_GPIO_Read(GPIO_PRT_Type* base, uint32_t pinNum)
 776:Generated_Source\PSoC6\pdl\drivers/peripheral/gpio/cy_gpio.h **** {
 777:Generated_Source\PSoC6\pdl\drivers/peripheral/gpio/cy_gpio.h ****     CY_ASSERT_L2(CY_GPIO_IS_FILTER_PIN_VALID(pinNum));
 778:Generated_Source\PSoC6\pdl\drivers/peripheral/gpio/cy_gpio.h ****     
 779:Generated_Source\PSoC6\pdl\drivers/peripheral/gpio/cy_gpio.h ****     return (GPIO_PRT_IN(base) >> (pinNum)) & CY_GPIO_IN_MASK;
 780:Generated_Source\PSoC6\pdl\drivers/peripheral/gpio/cy_gpio.h **** }
 781:Generated_Source\PSoC6\pdl\drivers/peripheral/gpio/cy_gpio.h **** 
 782:Generated_Source\PSoC6\pdl\drivers/peripheral/gpio/cy_gpio.h **** 
 783:Generated_Source\PSoC6\pdl\drivers/peripheral/gpio/cy_gpio.h **** /*******************************************************************************
 784:Generated_Source\PSoC6\pdl\drivers/peripheral/gpio/cy_gpio.h **** * Function Name: Cy_GPIO_Write
 785:Generated_Source\PSoC6\pdl\drivers/peripheral/gpio/cy_gpio.h **** ****************************************************************************//**
 786:Generated_Source\PSoC6\pdl\drivers/peripheral/gpio/cy_gpio.h **** *
 787:Generated_Source\PSoC6\pdl\drivers/peripheral/gpio/cy_gpio.h **** * Write a logic 0 or logic 1 state to the output driver.
 788:Generated_Source\PSoC6\pdl\drivers/peripheral/gpio/cy_gpio.h **** *
 789:Generated_Source\PSoC6\pdl\drivers/peripheral/gpio/cy_gpio.h **** * This function should be used only for software driven pins. It does not have
 790:Generated_Source\PSoC6\pdl\drivers/peripheral/gpio/cy_gpio.h **** * any effect on peripheral driven pins.
 791:Generated_Source\PSoC6\pdl\drivers/peripheral/gpio/cy_gpio.h **** *
 792:Generated_Source\PSoC6\pdl\drivers/peripheral/gpio/cy_gpio.h **** * \param base
 793:Generated_Source\PSoC6\pdl\drivers/peripheral/gpio/cy_gpio.h **** * Pointer to the pin's port register base address
 794:Generated_Source\PSoC6\pdl\drivers/peripheral/gpio/cy_gpio.h **** *
 795:Generated_Source\PSoC6\pdl\drivers/peripheral/gpio/cy_gpio.h **** * \param pinNum
 796:Generated_Source\PSoC6\pdl\drivers/peripheral/gpio/cy_gpio.h **** * Position of the pin bit-field within the port register
 797:Generated_Source\PSoC6\pdl\drivers/peripheral/gpio/cy_gpio.h **** *
 798:Generated_Source\PSoC6\pdl\drivers/peripheral/gpio/cy_gpio.h **** * \param value
 799:Generated_Source\PSoC6\pdl\drivers/peripheral/gpio/cy_gpio.h **** * Logic level to drive out on the pin
 800:Generated_Source\PSoC6\pdl\drivers/peripheral/gpio/cy_gpio.h **** *
ARM GAS  C:\Users\stijn\AppData\Local\Temp\ccVPn9Mg.s 			page 19


 801:Generated_Source\PSoC6\pdl\drivers/peripheral/gpio/cy_gpio.h **** * \funcusage
 802:Generated_Source\PSoC6\pdl\drivers/peripheral/gpio/cy_gpio.h **** * \snippet gpio/gpio_v1_10_sut_01.cydsn/main_cm4.c snippet_Cy_GPIO_Write
 803:Generated_Source\PSoC6\pdl\drivers/peripheral/gpio/cy_gpio.h **** *
 804:Generated_Source\PSoC6\pdl\drivers/peripheral/gpio/cy_gpio.h **** *******************************************************************************/
 805:Generated_Source\PSoC6\pdl\drivers/peripheral/gpio/cy_gpio.h **** __STATIC_INLINE void Cy_GPIO_Write(GPIO_PRT_Type* base, uint32_t pinNum, uint32_t value)
 806:Generated_Source\PSoC6\pdl\drivers/peripheral/gpio/cy_gpio.h **** {
 807:Generated_Source\PSoC6\pdl\drivers/peripheral/gpio/cy_gpio.h ****     CY_ASSERT_L2(CY_GPIO_IS_PIN_VALID(pinNum));
 144              		.loc 2 807 0
 145 001a 072E     		cmp	r6, #7
 146 001c 04D9     		bls	.L10
 147 001e 40F22731 		movw	r1, #807
 148 0022 1748     		ldr	r0, .L17
 149 0024 FFF7FEFF 		bl	Cy_SysLib_AssertFailed
 150              	.LVL15:
 151              	.L10:
 808:Generated_Source\PSoC6\pdl\drivers/peripheral/gpio/cy_gpio.h ****     CY_ASSERT_L2(CY_GPIO_IS_VALUE_VALID(value));
 809:Generated_Source\PSoC6\pdl\drivers/peripheral/gpio/cy_gpio.h **** 
 810:Generated_Source\PSoC6\pdl\drivers/peripheral/gpio/cy_gpio.h ****     /* Thread-safe: Directly access the pin registers instead of base->OUT */
 811:Generated_Source\PSoC6\pdl\drivers/peripheral/gpio/cy_gpio.h ****     if(0UL == value)
 812:Generated_Source\PSoC6\pdl\drivers/peripheral/gpio/cy_gpio.h ****     {
 813:Generated_Source\PSoC6\pdl\drivers/peripheral/gpio/cy_gpio.h ****         GPIO_PRT_OUT_CLR(base) = CY_GPIO_OUT_MASK << pinNum;
 814:Generated_Source\PSoC6\pdl\drivers/peripheral/gpio/cy_gpio.h ****     }
 815:Generated_Source\PSoC6\pdl\drivers/peripheral/gpio/cy_gpio.h ****     else
 816:Generated_Source\PSoC6\pdl\drivers/peripheral/gpio/cy_gpio.h ****     {
 817:Generated_Source\PSoC6\pdl\drivers/peripheral/gpio/cy_gpio.h ****         GPIO_PRT_OUT_SET(base) = CY_GPIO_OUT_MASK << pinNum;
 152              		.loc 2 817 0
 153 0028 0123     		movs	r3, #1
 154 002a B340     		lsls	r3, r3, r6
 155 002c BB60     		str	r3, [r7, #8]
 156 002e 01E0     		b	.L11
 157              	.L12:
 158              	.LBE13:
 159              	.LBE12:
  84:analog.c      ****         while(AMuxSeq_GetChannel() != pxChannel->channel){
  85:analog.c      ****             AMuxSeq_Next();
 160              		.loc 1 85 0
 161 0030 FFF7FEFF 		bl	AMuxSeq_Next
 162              	.LVL16:
 163              	.L11:
  84:analog.c      ****         while(AMuxSeq_GetChannel() != pxChannel->channel){
 164              		.loc 1 84 0
 165 0034 FFF7FEFF 		bl	AMuxSeq_GetChannel
 166              	.LVL17:
 167 0038 237B     		ldrb	r3, [r4, #12]	@ zero_extendqisi2
 168 003a 9842     		cmp	r0, r3
 169 003c F8D1     		bne	.L12
  86:analog.c      ****         }
  87:analog.c      ****         ADC_StartConvert();
 170              		.loc 1 87 0
 171 003e FFF7FEFF 		bl	ADC_StartConvert
 172              	.LVL18:
  88:analog.c      ****         Cy_GPIO_Write(pxChannel->port, pxChannel->pin, 0);
 173              		.loc 1 88 0
 174 0042 2768     		ldr	r7, [r4]
 175              	.LVL19:
 176 0044 6668     		ldr	r6, [r4, #4]
 177              	.LVL20:
ARM GAS  C:\Users\stijn\AppData\Local\Temp\ccVPn9Mg.s 			page 20


 178              	.LBB14:
 179              	.LBB15:
 807:Generated_Source\PSoC6\pdl\drivers/peripheral/gpio/cy_gpio.h ****     CY_ASSERT_L2(CY_GPIO_IS_VALUE_VALID(value));
 180              		.loc 2 807 0
 181 0046 072E     		cmp	r6, #7
 182 0048 04D9     		bls	.L13
 183 004a 40F22731 		movw	r1, #807
 184 004e 0C48     		ldr	r0, .L17
 185 0050 FFF7FEFF 		bl	Cy_SysLib_AssertFailed
 186              	.LVL21:
 187              	.L13:
 813:Generated_Source\PSoC6\pdl\drivers/peripheral/gpio/cy_gpio.h ****     }
 188              		.loc 2 813 0
 189 0054 0123     		movs	r3, #1
 190 0056 B340     		lsls	r3, r3, r6
 191 0058 7B60     		str	r3, [r7, #4]
 192              	.LVL22:
 193              	.LBE15:
 194              	.LBE14:
 195              	.LBB16:
 196              	.LBB17:
 197              		.file 3 "Generated_Source\\PSoC6/ADC.h"
   1:Generated_Source\PSoC6/ADC.h **** /***************************************************************************//**
   2:Generated_Source\PSoC6/ADC.h **** * \file     ADC.h
   3:Generated_Source\PSoC6/ADC.h **** * \version  3.0
   4:Generated_Source\PSoC6/ADC.h **** *
   5:Generated_Source\PSoC6/ADC.h **** * \brief
   6:Generated_Source\PSoC6/ADC.h **** * Provides the source code to the API for the ADC Component.
   7:Generated_Source\PSoC6/ADC.h **** *
   8:Generated_Source\PSoC6/ADC.h **** ********************************************************************************
   9:Generated_Source\PSoC6/ADC.h **** * \copyright
  10:Generated_Source\PSoC6/ADC.h **** * (c) 2017, Cypress Semiconductor Corporation. All rights reserved.
  11:Generated_Source\PSoC6/ADC.h **** * This software, including source code, documentation and related
  12:Generated_Source\PSoC6/ADC.h **** * materials ("Software"), is owned by Cypress Semiconductor
  13:Generated_Source\PSoC6/ADC.h **** * Corporation ("Cypress") and is protected by and subject to worldwide
  14:Generated_Source\PSoC6/ADC.h **** * patent protection (United States and foreign), United States copyright
  15:Generated_Source\PSoC6/ADC.h **** * laws and international treaty provisions. Therefore, you may use this
  16:Generated_Source\PSoC6/ADC.h **** * Software only as provided in the license agreement accompanying the
  17:Generated_Source\PSoC6/ADC.h **** * software package from which you obtained this Software ("EULA").
  18:Generated_Source\PSoC6/ADC.h **** * If no EULA applies, Cypress hereby grants you a personal, nonexclusive,
  19:Generated_Source\PSoC6/ADC.h **** * non-transferable license to copy, modify, and compile the
  20:Generated_Source\PSoC6/ADC.h **** * Software source code solely for use in connection with Cypress's
  21:Generated_Source\PSoC6/ADC.h **** * integrated circuit products. Any reproduction, modification, translation,
  22:Generated_Source\PSoC6/ADC.h **** * compilation, or representation of this Software except as specified
  23:Generated_Source\PSoC6/ADC.h **** * above is prohibited without the express written permission of Cypress.
  24:Generated_Source\PSoC6/ADC.h **** * Disclaimer: THIS SOFTWARE IS PROVIDED AS-IS, WITH NO
  25:Generated_Source\PSoC6/ADC.h **** * WARRANTY OF ANY KIND, EXPRESS OR IMPLIED, INCLUDING,
  26:Generated_Source\PSoC6/ADC.h **** * BUT NOT LIMITED TO, NONINFRINGEMENT, IMPLIED
  27:Generated_Source\PSoC6/ADC.h **** * WARRANTIES OF MERCHANTABILITY AND FITNESS FOR A
  28:Generated_Source\PSoC6/ADC.h **** * PARTICULAR PURPOSE. Cypress reserves the right to make
  29:Generated_Source\PSoC6/ADC.h **** * changes to the Software without notice. Cypress does not assume any
  30:Generated_Source\PSoC6/ADC.h **** * liability arising out of the application or use of the Software or any
  31:Generated_Source\PSoC6/ADC.h **** * product or circuit described in the Software. Cypress does not
  32:Generated_Source\PSoC6/ADC.h **** * authorize its products for use in any products where a malfunction or
  33:Generated_Source\PSoC6/ADC.h **** * failure of the Cypress product may reasonably be expected to result in
  34:Generated_Source\PSoC6/ADC.h **** * significant property damage, injury or death ("High Risk Product"). By
  35:Generated_Source\PSoC6/ADC.h **** * including Cypress's product in a High Risk Product, the manufacturer
ARM GAS  C:\Users\stijn\AppData\Local\Temp\ccVPn9Mg.s 			page 21


  36:Generated_Source\PSoC6/ADC.h **** * of such system or application assumes all risk of such use and in doing
  37:Generated_Source\PSoC6/ADC.h **** * so agrees to indemnify Cypress against all liability.
  38:Generated_Source\PSoC6/ADC.h **** *******************************************************************************/
  39:Generated_Source\PSoC6/ADC.h **** #if !defined(CY_ADC_H)
  40:Generated_Source\PSoC6/ADC.h **** #define CY_ADC_H
  41:Generated_Source\PSoC6/ADC.h **** 
  42:Generated_Source\PSoC6/ADC.h **** #include <cy_device_headers.h>
  43:Generated_Source\PSoC6/ADC.h **** #include <sar/cy_sar.h>
  44:Generated_Source\PSoC6/ADC.h **** 
  45:Generated_Source\PSoC6/ADC.h **** #define ADC_VREF_ROUTED                  ((0) == 1u)
  46:Generated_Source\PSoC6/ADC.h **** #if (ADC_VREF_ROUTED)
  47:Generated_Source\PSoC6/ADC.h **** #include "ADC_vrefAMux.h"
  48:Generated_Source\PSoC6/ADC.h **** #endif
  49:Generated_Source\PSoC6/ADC.h **** 
  50:Generated_Source\PSoC6/ADC.h **** #define ADC_CLOCK_INTERNAL               ((1) == 1u)
  51:Generated_Source\PSoC6/ADC.h **** #if (ADC_CLOCK_INTERNAL)
  52:Generated_Source\PSoC6/ADC.h **** #include "ADC_intSarClock.h"
  53:Generated_Source\PSoC6/ADC.h **** #endif /* ADC_CLOCK_INTERNAL */
  54:Generated_Source\PSoC6/ADC.h **** 
  55:Generated_Source\PSoC6/ADC.h **** /**
  56:Generated_Source\PSoC6/ADC.h **** * \addtogroup group_structures
  57:Generated_Source\PSoC6/ADC.h **** *
  58:Generated_Source\PSoC6/ADC.h **** */
  59:Generated_Source\PSoC6/ADC.h **** typedef struct
  60:Generated_Source\PSoC6/ADC.h **** {
  61:Generated_Source\PSoC6/ADC.h ****     uint32_t channelBase;                   /* Start of channels for the configuration */
  62:Generated_Source\PSoC6/ADC.h ****     uint32_t numChannels;                   /* Number of channels in the configuration */
  63:Generated_Source\PSoC6/ADC.h ****     const cy_stc_sar_config_t *hwConfigStc; /* PDL structure */
  64:Generated_Source\PSoC6/ADC.h ****     uint32_t miscConfig;                    /* Miscellaneous configuration bits broken down as foll
  65:Generated_Source\PSoC6/ADC.h ****                                             [0] - Freerunning: Set if the sample mode is freerunnin
  66:Generated_Source\PSoC6/ADC.h ****                                             [2] - Mux Switch 0: Set when VSSA is used for the neg i
  67:Generated_Source\PSoC6/ADC.h ****                                             */
  68:Generated_Source\PSoC6/ADC.h **** #if (ADC_CLOCK_INTERNAL)
  69:Generated_Source\PSoC6/ADC.h ****     uint32_t clkDivider;                    /* Clock divider */
  70:Generated_Source\PSoC6/ADC.h **** #endif /* ADC_CLOCK_INTERNAL */
  71:Generated_Source\PSoC6/ADC.h **** 
  72:Generated_Source\PSoC6/ADC.h **** } ADC_CONFIG_STRUCT;
  73:Generated_Source\PSoC6/ADC.h **** /** @} structures */
  74:Generated_Source\PSoC6/ADC.h **** 
  75:Generated_Source\PSoC6/ADC.h **** /*******************************************************************************
  76:Generated_Source\PSoC6/ADC.h **** * Function Prototypes
  77:Generated_Source\PSoC6/ADC.h **** *******************************************************************************/
  78:Generated_Source\PSoC6/ADC.h **** void ADC_SelectConfig(uint32_t config, uint32_t restart);
  79:Generated_Source\PSoC6/ADC.h **** void ADC_InitConfig(const ADC_CONFIG_STRUCT *config);
  80:Generated_Source\PSoC6/ADC.h **** void ADC_Init(void);
  81:Generated_Source\PSoC6/ADC.h **** __STATIC_INLINE void ADC_Enable(void);
  82:Generated_Source\PSoC6/ADC.h **** 
  83:Generated_Source\PSoC6/ADC.h **** /**
  84:Generated_Source\PSoC6/ADC.h **** * \addtogroup group_general
  85:Generated_Source\PSoC6/ADC.h **** * @{
  86:Generated_Source\PSoC6/ADC.h **** */
  87:Generated_Source\PSoC6/ADC.h **** void ADC_Start(void);
  88:Generated_Source\PSoC6/ADC.h **** void ADC_StartEx(cy_israddress userIsr);
  89:Generated_Source\PSoC6/ADC.h **** __STATIC_INLINE void ADC_Stop(void);
  90:Generated_Source\PSoC6/ADC.h **** void ADC_StartConvert(void);
  91:Generated_Source\PSoC6/ADC.h **** __STATIC_INLINE void ADC_StopConvert(void);
  92:Generated_Source\PSoC6/ADC.h **** void ADC_SetConvertMode(cy_en_sar_start_convert_sel_t mode);
ARM GAS  C:\Users\stijn\AppData\Local\Temp\ccVPn9Mg.s 			page 22


  93:Generated_Source\PSoC6/ADC.h **** void ADC_SetEosMask(uint32_t mask);
  94:Generated_Source\PSoC6/ADC.h **** uint32_t ADC_IsEndConversion(cy_en_sar_return_mode_t retMode);
  95:Generated_Source\PSoC6/ADC.h **** __STATIC_INLINE int16_t ADC_GetResult16(uint32_t chan);
  96:Generated_Source\PSoC6/ADC.h **** __STATIC_INLINE int32_t ADC_GetResult32(uint32_t chan);
  97:Generated_Source\PSoC6/ADC.h **** __STATIC_INLINE void ADC_SetLowLimit(uint32_t lowLimit);
  98:Generated_Source\PSoC6/ADC.h **** __STATIC_INLINE void ADC_SetHighLimit(uint32_t highLimit);
  99:Generated_Source\PSoC6/ADC.h **** __STATIC_INLINE void ADC_SetLimitMask(uint32_t limitMask);
 100:Generated_Source\PSoC6/ADC.h **** __STATIC_INLINE void ADC_SetSatMask(uint32_t satMask);
 101:Generated_Source\PSoC6/ADC.h **** __STATIC_INLINE cy_en_sar_status_t ADC_SetOffset(uint32_t chan, int16_t offset);
 102:Generated_Source\PSoC6/ADC.h **** __STATIC_INLINE cy_en_sar_status_t ADC_SetGain(uint32_t chan, int32_t adcGain);
 103:Generated_Source\PSoC6/ADC.h **** __STATIC_INLINE float32_t ADC_CountsTo_Volts(uint32_t chan, int16_t adcCounts);
 104:Generated_Source\PSoC6/ADC.h **** __STATIC_INLINE int16_t ADC_CountsTo_mVolts(uint32_t chan, int16_t adcCounts);
 105:Generated_Source\PSoC6/ADC.h **** __STATIC_INLINE int32_t ADC_CountsTo_uVolts(uint32_t chan, int16_t adcCounts);
 106:Generated_Source\PSoC6/ADC.h **** 
 107:Generated_Source\PSoC6/ADC.h **** /** @} general */
 108:Generated_Source\PSoC6/ADC.h **** 
 109:Generated_Source\PSoC6/ADC.h **** void ADC_SetChanMask(uint32_t enableMask);
 110:Generated_Source\PSoC6/ADC.h **** 
 111:Generated_Source\PSoC6/ADC.h **** /**
 112:Generated_Source\PSoC6/ADC.h **** * \addtogroup group_power
 113:Generated_Source\PSoC6/ADC.h **** * @{
 114:Generated_Source\PSoC6/ADC.h **** */
 115:Generated_Source\PSoC6/ADC.h **** __STATIC_INLINE void ADC_Sleep(void);
 116:Generated_Source\PSoC6/ADC.h **** __STATIC_INLINE void ADC_Wakeup(void);
 117:Generated_Source\PSoC6/ADC.h **** 
 118:Generated_Source\PSoC6/ADC.h **** /** @} power */
 119:Generated_Source\PSoC6/ADC.h **** 
 120:Generated_Source\PSoC6/ADC.h **** /**
 121:Generated_Source\PSoC6/ADC.h **** * \addtogroup group_interrupt
 122:Generated_Source\PSoC6/ADC.h **** * @{
 123:Generated_Source\PSoC6/ADC.h **** */
 124:Generated_Source\PSoC6/ADC.h **** void ADC_ISR(void);
 125:Generated_Source\PSoC6/ADC.h **** void ADC_IRQ_Enable(void);
 126:Generated_Source\PSoC6/ADC.h **** void ADC_IRQ_Disable(void);
 127:Generated_Source\PSoC6/ADC.h **** 
 128:Generated_Source\PSoC6/ADC.h **** /** @} interrupt */
 129:Generated_Source\PSoC6/ADC.h **** 
 130:Generated_Source\PSoC6/ADC.h **** /*******************************************************************************
 131:Generated_Source\PSoC6/ADC.h ****                                   Parameters
 132:Generated_Source\PSoC6/ADC.h **** The parameters that are set in the customizer are redefined as constants here.
 133:Generated_Source\PSoC6/ADC.h **** *******************************************************************************/
 134:Generated_Source\PSoC6/ADC.h **** 
 135:Generated_Source\PSoC6/ADC.h **** /*  Sample Mode setting constants */
 136:Generated_Source\PSoC6/ADC.h **** #define ADC_TOTAL_CONFIGS                (1ul)
 137:Generated_Source\PSoC6/ADC.h **** 
 138:Generated_Source\PSoC6/ADC.h **** /* ************************************************************************** */
 139:Generated_Source\PSoC6/ADC.h **** /* Begin configuration 0 customizer defines                                   */
 140:Generated_Source\PSoC6/ADC.h **** /* ************************************************************************** */
 141:Generated_Source\PSoC6/ADC.h **** 
 142:Generated_Source\PSoC6/ADC.h **** #define ADC_CFG0_SAMPLE_RATE             (10)
 143:Generated_Source\PSoC6/ADC.h **** #define ADC_CFG0_CHANNEL_BASE            (0u)
 144:Generated_Source\PSoC6/ADC.h **** #define ADC_CFG0_CHANNEL_COUNT           (1u)
 145:Generated_Source\PSoC6/ADC.h **** #define ADC_CFG0_VREF_SEL_MASK           (0xf0u)
 146:Generated_Source\PSoC6/ADC.h **** #define ADC_CFG0_NOMINAL_CLOCK_FREQ      (16666666u)
 147:Generated_Source\PSoC6/ADC.h **** #define ADC_CFG0_CHANNEL_EN              (0x1u)
 148:Generated_Source\PSoC6/ADC.h **** 
 149:Generated_Source\PSoC6/ADC.h **** /* Sample Control Register */
ARM GAS  C:\Users\stijn\AppData\Local\Temp\ccVPn9Mg.s 			page 23


 150:Generated_Source\PSoC6/ADC.h **** #define ADC_CFG0_SINGLE_ENDED_FORMAT     (0uL)
 151:Generated_Source\PSoC6/ADC.h **** #define ADC_CFG0_DIFFERENTIAL_FORMAT     (1uL)
 152:Generated_Source\PSoC6/ADC.h **** #define ADC_CFG0_SAMPLES_AVERAGED        (0uL)
 153:Generated_Source\PSoC6/ADC.h **** #define ADC_CFG0_RANGE_INTR_MASK         (0x0u)
 154:Generated_Source\PSoC6/ADC.h **** #define ADC_CFG0_SATURATE_INTR_MASK      (0x0u)
 155:Generated_Source\PSoC6/ADC.h **** #define ADC_CFG0_VNEG_INPUT_SEL          (7)
 156:Generated_Source\PSoC6/ADC.h **** #define ADC_CFG0_SINGLE_PRESENT          (1)
 157:Generated_Source\PSoC6/ADC.h **** #define ADC_CFG0_VREF_MV_VALUE           (3300)
 158:Generated_Source\PSoC6/ADC.h **** #define ADC_CFG0_APERTURE_TIME0          (4uL)
 159:Generated_Source\PSoC6/ADC.h **** #define ADC_CFG0_APERTURE_TIME1          (2uL)
 160:Generated_Source\PSoC6/ADC.h **** #define ADC_CFG0_APERTURE_TIME2          (2uL)
 161:Generated_Source\PSoC6/ADC.h **** #define ADC_CFG0_APERTURE_TIME3          (2uL)
 162:Generated_Source\PSoC6/ADC.h **** #define ADC_CFG0_FREERUNNING             (0u)
 163:Generated_Source\PSoC6/ADC.h **** #define ADC_CFG0_AVGERAGING_MODE         (1uL)
 164:Generated_Source\PSoC6/ADC.h **** #define ADC_CFG0_LOW_LIMIT               (512u)
 165:Generated_Source\PSoC6/ADC.h **** #define ADC_CFG0_HIGH_LIMIT              (3584u)
 166:Generated_Source\PSoC6/ADC.h **** #define ADC_CFG0_RANGE_COND              (3uL)
 167:Generated_Source\PSoC6/ADC.h **** #define ADC_CFG0_USE_SOC                 (0uL)
 168:Generated_Source\PSoC6/ADC.h **** #define ADC_CFG0_VREF_PWR                (3uL)
 169:Generated_Source\PSoC6/ADC.h **** #define ADC_CFG0_COMP_PWR                (3uL)
 170:Generated_Source\PSoC6/ADC.h **** #define ADC_CFG0_COMP_DLY                (3uL)
 171:Generated_Source\PSoC6/ADC.h **** 
 172:Generated_Source\PSoC6/ADC.h **** /* Clock parameters*/
 173:Generated_Source\PSoC6/ADC.h **** #if (ADC_CLOCK_INTERNAL)
 174:Generated_Source\PSoC6/ADC.h ****     #define ADC_CFG0_CLOCKDIVIDER        (((CYDEV_CLK_PERICLK__HZ) / (ADC_CFG0_NOMINAL_CLOCK_FREQ))
 175:Generated_Source\PSoC6/ADC.h **** #endif /* (ADC_CLOCK_INTERNAL) */
 176:Generated_Source\PSoC6/ADC.h **** 
 177:Generated_Source\PSoC6/ADC.h **** /* ************************************************************************** */
 178:Generated_Source\PSoC6/ADC.h **** /* End configuration 0 customizer defines                                     */
 179:Generated_Source\PSoC6/ADC.h **** /* ************************************************************************** */
 180:Generated_Source\PSoC6/ADC.h **** 
 181:Generated_Source\PSoC6/ADC.h **** /* ************************************************************************** */
 182:Generated_Source\PSoC6/ADC.h **** /* Begin configuration 1 customizer defines                                   */
 183:Generated_Source\PSoC6/ADC.h **** /* ************************************************************************** */
 184:Generated_Source\PSoC6/ADC.h **** 
 185:Generated_Source\PSoC6/ADC.h **** #if(ADC_TOTAL_CONFIGS > 1)
 186:Generated_Source\PSoC6/ADC.h ****     #define ADC_CFG1_SAMPLE_RATE             ()
 187:Generated_Source\PSoC6/ADC.h ****     #define ADC_CFG1_CHANNEL_BASE            (u)
 188:Generated_Source\PSoC6/ADC.h ****     #define ADC_CFG1_CHANNEL_COUNT           (u)
 189:Generated_Source\PSoC6/ADC.h ****     #define ADC_CFG1_VREF_SEL_MASK           (u)
 190:Generated_Source\PSoC6/ADC.h ****     #define ADC_CFG1_NOMINAL_CLOCK_FREQ      (u)
 191:Generated_Source\PSoC6/ADC.h ****     #define ADC_CFG1_CHANNEL_EN              (u)
 192:Generated_Source\PSoC6/ADC.h **** 
 193:Generated_Source\PSoC6/ADC.h ****     /* Sample Control Register */
 194:Generated_Source\PSoC6/ADC.h ****     #define ADC_CFG1_SINGLE_ENDED_FORMAT     (uL)
 195:Generated_Source\PSoC6/ADC.h ****     #define ADC_CFG1_DIFFERENTIAL_FORMAT     (uL)
 196:Generated_Source\PSoC6/ADC.h ****     #define ADC_CFG1_SAMPLES_AVERAGED        (uL)
 197:Generated_Source\PSoC6/ADC.h ****     #define ADC_CFG1_RANGE_INTR_MASK         (u)
 198:Generated_Source\PSoC6/ADC.h ****     #define ADC_CFG1_SATURATE_INTR_MASK      (u)
 199:Generated_Source\PSoC6/ADC.h ****     #define ADC_CFG1_VNEG_INPUT_SEL          ()
 200:Generated_Source\PSoC6/ADC.h ****     #define ADC_CFG1_SINGLE_PRESENT          ()
 201:Generated_Source\PSoC6/ADC.h ****     #define ADC_CFG1_VREF_MV_VALUE           ()
 202:Generated_Source\PSoC6/ADC.h ****     #define ADC_CFG1_APERTURE_TIME0          (uL)
 203:Generated_Source\PSoC6/ADC.h ****     #define ADC_CFG1_APERTURE_TIME1          (uL)
 204:Generated_Source\PSoC6/ADC.h ****     #define ADC_CFG1_APERTURE_TIME2          (uL)
 205:Generated_Source\PSoC6/ADC.h ****     #define ADC_CFG1_APERTURE_TIME3          (uL)
 206:Generated_Source\PSoC6/ADC.h ****     #define ADC_CFG1_FREERUNNING             (u)
ARM GAS  C:\Users\stijn\AppData\Local\Temp\ccVPn9Mg.s 			page 24


 207:Generated_Source\PSoC6/ADC.h ****     #define ADC_CFG1_AVGERAGING_MODE         (uL)
 208:Generated_Source\PSoC6/ADC.h ****     #define ADC_CFG1_LOW_LIMIT               (u)
 209:Generated_Source\PSoC6/ADC.h ****     #define ADC_CFG1_HIGH_LIMIT              (u)
 210:Generated_Source\PSoC6/ADC.h ****     #define ADC_CFG1_RANGE_COND              (uL)
 211:Generated_Source\PSoC6/ADC.h ****     #define ADC_CFG1_USE_SOC                 (0uL)
 212:Generated_Source\PSoC6/ADC.h ****     #define ADC_CFG1_VREF_PWR                (uL)
 213:Generated_Source\PSoC6/ADC.h ****     #define ADC_CFG1_COMP_PWR                (uL)
 214:Generated_Source\PSoC6/ADC.h ****     #define ADC_CFG1_COMP_DLY                (uL)
 215:Generated_Source\PSoC6/ADC.h **** 
 216:Generated_Source\PSoC6/ADC.h ****     /* Clock parameters*/
 217:Generated_Source\PSoC6/ADC.h ****     #if (ADC_CLOCK_INTERNAL)
 218:Generated_Source\PSoC6/ADC.h ****         #define ADC_CFG1_CLOCKDIVIDER        (((CYDEV_CLK_PERICLK__HZ) / (ADC_CFG1_NOMINAL_CLOCK_FR
 219:Generated_Source\PSoC6/ADC.h ****     #endif /* (ADC_CLOCK_INTERNAL) */
 220:Generated_Source\PSoC6/ADC.h **** #endif /* #if(ADC_TOTAL_CONFIGS > 1) */
 221:Generated_Source\PSoC6/ADC.h **** 
 222:Generated_Source\PSoC6/ADC.h **** /* ************************************************************************** */
 223:Generated_Source\PSoC6/ADC.h **** /* End configuration 1 customizer defines                                     */
 224:Generated_Source\PSoC6/ADC.h **** /* ************************************************************************** */
 225:Generated_Source\PSoC6/ADC.h **** 
 226:Generated_Source\PSoC6/ADC.h **** /* ************************************************************************** */
 227:Generated_Source\PSoC6/ADC.h **** /* Begin configuration 2 customizer defines                                         */
 228:Generated_Source\PSoC6/ADC.h **** /* ************************************************************************** */
 229:Generated_Source\PSoC6/ADC.h **** 
 230:Generated_Source\PSoC6/ADC.h **** #if(ADC_TOTAL_CONFIGS > 2)
 231:Generated_Source\PSoC6/ADC.h ****     #define ADC_CFG2_SAMPLE_RATE             ()
 232:Generated_Source\PSoC6/ADC.h ****     #define ADC_CFG2_CHANNEL_BASE            (u)
 233:Generated_Source\PSoC6/ADC.h ****     #define ADC_CFG2_CHANNEL_COUNT           (u)
 234:Generated_Source\PSoC6/ADC.h ****     #define ADC_CFG2_VREF_SEL_MASK           (u)
 235:Generated_Source\PSoC6/ADC.h ****     #define ADC_CFG2_NOMINAL_CLOCK_FREQ      (u)
 236:Generated_Source\PSoC6/ADC.h ****     #define ADC_CFG2_CHANNEL_EN              (u)
 237:Generated_Source\PSoC6/ADC.h **** 
 238:Generated_Source\PSoC6/ADC.h ****     /* Sample Control Register */
 239:Generated_Source\PSoC6/ADC.h ****     #define ADC_CFG2_SINGLE_ENDED_FORMAT     (uL)
 240:Generated_Source\PSoC6/ADC.h ****     #define ADC_CFG2_DIFFERENTIAL_FORMAT     (uL)
 241:Generated_Source\PSoC6/ADC.h ****     #define ADC_CFG2_SAMPLES_AVERAGED        (uL)
 242:Generated_Source\PSoC6/ADC.h ****     #define ADC_CFG2_RANGE_INTR_MASK         (u)
 243:Generated_Source\PSoC6/ADC.h ****     #define ADC_CFG2_SATURATE_INTR_MASK      (u)
 244:Generated_Source\PSoC6/ADC.h ****     #define ADC_CFG2_VNEG_INPUT_SEL          ()
 245:Generated_Source\PSoC6/ADC.h ****     #define ADC_CFG2_SINGLE_PRESENT          ()
 246:Generated_Source\PSoC6/ADC.h ****     #define ADC_CFG2_VREF_MV_VALUE           ()
 247:Generated_Source\PSoC6/ADC.h ****     #define ADC_CFG2_APERTURE_TIME0          (uL)
 248:Generated_Source\PSoC6/ADC.h ****     #define ADC_CFG2_APERTURE_TIME1          (uL)
 249:Generated_Source\PSoC6/ADC.h ****     #define ADC_CFG2_APERTURE_TIME2          (uL)
 250:Generated_Source\PSoC6/ADC.h ****     #define ADC_CFG2_APERTURE_TIME3          (uL)
 251:Generated_Source\PSoC6/ADC.h ****     #define ADC_CFG2_FREERUNNING             (u)
 252:Generated_Source\PSoC6/ADC.h ****     #define ADC_CFG2_AVGERAGING_MODE         (uL)
 253:Generated_Source\PSoC6/ADC.h ****     #define ADC_CFG2_LOW_LIMIT               (u)
 254:Generated_Source\PSoC6/ADC.h ****     #define ADC_CFG2_HIGH_LIMIT              (u)
 255:Generated_Source\PSoC6/ADC.h ****     #define ADC_CFG2_RANGE_COND              (uL)
 256:Generated_Source\PSoC6/ADC.h ****     #define ADC_CFG2_USE_SOC                 (0uL)
 257:Generated_Source\PSoC6/ADC.h ****     #define ADC_CFG2_VREF_PWR                (uL)
 258:Generated_Source\PSoC6/ADC.h ****     #define ADC_CFG2_COMP_PWR                (uL)
 259:Generated_Source\PSoC6/ADC.h ****     #define ADC_CFG2_COMP_DLY                (uL)
 260:Generated_Source\PSoC6/ADC.h **** 
 261:Generated_Source\PSoC6/ADC.h ****     /* Clock parameters*/
 262:Generated_Source\PSoC6/ADC.h ****     #if (ADC_CLOCK_INTERNAL)
 263:Generated_Source\PSoC6/ADC.h ****         #define ADC_CFG2_CLOCKDIVIDER        (((CYDEV_CLK_PERICLK__HZ) / (ADC_CFG2_NOMINAL_CLOCK_FR
ARM GAS  C:\Users\stijn\AppData\Local\Temp\ccVPn9Mg.s 			page 25


 264:Generated_Source\PSoC6/ADC.h ****     #endif /* (ADC_CLOCK_INTERNAL) */
 265:Generated_Source\PSoC6/ADC.h **** #endif /* (ADC_TOTAL_CONFIGS > 2) */
 266:Generated_Source\PSoC6/ADC.h **** 
 267:Generated_Source\PSoC6/ADC.h **** 
 268:Generated_Source\PSoC6/ADC.h **** /* ************************************************************************** */
 269:Generated_Source\PSoC6/ADC.h **** /* End configuration 2 customizer defines                                     */
 270:Generated_Source\PSoC6/ADC.h **** /* ************************************************************************** */
 271:Generated_Source\PSoC6/ADC.h **** 
 272:Generated_Source\PSoC6/ADC.h **** /* ************************************************************************** */
 273:Generated_Source\PSoC6/ADC.h **** /* Begin configuration 3 customizer defines                                   */
 274:Generated_Source\PSoC6/ADC.h **** /* ************************************************************************** */
 275:Generated_Source\PSoC6/ADC.h **** #if(ADC_TOTAL_CONFIGS > 3)
 276:Generated_Source\PSoC6/ADC.h ****     #define ADC_CFG3_SAMPLE_RATE             ()
 277:Generated_Source\PSoC6/ADC.h ****     #define ADC_CFG3_CHANNEL_BASE            (u)
 278:Generated_Source\PSoC6/ADC.h ****     #define ADC_CFG3_CHANNEL_COUNT           (u)
 279:Generated_Source\PSoC6/ADC.h ****     #define ADC_CFG3_VREF_SEL_MASK           (u)
 280:Generated_Source\PSoC6/ADC.h ****     #define ADC_CFG3_NOMINAL_CLOCK_FREQ      (u)
 281:Generated_Source\PSoC6/ADC.h ****     #define ADC_CFG3_CHANNEL_EN              (u)
 282:Generated_Source\PSoC6/ADC.h **** 
 283:Generated_Source\PSoC6/ADC.h ****     /* Sample Control Register */
 284:Generated_Source\PSoC6/ADC.h ****     #define ADC_CFG3_SINGLE_ENDED_FORMAT     (uL)
 285:Generated_Source\PSoC6/ADC.h ****     #define ADC_CFG3_DIFFERENTIAL_FORMAT     (uL)
 286:Generated_Source\PSoC6/ADC.h ****     #define ADC_CFG3_SAMPLES_AVERAGED        (uL)
 287:Generated_Source\PSoC6/ADC.h ****     #define ADC_CFG3_RANGE_INTR_MASK         (u)
 288:Generated_Source\PSoC6/ADC.h ****     #define ADC_CFG3_SATURATE_INTR_MASK      (u)
 289:Generated_Source\PSoC6/ADC.h ****     #define ADC_CFG3_VNEG_INPUT_SEL          ()
 290:Generated_Source\PSoC6/ADC.h ****     #define ADC_CFG3_SINGLE_PRESENT          ()
 291:Generated_Source\PSoC6/ADC.h ****     #define ADC_CFG3_VREF_MV_VALUE           ()
 292:Generated_Source\PSoC6/ADC.h ****     #define ADC_CFG3_APERTURE_TIME0          (uL)
 293:Generated_Source\PSoC6/ADC.h ****     #define ADC_CFG3_APERTURE_TIME1          (uL)
 294:Generated_Source\PSoC6/ADC.h ****     #define ADC_CFG3_APERTURE_TIME2          (uL)
 295:Generated_Source\PSoC6/ADC.h ****     #define ADC_CFG3_APERTURE_TIME3          (uL)
 296:Generated_Source\PSoC6/ADC.h ****     #define ADC_CFG3_FREERUNNING             (u)
 297:Generated_Source\PSoC6/ADC.h ****     #define ADC_CFG3_AVGERAGING_MODE         (uL)
 298:Generated_Source\PSoC6/ADC.h ****     #define ADC_CFG3_LOW_LIMIT               (u)
 299:Generated_Source\PSoC6/ADC.h ****     #define ADC_CFG3_HIGH_LIMIT              (u)
 300:Generated_Source\PSoC6/ADC.h ****     #define ADC_CFG3_RANGE_COND              (uL)
 301:Generated_Source\PSoC6/ADC.h ****     #define ADC_CFG3_USE_SOC                 (0uL)
 302:Generated_Source\PSoC6/ADC.h ****     #define ADC_CFG3_VREF_PWR                (uL)
 303:Generated_Source\PSoC6/ADC.h ****     #define ADC_CFG3_COMP_PWR                (uL)
 304:Generated_Source\PSoC6/ADC.h ****     #define ADC_CFG3_COMP_DLY                (uL)
 305:Generated_Source\PSoC6/ADC.h **** 
 306:Generated_Source\PSoC6/ADC.h ****     /* Clock parameters*/
 307:Generated_Source\PSoC6/ADC.h ****     #if (ADC_CLOCK_INTERNAL)
 308:Generated_Source\PSoC6/ADC.h ****         #define ADC_CFG3_CLOCKDIVIDER        (((CYDEV_CLK_PERICLK__HZ) / (ADC_CFG3_NOMINAL_CLOCK_FR
 309:Generated_Source\PSoC6/ADC.h ****     #endif /* (ADC_CLOCK_INTERNAL) */
 310:Generated_Source\PSoC6/ADC.h **** #endif /* (ADC_TOTAL_CONFIGS > 3) */
 311:Generated_Source\PSoC6/ADC.h **** 
 312:Generated_Source\PSoC6/ADC.h **** /* ************************************************************************** */
 313:Generated_Source\PSoC6/ADC.h **** /* End configuration 3 customizer defines                                     */
 314:Generated_Source\PSoC6/ADC.h **** /* ************************************************************************** */
 315:Generated_Source\PSoC6/ADC.h **** 
 316:Generated_Source\PSoC6/ADC.h **** #define ADC_DEFAULT_SAMPLE_MODE_SEL      (0u)
 317:Generated_Source\PSoC6/ADC.h **** #define ADC_FREERUNNING                  (1u)
 318:Generated_Source\PSoC6/ADC.h **** #define ADC_HARDWARESOC                  (1u)
 319:Generated_Source\PSoC6/ADC.h **** #define ADC_NEG_SEL_VSSA_KELVIN          (0x0uL)
 320:Generated_Source\PSoC6/ADC.h **** #define ADC_NEG_SEL_VREF                 (0x7uL)
ARM GAS  C:\Users\stijn\AppData\Local\Temp\ccVPn9Mg.s 			page 26


 321:Generated_Source\PSoC6/ADC.h **** #define ADC_PWR_CTRL_VREF_NORMAL_PWR     (0x0uL)
 322:Generated_Source\PSoC6/ADC.h **** 
 323:Generated_Source\PSoC6/ADC.h **** /** ADC_TOTAL_CHANNELS_NUM
 324:Generated_Source\PSoC6/ADC.h **** * This constant represents the number of input channels available for scanning.
 325:Generated_Source\PSoC6/ADC.h **** */
 326:Generated_Source\PSoC6/ADC.h **** #define ADC_TOTAL_CHANNELS_NUM           (1u)
 327:Generated_Source\PSoC6/ADC.h **** 
 328:Generated_Source\PSoC6/ADC.h **** /*******************************************************************************
 329:Generated_Source\PSoC6/ADC.h **** *    Variables with External Linkage
 330:Generated_Source\PSoC6/ADC.h **** *******************************************************************************/
 331:Generated_Source\PSoC6/ADC.h **** /**
 332:Generated_Source\PSoC6/ADC.h **** * \addtogroup group_globals
 333:Generated_Source\PSoC6/ADC.h **** * Globals are noted in the descriptions of the functions that use globals.
 334:Generated_Source\PSoC6/ADC.h **** * They are marked with (R), (W), or (RW) noting whether the variable is read,
 335:Generated_Source\PSoC6/ADC.h **** * write, or read/write.
 336:Generated_Source\PSoC6/ADC.h **** * @{
 337:Generated_Source\PSoC6/ADC.h **** */
 338:Generated_Source\PSoC6/ADC.h **** 
 339:Generated_Source\PSoC6/ADC.h **** /** ADC_initVar
 340:Generated_Source\PSoC6/ADC.h **** * The ADC_initVar variable is used to indicate
 341:Generated_Source\PSoC6/ADC.h **** * initial configuration of this component. The variable is initialized to zero and
 342:Generated_Source\PSoC6/ADC.h **** * set to 1 the first time ADC_Start() is called. This allows for
 343:Generated_Source\PSoC6/ADC.h **** * component initialization without reinitialization in all subsequent calls to the
 344:Generated_Source\PSoC6/ADC.h **** * ADC_Start() routine.
 345:Generated_Source\PSoC6/ADC.h **** *
 346:Generated_Source\PSoC6/ADC.h **** * If reinitialization of the component is required, then the ADC_Init() function
 347:Generated_Source\PSoC6/ADC.h **** * can be called before the ADC_Start() or ADC_Enable()
 348:Generated_Source\PSoC6/ADC.h **** * functions.
 349:Generated_Source\PSoC6/ADC.h **** */
 350:Generated_Source\PSoC6/ADC.h **** extern uint8_t ADC_initVar;
 351:Generated_Source\PSoC6/ADC.h **** extern uint8_t ADC_selected;
 352:Generated_Source\PSoC6/ADC.h **** extern uint32_t ADC_currentConfig;
 353:Generated_Source\PSoC6/ADC.h **** 
 354:Generated_Source\PSoC6/ADC.h **** #define ADC_INIT_VAR_INIT_FLAG     (0x01u)
 355:Generated_Source\PSoC6/ADC.h **** 
 356:Generated_Source\PSoC6/ADC.h **** extern const ADC_CONFIG_STRUCT ADC_allConfigs[ADC_TOTAL_CONFIGS];
 357:Generated_Source\PSoC6/ADC.h **** 
 358:Generated_Source\PSoC6/ADC.h **** /* SysPm callback structure for deep sleep entry and exit.
 359:Generated_Source\PSoC6/ADC.h ****  * Call the Cy_SysPm_RegisterCallback function with this
 360:Generated_Source\PSoC6/ADC.h ****  * structure before calling Cy_SysPm_DeepSleep.
 361:Generated_Source\PSoC6/ADC.h **** */
 362:Generated_Source\PSoC6/ADC.h **** extern cy_stc_syspm_callback_t ADC_DeepSleepCallbackStruct;
 363:Generated_Source\PSoC6/ADC.h **** 
 364:Generated_Source\PSoC6/ADC.h **** /** @} globals */
 365:Generated_Source\PSoC6/ADC.h **** 
 366:Generated_Source\PSoC6/ADC.h **** /* ************************************************************************** */
 367:Generated_Source\PSoC6/ADC.h **** /* *******************Global MUX_SWITCH0 Definitions ************************ */
 368:Generated_Source\PSoC6/ADC.h **** /* ************************************************************************** */
 369:Generated_Source\PSoC6/ADC.h **** #if(ADC_CFG0_VNEG_INPUT_SEL == ADC_NEG_SEL_VSSA_KELVIN)
 370:Generated_Source\PSoC6/ADC.h ****     /* Do not connect VSSA to VMINUS when one channel in differential mode used */
 371:Generated_Source\PSoC6/ADC.h ****     #if((ADC_TOTAL_CHANNELS_NUM == 1u) && (ADC_CFG0_SINGLE_PRESENT == 0u))
 372:Generated_Source\PSoC6/ADC.h ****         #define ADC_MUX_SWITCH0_INIT      0u
 373:Generated_Source\PSoC6/ADC.h ****     #else    /* multiple channels or one single ended channel */
 374:Generated_Source\PSoC6/ADC.h ****         #define ADC_MUX_SWITCH0_INIT      1u
 375:Generated_Source\PSoC6/ADC.h ****     #endif /* ((ADC_TOTAL_CHANNELS_NUM == 1u) && (ADC_CFG0_SINGLE_PRESENT == 0u)) */
 376:Generated_Source\PSoC6/ADC.h **** #else
 377:Generated_Source\PSoC6/ADC.h ****     #define ADC_MUX_SWITCH0_INIT          0u
ARM GAS  C:\Users\stijn\AppData\Local\Temp\ccVPn9Mg.s 			page 27


 378:Generated_Source\PSoC6/ADC.h **** #endif /* ADC_CFG0_VNEG_INPUT_SEL == ADC_NEG_SEL_VSSA_KELVIN */
 379:Generated_Source\PSoC6/ADC.h **** 
 380:Generated_Source\PSoC6/ADC.h **** /* ************************************************************************** */
 381:Generated_Source\PSoC6/ADC.h **** /* Begin configuration 0 calculated defines                                   */
 382:Generated_Source\PSoC6/ADC.h **** /* ************************************************************************** */
 383:Generated_Source\PSoC6/ADC.h **** #define ADC_CFG0_SAMPLE_TIME01_INIT \
 384:Generated_Source\PSoC6/ADC.h ****         ((ADC_CFG0_APERTURE_TIME0 \
 385:Generated_Source\PSoC6/ADC.h ****         << SAR_SAMPLE_TIME01_SAMPLE_TIME0_Pos) \
 386:Generated_Source\PSoC6/ADC.h ****         | (ADC_CFG0_APERTURE_TIME1 \
 387:Generated_Source\PSoC6/ADC.h ****         << SAR_SAMPLE_TIME01_SAMPLE_TIME1_Pos))
 388:Generated_Source\PSoC6/ADC.h **** 
 389:Generated_Source\PSoC6/ADC.h **** #define ADC_CFG0_SAMPLE_TIME23_INIT \
 390:Generated_Source\PSoC6/ADC.h ****         ((ADC_CFG0_APERTURE_TIME2 \
 391:Generated_Source\PSoC6/ADC.h ****         << SAR_SAMPLE_TIME23_SAMPLE_TIME2_Pos) \
 392:Generated_Source\PSoC6/ADC.h ****         | (ADC_CFG0_APERTURE_TIME3 \
 393:Generated_Source\PSoC6/ADC.h ****         << SAR_SAMPLE_TIME23_SAMPLE_TIME3_Pos))
 394:Generated_Source\PSoC6/ADC.h **** 
 395:Generated_Source\PSoC6/ADC.h **** /* Enable soc pin if used */
 396:Generated_Source\PSoC6/ADC.h **** #define ADC_CFG0_DSI_TRIGGER_EN_INIT \
 397:Generated_Source\PSoC6/ADC.h ****         (ADC_CFG0_USE_SOC \
 398:Generated_Source\PSoC6/ADC.h ****         << SAR_SAMPLE_CTRL_DSI_TRIGGER_EN_Pos)
 399:Generated_Source\PSoC6/ADC.h **** 
 400:Generated_Source\PSoC6/ADC.h **** /* Set soc operation to edge or level based on sample mode */
 401:Generated_Source\PSoC6/ADC.h **** #if(ADC_CFG0_FREERUNNING == ADC_FREERUNNING)
 402:Generated_Source\PSoC6/ADC.h ****     #define ADC_CFG0_DSI_TRIGGER_LEVEL_INIT    (SAR_SAMPLE_CTRL_DSI_TRIGGER_LEVEL_Msk)
 403:Generated_Source\PSoC6/ADC.h **** #else /* Edge trigger */
 404:Generated_Source\PSoC6/ADC.h ****     #define ADC_CFG0_DSI_TRIGGER_LEVEL_INIT    (0u)
 405:Generated_Source\PSoC6/ADC.h **** #endif /* End ADC_CFG0_FREERUNNING == ADC_FREERUNNING */
 406:Generated_Source\PSoC6/ADC.h **** 
 407:Generated_Source\PSoC6/ADC.h **** /* Set SE_NEG_INPUT */
 408:Generated_Source\PSoC6/ADC.h **** #if(ADC_CFG0_VNEG_INPUT_SEL == ADC_NEG_SEL_VSSA_KELVIN)
 409:Generated_Source\PSoC6/ADC.h ****     #define ADC_CFG0_SE_NEG_INPUT_INIT \
 410:Generated_Source\PSoC6/ADC.h ****             ((uint32)(ADC_NEG_SEL_VSSA_KELVIN \
 411:Generated_Source\PSoC6/ADC.h ****             << SAR_CTRL_NEG_SEL_Pos ))
 412:Generated_Source\PSoC6/ADC.h **** #elif(ADC_CFG0_VNEG_INPUT_SEL == ADC_NEG_SEL_VREF)
 413:Generated_Source\PSoC6/ADC.h **** 
 414:Generated_Source\PSoC6/ADC.h ****     /* Do not connect VNEG to VREF when one channel in differential mode used */
 415:Generated_Source\PSoC6/ADC.h ****     /* Only needed for config 0 since 2+ configs == 2+ channels */
 416:Generated_Source\PSoC6/ADC.h ****     #if((ADC_CFG0_CHANNEL_COUNT == 1u) && (ADC_CFG0_SINGLE_PRESENT == 0u))
 417:Generated_Source\PSoC6/ADC.h ****         #define ADC_CFG0_SE_NEG_INPUT_INIT     0u
 418:Generated_Source\PSoC6/ADC.h ****     #else    /* multiple channels or one single channel */
 419:Generated_Source\PSoC6/ADC.h ****         #define ADC_CFG0_SE_NEG_INPUT_INIT     (ADC_NEG_SEL_VREF \
 420:Generated_Source\PSoC6/ADC.h ****                                                             << SAR_CTRL_NEG_SEL_Pos )
 421:Generated_Source\PSoC6/ADC.h ****     #endif /* (ADC_CFG0_CHANNEL_COUNT == 1u) && (ADC_CFG0_CHANNELS_MODE != 0u) */
 422:Generated_Source\PSoC6/ADC.h **** #elif (ADC_CFG0_SINGLE_PRESENT != 0u)
 423:Generated_Source\PSoC6/ADC.h ****     #define ADC_CFG0_SE_NEG_INPUT_INIT         ADC_CFG0_NEG_OTHER
 424:Generated_Source\PSoC6/ADC.h **** #else
 425:Generated_Source\PSoC6/ADC.h ****     #define ADC_CFG0_SE_NEG_INPUT_INIT         0u
 426:Generated_Source\PSoC6/ADC.h **** #endif /* ADC_CFG0_VNEG_INPUT_SEL == ADC_NEG_SEL_VSSA_KELVIN */
 427:Generated_Source\PSoC6/ADC.h **** 
 428:Generated_Source\PSoC6/ADC.h **** #if(ADC_TOTAL_CHANNELS_NUM > 1u)
 429:Generated_Source\PSoC6/ADC.h ****     #define ADC_CFG0_NEG_OTHER                 (uint16)((uint16)ADC_SARMUX__VNEG0 << SAR_CTRL_NEG_S
 430:Generated_Source\PSoC6/ADC.h ****     #define ADC_CFG0_SWITCH_CONF_INIT          0u
 431:Generated_Source\PSoC6/ADC.h **** #else /* Disable SAR sequencer from enabling routing switches in single channel mode */
 432:Generated_Source\PSoC6/ADC.h ****     #define ADC_CFG0_SWITCH_CONF_INIT          SAR_CTRL_SWITCH_DISABLE_Msk
 433:Generated_Source\PSoC6/ADC.h ****     #define ADC_CFG0_NEG_OTHER                 0u
 434:Generated_Source\PSoC6/ADC.h **** #endif /* ADC_CFG0_CHANNEL_COUNT > 1u */
ARM GAS  C:\Users\stijn\AppData\Local\Temp\ccVPn9Mg.s 			page 28


 435:Generated_Source\PSoC6/ADC.h **** 
 436:Generated_Source\PSoC6/ADC.h **** /* If the SAR is configured for multiple channels, always set SAR_HW_CTRL_NEGVREF to 1 */
 437:Generated_Source\PSoC6/ADC.h **** #if(ADC_TOTAL_CHANNELS_NUM == 1u)
 438:Generated_Source\PSoC6/ADC.h ****     #define ADC_CFG0_HW_CTRL_NEGVREF_INIT      0u
 439:Generated_Source\PSoC6/ADC.h **** #else
 440:Generated_Source\PSoC6/ADC.h ****     #define ADC_CFG0_HW_CTRL_NEGVREF_INIT      SAR_CTRL_SAR_HW_CTRL_NEGVREF_Msk
 441:Generated_Source\PSoC6/ADC.h **** #endif /* ADC_CFG0_CHANNEL_COUNT == 1u */
 442:Generated_Source\PSoC6/ADC.h **** 
 443:Generated_Source\PSoC6/ADC.h **** #define ADC_CFG0_POWER_INIT  (ADC_PWR_CTRL_VREF_NORMAL_PWR)
 444:Generated_Source\PSoC6/ADC.h **** 
 445:Generated_Source\PSoC6/ADC.h **** /* SAMPLE_CTRL initial values */
 446:Generated_Source\PSoC6/ADC.h **** #define ADC_CFG0_SE_RESULT_FORMAT_INIT \
 447:Generated_Source\PSoC6/ADC.h ****         (ADC_CFG0_SINGLE_ENDED_FORMAT \
 448:Generated_Source\PSoC6/ADC.h ****         << SAR_SAMPLE_CTRL_SINGLE_ENDED_SIGNED_Pos)
 449:Generated_Source\PSoC6/ADC.h **** 
 450:Generated_Source\PSoC6/ADC.h **** #define ADC_CFG0_DIFF_RESULT_FORMAT_INIT \
 451:Generated_Source\PSoC6/ADC.h ****         (ADC_CFG0_DIFFERENTIAL_FORMAT \
 452:Generated_Source\PSoC6/ADC.h ****         << SAR_SAMPLE_CTRL_DIFFERENTIAL_SIGNED_Pos)
 453:Generated_Source\PSoC6/ADC.h **** 
 454:Generated_Source\PSoC6/ADC.h **** #define ADC_CFG0_AVG_SAMPLES_NUM_INIT \
 455:Generated_Source\PSoC6/ADC.h ****         (ADC_CFG0_SAMPLES_AVERAGED \
 456:Generated_Source\PSoC6/ADC.h ****         << SAR_SAMPLE_CTRL_AVG_CNT_Pos)
 457:Generated_Source\PSoC6/ADC.h **** 
 458:Generated_Source\PSoC6/ADC.h **** /* Combination of Average Mode and Average Shift */
 459:Generated_Source\PSoC6/ADC.h **** #define ADC_CFG0_AVG_MODE_INIT \
 460:Generated_Source\PSoC6/ADC.h ****         (ADC_CFG0_AVGERAGING_MODE \
 461:Generated_Source\PSoC6/ADC.h ****         << SAR_SAMPLE_CTRL_AVG_SHIFT_Pos)
 462:Generated_Source\PSoC6/ADC.h **** 
 463:Generated_Source\PSoC6/ADC.h **** #define ADC_CFG0_TRIGGER_OUT_INIT      (0u)
 464:Generated_Source\PSoC6/ADC.h **** #define ADC_CFG0_UAB_SCAN_MODE_INIT    (0u)
 465:Generated_Source\PSoC6/ADC.h **** 
 466:Generated_Source\PSoC6/ADC.h **** #define ADC_CFG0_VREF_POWER_INIT  \
 467:Generated_Source\PSoC6/ADC.h ****         (ADC_CFG0_VREF_PWR \
 468:Generated_Source\PSoC6/ADC.h ****         << SAR_CTRL_PWR_CTRL_VREF_Pos)
 469:Generated_Source\PSoC6/ADC.h **** 
 470:Generated_Source\PSoC6/ADC.h **** #define ADC_CFG0_COMP_PWR_INIT  \
 471:Generated_Source\PSoC6/ADC.h ****         (ADC_CFG0_COMP_PWR \
 472:Generated_Source\PSoC6/ADC.h ****         << SAR_CTRL_COMP_PWR_Pos)
 473:Generated_Source\PSoC6/ADC.h **** 
 474:Generated_Source\PSoC6/ADC.h **** #define ADC_CFG0_COMP_DLY_INIT  \
 475:Generated_Source\PSoC6/ADC.h ****         (ADC_CFG0_COMP_DLY \
 476:Generated_Source\PSoC6/ADC.h ****         << SAR_CTRL_COMP_DLY_Pos)
 477:Generated_Source\PSoC6/ADC.h **** 
 478:Generated_Source\PSoC6/ADC.h **** #define ADC_CFG0_CTRL_INIT  \
 479:Generated_Source\PSoC6/ADC.h ****         (ADC_CFG0_VREF_POWER_INIT \
 480:Generated_Source\PSoC6/ADC.h ****         | ADC_CFG0_VREF_SEL_MASK \
 481:Generated_Source\PSoC6/ADC.h ****         | ADC_CFG0_SE_NEG_INPUT_INIT \
 482:Generated_Source\PSoC6/ADC.h ****         | ADC_CFG0_HW_CTRL_NEGVREF_INIT \
 483:Generated_Source\PSoC6/ADC.h ****         | ADC_CFG0_COMP_DLY_INIT \
 484:Generated_Source\PSoC6/ADC.h ****         | SAR_CTRL_REFBUF_EN_Msk \
 485:Generated_Source\PSoC6/ADC.h ****         | ADC_CFG0_COMP_PWR_INIT \
 486:Generated_Source\PSoC6/ADC.h ****         | SAR_CTRL_DSI_SYNC_CONFIG_Msk  \
 487:Generated_Source\PSoC6/ADC.h ****         | ADC_CFG0_SWITCH_CONF_INIT )
 488:Generated_Source\PSoC6/ADC.h **** 
 489:Generated_Source\PSoC6/ADC.h **** #define ADC_CFG0_SAMPLE_CTRL_INIT \
 490:Generated_Source\PSoC6/ADC.h ****         (ADC_CFG0_SE_RESULT_FORMAT_INIT \
 491:Generated_Source\PSoC6/ADC.h ****         | ADC_CFG0_DIFF_RESULT_FORMAT_INIT \
ARM GAS  C:\Users\stijn\AppData\Local\Temp\ccVPn9Mg.s 			page 29


 492:Generated_Source\PSoC6/ADC.h ****         | ADC_CFG0_AVG_SAMPLES_NUM_INIT \
 493:Generated_Source\PSoC6/ADC.h ****         | ADC_CFG0_AVG_MODE_INIT \
 494:Generated_Source\PSoC6/ADC.h ****         | ADC_CFG0_DSI_TRIGGER_LEVEL_INIT \
 495:Generated_Source\PSoC6/ADC.h ****         | ADC_CFG0_DSI_TRIGGER_EN_INIT \
 496:Generated_Source\PSoC6/ADC.h ****         | ADC_CFG0_UAB_SCAN_MODE_INIT \
 497:Generated_Source\PSoC6/ADC.h ****         | SAR_SAMPLE_CTRL_VALID_IGNORE_Msk \
 498:Generated_Source\PSoC6/ADC.h ****         | ADC_CFG0_TRIGGER_OUT_INIT \
 499:Generated_Source\PSoC6/ADC.h ****         | SAR_SAMPLE_CTRL_EOS_DSI_OUT_EN_Msk \
 500:Generated_Source\PSoC6/ADC.h **** )
 501:Generated_Source\PSoC6/ADC.h **** 
 502:Generated_Source\PSoC6/ADC.h **** #define ADC_CFG0_RANGE_THRES_INIT \
 503:Generated_Source\PSoC6/ADC.h ****         (ADC_CFG0_LOW_LIMIT \
 504:Generated_Source\PSoC6/ADC.h ****         | (uint32)((uint32)ADC_CFG0_HIGH_LIMIT \
 505:Generated_Source\PSoC6/ADC.h ****         << SAR_RANGE_THRES_RANGE_HIGH_Pos))
 506:Generated_Source\PSoC6/ADC.h **** 
 507:Generated_Source\PSoC6/ADC.h **** #define ADC_CFG0_RANGE_COND_INIT   (cy_en_sar_range_detect_condition_t)ADC_CFG0_RANGE_COND
 508:Generated_Source\PSoC6/ADC.h **** 
 509:Generated_Source\PSoC6/ADC.h **** /* Misc Config
 510:Generated_Source\PSoC6/ADC.h ****     [0] - Freerunning: Set if the sample mode is freerunning
 511:Generated_Source\PSoC6/ADC.h **** */
 512:Generated_Source\PSoC6/ADC.h **** #define ADC_CFG0_MISC_CONFIG_INIT \
 513:Generated_Source\PSoC6/ADC.h ****         (ADC_CFG0_FREERUNNING)
 514:Generated_Source\PSoC6/ADC.h **** 
 515:Generated_Source\PSoC6/ADC.h **** /* ************************************************************************** */
 516:Generated_Source\PSoC6/ADC.h **** /* End configuration 0 calculated defines                                     */
 517:Generated_Source\PSoC6/ADC.h **** /* ************************************************************************** */
 518:Generated_Source\PSoC6/ADC.h **** 
 519:Generated_Source\PSoC6/ADC.h **** /* ************************************************************************** */
 520:Generated_Source\PSoC6/ADC.h **** /* Begin configuration 1 calculated defines                                   */
 521:Generated_Source\PSoC6/ADC.h **** /* ************************************************************************** */
 522:Generated_Source\PSoC6/ADC.h **** #if(ADC_TOTAL_CONFIGS > 1)
 523:Generated_Source\PSoC6/ADC.h ****     #define ADC_CFG1_SAMPLE_TIME01_INIT \
 524:Generated_Source\PSoC6/ADC.h ****             ((ADC_CFG1_APERTURE_TIME0 \
 525:Generated_Source\PSoC6/ADC.h ****             << SAR_SAMPLE_TIME01_SAMPLE_TIME0_Pos) \
 526:Generated_Source\PSoC6/ADC.h ****             | (ADC_CFG1_APERTURE_TIME1 \
 527:Generated_Source\PSoC6/ADC.h ****             << SAR_SAMPLE_TIME01_SAMPLE_TIME1_Pos))
 528:Generated_Source\PSoC6/ADC.h **** 
 529:Generated_Source\PSoC6/ADC.h ****     #define ADC_CFG1_SAMPLE_TIME23_INIT \
 530:Generated_Source\PSoC6/ADC.h ****             ((ADC_CFG1_APERTURE_TIME2 \
 531:Generated_Source\PSoC6/ADC.h ****             << SAR_SAMPLE_TIME23_SAMPLE_TIME2_Pos) \
 532:Generated_Source\PSoC6/ADC.h ****             | (ADC_CFG1_APERTURE_TIME3 \
 533:Generated_Source\PSoC6/ADC.h ****             << SAR_SAMPLE_TIME23_SAMPLE_TIME3_Pos))
 534:Generated_Source\PSoC6/ADC.h **** 
 535:Generated_Source\PSoC6/ADC.h ****     /* Enable soc pin if used */
 536:Generated_Source\PSoC6/ADC.h ****     #define ADC_CFG1_DSI_TRIGGER_EN_INIT \
 537:Generated_Source\PSoC6/ADC.h ****             (ADC_CFG1_USE_SOC \
 538:Generated_Source\PSoC6/ADC.h ****             << SAR_SAMPLE_CTRL_DSI_TRIGGER_EN_Pos)
 539:Generated_Source\PSoC6/ADC.h **** 
 540:Generated_Source\PSoC6/ADC.h ****     /* Set soc operation to edge or level based on sample mode */
 541:Generated_Source\PSoC6/ADC.h ****     #if(ADC_CFG1_FREERUNNING == ADC_FREERUNNING)
 542:Generated_Source\PSoC6/ADC.h ****         #define ADC_CFG1_DSI_TRIGGER_LEVEL_INIT    (SAR_SAMPLE_CTRL_DSI_TRIGGER_LEVEL_Msk)
 543:Generated_Source\PSoC6/ADC.h ****     #else /* Edge trigger */
 544:Generated_Source\PSoC6/ADC.h ****         #define ADC_CFG1_DSI_TRIGGER_LEVEL_INIT    (0u)
 545:Generated_Source\PSoC6/ADC.h ****     #endif /* End ADC_CFG1_FREERUNNING == ADC_FREERUNNING */
 546:Generated_Source\PSoC6/ADC.h **** 
 547:Generated_Source\PSoC6/ADC.h ****     /* Set SE_NEG_INPUT */
 548:Generated_Source\PSoC6/ADC.h ****     #if(ADC_CFG1_VNEG_INPUT_SEL == ADC_NEG_SEL_VSSA_KELVIN)
ARM GAS  C:\Users\stijn\AppData\Local\Temp\ccVPn9Mg.s 			page 30


 549:Generated_Source\PSoC6/ADC.h ****         #define ADC_CFG1_SE_NEG_INPUT_INIT \
 550:Generated_Source\PSoC6/ADC.h ****             ((uint32)(ADC_NEG_SEL_VSSA_KELVIN \
 551:Generated_Source\PSoC6/ADC.h ****             << SAR_CTRL_NEG_SEL_Pos ))
 552:Generated_Source\PSoC6/ADC.h ****     #elif(ADC_CFG1_VNEG_INPUT_SEL == ADC_NEG_SEL_VREF)
 553:Generated_Source\PSoC6/ADC.h ****         #define ADC_CFG1_SE_NEG_INPUT_INIT     (ADC_NEG_SEL_VREF \
 554:Generated_Source\PSoC6/ADC.h ****                                                             << SAR_CTRL_NEG_SEL_Pos )
 555:Generated_Source\PSoC6/ADC.h ****     #elif (ADC_CFG1_SINGLE_PRESENT != 0u)
 556:Generated_Source\PSoC6/ADC.h ****         #define ADC_CFG1_SE_NEG_INPUT_INIT         ADC_CFG1_NEG_OTHER
 557:Generated_Source\PSoC6/ADC.h ****     #else
 558:Generated_Source\PSoC6/ADC.h ****         #define ADC_CFG1_SE_NEG_INPUT_INIT         0u
 559:Generated_Source\PSoC6/ADC.h ****     #endif /* ADC_CFG1_VNEG_INPUT_SEL == ADC_NEG_SEL_VSSA_KELVIN */
 560:Generated_Source\PSoC6/ADC.h **** 
 561:Generated_Source\PSoC6/ADC.h ****     #define ADC_CFG1_NEG_OTHER                 (uint16)((uint16)ADC_SARMUX__VNEG1 << SAR_CTRL_NEG_S
 562:Generated_Source\PSoC6/ADC.h ****     #define ADC_CFG1_SWITCH_CONF_INIT          0u
 563:Generated_Source\PSoC6/ADC.h **** 
 564:Generated_Source\PSoC6/ADC.h ****     /* If the SAR is configured for multiple channels, always set SAR_HW_CTRL_NEGVREF to 1 */
 565:Generated_Source\PSoC6/ADC.h ****     #define ADC_CFG1_HW_CTRL_NEGVREF_INIT      SAR_CTRL_SAR_HW_CTRL_NEGVREF_Msk
 566:Generated_Source\PSoC6/ADC.h **** 
 567:Generated_Source\PSoC6/ADC.h ****     #define ADC_CFG1_POWER_INIT  (ADC_PWR_CTRL_VREF_NORMAL_PWR)
 568:Generated_Source\PSoC6/ADC.h **** 
 569:Generated_Source\PSoC6/ADC.h ****     /* SAMPLE_CTRL initial values */
 570:Generated_Source\PSoC6/ADC.h ****     #define ADC_CFG1_SE_RESULT_FORMAT_INIT \
 571:Generated_Source\PSoC6/ADC.h ****             (ADC_CFG1_SINGLE_ENDED_FORMAT \
 572:Generated_Source\PSoC6/ADC.h ****             << SAR_SAMPLE_CTRL_SINGLE_ENDED_SIGNED_Pos)
 573:Generated_Source\PSoC6/ADC.h **** 
 574:Generated_Source\PSoC6/ADC.h ****     #define ADC_CFG1_DIFF_RESULT_FORMAT_INIT \
 575:Generated_Source\PSoC6/ADC.h ****             (ADC_CFG1_DIFFERENTIAL_FORMAT \
 576:Generated_Source\PSoC6/ADC.h ****             << SAR_SAMPLE_CTRL_DIFFERENTIAL_SIGNED_Pos)
 577:Generated_Source\PSoC6/ADC.h **** 
 578:Generated_Source\PSoC6/ADC.h ****     #define ADC_CFG1_AVG_SAMPLES_NUM_INIT \
 579:Generated_Source\PSoC6/ADC.h ****             (ADC_CFG1_SAMPLES_AVERAGED \
 580:Generated_Source\PSoC6/ADC.h ****             << SAR_SAMPLE_CTRL_AVG_CNT_Pos)
 581:Generated_Source\PSoC6/ADC.h **** 
 582:Generated_Source\PSoC6/ADC.h ****     /* Combination of Average Mode and Average Shift */
 583:Generated_Source\PSoC6/ADC.h ****     #define ADC_CFG1_AVG_MODE_INIT \
 584:Generated_Source\PSoC6/ADC.h ****             (ADC_CFG1_AVGERAGING_MODE \
 585:Generated_Source\PSoC6/ADC.h ****             << SAR_SAMPLE_CTRL_AVG_SHIFT_Pos)
 586:Generated_Source\PSoC6/ADC.h **** 
 587:Generated_Source\PSoC6/ADC.h ****     #define ADC_CFG1_TRIGGER_OUT_INIT      (0u)
 588:Generated_Source\PSoC6/ADC.h ****     #define ADC_CFG1_UAB_SCAN_MODE_INIT    (0u)
 589:Generated_Source\PSoC6/ADC.h **** 
 590:Generated_Source\PSoC6/ADC.h ****     #define ADC_CFG1_VREF_POWER_INIT  \
 591:Generated_Source\PSoC6/ADC.h ****             (ADC_CFG1_VREF_PWR \
 592:Generated_Source\PSoC6/ADC.h ****             << SAR_CTRL_PWR_CTRL_VREF_Pos)
 593:Generated_Source\PSoC6/ADC.h **** 
 594:Generated_Source\PSoC6/ADC.h ****     #define ADC_CFG1_COMP_PWR_INIT  \
 595:Generated_Source\PSoC6/ADC.h ****             (ADC_CFG1_COMP_PWR \
 596:Generated_Source\PSoC6/ADC.h ****             << SAR_CTRL_COMP_PWR_Pos)
 597:Generated_Source\PSoC6/ADC.h **** 
 598:Generated_Source\PSoC6/ADC.h ****     #define ADC_CFG1_COMP_DLY_INIT  \
 599:Generated_Source\PSoC6/ADC.h ****             (ADC_CFG1_COMP_DLY \
 600:Generated_Source\PSoC6/ADC.h ****             << SAR_CTRL_COMP_DLY_Pos)
 601:Generated_Source\PSoC6/ADC.h **** 
 602:Generated_Source\PSoC6/ADC.h ****     #define ADC_CFG1_CTRL_INIT  \
 603:Generated_Source\PSoC6/ADC.h ****             (ADC_CFG1_VREF_POWER_INIT \
 604:Generated_Source\PSoC6/ADC.h ****             | ADC_CFG1_VREF_SEL_MASK \
 605:Generated_Source\PSoC6/ADC.h ****             | ADC_CFG1_SE_NEG_INPUT_INIT \
ARM GAS  C:\Users\stijn\AppData\Local\Temp\ccVPn9Mg.s 			page 31


 606:Generated_Source\PSoC6/ADC.h ****             | ADC_CFG1_HW_CTRL_NEGVREF_INIT \
 607:Generated_Source\PSoC6/ADC.h ****             | ADC_CFG1_COMP_DLY_INIT \
 608:Generated_Source\PSoC6/ADC.h ****             | SAR_CTRL_REFBUF_EN_Msk \
 609:Generated_Source\PSoC6/ADC.h ****             | ADC_CFG1_COMP_PWR_INIT \
 610:Generated_Source\PSoC6/ADC.h ****             | SAR_CTRL_DSI_SYNC_CONFIG_Msk  \
 611:Generated_Source\PSoC6/ADC.h ****             | ADC_CFG1_SWITCH_CONF_INIT )
 612:Generated_Source\PSoC6/ADC.h **** 
 613:Generated_Source\PSoC6/ADC.h ****     #define ADC_CFG1_SAMPLE_CTRL_INIT \
 614:Generated_Source\PSoC6/ADC.h ****             (ADC_CFG1_SE_RESULT_FORMAT_INIT \
 615:Generated_Source\PSoC6/ADC.h ****             | ADC_CFG1_DIFF_RESULT_FORMAT_INIT \
 616:Generated_Source\PSoC6/ADC.h ****             | ADC_CFG1_AVG_SAMPLES_NUM_INIT \
 617:Generated_Source\PSoC6/ADC.h ****             | ADC_CFG1_AVG_MODE_INIT \
 618:Generated_Source\PSoC6/ADC.h ****             | ADC_CFG1_DSI_TRIGGER_LEVEL_INIT \
 619:Generated_Source\PSoC6/ADC.h ****             | ADC_CFG1_DSI_TRIGGER_EN_INIT \
 620:Generated_Source\PSoC6/ADC.h ****             | ADC_CFG1_UAB_SCAN_MODE_INIT \
 621:Generated_Source\PSoC6/ADC.h ****             | SAR_SAMPLE_CTRL_VALID_IGNORE_Msk \
 622:Generated_Source\PSoC6/ADC.h ****             | ADC_CFG1_TRIGGER_OUT_INIT \
 623:Generated_Source\PSoC6/ADC.h ****             | SAR_SAMPLE_CTRL_EOS_DSI_OUT_EN_Msk \
 624:Generated_Source\PSoC6/ADC.h ****     )
 625:Generated_Source\PSoC6/ADC.h **** 
 626:Generated_Source\PSoC6/ADC.h ****     #define ADC_CFG1_RANGE_THRES_INIT \
 627:Generated_Source\PSoC6/ADC.h ****             (ADC_CFG1_LOW_LIMIT \
 628:Generated_Source\PSoC6/ADC.h ****             | (uint32)((uint32)ADC_CFG1_HIGH_LIMIT \
 629:Generated_Source\PSoC6/ADC.h ****             << SAR_RANGE_THRES_RANGE_HIGH_Pos))
 630:Generated_Source\PSoC6/ADC.h **** 
 631:Generated_Source\PSoC6/ADC.h ****     #define ADC_CFG1_RANGE_COND_INIT   (cy_en_sar_range_detect_condition_t)ADC_CFG1_RANGE_COND
 632:Generated_Source\PSoC6/ADC.h **** 
 633:Generated_Source\PSoC6/ADC.h ****     /* Misc Config
 634:Generated_Source\PSoC6/ADC.h ****         [0] - Freerunning: Set if the sample mode is freerunning
 635:Generated_Source\PSoC6/ADC.h ****     */
 636:Generated_Source\PSoC6/ADC.h ****     #define ADC_CFG1_MISC_CONFIG_INIT \
 637:Generated_Source\PSoC6/ADC.h ****             (ADC_CFG1_FREERUNNING)
 638:Generated_Source\PSoC6/ADC.h **** #endif /* ADC_TOTAL_CONFIGS > 1 */
 639:Generated_Source\PSoC6/ADC.h **** 
 640:Generated_Source\PSoC6/ADC.h **** /* ************************************************************************** */
 641:Generated_Source\PSoC6/ADC.h **** /* End configuration 1 calculated defines                                     */
 642:Generated_Source\PSoC6/ADC.h **** /* ************************************************************************** */
 643:Generated_Source\PSoC6/ADC.h **** 
 644:Generated_Source\PSoC6/ADC.h **** /* ************************************************************************** */
 645:Generated_Source\PSoC6/ADC.h **** /* Begin configuration 2 calculated defines                                   */
 646:Generated_Source\PSoC6/ADC.h **** /* ************************************************************************** */
 647:Generated_Source\PSoC6/ADC.h **** #if(ADC_TOTAL_CONFIGS > 2)
 648:Generated_Source\PSoC6/ADC.h ****     #define ADC_CFG2_SAMPLE_TIME01_INIT \
 649:Generated_Source\PSoC6/ADC.h ****             ((ADC_CFG2_APERTURE_TIME0 \
 650:Generated_Source\PSoC6/ADC.h ****             << SAR_SAMPLE_TIME01_SAMPLE_TIME0_Pos) \
 651:Generated_Source\PSoC6/ADC.h ****             | (ADC_CFG2_APERTURE_TIME1 \
 652:Generated_Source\PSoC6/ADC.h ****             << SAR_SAMPLE_TIME01_SAMPLE_TIME1_Pos))
 653:Generated_Source\PSoC6/ADC.h **** 
 654:Generated_Source\PSoC6/ADC.h ****     #define ADC_CFG2_SAMPLE_TIME23_INIT \
 655:Generated_Source\PSoC6/ADC.h ****             ((ADC_CFG2_APERTURE_TIME2 \
 656:Generated_Source\PSoC6/ADC.h ****             << SAR_SAMPLE_TIME23_SAMPLE_TIME2_Pos) \
 657:Generated_Source\PSoC6/ADC.h ****             | (ADC_CFG2_APERTURE_TIME3 \
 658:Generated_Source\PSoC6/ADC.h ****             << SAR_SAMPLE_TIME23_SAMPLE_TIME3_Pos))
 659:Generated_Source\PSoC6/ADC.h **** 
 660:Generated_Source\PSoC6/ADC.h ****     /* Enable soc pin if used */
 661:Generated_Source\PSoC6/ADC.h ****     #define ADC_CFG2_DSI_TRIGGER_EN_INIT \
 662:Generated_Source\PSoC6/ADC.h ****             (ADC_CFG2_USE_SOC \
ARM GAS  C:\Users\stijn\AppData\Local\Temp\ccVPn9Mg.s 			page 32


 663:Generated_Source\PSoC6/ADC.h ****             << SAR_SAMPLE_CTRL_DSI_TRIGGER_EN_Pos)
 664:Generated_Source\PSoC6/ADC.h **** 
 665:Generated_Source\PSoC6/ADC.h ****     /* Set soc operation to edge or level based on sample mode */
 666:Generated_Source\PSoC6/ADC.h ****     #if(ADC_CFG2_FREERUNNING == ADC_FREERUNNING)
 667:Generated_Source\PSoC6/ADC.h ****         #define ADC_CFG2_DSI_TRIGGER_LEVEL_INIT    (SAR_SAMPLE_CTRL_DSI_TRIGGER_LEVEL_Msk)
 668:Generated_Source\PSoC6/ADC.h ****     #else /* Edge trigger */
 669:Generated_Source\PSoC6/ADC.h ****         #define ADC_CFG2_DSI_TRIGGER_LEVEL_INIT    (0u)
 670:Generated_Source\PSoC6/ADC.h ****     #endif /* End ADC_CFG2_FREERUNNING == ADC_FREERUNNING */
 671:Generated_Source\PSoC6/ADC.h **** 
 672:Generated_Source\PSoC6/ADC.h ****     /* Set SE_NEG_INPUT */
 673:Generated_Source\PSoC6/ADC.h ****     #if(ADC_CFG2_VNEG_INPUT_SEL == ADC_NEG_SEL_VSSA_KELVIN)
 674:Generated_Source\PSoC6/ADC.h ****         #define ADC_CFG2_SE_NEG_INPUT_INIT \
 675:Generated_Source\PSoC6/ADC.h ****             ((uint32)(ADC_NEG_SEL_VSSA_KELVIN \
 676:Generated_Source\PSoC6/ADC.h ****             << SAR_CTRL_NEG_SEL_Pos ))
 677:Generated_Source\PSoC6/ADC.h ****     #elif(ADC_CFG2_VNEG_INPUT_SEL == ADC_NEG_SEL_VREF)
 678:Generated_Source\PSoC6/ADC.h ****         #define ADC_CFG2_SE_NEG_INPUT_INIT     (ADC_NEG_SEL_VREF \
 679:Generated_Source\PSoC6/ADC.h ****                                                                 << SAR_CTRL_NEG_SEL_Pos )
 680:Generated_Source\PSoC6/ADC.h ****     #elif (ADC_CFG2_SINGLE_PRESENT != 0u)
 681:Generated_Source\PSoC6/ADC.h ****         #define ADC_CFG2_SE_NEG_INPUT_INIT         ADC_CFG2_NEG_OTHER
 682:Generated_Source\PSoC6/ADC.h ****     #else
 683:Generated_Source\PSoC6/ADC.h ****         #define ADC_CFG2_SE_NEG_INPUT_INIT         0u
 684:Generated_Source\PSoC6/ADC.h ****     #endif /* ADC_CFG2_VNEG_INPUT_SEL == ADC_NEG_SEL_VSSA_KELVIN */
 685:Generated_Source\PSoC6/ADC.h **** 
 686:Generated_Source\PSoC6/ADC.h ****    #define ADC_CFG2_NEG_OTHER                 (uint16)((uint16)ADC_SARMUX__VNEG2 << SAR_CTRL_NEG_SE
 687:Generated_Source\PSoC6/ADC.h **** 
 688:Generated_Source\PSoC6/ADC.h ****     #define ADC_CFG2_SWITCH_CONF_INIT          0u
 689:Generated_Source\PSoC6/ADC.h **** 
 690:Generated_Source\PSoC6/ADC.h ****     /* If the SAR is configured for multiple channels, always set SAR_HW_CTRL_NEGVREF to 1 */
 691:Generated_Source\PSoC6/ADC.h ****     #define ADC_CFG2_HW_CTRL_NEGVREF_INIT      SAR_CTRL_SAR_HW_CTRL_NEGVREF_Msk
 692:Generated_Source\PSoC6/ADC.h **** 
 693:Generated_Source\PSoC6/ADC.h ****     #define ADC_CFG2_POWER_INIT  (ADC_PWR_CTRL_VREF_NORMAL_PWR)
 694:Generated_Source\PSoC6/ADC.h **** 
 695:Generated_Source\PSoC6/ADC.h ****     /* SAMPLE_CTRL initial values */
 696:Generated_Source\PSoC6/ADC.h ****     #define ADC_CFG2_SE_RESULT_FORMAT_INIT \
 697:Generated_Source\PSoC6/ADC.h ****             (ADC_CFG2_SINGLE_ENDED_FORMAT \
 698:Generated_Source\PSoC6/ADC.h ****             << SAR_SAMPLE_CTRL_SINGLE_ENDED_SIGNED_Pos)
 699:Generated_Source\PSoC6/ADC.h **** 
 700:Generated_Source\PSoC6/ADC.h ****     #define ADC_CFG2_DIFF_RESULT_FORMAT_INIT \
 701:Generated_Source\PSoC6/ADC.h ****             (ADC_CFG2_DIFFERENTIAL_FORMAT \
 702:Generated_Source\PSoC6/ADC.h ****             << SAR_SAMPLE_CTRL_DIFFERENTIAL_SIGNED_Pos)
 703:Generated_Source\PSoC6/ADC.h **** 
 704:Generated_Source\PSoC6/ADC.h ****     #define ADC_CFG2_AVG_SAMPLES_NUM_INIT \
 705:Generated_Source\PSoC6/ADC.h ****             (ADC_CFG2_SAMPLES_AVERAGED \
 706:Generated_Source\PSoC6/ADC.h ****             << SAR_SAMPLE_CTRL_AVG_CNT_Pos)
 707:Generated_Source\PSoC6/ADC.h **** 
 708:Generated_Source\PSoC6/ADC.h ****     /* Combination of Average Mode and Average Shift */
 709:Generated_Source\PSoC6/ADC.h ****     #define ADC_CFG2_AVG_MODE_INIT \
 710:Generated_Source\PSoC6/ADC.h ****             (ADC_CFG2_AVGERAGING_MODE \
 711:Generated_Source\PSoC6/ADC.h ****             << SAR_SAMPLE_CTRL_AVG_SHIFT_Pos)
 712:Generated_Source\PSoC6/ADC.h **** 
 713:Generated_Source\PSoC6/ADC.h ****     #define ADC_CFG2_TRIGGER_OUT_INIT      (0u)
 714:Generated_Source\PSoC6/ADC.h ****     #define ADC_CFG2_UAB_SCAN_MODE_INIT    (0u)
 715:Generated_Source\PSoC6/ADC.h **** 
 716:Generated_Source\PSoC6/ADC.h **** 
 717:Generated_Source\PSoC6/ADC.h ****     #define ADC_CFG2_VREF_POWER_INIT  \
 718:Generated_Source\PSoC6/ADC.h ****             (ADC_CFG2_VREF_PWR \
 719:Generated_Source\PSoC6/ADC.h ****             << SAR_CTRL_PWR_CTRL_VREF_Pos)
ARM GAS  C:\Users\stijn\AppData\Local\Temp\ccVPn9Mg.s 			page 33


 720:Generated_Source\PSoC6/ADC.h **** 
 721:Generated_Source\PSoC6/ADC.h ****     #define ADC_CFG2_COMP_PWR_INIT  \
 722:Generated_Source\PSoC6/ADC.h ****             (ADC_CFG2_COMP_PWR \
 723:Generated_Source\PSoC6/ADC.h ****             << SAR_CTRL_COMP_PWR_Pos)
 724:Generated_Source\PSoC6/ADC.h **** 
 725:Generated_Source\PSoC6/ADC.h ****     #define ADC_CFG2_COMP_DLY_INIT  \
 726:Generated_Source\PSoC6/ADC.h ****             (ADC_CFG2_COMP_DLY \
 727:Generated_Source\PSoC6/ADC.h ****             << SAR_CTRL_COMP_DLY_Pos)
 728:Generated_Source\PSoC6/ADC.h **** 
 729:Generated_Source\PSoC6/ADC.h ****     #define ADC_CFG2_CTRL_INIT  \
 730:Generated_Source\PSoC6/ADC.h ****             (ADC_CFG2_VREF_POWER_INIT \
 731:Generated_Source\PSoC6/ADC.h ****             | ADC_CFG2_VREF_SEL_MASK \
 732:Generated_Source\PSoC6/ADC.h ****             | ADC_CFG2_SE_NEG_INPUT_INIT \
 733:Generated_Source\PSoC6/ADC.h ****             | ADC_CFG2_HW_CTRL_NEGVREF_INIT \
 734:Generated_Source\PSoC6/ADC.h ****             | ADC_CFG2_COMP_DLY_INIT \
 735:Generated_Source\PSoC6/ADC.h ****             | SAR_CTRL_REFBUF_EN_Msk \
 736:Generated_Source\PSoC6/ADC.h ****             | ADC_CFG2_COMP_PWR_INIT \
 737:Generated_Source\PSoC6/ADC.h ****             | SAR_CTRL_DSI_SYNC_CONFIG_Msk  \
 738:Generated_Source\PSoC6/ADC.h ****             | ADC_CFG2_SWITCH_CONF_INIT )
 739:Generated_Source\PSoC6/ADC.h **** 
 740:Generated_Source\PSoC6/ADC.h **** 
 741:Generated_Source\PSoC6/ADC.h ****     #define ADC_CFG2_SAMPLE_CTRL_INIT \
 742:Generated_Source\PSoC6/ADC.h ****             (ADC_CFG2_SE_RESULT_FORMAT_INIT \
 743:Generated_Source\PSoC6/ADC.h ****             | ADC_CFG2_DIFF_RESULT_FORMAT_INIT \
 744:Generated_Source\PSoC6/ADC.h ****             | ADC_CFG2_AVG_SAMPLES_NUM_INIT \
 745:Generated_Source\PSoC6/ADC.h ****             | ADC_CFG2_AVG_MODE_INIT \
 746:Generated_Source\PSoC6/ADC.h ****             | ADC_CFG2_DSI_TRIGGER_LEVEL_INIT \
 747:Generated_Source\PSoC6/ADC.h ****             | ADC_CFG2_DSI_TRIGGER_EN_INIT \
 748:Generated_Source\PSoC6/ADC.h ****             | ADC_CFG2_UAB_SCAN_MODE_INIT \
 749:Generated_Source\PSoC6/ADC.h ****             | SAR_SAMPLE_CTRL_VALID_IGNORE_Msk \
 750:Generated_Source\PSoC6/ADC.h ****             | ADC_CFG2_TRIGGER_OUT_INIT \
 751:Generated_Source\PSoC6/ADC.h ****             | SAR_SAMPLE_CTRL_EOS_DSI_OUT_EN_Msk \
 752:Generated_Source\PSoC6/ADC.h ****     )
 753:Generated_Source\PSoC6/ADC.h **** 
 754:Generated_Source\PSoC6/ADC.h ****     #define ADC_CFG2_RANGE_THRES_INIT \
 755:Generated_Source\PSoC6/ADC.h ****             (ADC_CFG2_LOW_LIMIT \
 756:Generated_Source\PSoC6/ADC.h ****             | (uint32)((uint32)ADC_CFG2_HIGH_LIMIT \
 757:Generated_Source\PSoC6/ADC.h ****             << SAR_RANGE_THRES_RANGE_HIGH_Pos))
 758:Generated_Source\PSoC6/ADC.h **** 
 759:Generated_Source\PSoC6/ADC.h ****     #define ADC_CFG2_RANGE_COND_INIT   (cy_en_sar_range_detect_condition_t)ADC_CFG2_RANGE_COND
 760:Generated_Source\PSoC6/ADC.h **** 
 761:Generated_Source\PSoC6/ADC.h ****     /* Misc Config
 762:Generated_Source\PSoC6/ADC.h ****         [0] - Freerunning: Set if the sample mode is freerunning
 763:Generated_Source\PSoC6/ADC.h ****     */
 764:Generated_Source\PSoC6/ADC.h ****     #define ADC_CFG2_MISC_CONFIG_INIT \
 765:Generated_Source\PSoC6/ADC.h ****             (ADC_CFG2_FREERUNNING)
 766:Generated_Source\PSoC6/ADC.h **** #endif /* ADC_TOTAL_CONFIGS > 2 */
 767:Generated_Source\PSoC6/ADC.h **** 
 768:Generated_Source\PSoC6/ADC.h **** /* ************************************************************************** */
 769:Generated_Source\PSoC6/ADC.h **** /* End configuration 2 calculated defines                                     */
 770:Generated_Source\PSoC6/ADC.h **** /* ************************************************************************** */
 771:Generated_Source\PSoC6/ADC.h **** 
 772:Generated_Source\PSoC6/ADC.h **** /* ************************************************************************** */
 773:Generated_Source\PSoC6/ADC.h **** /* Begin configuration 3 calculated defines                                   */
 774:Generated_Source\PSoC6/ADC.h **** /* ************************************************************************** */
 775:Generated_Source\PSoC6/ADC.h **** #if(ADC_TOTAL_CONFIGS > 3)
 776:Generated_Source\PSoC6/ADC.h ****     #define ADC_CFG3_SAMPLE_TIME01_INIT \
ARM GAS  C:\Users\stijn\AppData\Local\Temp\ccVPn9Mg.s 			page 34


 777:Generated_Source\PSoC6/ADC.h ****             ((ADC_CFG3_APERTURE_TIME0 \
 778:Generated_Source\PSoC6/ADC.h ****             << SAR_SAMPLE_TIME01_SAMPLE_TIME0_Pos) \
 779:Generated_Source\PSoC6/ADC.h ****             | (ADC_CFG3_APERTURE_TIME1 \
 780:Generated_Source\PSoC6/ADC.h ****             << SAR_SAMPLE_TIME01_SAMPLE_TIME1_Pos))
 781:Generated_Source\PSoC6/ADC.h **** 
 782:Generated_Source\PSoC6/ADC.h ****     #define ADC_CFG3_SAMPLE_TIME23_INIT \
 783:Generated_Source\PSoC6/ADC.h ****             ((ADC_CFG3_APERTURE_TIME2 \
 784:Generated_Source\PSoC6/ADC.h ****             << SAR_SAMPLE_TIME23_SAMPLE_TIME2_Pos) \
 785:Generated_Source\PSoC6/ADC.h ****             | (ADC_CFG3_APERTURE_TIME3 \
 786:Generated_Source\PSoC6/ADC.h ****             << SAR_SAMPLE_TIME23_SAMPLE_TIME3_Pos))
 787:Generated_Source\PSoC6/ADC.h **** 
 788:Generated_Source\PSoC6/ADC.h ****     /* Enable soc pin if used */
 789:Generated_Source\PSoC6/ADC.h ****     #define ADC_CFG3_DSI_TRIGGER_EN_INIT \
 790:Generated_Source\PSoC6/ADC.h ****             (ADC_CFG3_USE_SOC \
 791:Generated_Source\PSoC6/ADC.h ****              << SAR_SAMPLE_CTRL_DSI_TRIGGER_EN_Pos)
 792:Generated_Source\PSoC6/ADC.h **** 
 793:Generated_Source\PSoC6/ADC.h ****     /* Set soc operation to edge or level based on sample mode */
 794:Generated_Source\PSoC6/ADC.h ****     #if(ADC_CFG3_FREERUNNING == ADC_FREERUNNING)
 795:Generated_Source\PSoC6/ADC.h ****         #define ADC_CFG3_DSI_TRIGGER_LEVEL_INIT    (SAR_SAMPLE_CTRL_DSI_TRIGGER_LEVEL_Msk)
 796:Generated_Source\PSoC6/ADC.h ****     #else /* Edge trigger */
 797:Generated_Source\PSoC6/ADC.h ****         #define ADC_CFG3_DSI_TRIGGER_LEVEL_INIT    (0u)
 798:Generated_Source\PSoC6/ADC.h ****     #endif /* End ADC_CFG3_FREERUNNING == ADC_FREERUNNING */
 799:Generated_Source\PSoC6/ADC.h **** 
 800:Generated_Source\PSoC6/ADC.h ****     /* Set SE_NEG_INPUT  */
 801:Generated_Source\PSoC6/ADC.h ****     #if(ADC_CFG3_VNEG_INPUT_SEL == ADC_NEG_SEL_VSSA_KELVIN)
 802:Generated_Source\PSoC6/ADC.h ****         #define ADC_CFG3_SE_NEG_INPUT_INIT \
 803:Generated_Source\PSoC6/ADC.h ****             ((uint32)(ADC_NEG_SEL_VSSA_KELVIN \
 804:Generated_Source\PSoC6/ADC.h ****             << SAR_CTRL_NEG_SEL_Pos ))
 805:Generated_Source\PSoC6/ADC.h ****     #elif(ADC_CFG3_VNEG_INPUT_SEL == ADC_NEG_SEL_VREF)
 806:Generated_Source\PSoC6/ADC.h ****         #define ADC_CFG3_SE_NEG_INPUT_INIT     (ADC_NEG_SEL_VREF \
 807:Generated_Source\PSoC6/ADC.h ****                                                                 << SAR_CTRL_NEG_SEL_Pos )
 808:Generated_Source\PSoC6/ADC.h ****     #elif (ADC_CFG3_SINGLE_PRESENT != 0u)
 809:Generated_Source\PSoC6/ADC.h ****         #define ADC_CFG3_SE_NEG_INPUT_INIT         ADC_CFG3_NEG_OTHER
 810:Generated_Source\PSoC6/ADC.h ****     #else
 811:Generated_Source\PSoC6/ADC.h ****         #define ADC_CFG3_SE_NEG_INPUT_INIT         0u
 812:Generated_Source\PSoC6/ADC.h ****     #endif /* ADC_CFG3_VNEG_INPUT_SEL == ADC_NEG_SEL_VSSA_KELVIN */
 813:Generated_Source\PSoC6/ADC.h **** 
 814:Generated_Source\PSoC6/ADC.h ****     #define ADC_CFG3_NEG_OTHER                 (uint16)((uint16)ADC_SARMUX__VNEG3 << SAR_CTRL_NEG_S
 815:Generated_Source\PSoC6/ADC.h **** 
 816:Generated_Source\PSoC6/ADC.h ****     #define ADC_CFG3_SWITCH_CONF_INIT          0u
 817:Generated_Source\PSoC6/ADC.h **** 
 818:Generated_Source\PSoC6/ADC.h ****     /* If the SAR is configured for multiple channels, always set SAR_HW_CTRL_NEGVREF to 1 */
 819:Generated_Source\PSoC6/ADC.h ****     #define ADC_CFG3_HW_CTRL_NEGVREF_INIT      SAR_CTRL_SAR_HW_CTRL_NEGVREF_Msk
 820:Generated_Source\PSoC6/ADC.h **** 
 821:Generated_Source\PSoC6/ADC.h ****     #define ADC_CFG3_POWER_INIT  (ADC_PWR_CTRL_VREF_NORMAL_PWR)
 822:Generated_Source\PSoC6/ADC.h **** 
 823:Generated_Source\PSoC6/ADC.h ****     /* SAMPLE_CTRL initial values */
 824:Generated_Source\PSoC6/ADC.h ****     #define ADC_CFG3_SE_RESULT_FORMAT_INIT \
 825:Generated_Source\PSoC6/ADC.h ****             (ADC_CFG3_SINGLE_ENDED_FORMAT \
 826:Generated_Source\PSoC6/ADC.h ****             << SAR_SAMPLE_CTRL_SINGLE_ENDED_SIGNED_Pos)
 827:Generated_Source\PSoC6/ADC.h **** 
 828:Generated_Source\PSoC6/ADC.h ****     #define ADC_CFG3_DIFF_RESULT_FORMAT_INIT \
 829:Generated_Source\PSoC6/ADC.h ****             (ADC_CFG3_DIFFERENTIAL_FORMAT \
 830:Generated_Source\PSoC6/ADC.h ****             << SAR_SAMPLE_CTRL_DIFFERENTIAL_SIGNED_Pos)
 831:Generated_Source\PSoC6/ADC.h **** 
 832:Generated_Source\PSoC6/ADC.h ****     #define ADC_CFG3_AVG_SAMPLES_NUM_INIT \
 833:Generated_Source\PSoC6/ADC.h ****             (ADC_CFG3_SAMPLES_AVERAGED \
ARM GAS  C:\Users\stijn\AppData\Local\Temp\ccVPn9Mg.s 			page 35


 834:Generated_Source\PSoC6/ADC.h ****             << SAR_SAMPLE_CTRL_AVG_CNT_Pos)
 835:Generated_Source\PSoC6/ADC.h **** 
 836:Generated_Source\PSoC6/ADC.h ****     /* Combination of Average Mode and Average Shift */
 837:Generated_Source\PSoC6/ADC.h ****     #define ADC_CFG3_AVG_MODE_INIT \
 838:Generated_Source\PSoC6/ADC.h ****             (ADC_CFG3_AVGERAGING_MODE \
 839:Generated_Source\PSoC6/ADC.h ****             << SAR_SAMPLE_CTRL_AVG_SHIFT_Pos)
 840:Generated_Source\PSoC6/ADC.h **** 
 841:Generated_Source\PSoC6/ADC.h ****     #define ADC_CFG3_TRIGGER_OUT_INIT      (0u)
 842:Generated_Source\PSoC6/ADC.h ****     #define ADC_CFG3_UAB_SCAN_MODE_INIT    (0u)
 843:Generated_Source\PSoC6/ADC.h **** 
 844:Generated_Source\PSoC6/ADC.h ****     #define ADC_CFG3_VREF_POWER_INIT  \
 845:Generated_Source\PSoC6/ADC.h ****             (ADC_CFG3_VREF_PWR \
 846:Generated_Source\PSoC6/ADC.h ****             << SAR_CTRL_PWR_CTRL_VREF_Pos)
 847:Generated_Source\PSoC6/ADC.h **** 
 848:Generated_Source\PSoC6/ADC.h ****     #define ADC_CFG3_COMP_PWR_INIT  \
 849:Generated_Source\PSoC6/ADC.h ****             (ADC_CFG3_COMP_PWR \
 850:Generated_Source\PSoC6/ADC.h ****             << SAR_CTRL_COMP_PWR_Pos)
 851:Generated_Source\PSoC6/ADC.h **** 
 852:Generated_Source\PSoC6/ADC.h ****     #define ADC_CFG3_COMP_DLY_INIT  \
 853:Generated_Source\PSoC6/ADC.h ****             (ADC_CFG3_COMP_DLY \
 854:Generated_Source\PSoC6/ADC.h ****             << SAR_CTRL_COMP_DLY_Pos)
 855:Generated_Source\PSoC6/ADC.h **** 
 856:Generated_Source\PSoC6/ADC.h ****     #define ADC_CFG3_CTRL_INIT  \
 857:Generated_Source\PSoC6/ADC.h ****             (ADC_CFG3_VREF_POWER_INIT \
 858:Generated_Source\PSoC6/ADC.h ****             | ADC_CFG3_VREF_SEL_MASK \
 859:Generated_Source\PSoC6/ADC.h ****             | ADC_CFG3_SE_NEG_INPUT_INIT \
 860:Generated_Source\PSoC6/ADC.h ****             | ADC_CFG3_HW_CTRL_NEGVREF_INIT \
 861:Generated_Source\PSoC6/ADC.h ****             | ADC_CFG3_COMP_DLY_INIT \
 862:Generated_Source\PSoC6/ADC.h ****             | SAR_CTRL_REFBUF_EN_Msk \
 863:Generated_Source\PSoC6/ADC.h ****             | ADC_CFG3_COMP_PWR_INIT \
 864:Generated_Source\PSoC6/ADC.h ****             | SAR_CTRL_DSI_SYNC_CONFIG_Msk  \
 865:Generated_Source\PSoC6/ADC.h ****             | ADC_CFG3_SWITCH_CONF_INIT )
 866:Generated_Source\PSoC6/ADC.h **** 
 867:Generated_Source\PSoC6/ADC.h **** 
 868:Generated_Source\PSoC6/ADC.h ****     #define ADC_CFG3_SAMPLE_CTRL_INIT \
 869:Generated_Source\PSoC6/ADC.h ****             (ADC_CFG3_SE_RESULT_FORMAT_INIT \
 870:Generated_Source\PSoC6/ADC.h ****             | ADC_CFG3_DIFF_RESULT_FORMAT_INIT \
 871:Generated_Source\PSoC6/ADC.h ****             | ADC_CFG3_AVG_SAMPLES_NUM_INIT \
 872:Generated_Source\PSoC6/ADC.h ****             | ADC_CFG3_AVG_MODE_INIT \
 873:Generated_Source\PSoC6/ADC.h ****             | ADC_CFG3_DSI_TRIGGER_LEVEL_INIT \
 874:Generated_Source\PSoC6/ADC.h ****             | ADC_CFG3_DSI_TRIGGER_EN_INIT \
 875:Generated_Source\PSoC6/ADC.h ****             | ADC_CFG3_UAB_SCAN_MODE_INIT \
 876:Generated_Source\PSoC6/ADC.h ****             | SAR_SAMPLE_CTRL_VALID_IGNORE_Msk \
 877:Generated_Source\PSoC6/ADC.h ****             | ADC_CFG3_TRIGGER_OUT_INIT \
 878:Generated_Source\PSoC6/ADC.h ****             | SAR_SAMPLE_CTRL_EOS_DSI_OUT_EN_Msk \
 879:Generated_Source\PSoC6/ADC.h ****     )
 880:Generated_Source\PSoC6/ADC.h **** 
 881:Generated_Source\PSoC6/ADC.h ****     #define ADC_CFG3_RANGE_THRES_INIT \
 882:Generated_Source\PSoC6/ADC.h ****             (ADC_CFG3_LOW_LIMIT \
 883:Generated_Source\PSoC6/ADC.h ****             | (uint32)((uint32)ADC_CFG3_HIGH_LIMIT \
 884:Generated_Source\PSoC6/ADC.h ****             << SAR_RANGE_THRES_RANGE_HIGH_Pos))
 885:Generated_Source\PSoC6/ADC.h **** 
 886:Generated_Source\PSoC6/ADC.h ****     #define ADC_CFG3_RANGE_COND_INIT   (cy_en_sar_range_detect_condition_t)ADC_CFG3_RANGE_COND
 887:Generated_Source\PSoC6/ADC.h **** 
 888:Generated_Source\PSoC6/ADC.h ****     /* Misc Config
 889:Generated_Source\PSoC6/ADC.h ****         [0] - Freerunning: Set if the sample mode is freerunning
 890:Generated_Source\PSoC6/ADC.h ****     */
ARM GAS  C:\Users\stijn\AppData\Local\Temp\ccVPn9Mg.s 			page 36


 891:Generated_Source\PSoC6/ADC.h ****     #define ADC_CFG3_MISC_CONFIG_INIT \
 892:Generated_Source\PSoC6/ADC.h ****             (ADC_CFG3_FREERUNNING )
 893:Generated_Source\PSoC6/ADC.h **** 
 894:Generated_Source\PSoC6/ADC.h **** #endif /* ADC_TOTAL_CONFIGS > 3 */
 895:Generated_Source\PSoC6/ADC.h **** 
 896:Generated_Source\PSoC6/ADC.h **** /* ************************************************************************** */
 897:Generated_Source\PSoC6/ADC.h **** /* End configuration 3 calculated defines                                     */
 898:Generated_Source\PSoC6/ADC.h **** /* ************************************************************************** */
 899:Generated_Source\PSoC6/ADC.h **** 
 900:Generated_Source\PSoC6/ADC.h **** /******************************************************************************
 901:Generated_Source\PSoC6/ADC.h **** * Function Name: ADC_Enable
 902:Generated_Source\PSoC6/ADC.h **** ****************************************************************************//*
 903:Generated_Source\PSoC6/ADC.h **** *
 904:Generated_Source\PSoC6/ADC.h **** * \brief Enables the component.
 905:Generated_Source\PSoC6/ADC.h **** *
 906:Generated_Source\PSoC6/ADC.h **** * \param None
 907:Generated_Source\PSoC6/ADC.h **** *
 908:Generated_Source\PSoC6/ADC.h **** * \return None
 909:Generated_Source\PSoC6/ADC.h **** *
 910:Generated_Source\PSoC6/ADC.h **** * \sideeffect
 911:Generated_Source\PSoC6/ADC.h **** *  None
 912:Generated_Source\PSoC6/ADC.h **** *
 913:Generated_Source\PSoC6/ADC.h **** *******************************************************************************/
 914:Generated_Source\PSoC6/ADC.h **** __STATIC_INLINE void ADC_Enable(void)
 915:Generated_Source\PSoC6/ADC.h **** {
 916:Generated_Source\PSoC6/ADC.h ****     Cy_SAR_Enable(ADC_SAR__HW);
 917:Generated_Source\PSoC6/ADC.h **** }
 918:Generated_Source\PSoC6/ADC.h **** 
 919:Generated_Source\PSoC6/ADC.h **** /*******************************************************************************
 920:Generated_Source\PSoC6/ADC.h **** * Function Name: ADC_Stop
 921:Generated_Source\PSoC6/ADC.h **** ****************************************************************************//**
 922:Generated_Source\PSoC6/ADC.h **** *
 923:Generated_Source\PSoC6/ADC.h **** * \brief This function stops ADC conversions and puts the ADC into its lowest
 924:Generated_Source\PSoC6/ADC.h **** * power mode.
 925:Generated_Source\PSoC6/ADC.h **** *
 926:Generated_Source\PSoC6/ADC.h **** * \param None
 927:Generated_Source\PSoC6/ADC.h **** *
 928:Generated_Source\PSoC6/ADC.h **** * \return None
 929:Generated_Source\PSoC6/ADC.h **** *
 930:Generated_Source\PSoC6/ADC.h **** * \sideeffect
 931:Generated_Source\PSoC6/ADC.h **** * Do not use the ADC_Stop() API to halt conversions. Instead use the
 932:Generated_Source\PSoC6/ADC.h **** * ADC_StopConvert() API. If you use the ADC_Stop() API
 933:Generated_Source\PSoC6/ADC.h **** * to halt conversions then later use the ADC_Start() and
 934:Generated_Source\PSoC6/ADC.h **** * ADC_StartConvert() APIs to resume conversions, the first channel
 935:Generated_Source\PSoC6/ADC.h **** * of the scan may be corrupt. The ADC_StopConvert() API will enable
 936:Generated_Source\PSoC6/ADC.h **** * the ADC to complete the current scan of channels. After the
 937:Generated_Source\PSoC6/ADC.h **** * channel scan is complete, the ADC will stop all conversions, which
 938:Generated_Source\PSoC6/ADC.h **** * can be detected by the use of an ISR or the ADC_IsEndConversion()
 939:Generated_Source\PSoC6/ADC.h **** * function.
 940:Generated_Source\PSoC6/ADC.h **** *
 941:Generated_Source\PSoC6/ADC.h **** *******************************************************************************/
 942:Generated_Source\PSoC6/ADC.h **** __STATIC_INLINE void ADC_Stop(void)
 943:Generated_Source\PSoC6/ADC.h **** {
 944:Generated_Source\PSoC6/ADC.h ****     Cy_SAR_Disable(ADC_SAR__HW);
 945:Generated_Source\PSoC6/ADC.h **** }
 946:Generated_Source\PSoC6/ADC.h **** 
 947:Generated_Source\PSoC6/ADC.h **** /*******************************************************************************
ARM GAS  C:\Users\stijn\AppData\Local\Temp\ccVPn9Mg.s 			page 37


 948:Generated_Source\PSoC6/ADC.h **** * Function Name: ADC_StopConvert
 949:Generated_Source\PSoC6/ADC.h **** ****************************************************************************//**
 950:Generated_Source\PSoC6/ADC.h **** *
 951:Generated_Source\PSoC6/ADC.h **** * \brief Forces the ADC to stop conversions. If a conversion is
 952:Generated_Source\PSoC6/ADC.h **** * currently executing, that conversion will complete, but no further conversions
 953:Generated_Source\PSoC6/ADC.h **** * will occur.
 954:Generated_Source\PSoC6/ADC.h **** *
 955:Generated_Source\PSoC6/ADC.h **** * \param None
 956:Generated_Source\PSoC6/ADC.h **** *
 957:Generated_Source\PSoC6/ADC.h **** * \return None
 958:Generated_Source\PSoC6/ADC.h **** *
 959:Generated_Source\PSoC6/ADC.h **** * \sideeffect None
 960:Generated_Source\PSoC6/ADC.h **** *
 961:Generated_Source\PSoC6/ADC.h **** *******************************************************************************/
 962:Generated_Source\PSoC6/ADC.h **** __STATIC_INLINE void ADC_StopConvert(void)
 963:Generated_Source\PSoC6/ADC.h **** {
 964:Generated_Source\PSoC6/ADC.h ****     Cy_SAR_StopConvert(ADC_SAR__HW);
 965:Generated_Source\PSoC6/ADC.h **** }
 966:Generated_Source\PSoC6/ADC.h **** 
 967:Generated_Source\PSoC6/ADC.h **** /*******************************************************************************
 968:Generated_Source\PSoC6/ADC.h **** * Function Name: ADC_GetResult16
 969:Generated_Source\PSoC6/ADC.h **** ****************************************************************************//**
 970:Generated_Source\PSoC6/ADC.h **** *
 971:Generated_Source\PSoC6/ADC.h **** * \brief Gets the data available in the channel result data register
 972:Generated_Source\PSoC6/ADC.h **** *
 973:Generated_Source\PSoC6/ADC.h **** * \param chan The ADC channel to read the result from. The first
 974:Generated_Source\PSoC6/ADC.h **** * channel is 0.
 975:Generated_Source\PSoC6/ADC.h **** *
 976:Generated_Source\PSoC6/ADC.h **** * \return Returns converted data as a signed 16-bit integer.
 977:Generated_Source\PSoC6/ADC.h **** *
 978:Generated_Source\PSoC6/ADC.h **** * \sideeffect None
 979:Generated_Source\PSoC6/ADC.h **** *
 980:Generated_Source\PSoC6/ADC.h **** *******************************************************************************/
 981:Generated_Source\PSoC6/ADC.h **** __STATIC_INLINE int16_t ADC_GetResult16(uint32_t chan)
 982:Generated_Source\PSoC6/ADC.h **** {
 983:Generated_Source\PSoC6/ADC.h ****     /* Halt CPU in debug mode if channel is out of valid range */
 984:Generated_Source\PSoC6/ADC.h ****     CY_ASSERT(chan < ADC_allConfigs[ADC_currentConfig].numChannels);
 198              		.loc 3 984 0
 199 005a 0A4B     		ldr	r3, .L17+4
 200 005c 1B68     		ldr	r3, [r3]
 201 005e 03EB8303 		add	r3, r3, r3, lsl #2
 202 0062 9A00     		lsls	r2, r3, #2
 203 0064 084B     		ldr	r3, .L17+8
 204 0066 1A44     		add	r2, r2, r3
 205 0068 5368     		ldr	r3, [r2, #4]
 206 006a 23B9     		cbnz	r3, .L14
 207 006c 4FF47671 		mov	r1, #984
 208 0070 0648     		ldr	r0, .L17+12
 209 0072 FFF7FEFF 		bl	Cy_SysLib_AssertFailed
 210              	.LVL23:
 211              	.L14:
 985:Generated_Source\PSoC6/ADC.h **** 
 986:Generated_Source\PSoC6/ADC.h ****     return Cy_SAR_GetResult16(ADC_SAR__HW, chan);
 212              		.loc 3 986 0
 213 0076 0021     		movs	r1, #0
 214 0078 0548     		ldr	r0, .L17+16
 215 007a FFF7FEFF 		bl	Cy_SAR_GetResult16
ARM GAS  C:\Users\stijn\AppData\Local\Temp\ccVPn9Mg.s 			page 38


 216              	.LVL24:
 217 007e C6E7     		b	.L15
 218              	.L18:
 219              		.align	2
 220              	.L17:
 221 0080 00000000 		.word	.LC0
 222 0084 00000000 		.word	ADC_currentConfig
 223 0088 00000000 		.word	ADC_allConfigs
 224 008c 40000000 		.word	.LC1
 225 0090 00001D41 		.word	1092419584
 226              	.LBE17:
 227              	.LBE16:
 228              		.cfi_endproc
 229              	.LFE562:
 230              		.size	ADCSampleTask, .-ADCSampleTask
 231              		.section	.text.ADC_ISR_Callback,"ax",%progbits
 232              		.align	2
 233              		.global	ADC_ISR_Callback
 234              		.thumb
 235              		.thumb_func
 236              		.type	ADC_ISR_Callback, %function
 237              	ADC_ISR_Callback:
 238              	.LFB563:
  89:analog.c      ****         newReading = ADC_GetResult16(0);
  90:analog.c      ****     }
  91:analog.c      **** }
  92:analog.c      **** 
  93:analog.c      **** void ADC_ISR_Callback(void){
 239              		.loc 1 93 0
 240              		.cfi_startproc
 241              		@ args = 0, pretend = 0, frame = 0
 242              		@ frame_needed = 0, uses_anonymous_args = 0
 243 0000 08B5     		push	{r3, lr}
 244              		.cfi_def_cfa_offset 8
 245              		.cfi_offset 3, -8
 246              		.cfi_offset 14, -4
  94:analog.c      ****     dataReady = 1;
 247              		.loc 1 94 0
 248 0002 0122     		movs	r2, #1
 249 0004 0A4B     		ldr	r3, .L22
 250 0006 1A70     		strb	r2, [r3]
 251              	.LVL25:
 252              	.LBB20:
 253              	.LBB21:
 984:Generated_Source\PSoC6/ADC.h **** 
 254              		.loc 3 984 0
 255 0008 0A4B     		ldr	r3, .L22+4
 256 000a 1B68     		ldr	r3, [r3]
 257 000c 03EB8303 		add	r3, r3, r3, lsl #2
 258 0010 9A00     		lsls	r2, r3, #2
 259 0012 094B     		ldr	r3, .L22+8
 260 0014 1A44     		add	r2, r2, r3
 261 0016 5368     		ldr	r3, [r2, #4]
 262 0018 23B9     		cbnz	r3, .L20
 263 001a 4FF47671 		mov	r1, #984
 264 001e 0748     		ldr	r0, .L22+12
 265 0020 FFF7FEFF 		bl	Cy_SysLib_AssertFailed
ARM GAS  C:\Users\stijn\AppData\Local\Temp\ccVPn9Mg.s 			page 39


 266              	.LVL26:
 267              	.L20:
 268              		.loc 3 986 0
 269 0024 0021     		movs	r1, #0
 270 0026 0648     		ldr	r0, .L22+16
 271 0028 FFF7FEFF 		bl	Cy_SAR_GetResult16
 272              	.LVL27:
 273 002c 08BD     		pop	{r3, pc}
 274              	.L23:
 275 002e 00BF     		.align	2
 276              	.L22:
 277 0030 00000000 		.word	.LANCHOR0
 278 0034 00000000 		.word	ADC_currentConfig
 279 0038 00000000 		.word	ADC_allConfigs
 280 003c 40000000 		.word	.LC1
 281 0040 00001D41 		.word	1092419584
 282              	.LBE21:
 283              	.LBE20:
 284              		.cfi_endproc
 285              	.LFE563:
 286              		.size	ADC_ISR_Callback, .-ADC_ISR_Callback
 287              		.section	.rodata.str1.4,"aMS",%progbits,1
 288              		.align	2
 289              	.LC0:
 290 0000 47656E65 		.ascii	"Generated_Source\\PSoC6\\pdl\\drivers/peripheral/gp"
 290      72617465 
 290      645F536F 
 290      75726365 
 290      5C50536F 
 291 0030 696F2F63 		.ascii	"io/cy_gpio.h\000"
 291      795F6770 
 291      696F2E68 
 291      00
 292 003d 000000   		.space	3
 293              	.LC1:
 294 0040 47656E65 		.ascii	"Generated_Source\\PSoC6/ADC.h\000"
 294      72617465 
 294      645F536F 
 294      75726365 
 294      5C50536F 
 295              		.bss
 296              		.set	.LANCHOR0,. + 0
 297              		.type	dataReady, %object
 298              		.size	dataReady, 1
 299              	dataReady:
 300 0000 00       		.space	1
 301              		.text
 302              	.Letext0:
 303              		.file 4 "c:\\program files (x86)\\cypress\\psoc creator\\4.2\\psoc creator\\import\\gnu\\arm\\5.4.
 304              		.file 5 "c:\\program files (x86)\\cypress\\psoc creator\\4.2\\psoc creator\\import\\gnu\\arm\\5.4.
 305              		.file 6 "Generated_Source\\PSoC6\\pdl\\devices/psoc6/include/ip/cyip_gpio.h"
 306              		.file 7 "Generated_Source\\PSoC6\\pdl\\devices/psoc6/include/ip/cyip_sar.h"
 307              		.file 8 "Generated_Source\\PSoC6\\pdl\\devices/psoc6/include/psoc6_01_config.h"
 308              		.file 9 "Generated_Source\\PSoC6\\pdl\\drivers/peripheral/device/cy_device.h"
 309              		.file 10 "Generated_Source\\PSoC6\\pdl\\drivers/peripheral/syslib/cy_syslib.h"
 310              		.file 11 "Generated_Source\\PSoC6\\pdl\\drivers/peripheral/sar/cy_sar.h"
 311              		.file 12 "Generated_Source\\PSoC6\\pdl\\drivers/peripheral/scb/cy_scb_i2c.h"
ARM GAS  C:\Users\stijn\AppData\Local\Temp\ccVPn9Mg.s 			page 40


 312              		.file 13 "Generated_Source\\PSoC6\\pdl\\drivers/peripheral/scb/cy_scb_uart.h"
 313              		.file 14 "Generated_Source\\PSoC6\\pdl\\rtos/FreeRTOS/10.0.1/Source/portable/GCC/CM4F/portmacro.h"
 314              		.file 15 "analog.h"
 315              		.file 16 "Generated_Source\\PSoC6\\pdl\\cmsis/include/core_cm4.h"
 316              		.file 17 "Generated_Source\\PSoC6/UART.h"
 317              		.file 18 "Generated_Source\\PSoC6/mI2C.h"
 318              		.file 19 "Generated_Source\\PSoC6/AMuxSeq.h"
 319              		.file 20 "Generated_Source\\PSoC6\\pdl\\rtos/FreeRTOS/10.0.1/Source/include/task.h"
 320              		.file 21 "Generated_Source\\PSoC6/cyfitter_cfg.h"
 321              		.section	.debug_info,"",%progbits
 322              	.Ldebug_info0:
 323 0000 03120000 		.4byte	0x1203
 324 0004 0400     		.2byte	0x4
 325 0006 00000000 		.4byte	.Ldebug_abbrev0
 326 000a 04       		.byte	0x4
 327 000b 01       		.uleb128 0x1
 328 000c 03030000 		.4byte	.LASF280
 329 0010 0C       		.byte	0xc
 330 0011 52070000 		.4byte	.LASF281
 331 0015 8C000000 		.4byte	.LASF282
 332 0019 00000000 		.4byte	.Ldebug_ranges0+0
 333 001d 00000000 		.4byte	0
 334 0021 00000000 		.4byte	.Ldebug_line0
 335 0025 02       		.uleb128 0x2
 336 0026 02       		.byte	0x2
 337 0027 05       		.byte	0x5
 338 0028 2D020000 		.4byte	.LASF0
 339 002c 02       		.uleb128 0x2
 340 002d 01       		.byte	0x1
 341 002e 06       		.byte	0x6
 342 002f 120F0000 		.4byte	.LASF1
 343 0033 03       		.uleb128 0x3
 344 0034 EE0C0000 		.4byte	.LASF3
 345 0038 04       		.byte	0x4
 346 0039 1D       		.byte	0x1d
 347 003a 3E000000 		.4byte	0x3e
 348 003e 02       		.uleb128 0x2
 349 003f 01       		.byte	0x1
 350 0040 08       		.byte	0x8
 351 0041 FB0D0000 		.4byte	.LASF2
 352 0045 03       		.uleb128 0x3
 353 0046 4B090000 		.4byte	.LASF4
 354 004a 04       		.byte	0x4
 355 004b 29       		.byte	0x29
 356 004c 25000000 		.4byte	0x25
 357 0050 03       		.uleb128 0x3
 358 0051 0B070000 		.4byte	.LASF5
 359 0055 04       		.byte	0x4
 360 0056 2B       		.byte	0x2b
 361 0057 5B000000 		.4byte	0x5b
 362 005b 02       		.uleb128 0x2
 363 005c 02       		.byte	0x2
 364 005d 07       		.byte	0x7
 365 005e A50A0000 		.4byte	.LASF6
 366 0062 03       		.uleb128 0x3
 367 0063 B0010000 		.4byte	.LASF7
 368 0067 04       		.byte	0x4
ARM GAS  C:\Users\stijn\AppData\Local\Temp\ccVPn9Mg.s 			page 41


 369 0068 3F       		.byte	0x3f
 370 0069 6D000000 		.4byte	0x6d
 371 006d 02       		.uleb128 0x2
 372 006e 04       		.byte	0x4
 373 006f 05       		.byte	0x5
 374 0070 1E0C0000 		.4byte	.LASF8
 375 0074 03       		.uleb128 0x3
 376 0075 1D0E0000 		.4byte	.LASF9
 377 0079 04       		.byte	0x4
 378 007a 41       		.byte	0x41
 379 007b 7F000000 		.4byte	0x7f
 380 007f 02       		.uleb128 0x2
 381 0080 04       		.byte	0x4
 382 0081 07       		.byte	0x7
 383 0082 6B0D0000 		.4byte	.LASF10
 384 0086 02       		.uleb128 0x2
 385 0087 08       		.byte	0x8
 386 0088 05       		.byte	0x5
 387 0089 F9080000 		.4byte	.LASF11
 388 008d 02       		.uleb128 0x2
 389 008e 08       		.byte	0x8
 390 008f 07       		.byte	0x7
 391 0090 41050000 		.4byte	.LASF12
 392 0094 04       		.uleb128 0x4
 393 0095 04       		.byte	0x4
 394 0096 05       		.byte	0x5
 395 0097 696E7400 		.ascii	"int\000"
 396 009b 02       		.uleb128 0x2
 397 009c 04       		.byte	0x4
 398 009d 07       		.byte	0x7
 399 009e 24010000 		.4byte	.LASF13
 400 00a2 03       		.uleb128 0x3
 401 00a3 44080000 		.4byte	.LASF14
 402 00a7 05       		.byte	0x5
 403 00a8 18       		.byte	0x18
 404 00a9 33000000 		.4byte	0x33
 405 00ad 03       		.uleb128 0x3
 406 00ae 0C050000 		.4byte	.LASF15
 407 00b2 05       		.byte	0x5
 408 00b3 20       		.byte	0x20
 409 00b4 45000000 		.4byte	0x45
 410 00b8 03       		.uleb128 0x3
 411 00b9 CE0A0000 		.4byte	.LASF16
 412 00bd 05       		.byte	0x5
 413 00be 24       		.byte	0x24
 414 00bf 50000000 		.4byte	0x50
 415 00c3 03       		.uleb128 0x3
 416 00c4 9C0D0000 		.4byte	.LASF17
 417 00c8 05       		.byte	0x5
 418 00c9 2C       		.byte	0x2c
 419 00ca 62000000 		.4byte	0x62
 420 00ce 03       		.uleb128 0x3
 421 00cf 56040000 		.4byte	.LASF18
 422 00d3 05       		.byte	0x5
 423 00d4 30       		.byte	0x30
 424 00d5 74000000 		.4byte	0x74
 425 00d9 02       		.uleb128 0x2
ARM GAS  C:\Users\stijn\AppData\Local\Temp\ccVPn9Mg.s 			page 42


 426 00da 04       		.byte	0x4
 427 00db 07       		.byte	0x7
 428 00dc 520B0000 		.4byte	.LASF19
 429 00e0 05       		.uleb128 0x5
 430 00e1 CE000000 		.4byte	0xce
 431 00e5 06       		.uleb128 0x6
 432 00e6 E0000000 		.4byte	0xe0
 433 00ea 07       		.uleb128 0x7
 434 00eb E5000000 		.4byte	0xe5
 435 00ef FA000000 		.4byte	0xfa
 436 00f3 08       		.uleb128 0x8
 437 00f4 D9000000 		.4byte	0xd9
 438 00f8 01       		.byte	0x1
 439 00f9 00       		.byte	0
 440 00fa 07       		.uleb128 0x7
 441 00fb E0000000 		.4byte	0xe0
 442 00ff 0A010000 		.4byte	0x10a
 443 0103 08       		.uleb128 0x8
 444 0104 D9000000 		.4byte	0xd9
 445 0108 0F       		.byte	0xf
 446 0109 00       		.byte	0
 447 010a 07       		.uleb128 0x7
 448 010b E5000000 		.4byte	0xe5
 449 010f 1A010000 		.4byte	0x11a
 450 0113 08       		.uleb128 0x8
 451 0114 D9000000 		.4byte	0xd9
 452 0118 0F       		.byte	0xf
 453 0119 00       		.byte	0
 454 011a 07       		.uleb128 0x7
 455 011b E5000000 		.4byte	0xe5
 456 011f 2A010000 		.4byte	0x12a
 457 0123 08       		.uleb128 0x8
 458 0124 D9000000 		.4byte	0xd9
 459 0128 02       		.byte	0x2
 460 0129 00       		.byte	0
 461 012a 07       		.uleb128 0x7
 462 012b E5000000 		.4byte	0xe5
 463 012f 3A010000 		.4byte	0x13a
 464 0133 08       		.uleb128 0x8
 465 0134 D9000000 		.4byte	0xd9
 466 0138 0E       		.byte	0xe
 467 0139 00       		.byte	0
 468 013a 09       		.uleb128 0x9
 469 013b 80       		.byte	0x80
 470 013c 06       		.byte	0x6
 471 013d 22       		.byte	0x22
 472 013e 0E020000 		.4byte	0x20e
 473 0142 0A       		.uleb128 0xa
 474 0143 4F555400 		.ascii	"OUT\000"
 475 0147 06       		.byte	0x6
 476 0148 23       		.byte	0x23
 477 0149 E0000000 		.4byte	0xe0
 478 014d 00       		.byte	0
 479 014e 0B       		.uleb128 0xb
 480 014f F9040000 		.4byte	.LASF20
 481 0153 06       		.byte	0x6
 482 0154 24       		.byte	0x24
ARM GAS  C:\Users\stijn\AppData\Local\Temp\ccVPn9Mg.s 			page 43


 483 0155 E0000000 		.4byte	0xe0
 484 0159 04       		.byte	0x4
 485 015a 0B       		.uleb128 0xb
 486 015b 94040000 		.4byte	.LASF21
 487 015f 06       		.byte	0x6
 488 0160 25       		.byte	0x25
 489 0161 E0000000 		.4byte	0xe0
 490 0165 08       		.byte	0x8
 491 0166 0B       		.uleb128 0xb
 492 0167 D50C0000 		.4byte	.LASF22
 493 016b 06       		.byte	0x6
 494 016c 26       		.byte	0x26
 495 016d E0000000 		.4byte	0xe0
 496 0171 0C       		.byte	0xc
 497 0172 0A       		.uleb128 0xa
 498 0173 494E00   		.ascii	"IN\000"
 499 0176 06       		.byte	0x6
 500 0177 27       		.byte	0x27
 501 0178 E5000000 		.4byte	0xe5
 502 017c 10       		.byte	0x10
 503 017d 0B       		.uleb128 0xb
 504 017e 8F040000 		.4byte	.LASF23
 505 0182 06       		.byte	0x6
 506 0183 28       		.byte	0x28
 507 0184 E0000000 		.4byte	0xe0
 508 0188 14       		.byte	0x14
 509 0189 0B       		.uleb128 0xb
 510 018a CF090000 		.4byte	.LASF24
 511 018e 06       		.byte	0x6
 512 018f 29       		.byte	0x29
 513 0190 E0000000 		.4byte	0xe0
 514 0194 18       		.byte	0x18
 515 0195 0B       		.uleb128 0xb
 516 0196 2F0D0000 		.4byte	.LASF25
 517 019a 06       		.byte	0x6
 518 019b 2A       		.byte	0x2a
 519 019c E5000000 		.4byte	0xe5
 520 01a0 1C       		.byte	0x1c
 521 01a1 0B       		.uleb128 0xb
 522 01a2 99020000 		.4byte	.LASF26
 523 01a6 06       		.byte	0x6
 524 01a7 2B       		.byte	0x2b
 525 01a8 E0000000 		.4byte	0xe0
 526 01ac 20       		.byte	0x20
 527 01ad 0B       		.uleb128 0xb
 528 01ae 3C0E0000 		.4byte	.LASF27
 529 01b2 06       		.byte	0x6
 530 01b3 2C       		.byte	0x2c
 531 01b4 E0000000 		.4byte	0xe0
 532 01b8 24       		.byte	0x24
 533 01b9 0A       		.uleb128 0xa
 534 01ba 43464700 		.ascii	"CFG\000"
 535 01be 06       		.byte	0x6
 536 01bf 2D       		.byte	0x2d
 537 01c0 E0000000 		.4byte	0xe0
 538 01c4 28       		.byte	0x28
 539 01c5 0B       		.uleb128 0xb
ARM GAS  C:\Users\stijn\AppData\Local\Temp\ccVPn9Mg.s 			page 44


 540 01c6 FF0A0000 		.4byte	.LASF28
 541 01ca 06       		.byte	0x6
 542 01cb 2E       		.byte	0x2e
 543 01cc E0000000 		.4byte	0xe0
 544 01d0 2C       		.byte	0x2c
 545 01d1 0B       		.uleb128 0xb
 546 01d2 1B060000 		.4byte	.LASF29
 547 01d6 06       		.byte	0x6
 548 01d7 2F       		.byte	0x2f
 549 01d8 E0000000 		.4byte	0xe0
 550 01dc 30       		.byte	0x30
 551 01dd 0B       		.uleb128 0xb
 552 01de A8010000 		.4byte	.LASF30
 553 01e2 06       		.byte	0x6
 554 01e3 30       		.byte	0x30
 555 01e4 E0000000 		.4byte	0xe0
 556 01e8 34       		.byte	0x34
 557 01e9 0B       		.uleb128 0xb
 558 01ea 14000000 		.4byte	.LASF31
 559 01ee 06       		.byte	0x6
 560 01ef 31       		.byte	0x31
 561 01f0 E5000000 		.4byte	0xe5
 562 01f4 38       		.byte	0x38
 563 01f5 0B       		.uleb128 0xb
 564 01f6 B60C0000 		.4byte	.LASF32
 565 01fa 06       		.byte	0x6
 566 01fb 32       		.byte	0x32
 567 01fc E0000000 		.4byte	0xe0
 568 0200 3C       		.byte	0x3c
 569 0201 0B       		.uleb128 0xb
 570 0202 B30F0000 		.4byte	.LASF33
 571 0206 06       		.byte	0x6
 572 0207 33       		.byte	0x33
 573 0208 13020000 		.4byte	0x213
 574 020c 40       		.byte	0x40
 575 020d 00       		.byte	0
 576 020e 05       		.uleb128 0x5
 577 020f 0A010000 		.4byte	0x10a
 578 0213 06       		.uleb128 0x6
 579 0214 0E020000 		.4byte	0x20e
 580 0218 03       		.uleb128 0x3
 581 0219 7A0C0000 		.4byte	.LASF34
 582 021d 06       		.byte	0x6
 583 021e 34       		.byte	0x34
 584 021f 3A010000 		.4byte	0x13a
 585 0223 0C       		.uleb128 0xc
 586 0224 080F     		.2byte	0xf08
 587 0226 07       		.byte	0x7
 588 0227 21       		.byte	0x21
 589 0228 AB040000 		.4byte	0x4ab
 590 022c 0B       		.uleb128 0xb
 591 022d 7D100000 		.4byte	.LASF35
 592 0231 07       		.byte	0x7
 593 0232 22       		.byte	0x22
 594 0233 E0000000 		.4byte	0xe0
 595 0237 00       		.byte	0
 596 0238 0B       		.uleb128 0xb
ARM GAS  C:\Users\stijn\AppData\Local\Temp\ccVPn9Mg.s 			page 45


 597 0239 D9090000 		.4byte	.LASF36
 598 023d 07       		.byte	0x7
 599 023e 23       		.byte	0x23
 600 023f E0000000 		.4byte	0xe0
 601 0243 04       		.byte	0x4
 602 0244 0B       		.uleb128 0xb
 603 0245 14000000 		.4byte	.LASF31
 604 0249 07       		.byte	0x7
 605 024a 24       		.byte	0x24
 606 024b B0040000 		.4byte	0x4b0
 607 024f 08       		.byte	0x8
 608 0250 0B       		.uleb128 0xb
 609 0251 41100000 		.4byte	.LASF37
 610 0255 07       		.byte	0x7
 611 0256 25       		.byte	0x25
 612 0257 E0000000 		.4byte	0xe0
 613 025b 10       		.byte	0x10
 614 025c 0B       		.uleb128 0xb
 615 025d ED0D0000 		.4byte	.LASF38
 616 0261 07       		.byte	0x7
 617 0262 26       		.byte	0x26
 618 0263 E0000000 		.4byte	0xe0
 619 0267 14       		.byte	0x14
 620 0268 0B       		.uleb128 0xb
 621 0269 8B0C0000 		.4byte	.LASF39
 622 026d 07       		.byte	0x7
 623 026e 27       		.byte	0x27
 624 026f E0000000 		.4byte	0xe0
 625 0273 18       		.byte	0x18
 626 0274 0B       		.uleb128 0xb
 627 0275 89060000 		.4byte	.LASF40
 628 0279 07       		.byte	0x7
 629 027a 28       		.byte	0x28
 630 027b E0000000 		.4byte	0xe0
 631 027f 1C       		.byte	0x1c
 632 0280 0B       		.uleb128 0xb
 633 0281 DC000000 		.4byte	.LASF41
 634 0285 07       		.byte	0x7
 635 0286 29       		.byte	0x29
 636 0287 E0000000 		.4byte	0xe0
 637 028b 20       		.byte	0x20
 638 028c 0B       		.uleb128 0xb
 639 028d 520A0000 		.4byte	.LASF42
 640 0291 07       		.byte	0x7
 641 0292 2A       		.byte	0x2a
 642 0293 E0000000 		.4byte	0xe0
 643 0297 24       		.byte	0x24
 644 0298 0B       		.uleb128 0xb
 645 0299 B30F0000 		.4byte	.LASF33
 646 029d 07       		.byte	0x7
 647 029e 2B       		.byte	0x2b
 648 029f CA040000 		.4byte	0x4ca
 649 02a3 28       		.byte	0x28
 650 02a4 0B       		.uleb128 0xb
 651 02a5 06100000 		.4byte	.LASF43
 652 02a9 07       		.byte	0x7
 653 02aa 2C       		.byte	0x2c
ARM GAS  C:\Users\stijn\AppData\Local\Temp\ccVPn9Mg.s 			page 46


 654 02ab CF040000 		.4byte	0x4cf
 655 02af 80       		.byte	0x80
 656 02b0 0B       		.uleb128 0xb
 657 02b1 970B0000 		.4byte	.LASF44
 658 02b5 07       		.byte	0x7
 659 02b6 2D       		.byte	0x2d
 660 02b7 D9040000 		.4byte	0x4d9
 661 02bb C0       		.byte	0xc0
 662 02bc 0D       		.uleb128 0xd
 663 02bd AC0C0000 		.4byte	.LASF45
 664 02c1 07       		.byte	0x7
 665 02c2 2E       		.byte	0x2e
 666 02c3 E3040000 		.4byte	0x4e3
 667 02c7 0001     		.2byte	0x100
 668 02c9 0D       		.uleb128 0xd
 669 02ca A10B0000 		.4byte	.LASF46
 670 02ce 07       		.byte	0x7
 671 02cf 2F       		.byte	0x2f
 672 02d0 ED040000 		.4byte	0x4ed
 673 02d4 4001     		.2byte	0x140
 674 02d6 0D       		.uleb128 0xd
 675 02d7 7A090000 		.4byte	.LASF47
 676 02db 07       		.byte	0x7
 677 02dc 30       		.byte	0x30
 678 02dd F7040000 		.4byte	0x4f7
 679 02e1 8001     		.2byte	0x180
 680 02e3 0D       		.uleb128 0xd
 681 02e4 AB0B0000 		.4byte	.LASF48
 682 02e8 07       		.byte	0x7
 683 02e9 31       		.byte	0x31
 684 02ea 01050000 		.4byte	0x501
 685 02ee C001     		.2byte	0x1c0
 686 02f0 0D       		.uleb128 0xd
 687 02f1 2F000000 		.4byte	.LASF49
 688 02f5 07       		.byte	0x7
 689 02f6 32       		.byte	0x32
 690 02f7 E5000000 		.4byte	0xe5
 691 02fb 0002     		.2byte	0x200
 692 02fd 0D       		.uleb128 0xd
 693 02fe A90D0000 		.4byte	.LASF50
 694 0302 07       		.byte	0x7
 695 0303 33       		.byte	0x33
 696 0304 E5000000 		.4byte	0xe5
 697 0308 0402     		.2byte	0x204
 698 030a 0D       		.uleb128 0xd
 699 030b C9010000 		.4byte	.LASF51
 700 030f 07       		.byte	0x7
 701 0310 34       		.byte	0x34
 702 0311 E5000000 		.4byte	0xe5
 703 0315 0802     		.2byte	0x208
 704 0317 0D       		.uleb128 0xd
 705 0318 04080000 		.4byte	.LASF52
 706 031c 07       		.byte	0x7
 707 031d 35       		.byte	0x35
 708 031e E5000000 		.4byte	0xe5
 709 0322 0C02     		.2byte	0x20c
 710 0324 0D       		.uleb128 0xd
ARM GAS  C:\Users\stijn\AppData\Local\Temp\ccVPn9Mg.s 			page 47


 711 0325 8F040000 		.4byte	.LASF23
 712 0329 07       		.byte	0x7
 713 032a 36       		.byte	0x36
 714 032b E0000000 		.4byte	0xe0
 715 032f 1002     		.2byte	0x210
 716 0331 0D       		.uleb128 0xd
 717 0332 99020000 		.4byte	.LASF26
 718 0336 07       		.byte	0x7
 719 0337 37       		.byte	0x37
 720 0338 E0000000 		.4byte	0xe0
 721 033c 1402     		.2byte	0x214
 722 033e 0D       		.uleb128 0xd
 723 033f CF090000 		.4byte	.LASF24
 724 0343 07       		.byte	0x7
 725 0344 38       		.byte	0x38
 726 0345 E0000000 		.4byte	0xe0
 727 0349 1802     		.2byte	0x218
 728 034b 0D       		.uleb128 0xd
 729 034c 2F0D0000 		.4byte	.LASF25
 730 0350 07       		.byte	0x7
 731 0351 39       		.byte	0x39
 732 0352 E5000000 		.4byte	0xe5
 733 0356 1C02     		.2byte	0x21c
 734 0358 0D       		.uleb128 0xd
 735 0359 45020000 		.4byte	.LASF53
 736 035d 07       		.byte	0x7
 737 035e 3A       		.byte	0x3a
 738 035f E0000000 		.4byte	0xe0
 739 0363 2002     		.2byte	0x220
 740 0365 0D       		.uleb128 0xd
 741 0366 B80E0000 		.4byte	.LASF54
 742 036a 07       		.byte	0x7
 743 036b 3B       		.byte	0x3b
 744 036c E0000000 		.4byte	0xe0
 745 0370 2402     		.2byte	0x224
 746 0372 0D       		.uleb128 0xd
 747 0373 550E0000 		.4byte	.LASF55
 748 0377 07       		.byte	0x7
 749 0378 3C       		.byte	0x3c
 750 0379 E0000000 		.4byte	0xe0
 751 037d 2802     		.2byte	0x228
 752 037f 0D       		.uleb128 0xd
 753 0380 F60B0000 		.4byte	.LASF56
 754 0384 07       		.byte	0x7
 755 0385 3D       		.byte	0x3d
 756 0386 E5000000 		.4byte	0xe5
 757 038a 2C02     		.2byte	0x22c
 758 038c 0D       		.uleb128 0xd
 759 038d AA090000 		.4byte	.LASF57
 760 0391 07       		.byte	0x7
 761 0392 3E       		.byte	0x3e
 762 0393 E0000000 		.4byte	0xe0
 763 0397 3002     		.2byte	0x230
 764 0399 0D       		.uleb128 0xd
 765 039a 71080000 		.4byte	.LASF58
 766 039e 07       		.byte	0x7
 767 039f 3F       		.byte	0x3f
ARM GAS  C:\Users\stijn\AppData\Local\Temp\ccVPn9Mg.s 			page 48


 768 03a0 E0000000 		.4byte	0xe0
 769 03a4 3402     		.2byte	0x234
 770 03a6 0D       		.uleb128 0xd
 771 03a7 14010000 		.4byte	.LASF59
 772 03ab 07       		.byte	0x7
 773 03ac 40       		.byte	0x40
 774 03ad E0000000 		.4byte	0xe0
 775 03b1 3802     		.2byte	0x238
 776 03b3 0D       		.uleb128 0xd
 777 03b4 1D000000 		.4byte	.LASF60
 778 03b8 07       		.byte	0x7
 779 03b9 41       		.byte	0x41
 780 03ba E5000000 		.4byte	0xe5
 781 03be 3C02     		.2byte	0x23c
 782 03c0 0D       		.uleb128 0xd
 783 03c1 5F010000 		.4byte	.LASF61
 784 03c5 07       		.byte	0x7
 785 03c6 42       		.byte	0x42
 786 03c7 E5000000 		.4byte	0xe5
 787 03cb 4002     		.2byte	0x240
 788 03cd 0D       		.uleb128 0xd
 789 03ce B50B0000 		.4byte	.LASF62
 790 03d2 07       		.byte	0x7
 791 03d3 43       		.byte	0x43
 792 03d4 0B050000 		.4byte	0x50b
 793 03d8 4402     		.2byte	0x244
 794 03da 0D       		.uleb128 0xd
 795 03db 23060000 		.4byte	.LASF63
 796 03df 07       		.byte	0x7
 797 03e0 44       		.byte	0x44
 798 03e1 E0000000 		.4byte	0xe0
 799 03e5 8002     		.2byte	0x280
 800 03e7 0D       		.uleb128 0xd
 801 03e8 BF0B0000 		.4byte	.LASF64
 802 03ec 07       		.byte	0x7
 803 03ed 45       		.byte	0x45
 804 03ee 15050000 		.4byte	0x515
 805 03f2 8402     		.2byte	0x284
 806 03f4 0D       		.uleb128 0xd
 807 03f5 78020000 		.4byte	.LASF65
 808 03f9 07       		.byte	0x7
 809 03fa 46       		.byte	0x46
 810 03fb E5000000 		.4byte	0xe5
 811 03ff 9002     		.2byte	0x290
 812 0401 0D       		.uleb128 0xd
 813 0402 C90B0000 		.4byte	.LASF66
 814 0406 07       		.byte	0x7
 815 0407 47       		.byte	0x47
 816 0408 1F050000 		.4byte	0x51f
 817 040c 9402     		.2byte	0x294
 818 040e 0D       		.uleb128 0xd
 819 040f D20F0000 		.4byte	.LASF67
 820 0413 07       		.byte	0x7
 821 0414 48       		.byte	0x48
 822 0415 E5000000 		.4byte	0xe5
 823 0419 A002     		.2byte	0x2a0
 824 041b 0D       		.uleb128 0xd
ARM GAS  C:\Users\stijn\AppData\Local\Temp\ccVPn9Mg.s 			page 49


 825 041c 2A080000 		.4byte	.LASF68
 826 0420 07       		.byte	0x7
 827 0421 49       		.byte	0x49
 828 0422 E5000000 		.4byte	0xe5
 829 0426 A402     		.2byte	0x2a4
 830 0428 0D       		.uleb128 0xd
 831 0429 D30B0000 		.4byte	.LASF69
 832 042d 07       		.byte	0x7
 833 042e 4A       		.byte	0x4a
 834 042f 29050000 		.4byte	0x529
 835 0433 A802     		.2byte	0x2a8
 836 0435 0D       		.uleb128 0xd
 837 0436 12100000 		.4byte	.LASF70
 838 043a 07       		.byte	0x7
 839 043b 4B       		.byte	0x4b
 840 043c E0000000 		.4byte	0xe0
 841 0440 0003     		.2byte	0x300
 842 0442 0D       		.uleb128 0xd
 843 0443 050A0000 		.4byte	.LASF71
 844 0447 07       		.byte	0x7
 845 0448 4C       		.byte	0x4c
 846 0449 E0000000 		.4byte	0xe0
 847 044d 0403     		.2byte	0x304
 848 044f 0D       		.uleb128 0xd
 849 0450 DD0B0000 		.4byte	.LASF72
 850 0454 07       		.byte	0x7
 851 0455 4D       		.byte	0x4d
 852 0456 43050000 		.4byte	0x543
 853 045a 0803     		.2byte	0x308
 854 045c 0D       		.uleb128 0xd
 855 045d 1E090000 		.4byte	.LASF73
 856 0461 07       		.byte	0x7
 857 0462 4E       		.byte	0x4e
 858 0463 E0000000 		.4byte	0xe0
 859 0467 4003     		.2byte	0x340
 860 0469 0D       		.uleb128 0xd
 861 046a 0B0C0000 		.4byte	.LASF74
 862 046e 07       		.byte	0x7
 863 046f 4F       		.byte	0x4f
 864 0470 E0000000 		.4byte	0xe0
 865 0474 4403     		.2byte	0x344
 866 0476 0D       		.uleb128 0xd
 867 0477 7E0F0000 		.4byte	.LASF75
 868 047b 07       		.byte	0x7
 869 047c 50       		.byte	0x50
 870 047d E5000000 		.4byte	0xe5
 871 0481 4803     		.2byte	0x348
 872 0483 0D       		.uleb128 0xd
 873 0484 680E0000 		.4byte	.LASF76
 874 0488 07       		.byte	0x7
 875 0489 51       		.byte	0x51
 876 048a 5E050000 		.4byte	0x55e
 877 048e 4C03     		.2byte	0x34c
 878 0490 0D       		.uleb128 0xd
 879 0491 090E0000 		.4byte	.LASF77
 880 0495 07       		.byte	0x7
 881 0496 52       		.byte	0x52
ARM GAS  C:\Users\stijn\AppData\Local\Temp\ccVPn9Mg.s 			page 50


 882 0497 E0000000 		.4byte	0xe0
 883 049b 000F     		.2byte	0xf00
 884 049d 0D       		.uleb128 0xd
 885 049e 130E0000 		.4byte	.LASF78
 886 04a2 07       		.byte	0x7
 887 04a3 53       		.byte	0x53
 888 04a4 E0000000 		.4byte	0xe0
 889 04a8 040F     		.2byte	0xf04
 890 04aa 00       		.byte	0
 891 04ab 05       		.uleb128 0x5
 892 04ac EA000000 		.4byte	0xea
 893 04b0 06       		.uleb128 0x6
 894 04b1 AB040000 		.4byte	0x4ab
 895 04b5 07       		.uleb128 0x7
 896 04b6 E5000000 		.4byte	0xe5
 897 04ba C5040000 		.4byte	0x4c5
 898 04be 08       		.uleb128 0x8
 899 04bf D9000000 		.4byte	0xd9
 900 04c3 15       		.byte	0x15
 901 04c4 00       		.byte	0
 902 04c5 05       		.uleb128 0x5
 903 04c6 B5040000 		.4byte	0x4b5
 904 04ca 06       		.uleb128 0x6
 905 04cb C5040000 		.4byte	0x4c5
 906 04cf 05       		.uleb128 0x5
 907 04d0 FA000000 		.4byte	0xfa
 908 04d4 05       		.uleb128 0x5
 909 04d5 0A010000 		.4byte	0x10a
 910 04d9 06       		.uleb128 0x6
 911 04da D4040000 		.4byte	0x4d4
 912 04de 05       		.uleb128 0x5
 913 04df 0A010000 		.4byte	0x10a
 914 04e3 06       		.uleb128 0x6
 915 04e4 DE040000 		.4byte	0x4de
 916 04e8 05       		.uleb128 0x5
 917 04e9 0A010000 		.4byte	0x10a
 918 04ed 06       		.uleb128 0x6
 919 04ee E8040000 		.4byte	0x4e8
 920 04f2 05       		.uleb128 0x5
 921 04f3 0A010000 		.4byte	0x10a
 922 04f7 06       		.uleb128 0x6
 923 04f8 F2040000 		.4byte	0x4f2
 924 04fc 05       		.uleb128 0x5
 925 04fd 0A010000 		.4byte	0x10a
 926 0501 06       		.uleb128 0x6
 927 0502 FC040000 		.4byte	0x4fc
 928 0506 05       		.uleb128 0x5
 929 0507 2A010000 		.4byte	0x12a
 930 050b 06       		.uleb128 0x6
 931 050c 06050000 		.4byte	0x506
 932 0510 05       		.uleb128 0x5
 933 0511 1A010000 		.4byte	0x11a
 934 0515 06       		.uleb128 0x6
 935 0516 10050000 		.4byte	0x510
 936 051a 05       		.uleb128 0x5
 937 051b 1A010000 		.4byte	0x11a
 938 051f 06       		.uleb128 0x6
ARM GAS  C:\Users\stijn\AppData\Local\Temp\ccVPn9Mg.s 			page 51


 939 0520 1A050000 		.4byte	0x51a
 940 0524 05       		.uleb128 0x5
 941 0525 B5040000 		.4byte	0x4b5
 942 0529 06       		.uleb128 0x6
 943 052a 24050000 		.4byte	0x524
 944 052e 07       		.uleb128 0x7
 945 052f E5000000 		.4byte	0xe5
 946 0533 3E050000 		.4byte	0x53e
 947 0537 08       		.uleb128 0x8
 948 0538 D9000000 		.4byte	0xd9
 949 053c 0D       		.byte	0xd
 950 053d 00       		.byte	0
 951 053e 05       		.uleb128 0x5
 952 053f 2E050000 		.4byte	0x52e
 953 0543 06       		.uleb128 0x6
 954 0544 3E050000 		.4byte	0x53e
 955 0548 07       		.uleb128 0x7
 956 0549 E5000000 		.4byte	0xe5
 957 054d 59050000 		.4byte	0x559
 958 0551 0E       		.uleb128 0xe
 959 0552 D9000000 		.4byte	0xd9
 960 0556 EC02     		.2byte	0x2ec
 961 0558 00       		.byte	0
 962 0559 05       		.uleb128 0x5
 963 055a 48050000 		.4byte	0x548
 964 055e 06       		.uleb128 0x6
 965 055f 59050000 		.4byte	0x559
 966 0563 03       		.uleb128 0x3
 967 0564 16070000 		.4byte	.LASF79
 968 0568 07       		.byte	0x7
 969 0569 54       		.byte	0x54
 970 056a 23020000 		.4byte	0x223
 971 056e 0F       		.uleb128 0xf
 972 056f EC060000 		.4byte	.LASF80
 973 0573 08       		.byte	0x8
 974 0574 3106     		.2byte	0x631
 975 0576 18020000 		.4byte	0x218
 976 057a 0F       		.uleb128 0xf
 977 057b 58060000 		.4byte	.LASF81
 978 057f 08       		.byte	0x8
 979 0580 5206     		.2byte	0x652
 980 0582 63050000 		.4byte	0x563
 981 0586 02       		.uleb128 0x2
 982 0587 08       		.byte	0x8
 983 0588 04       		.byte	0x4
 984 0589 C20A0000 		.4byte	.LASF82
 985 058d 09       		.uleb128 0x9
 986 058e B8       		.byte	0xb8
 987 058f 09       		.byte	0x9
 988 0590 34       		.byte	0x34
 989 0591 9E090000 		.4byte	0x99e
 990 0595 0B       		.uleb128 0xb
 991 0596 DC010000 		.4byte	.LASF83
 992 059a 09       		.byte	0x9
 993 059b 37       		.byte	0x37
 994 059c CE000000 		.4byte	0xce
 995 05a0 00       		.byte	0
ARM GAS  C:\Users\stijn\AppData\Local\Temp\ccVPn9Mg.s 			page 52


 996 05a1 0B       		.uleb128 0xb
 997 05a2 01050000 		.4byte	.LASF84
 998 05a6 09       		.byte	0x9
 999 05a7 38       		.byte	0x38
 1000 05a8 CE000000 		.4byte	0xce
 1001 05ac 04       		.byte	0x4
 1002 05ad 0B       		.uleb128 0xb
 1003 05ae ED000000 		.4byte	.LASF85
 1004 05b2 09       		.byte	0x9
 1005 05b3 39       		.byte	0x39
 1006 05b4 CE000000 		.4byte	0xce
 1007 05b8 08       		.byte	0x8
 1008 05b9 0B       		.uleb128 0xb
 1009 05ba AF050000 		.4byte	.LASF86
 1010 05be 09       		.byte	0x9
 1011 05bf 3A       		.byte	0x3a
 1012 05c0 CE000000 		.4byte	0xce
 1013 05c4 0C       		.byte	0xc
 1014 05c5 0B       		.uleb128 0xb
 1015 05c6 D70A0000 		.4byte	.LASF87
 1016 05ca 09       		.byte	0x9
 1017 05cb 3B       		.byte	0x3b
 1018 05cc CE000000 		.4byte	0xce
 1019 05d0 10       		.byte	0x10
 1020 05d1 0B       		.uleb128 0xb
 1021 05d2 64090000 		.4byte	.LASF88
 1022 05d6 09       		.byte	0x9
 1023 05d7 3C       		.byte	0x3c
 1024 05d8 CE000000 		.4byte	0xce
 1025 05dc 14       		.byte	0x14
 1026 05dd 0B       		.uleb128 0xb
 1027 05de B2060000 		.4byte	.LASF89
 1028 05e2 09       		.byte	0x9
 1029 05e3 3D       		.byte	0x3d
 1030 05e4 CE000000 		.4byte	0xce
 1031 05e8 18       		.byte	0x18
 1032 05e9 0B       		.uleb128 0xb
 1033 05ea AA0F0000 		.4byte	.LASF90
 1034 05ee 09       		.byte	0x9
 1035 05ef 3E       		.byte	0x3e
 1036 05f0 CE000000 		.4byte	0xce
 1037 05f4 1C       		.byte	0x1c
 1038 05f5 0B       		.uleb128 0xb
 1039 05f6 07090000 		.4byte	.LASF91
 1040 05fa 09       		.byte	0x9
 1041 05fb 3F       		.byte	0x3f
 1042 05fc CE000000 		.4byte	0xce
 1043 0600 20       		.byte	0x20
 1044 0601 0B       		.uleb128 0xb
 1045 0602 38070000 		.4byte	.LASF92
 1046 0606 09       		.byte	0x9
 1047 0607 40       		.byte	0x40
 1048 0608 CE000000 		.4byte	0xce
 1049 060c 24       		.byte	0x24
 1050 060d 0B       		.uleb128 0xb
 1051 060e 270C0000 		.4byte	.LASF93
 1052 0612 09       		.byte	0x9
ARM GAS  C:\Users\stijn\AppData\Local\Temp\ccVPn9Mg.s 			page 53


 1053 0613 43       		.byte	0x43
 1054 0614 A2000000 		.4byte	0xa2
 1055 0618 28       		.byte	0x28
 1056 0619 0B       		.uleb128 0xb
 1057 061a 9C040000 		.4byte	.LASF94
 1058 061e 09       		.byte	0x9
 1059 061f 44       		.byte	0x44
 1060 0620 A2000000 		.4byte	0xa2
 1061 0624 29       		.byte	0x29
 1062 0625 0B       		.uleb128 0xb
 1063 0626 BB060000 		.4byte	.LASF95
 1064 062a 09       		.byte	0x9
 1065 062b 45       		.byte	0x45
 1066 062c A2000000 		.4byte	0xa2
 1067 0630 2A       		.byte	0x2a
 1068 0631 0B       		.uleb128 0xb
 1069 0632 4D0C0000 		.4byte	.LASF96
 1070 0636 09       		.byte	0x9
 1071 0637 46       		.byte	0x46
 1072 0638 A2000000 		.4byte	0xa2
 1073 063c 2B       		.byte	0x2b
 1074 063d 0B       		.uleb128 0xb
 1075 063e 410C0000 		.4byte	.LASF97
 1076 0642 09       		.byte	0x9
 1077 0643 47       		.byte	0x47
 1078 0644 A2000000 		.4byte	0xa2
 1079 0648 2C       		.byte	0x2c
 1080 0649 0B       		.uleb128 0xb
 1081 064a 5E0D0000 		.4byte	.LASF98
 1082 064e 09       		.byte	0x9
 1083 064f 48       		.byte	0x48
 1084 0650 A2000000 		.4byte	0xa2
 1085 0654 2D       		.byte	0x2d
 1086 0655 0B       		.uleb128 0xb
 1087 0656 4F100000 		.4byte	.LASF99
 1088 065a 09       		.byte	0x9
 1089 065b 49       		.byte	0x49
 1090 065c A2000000 		.4byte	0xa2
 1091 0660 2E       		.byte	0x2e
 1092 0661 0B       		.uleb128 0xb
 1093 0662 900F0000 		.4byte	.LASF100
 1094 0666 09       		.byte	0x9
 1095 0667 4A       		.byte	0x4a
 1096 0668 A2000000 		.4byte	0xa2
 1097 066c 2F       		.byte	0x2f
 1098 066d 0B       		.uleb128 0xb
 1099 066e B6030000 		.4byte	.LASF101
 1100 0672 09       		.byte	0x9
 1101 0673 4B       		.byte	0x4b
 1102 0674 A2000000 		.4byte	0xa2
 1103 0678 30       		.byte	0x30
 1104 0679 0B       		.uleb128 0xb
 1105 067a FA090000 		.4byte	.LASF102
 1106 067e 09       		.byte	0x9
 1107 067f 4E       		.byte	0x4e
 1108 0680 A2000000 		.4byte	0xa2
 1109 0684 31       		.byte	0x31
ARM GAS  C:\Users\stijn\AppData\Local\Temp\ccVPn9Mg.s 			page 54


 1110 0685 0B       		.uleb128 0xb
 1111 0686 290F0000 		.4byte	.LASF103
 1112 068a 09       		.byte	0x9
 1113 068b 4F       		.byte	0x4f
 1114 068c A2000000 		.4byte	0xa2
 1115 0690 32       		.byte	0x32
 1116 0691 0B       		.uleb128 0xb
 1117 0692 C3090000 		.4byte	.LASF104
 1118 0696 09       		.byte	0x9
 1119 0697 50       		.byte	0x50
 1120 0698 A2000000 		.4byte	0xa2
 1121 069c 33       		.byte	0x33
 1122 069d 0B       		.uleb128 0xb
 1123 069e 5B070000 		.4byte	.LASF105
 1124 06a2 09       		.byte	0x9
 1125 06a3 51       		.byte	0x51
 1126 06a4 A2000000 		.4byte	0xa2
 1127 06a8 34       		.byte	0x34
 1128 06a9 0B       		.uleb128 0xb
 1129 06aa 8F050000 		.4byte	.LASF106
 1130 06ae 09       		.byte	0x9
 1131 06af 52       		.byte	0x52
 1132 06b0 AD000000 		.4byte	0xad
 1133 06b4 36       		.byte	0x36
 1134 06b5 0B       		.uleb128 0xb
 1135 06b6 00020000 		.4byte	.LASF107
 1136 06ba 09       		.byte	0x9
 1137 06bb 53       		.byte	0x53
 1138 06bc AD000000 		.4byte	0xad
 1139 06c0 38       		.byte	0x38
 1140 06c1 0B       		.uleb128 0xb
 1141 06c2 95090000 		.4byte	.LASF108
 1142 06c6 09       		.byte	0x9
 1143 06c7 54       		.byte	0x54
 1144 06c8 AD000000 		.4byte	0xad
 1145 06cc 3A       		.byte	0x3a
 1146 06cd 0B       		.uleb128 0xb
 1147 06ce BA010000 		.4byte	.LASF109
 1148 06d2 09       		.byte	0x9
 1149 06d3 55       		.byte	0x55
 1150 06d4 A2000000 		.4byte	0xa2
 1151 06d8 3C       		.byte	0x3c
 1152 06d9 0B       		.uleb128 0xb
 1153 06da 4D060000 		.4byte	.LASF110
 1154 06de 09       		.byte	0x9
 1155 06df 56       		.byte	0x56
 1156 06e0 A2000000 		.4byte	0xa2
 1157 06e4 3D       		.byte	0x3d
 1158 06e5 0B       		.uleb128 0xb
 1159 06e6 1B0B0000 		.4byte	.LASF111
 1160 06ea 09       		.byte	0x9
 1161 06eb 57       		.byte	0x57
 1162 06ec A2000000 		.4byte	0xa2
 1163 06f0 3E       		.byte	0x3e
 1164 06f1 0B       		.uleb128 0xb
 1165 06f2 69000000 		.4byte	.LASF112
 1166 06f6 09       		.byte	0x9
ARM GAS  C:\Users\stijn\AppData\Local\Temp\ccVPn9Mg.s 			page 55


 1167 06f7 58       		.byte	0x58
 1168 06f8 A2000000 		.4byte	0xa2
 1169 06fc 3F       		.byte	0x3f
 1170 06fd 0B       		.uleb128 0xb
 1171 06fe 6A010000 		.4byte	.LASF113
 1172 0702 09       		.byte	0x9
 1173 0703 59       		.byte	0x59
 1174 0704 A2000000 		.4byte	0xa2
 1175 0708 40       		.byte	0x40
 1176 0709 0B       		.uleb128 0xb
 1177 070a 170A0000 		.4byte	.LASF114
 1178 070e 09       		.byte	0x9
 1179 070f 5A       		.byte	0x5a
 1180 0710 A2000000 		.4byte	0xa2
 1181 0714 41       		.byte	0x41
 1182 0715 0B       		.uleb128 0xb
 1183 0716 C4040000 		.4byte	.LASF115
 1184 071a 09       		.byte	0x9
 1185 071b 5B       		.byte	0x5b
 1186 071c A2000000 		.4byte	0xa2
 1187 0720 42       		.byte	0x42
 1188 0721 0B       		.uleb128 0xb
 1189 0722 E1060000 		.4byte	.LASF116
 1190 0726 09       		.byte	0x9
 1191 0727 5C       		.byte	0x5c
 1192 0728 A2000000 		.4byte	0xa2
 1193 072c 43       		.byte	0x43
 1194 072d 0B       		.uleb128 0xb
 1195 072e D4070000 		.4byte	.LASF117
 1196 0732 09       		.byte	0x9
 1197 0733 5D       		.byte	0x5d
 1198 0734 A2000000 		.4byte	0xa2
 1199 0738 44       		.byte	0x44
 1200 0739 0B       		.uleb128 0xb
 1201 073a 5B0C0000 		.4byte	.LASF118
 1202 073e 09       		.byte	0x9
 1203 073f 5E       		.byte	0x5e
 1204 0740 CE000000 		.4byte	0xce
 1205 0744 48       		.byte	0x48
 1206 0745 0B       		.uleb128 0xb
 1207 0746 F6070000 		.4byte	.LASF119
 1208 074a 09       		.byte	0x9
 1209 074b 5F       		.byte	0x5f
 1210 074c CE000000 		.4byte	0xce
 1211 0750 4C       		.byte	0x4c
 1212 0751 0B       		.uleb128 0xb
 1213 0752 DC0E0000 		.4byte	.LASF120
 1214 0756 09       		.byte	0x9
 1215 0757 60       		.byte	0x60
 1216 0758 A2000000 		.4byte	0xa2
 1217 075c 50       		.byte	0x50
 1218 075d 0B       		.uleb128 0xb
 1219 075e 61060000 		.4byte	.LASF121
 1220 0762 09       		.byte	0x9
 1221 0763 61       		.byte	0x61
 1222 0764 A2000000 		.4byte	0xa2
 1223 0768 51       		.byte	0x51
ARM GAS  C:\Users\stijn\AppData\Local\Temp\ccVPn9Mg.s 			page 56


 1224 0769 0B       		.uleb128 0xb
 1225 076a 31090000 		.4byte	.LASF122
 1226 076e 09       		.byte	0x9
 1227 076f 62       		.byte	0x62
 1228 0770 A2000000 		.4byte	0xa2
 1229 0774 52       		.byte	0x52
 1230 0775 0B       		.uleb128 0xb
 1231 0776 6E0A0000 		.4byte	.LASF123
 1232 077a 09       		.byte	0x9
 1233 077b 63       		.byte	0x63
 1234 077c A2000000 		.4byte	0xa2
 1235 0780 53       		.byte	0x53
 1236 0781 0B       		.uleb128 0xb
 1237 0782 730E0000 		.4byte	.LASF124
 1238 0786 09       		.byte	0x9
 1239 0787 64       		.byte	0x64
 1240 0788 A2000000 		.4byte	0xa2
 1241 078c 54       		.byte	0x54
 1242 078d 0B       		.uleb128 0xb
 1243 078e 94060000 		.4byte	.LASF125
 1244 0792 09       		.byte	0x9
 1245 0793 65       		.byte	0x65
 1246 0794 A2000000 		.4byte	0xa2
 1247 0798 55       		.byte	0x55
 1248 0799 0B       		.uleb128 0xb
 1249 079a 00000000 		.4byte	.LASF126
 1250 079e 09       		.byte	0x9
 1251 079f 66       		.byte	0x66
 1252 07a0 A2000000 		.4byte	0xa2
 1253 07a4 56       		.byte	0x56
 1254 07a5 0B       		.uleb128 0xb
 1255 07a6 3E0B0000 		.4byte	.LASF127
 1256 07aa 09       		.byte	0x9
 1257 07ab 67       		.byte	0x67
 1258 07ac A2000000 		.4byte	0xa2
 1259 07b0 57       		.byte	0x57
 1260 07b1 0B       		.uleb128 0xb
 1261 07b2 39060000 		.4byte	.LASF128
 1262 07b6 09       		.byte	0x9
 1263 07b7 68       		.byte	0x68
 1264 07b8 A2000000 		.4byte	0xa2
 1265 07bc 58       		.byte	0x58
 1266 07bd 0B       		.uleb128 0xb
 1267 07be F20F0000 		.4byte	.LASF129
 1268 07c2 09       		.byte	0x9
 1269 07c3 69       		.byte	0x69
 1270 07c4 A2000000 		.4byte	0xa2
 1271 07c8 59       		.byte	0x59
 1272 07c9 0B       		.uleb128 0xb
 1273 07ca 1E0F0000 		.4byte	.LASF130
 1274 07ce 09       		.byte	0x9
 1275 07cf 6E       		.byte	0x6e
 1276 07d0 B8000000 		.4byte	0xb8
 1277 07d4 5A       		.byte	0x5a
 1278 07d5 0B       		.uleb128 0xb
 1279 07d6 0B010000 		.4byte	.LASF131
 1280 07da 09       		.byte	0x9
ARM GAS  C:\Users\stijn\AppData\Local\Temp\ccVPn9Mg.s 			page 57


 1281 07db 6F       		.byte	0x6f
 1282 07dc B8000000 		.4byte	0xb8
 1283 07e0 5C       		.byte	0x5c
 1284 07e1 0B       		.uleb128 0xb
 1285 07e2 0F090000 		.4byte	.LASF132
 1286 07e6 09       		.byte	0x9
 1287 07e7 70       		.byte	0x70
 1288 07e8 A2000000 		.4byte	0xa2
 1289 07ec 5E       		.byte	0x5e
 1290 07ed 0B       		.uleb128 0xb
 1291 07ee 370F0000 		.4byte	.LASF133
 1292 07f2 09       		.byte	0x9
 1293 07f3 71       		.byte	0x71
 1294 07f4 A2000000 		.4byte	0xa2
 1295 07f8 5F       		.byte	0x5f
 1296 07f9 0B       		.uleb128 0xb
 1297 07fa FA060000 		.4byte	.LASF134
 1298 07fe 09       		.byte	0x9
 1299 07ff 72       		.byte	0x72
 1300 0800 A2000000 		.4byte	0xa2
 1301 0804 60       		.byte	0x60
 1302 0805 0B       		.uleb128 0xb
 1303 0806 33080000 		.4byte	.LASF135
 1304 080a 09       		.byte	0x9
 1305 080b 73       		.byte	0x73
 1306 080c CE000000 		.4byte	0xce
 1307 0810 64       		.byte	0x64
 1308 0811 0B       		.uleb128 0xb
 1309 0812 63100000 		.4byte	.LASF136
 1310 0816 09       		.byte	0x9
 1311 0817 76       		.byte	0x76
 1312 0818 B8000000 		.4byte	0xb8
 1313 081c 68       		.byte	0x68
 1314 081d 0B       		.uleb128 0xb
 1315 081e E00A0000 		.4byte	.LASF137
 1316 0822 09       		.byte	0x9
 1317 0823 77       		.byte	0x77
 1318 0824 B8000000 		.4byte	0xb8
 1319 0828 6A       		.byte	0x6a
 1320 0829 0B       		.uleb128 0xb
 1321 082a 86090000 		.4byte	.LASF138
 1322 082e 09       		.byte	0x9
 1323 082f 78       		.byte	0x78
 1324 0830 B8000000 		.4byte	0xb8
 1325 0834 6C       		.byte	0x6c
 1326 0835 0B       		.uleb128 0xb
 1327 0836 6B020000 		.4byte	.LASF139
 1328 083a 09       		.byte	0x9
 1329 083b 79       		.byte	0x79
 1330 083c B8000000 		.4byte	0xb8
 1331 0840 6E       		.byte	0x6e
 1332 0841 0B       		.uleb128 0xb
 1333 0842 5D080000 		.4byte	.LASF140
 1334 0846 09       		.byte	0x9
 1335 0847 7B       		.byte	0x7b
 1336 0848 A2000000 		.4byte	0xa2
 1337 084c 70       		.byte	0x70
ARM GAS  C:\Users\stijn\AppData\Local\Temp\ccVPn9Mg.s 			page 58


 1338 084d 0B       		.uleb128 0xb
 1339 084e F1030000 		.4byte	.LASF141
 1340 0852 09       		.byte	0x9
 1341 0853 7C       		.byte	0x7c
 1342 0854 A2000000 		.4byte	0xa2
 1343 0858 71       		.byte	0x71
 1344 0859 0B       		.uleb128 0xb
 1345 085a 83020000 		.4byte	.LASF142
 1346 085e 09       		.byte	0x9
 1347 085f 7D       		.byte	0x7d
 1348 0860 A2000000 		.4byte	0xa2
 1349 0864 72       		.byte	0x72
 1350 0865 0B       		.uleb128 0xb
 1351 0866 91010000 		.4byte	.LASF143
 1352 086a 09       		.byte	0x9
 1353 086b 7E       		.byte	0x7e
 1354 086c A2000000 		.4byte	0xa2
 1355 0870 73       		.byte	0x73
 1356 0871 0B       		.uleb128 0xb
 1357 0872 850B0000 		.4byte	.LASF144
 1358 0876 09       		.byte	0x9
 1359 0877 80       		.byte	0x80
 1360 0878 B8000000 		.4byte	0xb8
 1361 087c 74       		.byte	0x74
 1362 087d 0B       		.uleb128 0xb
 1363 087e 800A0000 		.4byte	.LASF145
 1364 0882 09       		.byte	0x9
 1365 0883 81       		.byte	0x81
 1366 0884 B8000000 		.4byte	0xb8
 1367 0888 76       		.byte	0x76
 1368 0889 0B       		.uleb128 0xb
 1369 088a BD0F0000 		.4byte	.LASF146
 1370 088e 09       		.byte	0x9
 1371 088f 82       		.byte	0x82
 1372 0890 B8000000 		.4byte	0xb8
 1373 0894 78       		.byte	0x78
 1374 0895 0B       		.uleb128 0xb
 1375 0896 58050000 		.4byte	.LASF147
 1376 089a 09       		.byte	0x9
 1377 089b 83       		.byte	0x83
 1378 089c B8000000 		.4byte	0xb8
 1379 08a0 7A       		.byte	0x7a
 1380 08a1 0B       		.uleb128 0xb
 1381 08a2 030D0000 		.4byte	.LASF148
 1382 08a6 09       		.byte	0x9
 1383 08a7 86       		.byte	0x86
 1384 08a8 A2000000 		.4byte	0xa2
 1385 08ac 7C       		.byte	0x7c
 1386 08ad 0B       		.uleb128 0xb
 1387 08ae ED0E0000 		.4byte	.LASF149
 1388 08b2 09       		.byte	0x9
 1389 08b3 87       		.byte	0x87
 1390 08b4 A2000000 		.4byte	0xa2
 1391 08b8 7D       		.byte	0x7d
 1392 08b9 0B       		.uleb128 0xb
 1393 08ba 14050000 		.4byte	.LASF150
 1394 08be 09       		.byte	0x9
ARM GAS  C:\Users\stijn\AppData\Local\Temp\ccVPn9Mg.s 			page 59


 1395 08bf 88       		.byte	0x88
 1396 08c0 A2000000 		.4byte	0xa2
 1397 08c4 7E       		.byte	0x7e
 1398 08c5 0B       		.uleb128 0xb
 1399 08c6 7B040000 		.4byte	.LASF151
 1400 08ca 09       		.byte	0x9
 1401 08cb 89       		.byte	0x89
 1402 08cc A2000000 		.4byte	0xa2
 1403 08d0 7F       		.byte	0x7f
 1404 08d1 0B       		.uleb128 0xb
 1405 08d2 6D050000 		.4byte	.LASF152
 1406 08d6 09       		.byte	0x9
 1407 08d7 8A       		.byte	0x8a
 1408 08d8 A2000000 		.4byte	0xa2
 1409 08dc 80       		.byte	0x80
 1410 08dd 0B       		.uleb128 0xb
 1411 08de 52000000 		.4byte	.LASF153
 1412 08e2 09       		.byte	0x9
 1413 08e3 8D       		.byte	0x8d
 1414 08e4 CE000000 		.4byte	0xce
 1415 08e8 84       		.byte	0x84
 1416 08e9 0B       		.uleb128 0xb
 1417 08ea 180D0000 		.4byte	.LASF154
 1418 08ee 09       		.byte	0x9
 1419 08ef 8E       		.byte	0x8e
 1420 08f0 CE000000 		.4byte	0xce
 1421 08f4 88       		.byte	0x88
 1422 08f5 0B       		.uleb128 0xb
 1423 08f6 590F0000 		.4byte	.LASF155
 1424 08fa 09       		.byte	0x9
 1425 08fb 8F       		.byte	0x8f
 1426 08fc CE000000 		.4byte	0xce
 1427 0900 8C       		.byte	0x8c
 1428 0901 0B       		.uleb128 0xb
 1429 0902 CD0D0000 		.4byte	.LASF156
 1430 0906 09       		.byte	0x9
 1431 0907 90       		.byte	0x90
 1432 0908 CE000000 		.4byte	0xce
 1433 090c 90       		.byte	0x90
 1434 090d 0B       		.uleb128 0xb
 1435 090e 700B0000 		.4byte	.LASF157
 1436 0912 09       		.byte	0x9
 1437 0913 91       		.byte	0x91
 1438 0914 CE000000 		.4byte	0xce
 1439 0918 94       		.byte	0x94
 1440 0919 0B       		.uleb128 0xb
 1441 091a 06040000 		.4byte	.LASF158
 1442 091e 09       		.byte	0x9
 1443 091f 92       		.byte	0x92
 1444 0920 CE000000 		.4byte	0xce
 1445 0924 98       		.byte	0x98
 1446 0925 0B       		.uleb128 0xb
 1447 0926 3B0D0000 		.4byte	.LASF159
 1448 092a 09       		.byte	0x9
 1449 092b 93       		.byte	0x93
 1450 092c CE000000 		.4byte	0xce
 1451 0930 9C       		.byte	0x9c
ARM GAS  C:\Users\stijn\AppData\Local\Temp\ccVPn9Mg.s 			page 60


 1452 0931 0B       		.uleb128 0xb
 1453 0932 CB060000 		.4byte	.LASF160
 1454 0936 09       		.byte	0x9
 1455 0937 94       		.byte	0x94
 1456 0938 CE000000 		.4byte	0xce
 1457 093c A0       		.byte	0xa0
 1458 093d 0B       		.uleb128 0xb
 1459 093e F6000000 		.4byte	.LASF161
 1460 0942 09       		.byte	0x9
 1461 0943 95       		.byte	0x95
 1462 0944 B8000000 		.4byte	0xb8
 1463 0948 A4       		.byte	0xa4
 1464 0949 0B       		.uleb128 0xb
 1465 094a 5B0B0000 		.4byte	.LASF162
 1466 094e 09       		.byte	0x9
 1467 094f 96       		.byte	0x96
 1468 0950 B8000000 		.4byte	0xb8
 1469 0954 A6       		.byte	0xa6
 1470 0955 0B       		.uleb128 0xb
 1471 0956 7D0D0000 		.4byte	.LASF163
 1472 095a 09       		.byte	0x9
 1473 095b 97       		.byte	0x97
 1474 095c B8000000 		.4byte	0xb8
 1475 0960 A8       		.byte	0xa8
 1476 0961 0B       		.uleb128 0xb
 1477 0962 EB080000 		.4byte	.LASF164
 1478 0966 09       		.byte	0x9
 1479 0967 98       		.byte	0x98
 1480 0968 B8000000 		.4byte	0xb8
 1481 096c AA       		.byte	0xaa
 1482 096d 0B       		.uleb128 0xb
 1483 096e BC020000 		.4byte	.LASF165
 1484 0972 09       		.byte	0x9
 1485 0973 99       		.byte	0x99
 1486 0974 B8000000 		.4byte	0xb8
 1487 0978 AC       		.byte	0xac
 1488 0979 0B       		.uleb128 0xb
 1489 097a 380A0000 		.4byte	.LASF166
 1490 097e 09       		.byte	0x9
 1491 097f 9A       		.byte	0x9a
 1492 0980 B8000000 		.4byte	0xb8
 1493 0984 AE       		.byte	0xae
 1494 0985 0B       		.uleb128 0xb
 1495 0986 CA020000 		.4byte	.LASF167
 1496 098a 09       		.byte	0x9
 1497 098b 9D       		.byte	0x9d
 1498 098c B8000000 		.4byte	0xb8
 1499 0990 B0       		.byte	0xb0
 1500 0991 0B       		.uleb128 0xb
 1501 0992 280E0000 		.4byte	.LASF168
 1502 0996 09       		.byte	0x9
 1503 0997 9E       		.byte	0x9e
 1504 0998 CE000000 		.4byte	0xce
 1505 099c B4       		.byte	0xb4
 1506 099d 00       		.byte	0
 1507 099e 03       		.uleb128 0x3
 1508 099f 6E0F0000 		.4byte	.LASF169
ARM GAS  C:\Users\stijn\AppData\Local\Temp\ccVPn9Mg.s 			page 61


 1509 09a3 09       		.byte	0x9
 1510 09a4 9F       		.byte	0x9f
 1511 09a5 8D050000 		.4byte	0x58d
 1512 09a9 0F       		.uleb128 0xf
 1513 09aa A50C0000 		.4byte	.LASF170
 1514 09ae 0A       		.byte	0xa
 1515 09af F601     		.2byte	0x1f6
 1516 09b1 B5090000 		.4byte	0x9b5
 1517 09b5 02       		.uleb128 0x2
 1518 09b6 01       		.byte	0x1
 1519 09b7 08       		.byte	0x8
 1520 09b8 96070000 		.4byte	.LASF171
 1521 09bc 02       		.uleb128 0x2
 1522 09bd 04       		.byte	0x4
 1523 09be 04       		.byte	0x4
 1524 09bf C5060000 		.4byte	.LASF172
 1525 09c3 02       		.uleb128 0x2
 1526 09c4 08       		.byte	0x8
 1527 09c5 04       		.byte	0x4
 1528 09c6 7C060000 		.4byte	.LASF173
 1529 09ca 10       		.uleb128 0x10
 1530 09cb 04       		.byte	0x4
 1531 09cc 02       		.uleb128 0x2
 1532 09cd 01       		.byte	0x1
 1533 09ce 02       		.byte	0x2
 1534 09cf 83060000 		.4byte	.LASF174
 1535 09d3 11       		.uleb128 0x11
 1536 09d4 01       		.byte	0x1
 1537 09d5 3E000000 		.4byte	0x3e
 1538 09d9 0B       		.byte	0xb
 1539 09da 1304     		.2byte	0x413
 1540 09dc F9090000 		.4byte	0x9f9
 1541 09e0 12       		.uleb128 0x12
 1542 09e1 D9030000 		.4byte	.LASF175
 1543 09e5 00       		.byte	0
 1544 09e6 12       		.uleb128 0x12
 1545 09e7 C9050000 		.4byte	.LASF176
 1546 09eb 01       		.byte	0x1
 1547 09ec 12       		.uleb128 0x12
 1548 09ed 7E070000 		.4byte	.LASF177
 1549 09f1 02       		.byte	0x2
 1550 09f2 12       		.uleb128 0x12
 1551 09f3 77010000 		.4byte	.LASF178
 1552 09f7 03       		.byte	0x3
 1553 09f8 00       		.byte	0
 1554 09f9 0F       		.uleb128 0xf
 1555 09fa 1E100000 		.4byte	.LASF179
 1556 09fe 0B       		.byte	0xb
 1557 09ff 1804     		.2byte	0x418
 1558 0a01 D3090000 		.4byte	0x9d3
 1559 0a05 13       		.uleb128 0x13
 1560 0a06 78       		.byte	0x78
 1561 0a07 0B       		.byte	0xb
 1562 0a08 0205     		.2byte	0x502
 1563 0a0a D20A0000 		.4byte	0xad2
 1564 0a0e 14       		.uleb128 0x14
 1565 0a0f 06060000 		.4byte	.LASF180
ARM GAS  C:\Users\stijn\AppData\Local\Temp\ccVPn9Mg.s 			page 62


 1566 0a13 0B       		.byte	0xb
 1567 0a14 0405     		.2byte	0x504
 1568 0a16 CE000000 		.4byte	0xce
 1569 0a1a 00       		.byte	0
 1570 0a1b 14       		.uleb128 0x14
 1571 0a1c E20D0000 		.4byte	.LASF181
 1572 0a20 0B       		.byte	0xb
 1573 0a21 0505     		.2byte	0x505
 1574 0a23 CE000000 		.4byte	0xce
 1575 0a27 04       		.byte	0x4
 1576 0a28 14       		.uleb128 0x14
 1577 0a29 060B0000 		.4byte	.LASF182
 1578 0a2d 0B       		.byte	0xb
 1579 0a2e 0605     		.2byte	0x506
 1580 0a30 CE000000 		.4byte	0xce
 1581 0a34 08       		.byte	0x8
 1582 0a35 14       		.uleb128 0x14
 1583 0a36 510D0000 		.4byte	.LASF183
 1584 0a3a 0B       		.byte	0xb
 1585 0a3b 0705     		.2byte	0x507
 1586 0a3d CE000000 		.4byte	0xce
 1587 0a41 0C       		.byte	0xc
 1588 0a42 14       		.uleb128 0x14
 1589 0a43 A4050000 		.4byte	.LASF184
 1590 0a47 0B       		.byte	0xb
 1591 0a48 0805     		.2byte	0x508
 1592 0a4a CE000000 		.4byte	0xce
 1593 0a4e 10       		.byte	0x10
 1594 0a4f 14       		.uleb128 0x14
 1595 0a50 D3080000 		.4byte	.LASF185
 1596 0a54 0B       		.byte	0xb
 1597 0a55 0905     		.2byte	0x509
 1598 0a57 F9090000 		.4byte	0x9f9
 1599 0a5b 14       		.byte	0x14
 1600 0a5c 14       		.uleb128 0x14
 1601 0a5d B2070000 		.4byte	.LASF186
 1602 0a61 0B       		.byte	0xb
 1603 0a62 0A05     		.2byte	0x50a
 1604 0a64 CE000000 		.4byte	0xce
 1605 0a68 18       		.byte	0x18
 1606 0a69 14       		.uleb128 0x14
 1607 0a6a E5090000 		.4byte	.LASF187
 1608 0a6e 0B       		.byte	0xb
 1609 0a6f 0B05     		.2byte	0x50b
 1610 0a71 D20A0000 		.4byte	0xad2
 1611 0a75 1C       		.byte	0x1c
 1612 0a76 14       		.uleb128 0x14
 1613 0a77 5A100000 		.4byte	.LASF188
 1614 0a7b 0B       		.byte	0xb
 1615 0a7c 0C05     		.2byte	0x50c
 1616 0a7e CE000000 		.4byte	0xce
 1617 0a82 5C       		.byte	0x5c
 1618 0a83 14       		.uleb128 0x14
 1619 0a84 B0020000 		.4byte	.LASF189
 1620 0a88 0B       		.byte	0xb
 1621 0a89 0D05     		.2byte	0x50d
 1622 0a8b CE000000 		.4byte	0xce
ARM GAS  C:\Users\stijn\AppData\Local\Temp\ccVPn9Mg.s 			page 63


 1623 0a8f 60       		.byte	0x60
 1624 0a90 14       		.uleb128 0x14
 1625 0a91 DD080000 		.4byte	.LASF190
 1626 0a95 0B       		.byte	0xb
 1627 0a96 0E05     		.2byte	0x50e
 1628 0a98 CE000000 		.4byte	0xce
 1629 0a9c 64       		.byte	0x64
 1630 0a9d 14       		.uleb128 0x14
 1631 0a9e 340B0000 		.4byte	.LASF191
 1632 0aa2 0B       		.byte	0xb
 1633 0aa3 0F05     		.2byte	0x50f
 1634 0aa5 CE000000 		.4byte	0xce
 1635 0aa9 68       		.byte	0x68
 1636 0aaa 14       		.uleb128 0x14
 1637 0aab 92080000 		.4byte	.LASF192
 1638 0aaf 0B       		.byte	0xb
 1639 0ab0 1005     		.2byte	0x510
 1640 0ab2 CE000000 		.4byte	0xce
 1641 0ab6 6C       		.byte	0x6c
 1642 0ab7 14       		.uleb128 0x14
 1643 0ab8 9C0F0000 		.4byte	.LASF193
 1644 0abc 0B       		.byte	0xb
 1645 0abd 1105     		.2byte	0x511
 1646 0abf CC090000 		.4byte	0x9cc
 1647 0ac3 70       		.byte	0x70
 1648 0ac4 14       		.uleb128 0x14
 1649 0ac5 2C070000 		.4byte	.LASF194
 1650 0ac9 0B       		.byte	0xb
 1651 0aca 1205     		.2byte	0x512
 1652 0acc CE000000 		.4byte	0xce
 1653 0ad0 74       		.byte	0x74
 1654 0ad1 00       		.byte	0
 1655 0ad2 07       		.uleb128 0x7
 1656 0ad3 CE000000 		.4byte	0xce
 1657 0ad7 E20A0000 		.4byte	0xae2
 1658 0adb 08       		.uleb128 0x8
 1659 0adc D9000000 		.4byte	0xd9
 1660 0ae0 0F       		.byte	0xf
 1661 0ae1 00       		.byte	0
 1662 0ae2 0F       		.uleb128 0xf
 1663 0ae3 F2050000 		.4byte	.LASF195
 1664 0ae7 0B       		.byte	0xb
 1665 0ae8 1305     		.2byte	0x513
 1666 0aea 050A0000 		.4byte	0xa05
 1667 0aee 11       		.uleb128 0x11
 1668 0aef 01       		.byte	0x1
 1669 0af0 3E000000 		.4byte	0x3e
 1670 0af4 0C       		.byte	0xc
 1671 0af5 2402     		.2byte	0x224
 1672 0af7 080B0000 		.4byte	0xb08
 1673 0afb 12       		.uleb128 0x12
 1674 0afc 1E020000 		.4byte	.LASF196
 1675 0b00 00       		.byte	0
 1676 0b01 12       		.uleb128 0x12
 1677 0b02 D8020000 		.4byte	.LASF197
 1678 0b06 01       		.byte	0x1
 1679 0b07 00       		.byte	0
ARM GAS  C:\Users\stijn\AppData\Local\Temp\ccVPn9Mg.s 			page 64


 1680 0b08 0F       		.uleb128 0xf
 1681 0b09 53020000 		.4byte	.LASF198
 1682 0b0d 0C       		.byte	0xc
 1683 0b0e 2702     		.2byte	0x227
 1684 0b10 EE0A0000 		.4byte	0xaee
 1685 0b14 0F       		.uleb128 0xf
 1686 0b15 31010000 		.4byte	.LASF199
 1687 0b19 0C       		.byte	0xc
 1688 0b1a 3902     		.2byte	0x239
 1689 0b1c 200B0000 		.4byte	0xb20
 1690 0b20 15       		.uleb128 0x15
 1691 0b21 04       		.byte	0x4
 1692 0b22 260B0000 		.4byte	0xb26
 1693 0b26 16       		.uleb128 0x16
 1694 0b27 310B0000 		.4byte	0xb31
 1695 0b2b 17       		.uleb128 0x17
 1696 0b2c CE000000 		.4byte	0xce
 1697 0b30 00       		.byte	0
 1698 0b31 0F       		.uleb128 0xf
 1699 0b32 E7020000 		.4byte	.LASF200
 1700 0b36 0C       		.byte	0xc
 1701 0b37 4402     		.2byte	0x244
 1702 0b39 3D0B0000 		.4byte	0xb3d
 1703 0b3d 15       		.uleb128 0x15
 1704 0b3e 04       		.byte	0x4
 1705 0b3f 430B0000 		.4byte	0xb43
 1706 0b43 18       		.uleb128 0x18
 1707 0b44 080B0000 		.4byte	0xb08
 1708 0b48 520B0000 		.4byte	0xb52
 1709 0b4c 17       		.uleb128 0x17
 1710 0b4d CE000000 		.4byte	0xce
 1711 0b51 00       		.byte	0
 1712 0b52 19       		.uleb128 0x19
 1713 0b53 C2030000 		.4byte	.LASF224
 1714 0b57 4C       		.byte	0x4c
 1715 0b58 0C       		.byte	0xc
 1716 0b59 C302     		.2byte	0x2c3
 1717 0b5b 710C0000 		.4byte	0xc71
 1718 0b5f 14       		.uleb128 0x14
 1719 0b60 A8060000 		.4byte	.LASF201
 1720 0b64 0C       		.byte	0xc
 1721 0b65 C602     		.2byte	0x2c6
 1722 0b67 CC090000 		.4byte	0x9cc
 1723 0b6b 00       		.byte	0
 1724 0b6c 14       		.uleb128 0x14
 1725 0b6d 41090000 		.4byte	.LASF202
 1726 0b71 0C       		.byte	0xc
 1727 0b72 C702     		.2byte	0x2c7
 1728 0b74 CC090000 		.4byte	0x9cc
 1729 0b78 01       		.byte	0x1
 1730 0b79 14       		.uleb128 0x14
 1731 0b7a B20E0000 		.4byte	.LASF203
 1732 0b7e 0C       		.byte	0xc
 1733 0b7f C902     		.2byte	0x2c9
 1734 0b81 E0000000 		.4byte	0xe0
 1735 0b85 04       		.byte	0x4
 1736 0b86 14       		.uleb128 0x14
ARM GAS  C:\Users\stijn\AppData\Local\Temp\ccVPn9Mg.s 			page 65


 1737 0b87 75000000 		.4byte	.LASF204
 1738 0b8b 0C       		.byte	0xc
 1739 0b8c CB02     		.2byte	0x2cb
 1740 0b8e E0000000 		.4byte	0xe0
 1741 0b92 08       		.byte	0x8
 1742 0b93 14       		.uleb128 0x14
 1743 0b94 460A0000 		.4byte	.LASF205
 1744 0b98 0C       		.byte	0xc
 1745 0b99 CC02     		.2byte	0x2cc
 1746 0b9b CC090000 		.4byte	0x9cc
 1747 0b9f 0C       		.byte	0xc
 1748 0ba0 14       		.uleb128 0x14
 1749 0ba1 6E090000 		.4byte	.LASF206
 1750 0ba5 0C       		.byte	0xc
 1751 0ba6 CD02     		.2byte	0x2cd
 1752 0ba8 CC090000 		.4byte	0x9cc
 1753 0bac 0D       		.byte	0xd
 1754 0bad 14       		.uleb128 0x14
 1755 0bae F20A0000 		.4byte	.LASF207
 1756 0bb2 0C       		.byte	0xc
 1757 0bb3 CF02     		.2byte	0x2cf
 1758 0bb5 710C0000 		.4byte	0xc71
 1759 0bb9 10       		.byte	0x10
 1760 0bba 14       		.uleb128 0x14
 1761 0bbb E5070000 		.4byte	.LASF208
 1762 0bbf 0C       		.byte	0xc
 1763 0bc0 D002     		.2byte	0x2d0
 1764 0bc2 CE000000 		.4byte	0xce
 1765 0bc6 14       		.byte	0x14
 1766 0bc7 14       		.uleb128 0x14
 1767 0bc8 4F010000 		.4byte	.LASF209
 1768 0bcc 0C       		.byte	0xc
 1769 0bcd D102     		.2byte	0x2d1
 1770 0bcf E0000000 		.4byte	0xe0
 1771 0bd3 18       		.byte	0x18
 1772 0bd4 14       		.uleb128 0x14
 1773 0bd5 43070000 		.4byte	.LASF210
 1774 0bd9 0C       		.byte	0xc
 1775 0bda D202     		.2byte	0x2d2
 1776 0bdc E0000000 		.4byte	0xe0
 1777 0be0 1C       		.byte	0x1c
 1778 0be1 14       		.uleb128 0x14
 1779 0be2 4D0F0000 		.4byte	.LASF211
 1780 0be6 0C       		.byte	0xc
 1781 0be7 D402     		.2byte	0x2d4
 1782 0be9 E0000000 		.4byte	0xe0
 1783 0bed 20       		.byte	0x20
 1784 0bee 14       		.uleb128 0x14
 1785 0bef E2050000 		.4byte	.LASF212
 1786 0bf3 0C       		.byte	0xc
 1787 0bf4 D502     		.2byte	0x2d5
 1788 0bf6 770C0000 		.4byte	0xc77
 1789 0bfa 24       		.byte	0x24
 1790 0bfb 14       		.uleb128 0x14
 1791 0bfc 37040000 		.4byte	.LASF213
 1792 0c00 0C       		.byte	0xc
 1793 0c01 D702     		.2byte	0x2d7
ARM GAS  C:\Users\stijn\AppData\Local\Temp\ccVPn9Mg.s 			page 66


 1794 0c03 710C0000 		.4byte	0xc71
 1795 0c07 28       		.byte	0x28
 1796 0c08 14       		.uleb128 0x14
 1797 0c09 B7050000 		.4byte	.LASF214
 1798 0c0d 0C       		.byte	0xc
 1799 0c0e D802     		.2byte	0x2d8
 1800 0c10 CE000000 		.4byte	0xce
 1801 0c14 2C       		.byte	0x2c
 1802 0c15 14       		.uleb128 0x14
 1803 0c16 45040000 		.4byte	.LASF215
 1804 0c1a 0C       		.byte	0xc
 1805 0c1b D902     		.2byte	0x2d9
 1806 0c1d E0000000 		.4byte	0xe0
 1807 0c21 30       		.byte	0x30
 1808 0c22 14       		.uleb128 0x14
 1809 0c23 4C080000 		.4byte	.LASF216
 1810 0c27 0C       		.byte	0xc
 1811 0c28 DA02     		.2byte	0x2da
 1812 0c2a E0000000 		.4byte	0xe0
 1813 0c2e 34       		.byte	0x34
 1814 0c2f 14       		.uleb128 0x14
 1815 0c30 F2010000 		.4byte	.LASF217
 1816 0c34 0C       		.byte	0xc
 1817 0c35 DC02     		.2byte	0x2dc
 1818 0c37 710C0000 		.4byte	0xc71
 1819 0c3b 38       		.byte	0x38
 1820 0c3c 14       		.uleb128 0x14
 1821 0c3d 930A0000 		.4byte	.LASF218
 1822 0c41 0C       		.byte	0xc
 1823 0c42 DD02     		.2byte	0x2dd
 1824 0c44 CE000000 		.4byte	0xce
 1825 0c48 3C       		.byte	0x3c
 1826 0c49 14       		.uleb128 0x14
 1827 0c4a 270A0000 		.4byte	.LASF219
 1828 0c4e 0C       		.byte	0xc
 1829 0c4f DE02     		.2byte	0x2de
 1830 0c51 E0000000 		.4byte	0xe0
 1831 0c55 40       		.byte	0x40
 1832 0c56 14       		.uleb128 0x14
 1833 0c57 73060000 		.4byte	.LASF220
 1834 0c5b 0C       		.byte	0xc
 1835 0c5c E402     		.2byte	0x2e4
 1836 0c5e 140B0000 		.4byte	0xb14
 1837 0c62 44       		.byte	0x44
 1838 0c63 14       		.uleb128 0x14
 1839 0c64 17020000 		.4byte	.LASF221
 1840 0c68 0C       		.byte	0xc
 1841 0c69 EB02     		.2byte	0x2eb
 1842 0c6b 310B0000 		.4byte	0xb31
 1843 0c6f 48       		.byte	0x48
 1844 0c70 00       		.byte	0
 1845 0c71 15       		.uleb128 0x15
 1846 0c72 04       		.byte	0x4
 1847 0c73 A2000000 		.4byte	0xa2
 1848 0c77 05       		.uleb128 0x5
 1849 0c78 CC090000 		.4byte	0x9cc
 1850 0c7c 0F       		.uleb128 0xf
ARM GAS  C:\Users\stijn\AppData\Local\Temp\ccVPn9Mg.s 			page 67


 1851 0c7d D90F0000 		.4byte	.LASF222
 1852 0c81 0C       		.byte	0xc
 1853 0c82 EE02     		.2byte	0x2ee
 1854 0c84 520B0000 		.4byte	0xb52
 1855 0c88 0F       		.uleb128 0xf
 1856 0c89 B4080000 		.4byte	.LASF223
 1857 0c8d 0D       		.byte	0xd
 1858 0c8e D901     		.2byte	0x1d9
 1859 0c90 200B0000 		.4byte	0xb20
 1860 0c94 19       		.uleb128 0x19
 1861 0c95 E1040000 		.4byte	.LASF225
 1862 0c99 38       		.byte	0x38
 1863 0c9a 0D       		.byte	0xd
 1864 0c9b 7502     		.2byte	0x275
 1865 0c9d 580D0000 		.4byte	0xd58
 1866 0ca1 14       		.uleb128 0x14
 1867 0ca2 E4000000 		.4byte	.LASF226
 1868 0ca6 0D       		.byte	0xd
 1869 0ca7 7802     		.2byte	0x278
 1870 0ca9 E0000000 		.4byte	0xe0
 1871 0cad 00       		.byte	0
 1872 0cae 14       		.uleb128 0x14
 1873 0caf 1C040000 		.4byte	.LASF227
 1874 0cb3 0D       		.byte	0xd
 1875 0cb4 7902     		.2byte	0x279
 1876 0cb6 E0000000 		.4byte	0xe0
 1877 0cba 04       		.byte	0x4
 1878 0cbb 14       		.uleb128 0x14
 1879 0cbc B80A0000 		.4byte	.LASF228
 1880 0cc0 0D       		.byte	0xd
 1881 0cc1 7B02     		.2byte	0x27b
 1882 0cc3 CA090000 		.4byte	0x9ca
 1883 0cc7 08       		.byte	0x8
 1884 0cc8 14       		.uleb128 0x14
 1885 0cc9 37020000 		.4byte	.LASF229
 1886 0ccd 0D       		.byte	0xd
 1887 0cce 7C02     		.2byte	0x27c
 1888 0cd0 CE000000 		.4byte	0xce
 1889 0cd4 0C       		.byte	0xc
 1890 0cd5 14       		.uleb128 0x14
 1891 0cd6 B5090000 		.4byte	.LASF230
 1892 0cda 0D       		.byte	0xd
 1893 0cdb 7D02     		.2byte	0x27d
 1894 0cdd E0000000 		.4byte	0xe0
 1895 0ce1 10       		.byte	0x10
 1896 0ce2 14       		.uleb128 0x14
 1897 0ce3 C6070000 		.4byte	.LASF231
 1898 0ce7 0D       		.byte	0xd
 1899 0ce8 7E02     		.2byte	0x27e
 1900 0cea E0000000 		.4byte	0xe0
 1901 0cee 14       		.byte	0x14
 1902 0cef 14       		.uleb128 0x14
 1903 0cf0 33060000 		.4byte	.LASF232
 1904 0cf4 0D       		.byte	0xd
 1905 0cf5 8002     		.2byte	0x280
 1906 0cf7 CA090000 		.4byte	0x9ca
 1907 0cfb 18       		.byte	0x18
ARM GAS  C:\Users\stijn\AppData\Local\Temp\ccVPn9Mg.s 			page 68


 1908 0cfc 14       		.uleb128 0x14
 1909 0cfd 73100000 		.4byte	.LASF233
 1910 0d01 0D       		.byte	0xd
 1911 0d02 8102     		.2byte	0x281
 1912 0d04 CE000000 		.4byte	0xce
 1913 0d08 1C       		.byte	0x1c
 1914 0d09 14       		.uleb128 0x14
 1915 0d0a 19080000 		.4byte	.LASF234
 1916 0d0e 0D       		.byte	0xd
 1917 0d0f 8202     		.2byte	0x282
 1918 0d11 E0000000 		.4byte	0xe0
 1919 0d15 20       		.byte	0x20
 1920 0d16 14       		.uleb128 0x14
 1921 0d17 5D0A0000 		.4byte	.LASF235
 1922 0d1b 0D       		.byte	0xd
 1923 0d1c 8402     		.2byte	0x284
 1924 0d1e CA090000 		.4byte	0x9ca
 1925 0d22 24       		.byte	0x24
 1926 0d23 14       		.uleb128 0x14
 1927 0d24 F0090000 		.4byte	.LASF236
 1928 0d28 0D       		.byte	0xd
 1929 0d29 8502     		.2byte	0x285
 1930 0d2b CE000000 		.4byte	0xce
 1931 0d2f 28       		.byte	0x28
 1932 0d30 14       		.uleb128 0x14
 1933 0d31 C40C0000 		.4byte	.LASF237
 1934 0d35 0D       		.byte	0xd
 1935 0d36 8602     		.2byte	0x286
 1936 0d38 E0000000 		.4byte	0xe0
 1937 0d3c 2C       		.byte	0x2c
 1938 0d3d 14       		.uleb128 0x14
 1939 0d3e 73060000 		.4byte	.LASF220
 1940 0d42 0D       		.byte	0xd
 1941 0d43 8B02     		.2byte	0x28b
 1942 0d45 880C0000 		.4byte	0xc88
 1943 0d49 30       		.byte	0x30
 1944 0d4a 14       		.uleb128 0x14
 1945 0d4b 22080000 		.4byte	.LASF238
 1946 0d4f 0D       		.byte	0xd
 1947 0d50 8E02     		.2byte	0x28e
 1948 0d52 CE000000 		.4byte	0xce
 1949 0d56 34       		.byte	0x34
 1950 0d57 00       		.byte	0
 1951 0d58 0F       		.uleb128 0xf
 1952 0d59 AA040000 		.4byte	.LASF239
 1953 0d5d 0D       		.byte	0xd
 1954 0d5e 9102     		.2byte	0x291
 1955 0d60 940C0000 		.4byte	0xc94
 1956 0d64 09       		.uleb128 0x9
 1957 0d65 14       		.byte	0x14
 1958 0d66 03       		.byte	0x3
 1959 0d67 3B       		.byte	0x3b
 1960 0d68 A90D0000 		.4byte	0xda9
 1961 0d6c 0B       		.uleb128 0xb
 1962 0d6d E6010000 		.4byte	.LASF240
 1963 0d71 03       		.byte	0x3
 1964 0d72 3D       		.byte	0x3d
ARM GAS  C:\Users\stijn\AppData\Local\Temp\ccVPn9Mg.s 			page 69


 1965 0d73 CE000000 		.4byte	0xce
 1966 0d77 00       		.byte	0
 1967 0d78 0B       		.uleb128 0xb
 1968 0d79 D5040000 		.4byte	.LASF241
 1969 0d7d 03       		.byte	0x3
 1970 0d7e 3E       		.byte	0x3e
 1971 0d7f CE000000 		.4byte	0xce
 1972 0d83 04       		.byte	0x4
 1973 0d84 0B       		.uleb128 0xb
 1974 0d85 0B020000 		.4byte	.LASF242
 1975 0d89 03       		.byte	0x3
 1976 0d8a 3F       		.byte	0x3f
 1977 0d8b A90D0000 		.4byte	0xda9
 1978 0d8f 08       		.byte	0x8
 1979 0d90 0B       		.uleb128 0xb
 1980 0d91 F80C0000 		.4byte	.LASF243
 1981 0d95 03       		.byte	0x3
 1982 0d96 40       		.byte	0x40
 1983 0d97 CE000000 		.4byte	0xce
 1984 0d9b 0C       		.byte	0xc
 1985 0d9c 0B       		.uleb128 0xb
 1986 0d9d 830E0000 		.4byte	.LASF244
 1987 0da1 03       		.byte	0x3
 1988 0da2 45       		.byte	0x45
 1989 0da3 CE000000 		.4byte	0xce
 1990 0da7 10       		.byte	0x10
 1991 0da8 00       		.byte	0
 1992 0da9 15       		.uleb128 0x15
 1993 0daa 04       		.byte	0x4
 1994 0dab AF0D0000 		.4byte	0xdaf
 1995 0daf 06       		.uleb128 0x6
 1996 0db0 E20A0000 		.4byte	0xae2
 1997 0db4 03       		.uleb128 0x3
 1998 0db5 80080000 		.4byte	.LASF245
 1999 0db9 03       		.byte	0x3
 2000 0dba 48       		.byte	0x48
 2001 0dbb 640D0000 		.4byte	0xd64
 2002 0dbf 03       		.uleb128 0x3
 2003 0dc0 630A0000 		.4byte	.LASF246
 2004 0dc4 0E       		.byte	0xe
 2005 0dc5 3F       		.byte	0x3f
 2006 0dc6 CE000000 		.4byte	0xce
 2007 0dca 09       		.uleb128 0x9
 2008 0dcb 10       		.byte	0x10
 2009 0dcc 0F       		.byte	0xf
 2010 0dcd 1C       		.byte	0x1c
 2011 0dce 030E0000 		.4byte	0xe03
 2012 0dd2 0B       		.uleb128 0xb
 2013 0dd3 A40D0000 		.4byte	.LASF247
 2014 0dd7 0F       		.byte	0xf
 2015 0dd8 1D       		.byte	0x1d
 2016 0dd9 030E0000 		.4byte	0xe03
 2017 0ddd 00       		.byte	0
 2018 0dde 0A       		.uleb128 0xa
 2019 0ddf 70696E00 		.ascii	"pin\000"
 2020 0de3 0F       		.byte	0xf
 2021 0de4 1E       		.byte	0x1e
ARM GAS  C:\Users\stijn\AppData\Local\Temp\ccVPn9Mg.s 			page 70


 2022 0de5 9B000000 		.4byte	0x9b
 2023 0de9 04       		.byte	0x4
 2024 0dea 0B       		.uleb128 0xb
 2025 0deb 41000000 		.4byte	.LASF248
 2026 0def 0F       		.byte	0xf
 2027 0df0 1F       		.byte	0x1f
 2028 0df1 BF0D0000 		.4byte	0xdbf
 2029 0df5 08       		.byte	0x8
 2030 0df6 0B       		.uleb128 0xb
 2031 0df7 130B0000 		.4byte	.LASF249
 2032 0dfb 0F       		.byte	0xf
 2033 0dfc 20       		.byte	0x20
 2034 0dfd A2000000 		.4byte	0xa2
 2035 0e01 0C       		.byte	0xc
 2036 0e02 00       		.byte	0
 2037 0e03 15       		.uleb128 0x15
 2038 0e04 04       		.byte	0x4
 2039 0e05 6E050000 		.4byte	0x56e
 2040 0e09 1A       		.uleb128 0x1a
 2041 0e0a 434800   		.ascii	"CH\000"
 2042 0e0d 0F       		.byte	0xf
 2043 0e0e 21       		.byte	0x21
 2044 0e0f CA0D0000 		.4byte	0xdca
 2045 0e13 1B       		.uleb128 0x1b
 2046 0e14 81050000 		.4byte	.LASF283
 2047 0e18 02       		.byte	0x2
 2048 0e19 2503     		.2byte	0x325
 2049 0e1b 03       		.byte	0x3
 2050 0e1c 450E0000 		.4byte	0xe45
 2051 0e20 1C       		.uleb128 0x1c
 2052 0e21 D0040000 		.4byte	.LASF250
 2053 0e25 02       		.byte	0x2
 2054 0e26 2503     		.2byte	0x325
 2055 0e28 030E0000 		.4byte	0xe03
 2056 0e2c 1C       		.uleb128 0x1c
 2057 0e2d FE0E0000 		.4byte	.LASF251
 2058 0e31 02       		.byte	0x2
 2059 0e32 2503     		.2byte	0x325
 2060 0e34 CE000000 		.4byte	0xce
 2061 0e38 1C       		.uleb128 0x1c
 2062 0e39 15060000 		.4byte	.LASF252
 2063 0e3d 02       		.byte	0x2
 2064 0e3e 2503     		.2byte	0x325
 2065 0e40 CE000000 		.4byte	0xce
 2066 0e44 00       		.byte	0
 2067 0e45 1D       		.uleb128 0x1d
 2068 0e46 9C050000 		.4byte	.LASF284
 2069 0e4a 01       		.byte	0x1
 2070 0e4b 1C       		.byte	0x1c
 2071 0e4c 00000000 		.4byte	.LFB560
 2072 0e50 10000000 		.4byte	.LFE560-.LFB560
 2073 0e54 01       		.uleb128 0x1
 2074 0e55 9C       		.byte	0x9c
 2075 0e56 760E0000 		.4byte	0xe76
 2076 0e5a 1E       		.uleb128 0x1e
 2077 0e5b 06000000 		.4byte	.LVL0
 2078 0e5f 94110000 		.4byte	0x1194
ARM GAS  C:\Users\stijn\AppData\Local\Temp\ccVPn9Mg.s 			page 71


 2079 0e63 1E       		.uleb128 0x1e
 2080 0e64 0A000000 		.4byte	.LVL1
 2081 0e68 9F110000 		.4byte	0x119f
 2082 0e6c 1E       		.uleb128 0x1e
 2083 0e6d 0E000000 		.4byte	.LVL2
 2084 0e71 AA110000 		.4byte	0x11aa
 2085 0e75 00       		.byte	0
 2086 0e76 1F       		.uleb128 0x1f
 2087 0e77 25040000 		.4byte	.LASF261
 2088 0e7b 01       		.byte	0x1
 2089 0e7c 25       		.byte	0x25
 2090 0e7d 00000000 		.4byte	.LFB561
 2091 0e81 2C000000 		.4byte	.LFE561-.LFB561
 2092 0e85 01       		.uleb128 0x1
 2093 0e86 9C       		.byte	0x9c
 2094 0e87 DF0E0000 		.4byte	0xedf
 2095 0e8b 20       		.uleb128 0x20
 2096 0e8c 970C0000 		.4byte	.LASF253
 2097 0e90 01       		.byte	0x1
 2098 0e91 27       		.byte	0x27
 2099 0e92 BF0D0000 		.4byte	0xdbf
 2100 0e96 02       		.uleb128 0x2
 2101 0e97 91       		.byte	0x91
 2102 0e98 74       		.sleb128 -12
 2103 0e99 21       		.uleb128 0x21
 2104 0e9a 290B0000 		.4byte	.LASF254
 2105 0e9e 01       		.byte	0x1
 2106 0e9f 28       		.byte	0x28
 2107 0ea0 DF0E0000 		.4byte	0xedf
 2108 0ea4 1027     		.2byte	0x2710
 2109 0ea6 22       		.uleb128 0x22
 2110 0ea7 5F040000 		.4byte	.LASF255
 2111 0eab 01       		.byte	0x1
 2112 0eac 2A       		.byte	0x2a
 2113 0ead AD000000 		.4byte	0xad
 2114 0eb1 00000000 		.4byte	.LLST0
 2115 0eb5 1E       		.uleb128 0x1e
 2116 0eb6 08000000 		.4byte	.LVL4
 2117 0eba B5110000 		.4byte	0x11b5
 2118 0ebe 1E       		.uleb128 0x1e
 2119 0ebf 0C000000 		.4byte	.LVL5
 2120 0ec3 C0110000 		.4byte	0x11c0
 2121 0ec7 23       		.uleb128 0x23
 2122 0ec8 18000000 		.4byte	.LVL7
 2123 0ecc CC110000 		.4byte	0x11cc
 2124 0ed0 24       		.uleb128 0x24
 2125 0ed1 01       		.uleb128 0x1
 2126 0ed2 50       		.byte	0x50
 2127 0ed3 02       		.uleb128 0x2
 2128 0ed4 91       		.byte	0x91
 2129 0ed5 74       		.sleb128 -12
 2130 0ed6 24       		.uleb128 0x24
 2131 0ed7 01       		.uleb128 0x1
 2132 0ed8 51       		.byte	0x51
 2133 0ed9 03       		.uleb128 0x3
 2134 0eda 0A       		.byte	0xa
 2135 0edb 1027     		.2byte	0x2710
ARM GAS  C:\Users\stijn\AppData\Local\Temp\ccVPn9Mg.s 			page 72


 2136 0edd 00       		.byte	0
 2137 0ede 00       		.byte	0
 2138 0edf 06       		.uleb128 0x6
 2139 0ee0 BF0D0000 		.4byte	0xdbf
 2140 0ee4 25       		.uleb128 0x25
 2141 0ee5 BD0D0000 		.4byte	.LASF285
 2142 0ee9 03       		.byte	0x3
 2143 0eea D503     		.2byte	0x3d5
 2144 0eec AD000000 		.4byte	0xad
 2145 0ef0 03       		.byte	0x3
 2146 0ef1 020F0000 		.4byte	0xf02
 2147 0ef5 1C       		.uleb128 0x1c
 2148 0ef6 79070000 		.4byte	.LASF256
 2149 0efa 03       		.byte	0x3
 2150 0efb D503     		.2byte	0x3d5
 2151 0efd CE000000 		.4byte	0xce
 2152 0f01 00       		.byte	0
 2153 0f02 26       		.uleb128 0x26
 2154 0f03 A2020000 		.4byte	.LASF286
 2155 0f07 01       		.byte	0x1
 2156 0f08 3D       		.byte	0x3d
 2157 0f09 00000000 		.4byte	.LFB562
 2158 0f0d 94000000 		.4byte	.LFE562-.LFB562
 2159 0f11 01       		.uleb128 0x1
 2160 0f12 9C       		.byte	0x9c
 2161 0f13 9E100000 		.4byte	0x109e
 2162 0f17 27       		.uleb128 0x27
 2163 0f18 22070000 		.4byte	.LASF287
 2164 0f1c 01       		.byte	0x1
 2165 0f1d 3D       		.byte	0x3d
 2166 0f1e CA090000 		.4byte	0x9ca
 2167 0f22 14000000 		.4byte	.LLST1
 2168 0f26 22       		.uleb128 0x22
 2169 0f27 82000000 		.4byte	.LASF257
 2170 0f2b 01       		.byte	0x1
 2171 0f2c 3E       		.byte	0x3e
 2172 0f2d 9E100000 		.4byte	0x109e
 2173 0f31 32000000 		.4byte	.LLST2
 2174 0f35 20       		.uleb128 0x20
 2175 0f36 970C0000 		.4byte	.LASF253
 2176 0f3a 01       		.byte	0x1
 2177 0f3b 41       		.byte	0x41
 2178 0f3c BF0D0000 		.4byte	0xdbf
 2179 0f40 02       		.uleb128 0x2
 2180 0f41 91       		.byte	0x91
 2181 0f42 64       		.sleb128 -28
 2182 0f43 20       		.uleb128 0x20
 2183 0f44 290B0000 		.4byte	.LASF254
 2184 0f48 01       		.byte	0x1
 2185 0f49 42       		.byte	0x42
 2186 0f4a DF0E0000 		.4byte	0xedf
 2187 0f4e 01       		.uleb128 0x1
 2188 0f4f 55       		.byte	0x55
 2189 0f50 28       		.uleb128 0x28
 2190 0f51 5F040000 		.4byte	.LASF255
 2191 0f55 01       		.byte	0x1
 2192 0f56 44       		.byte	0x44
ARM GAS  C:\Users\stijn\AppData\Local\Temp\ccVPn9Mg.s 			page 73


 2193 0f57 AD000000 		.4byte	0xad
 2194 0f5b 00       		.byte	0
 2195 0f5c 28       		.uleb128 0x28
 2196 0f5d 8E0E0000 		.4byte	.LASF258
 2197 0f61 01       		.byte	0x1
 2198 0f62 45       		.byte	0x45
 2199 0f63 AD000000 		.4byte	0xad
 2200 0f67 00       		.byte	0
 2201 0f68 28       		.uleb128 0x28
 2202 0f69 9A0E0000 		.4byte	.LASF259
 2203 0f6d 01       		.byte	0x1
 2204 0f6e 46       		.byte	0x46
 2205 0f6f AD000000 		.4byte	0xad
 2206 0f73 00       		.byte	0
 2207 0f74 28       		.uleb128 0x28
 2208 0f75 A60E0000 		.4byte	.LASF260
 2209 0f79 01       		.byte	0x1
 2210 0f7a 47       		.byte	0x47
 2211 0f7b AD000000 		.4byte	0xad
 2212 0f7f 00       		.byte	0
 2213 0f80 29       		.uleb128 0x29
 2214 0f81 130E0000 		.4byte	0xe13
 2215 0f85 1A000000 		.4byte	.LBB12
 2216 0f89 16000000 		.4byte	.LBE12-.LBB12
 2217 0f8d 01       		.byte	0x1
 2218 0f8e 53       		.byte	0x53
 2219 0f8f C60F0000 		.4byte	0xfc6
 2220 0f93 2A       		.uleb128 0x2a
 2221 0f94 380E0000 		.4byte	0xe38
 2222 0f98 01       		.byte	0x1
 2223 0f99 2B       		.uleb128 0x2b
 2224 0f9a 2C0E0000 		.4byte	0xe2c
 2225 0f9e 50000000 		.4byte	.LLST3
 2226 0fa2 2B       		.uleb128 0x2b
 2227 0fa3 200E0000 		.4byte	0xe20
 2228 0fa7 63000000 		.4byte	.LLST4
 2229 0fab 23       		.uleb128 0x23
 2230 0fac 28000000 		.4byte	.LVL15
 2231 0fb0 D8110000 		.4byte	0x11d8
 2232 0fb4 24       		.uleb128 0x24
 2233 0fb5 01       		.uleb128 0x1
 2234 0fb6 50       		.byte	0x50
 2235 0fb7 05       		.uleb128 0x5
 2236 0fb8 03       		.byte	0x3
 2237 0fb9 00000000 		.4byte	.LC0
 2238 0fbd 24       		.uleb128 0x24
 2239 0fbe 01       		.uleb128 0x1
 2240 0fbf 51       		.byte	0x51
 2241 0fc0 03       		.uleb128 0x3
 2242 0fc1 0A       		.byte	0xa
 2243 0fc2 2703     		.2byte	0x327
 2244 0fc4 00       		.byte	0
 2245 0fc5 00       		.byte	0
 2246 0fc6 29       		.uleb128 0x29
 2247 0fc7 130E0000 		.4byte	0xe13
 2248 0fcb 46000000 		.4byte	.LBB14
 2249 0fcf 14000000 		.4byte	.LBE14-.LBB14
ARM GAS  C:\Users\stijn\AppData\Local\Temp\ccVPn9Mg.s 			page 74


 2250 0fd3 01       		.byte	0x1
 2251 0fd4 58       		.byte	0x58
 2252 0fd5 0F100000 		.4byte	0x100f
 2253 0fd9 2B       		.uleb128 0x2b
 2254 0fda 380E0000 		.4byte	0xe38
 2255 0fde 76000000 		.4byte	.LLST5
 2256 0fe2 2B       		.uleb128 0x2b
 2257 0fe3 2C0E0000 		.4byte	0xe2c
 2258 0fe7 8A000000 		.4byte	.LLST6
 2259 0feb 2B       		.uleb128 0x2b
 2260 0fec 200E0000 		.4byte	0xe20
 2261 0ff0 9D000000 		.4byte	.LLST7
 2262 0ff4 23       		.uleb128 0x23
 2263 0ff5 54000000 		.4byte	.LVL21
 2264 0ff9 D8110000 		.4byte	0x11d8
 2265 0ffd 24       		.uleb128 0x24
 2266 0ffe 01       		.uleb128 0x1
 2267 0fff 50       		.byte	0x50
 2268 1000 05       		.uleb128 0x5
 2269 1001 03       		.byte	0x3
 2270 1002 00000000 		.4byte	.LC0
 2271 1006 24       		.uleb128 0x24
 2272 1007 01       		.uleb128 0x1
 2273 1008 51       		.byte	0x51
 2274 1009 03       		.uleb128 0x3
 2275 100a 0A       		.byte	0xa
 2276 100b 2703     		.2byte	0x327
 2277 100d 00       		.byte	0
 2278 100e 00       		.byte	0
 2279 100f 29       		.uleb128 0x29
 2280 1010 E40E0000 		.4byte	0xee4
 2281 1014 5A000000 		.4byte	.LBB16
 2282 1018 3A000000 		.4byte	.LBE16-.LBB16
 2283 101c 01       		.byte	0x1
 2284 101d 59       		.byte	0x59
 2285 101e 5F100000 		.4byte	0x105f
 2286 1022 2A       		.uleb128 0x2a
 2287 1023 F50E0000 		.4byte	0xef5
 2288 1027 00       		.byte	0
 2289 1028 2C       		.uleb128 0x2c
 2290 1029 76000000 		.4byte	.LVL23
 2291 102d D8110000 		.4byte	0x11d8
 2292 1031 46100000 		.4byte	0x1046
 2293 1035 24       		.uleb128 0x24
 2294 1036 01       		.uleb128 0x1
 2295 1037 50       		.byte	0x50
 2296 1038 05       		.uleb128 0x5
 2297 1039 03       		.byte	0x3
 2298 103a 40000000 		.4byte	.LC1
 2299 103e 24       		.uleb128 0x24
 2300 103f 01       		.uleb128 0x1
 2301 1040 51       		.byte	0x51
 2302 1041 03       		.uleb128 0x3
 2303 1042 0A       		.byte	0xa
 2304 1043 D803     		.2byte	0x3d8
 2305 1045 00       		.byte	0
 2306 1046 23       		.uleb128 0x23
ARM GAS  C:\Users\stijn\AppData\Local\Temp\ccVPn9Mg.s 			page 75


 2307 1047 7E000000 		.4byte	.LVL24
 2308 104b E4110000 		.4byte	0x11e4
 2309 104f 24       		.uleb128 0x24
 2310 1050 01       		.uleb128 0x1
 2311 1051 50       		.byte	0x50
 2312 1052 05       		.uleb128 0x5
 2313 1053 0C       		.byte	0xc
 2314 1054 00001D41 		.4byte	0x411d0000
 2315 1058 24       		.uleb128 0x24
 2316 1059 01       		.uleb128 0x1
 2317 105a 51       		.byte	0x51
 2318 105b 01       		.uleb128 0x1
 2319 105c 30       		.byte	0x30
 2320 105d 00       		.byte	0
 2321 105e 00       		.byte	0
 2322 105f 1E       		.uleb128 0x1e
 2323 1060 0C000000 		.4byte	.LVL12
 2324 1064 C0110000 		.4byte	0x11c0
 2325 1068 2C       		.uleb128 0x2c
 2326 1069 16000000 		.4byte	.LVL13
 2327 106d CC110000 		.4byte	0x11cc
 2328 1071 82100000 		.4byte	0x1082
 2329 1075 24       		.uleb128 0x24
 2330 1076 01       		.uleb128 0x1
 2331 1077 50       		.byte	0x50
 2332 1078 02       		.uleb128 0x2
 2333 1079 91       		.byte	0x91
 2334 107a 64       		.sleb128 -28
 2335 107b 24       		.uleb128 0x24
 2336 107c 01       		.uleb128 0x1
 2337 107d 51       		.byte	0x51
 2338 107e 02       		.uleb128 0x2
 2339 107f 75       		.byte	0x75
 2340 1080 00       		.sleb128 0
 2341 1081 00       		.byte	0
 2342 1082 1E       		.uleb128 0x1e
 2343 1083 34000000 		.4byte	.LVL16
 2344 1087 F0110000 		.4byte	0x11f0
 2345 108b 1E       		.uleb128 0x1e
 2346 108c 38000000 		.4byte	.LVL17
 2347 1090 FB110000 		.4byte	0x11fb
 2348 1094 1E       		.uleb128 0x1e
 2349 1095 42000000 		.4byte	.LVL18
 2350 1099 B5110000 		.4byte	0x11b5
 2351 109d 00       		.byte	0
 2352 109e 15       		.uleb128 0x15
 2353 109f 04       		.byte	0x4
 2354 10a0 090E0000 		.4byte	0xe09
 2355 10a4 2D       		.uleb128 0x2d
 2356 10a5 DD0C0000 		.4byte	.LASF262
 2357 10a9 01       		.byte	0x1
 2358 10aa 5D       		.byte	0x5d
 2359 10ab 00000000 		.4byte	.LFB563
 2360 10af 44000000 		.4byte	.LFE563-.LFB563
 2361 10b3 01       		.uleb128 0x1
 2362 10b4 9C       		.byte	0x9c
 2363 10b5 09110000 		.4byte	0x1109
ARM GAS  C:\Users\stijn\AppData\Local\Temp\ccVPn9Mg.s 			page 76


 2364 10b9 2E       		.uleb128 0x2e
 2365 10ba E40E0000 		.4byte	0xee4
 2366 10be 08000000 		.4byte	.LBB20
 2367 10c2 3C000000 		.4byte	.LBE20-.LBB20
 2368 10c6 01       		.byte	0x1
 2369 10c7 5F       		.byte	0x5f
 2370 10c8 2B       		.uleb128 0x2b
 2371 10c9 F50E0000 		.4byte	0xef5
 2372 10cd B0000000 		.4byte	.LLST8
 2373 10d1 2C       		.uleb128 0x2c
 2374 10d2 24000000 		.4byte	.LVL26
 2375 10d6 D8110000 		.4byte	0x11d8
 2376 10da EF100000 		.4byte	0x10ef
 2377 10de 24       		.uleb128 0x24
 2378 10df 01       		.uleb128 0x1
 2379 10e0 50       		.byte	0x50
 2380 10e1 05       		.uleb128 0x5
 2381 10e2 03       		.byte	0x3
 2382 10e3 40000000 		.4byte	.LC1
 2383 10e7 24       		.uleb128 0x24
 2384 10e8 01       		.uleb128 0x1
 2385 10e9 51       		.byte	0x51
 2386 10ea 03       		.uleb128 0x3
 2387 10eb 0A       		.byte	0xa
 2388 10ec D803     		.2byte	0x3d8
 2389 10ee 00       		.byte	0
 2390 10ef 23       		.uleb128 0x23
 2391 10f0 2C000000 		.4byte	.LVL27
 2392 10f4 E4110000 		.4byte	0x11e4
 2393 10f8 24       		.uleb128 0x24
 2394 10f9 01       		.uleb128 0x1
 2395 10fa 50       		.byte	0x50
 2396 10fb 05       		.uleb128 0x5
 2397 10fc 0C       		.byte	0xc
 2398 10fd 00001D41 		.4byte	0x411d0000
 2399 1101 24       		.uleb128 0x24
 2400 1102 01       		.uleb128 0x1
 2401 1103 51       		.byte	0x51
 2402 1104 01       		.uleb128 0x1
 2403 1105 30       		.byte	0x30
 2404 1106 00       		.byte	0
 2405 1107 00       		.byte	0
 2406 1108 00       		.byte	0
 2407 1109 2F       		.uleb128 0x2f
 2408 110a 27050000 		.4byte	.LASF288
 2409 110e 0F       		.byte	0xf
 2410 110f 24       		.byte	0x24
 2411 1110 AD000000 		.4byte	0xad
 2412 1114 20       		.uleb128 0x20
 2413 1115 2D040000 		.4byte	.LASF263
 2414 1119 0F       		.byte	0xf
 2415 111a 25       		.byte	0x25
 2416 111b A2000000 		.4byte	0xa2
 2417 111f 05       		.uleb128 0x5
 2418 1120 03       		.byte	0x3
 2419 1121 00000000 		.4byte	dataReady
 2420 1125 30       		.uleb128 0x30
ARM GAS  C:\Users\stijn\AppData\Local\Temp\ccVPn9Mg.s 			page 77


 2421 1126 340C0000 		.4byte	.LASF264
 2422 112a 10       		.byte	0x10
 2423 112b F907     		.2byte	0x7f9
 2424 112d 31110000 		.4byte	0x1131
 2425 1131 05       		.uleb128 0x5
 2426 1132 C3000000 		.4byte	0xc3
 2427 1136 31       		.uleb128 0x31
 2428 1137 48000000 		.4byte	.LASF265
 2429 113b 09       		.byte	0x9
 2430 113c A7       		.byte	0xa7
 2431 113d 41110000 		.4byte	0x1141
 2432 1141 15       		.uleb128 0x15
 2433 1142 04       		.byte	0x4
 2434 1143 47110000 		.4byte	0x1147
 2435 1147 06       		.uleb128 0x6
 2436 1148 9E090000 		.4byte	0x99e
 2437 114c 31       		.uleb128 0x31
 2438 114d 050F0000 		.4byte	.LASF266
 2439 1151 11       		.byte	0x11
 2440 1152 87       		.byte	0x87
 2441 1153 580D0000 		.4byte	0xd58
 2442 1157 30       		.uleb128 0x30
 2443 1158 CA0E0000 		.4byte	.LASF267
 2444 115c 03       		.byte	0x3
 2445 115d 6001     		.2byte	0x160
 2446 115f CE000000 		.4byte	0xce
 2447 1163 07       		.uleb128 0x7
 2448 1164 73110000 		.4byte	0x1173
 2449 1168 73110000 		.4byte	0x1173
 2450 116c 08       		.uleb128 0x8
 2451 116d D9000000 		.4byte	0xd9
 2452 1171 00       		.byte	0
 2453 1172 00       		.byte	0
 2454 1173 06       		.uleb128 0x6
 2455 1174 B40D0000 		.4byte	0xdb4
 2456 1178 30       		.uleb128 0x30
 2457 1179 E70B0000 		.4byte	.LASF268
 2458 117d 03       		.byte	0x3
 2459 117e 6401     		.2byte	0x164
 2460 1180 84110000 		.4byte	0x1184
 2461 1184 06       		.uleb128 0x6
 2462 1185 63110000 		.4byte	0x1163
 2463 1189 31       		.uleb128 0x31
 2464 118a B9070000 		.4byte	.LASF269
 2465 118e 12       		.byte	0x12
 2466 118f 7F       		.byte	0x7f
 2467 1190 7C0C0000 		.4byte	0xc7c
 2468 1194 32       		.uleb128 0x32
 2469 1195 0B060000 		.4byte	.LASF270
 2470 1199 0B060000 		.4byte	.LASF270
 2471 119d 03       		.byte	0x3
 2472 119e 57       		.byte	0x57
 2473 119f 32       		.uleb128 0x32
 2474 11a0 55090000 		.4byte	.LASF271
 2475 11a4 55090000 		.4byte	.LASF271
 2476 11a8 03       		.byte	0x3
 2477 11a9 7D       		.byte	0x7d
ARM GAS  C:\Users\stijn\AppData\Local\Temp\ccVPn9Mg.s 			page 78


 2478 11aa 32       		.uleb128 0x32
 2479 11ab 6C070000 		.4byte	.LASF272
 2480 11af 6C070000 		.4byte	.LASF272
 2481 11b3 13       		.byte	0x13
 2482 11b4 2E       		.byte	0x2e
 2483 11b5 32       		.uleb128 0x32
 2484 11b6 6A040000 		.4byte	.LASF273
 2485 11ba 6A040000 		.4byte	.LASF273
 2486 11be 03       		.byte	0x3
 2487 11bf 5A       		.byte	0x5a
 2488 11c0 33       		.uleb128 0x33
 2489 11c1 A2080000 		.4byte	.LASF274
 2490 11c5 A2080000 		.4byte	.LASF274
 2491 11c9 14       		.byte	0x14
 2492 11ca 3E05     		.2byte	0x53e
 2493 11cc 33       		.uleb128 0x33
 2494 11cd 450E0000 		.4byte	.LASF275
 2495 11d1 450E0000 		.4byte	.LASF275
 2496 11d5 14       		.byte	0x14
 2497 11d6 2803     		.2byte	0x328
 2498 11d8 33       		.uleb128 0x33
 2499 11d9 9B070000 		.4byte	.LASF276
 2500 11dd 9B070000 		.4byte	.LASF276
 2501 11e1 0A       		.byte	0xa
 2502 11e2 9203     		.2byte	0x392
 2503 11e4 33       		.uleb128 0x33
 2504 11e5 890D0000 		.4byte	.LASF277
 2505 11e9 890D0000 		.4byte	.LASF277
 2506 11ed 0B       		.byte	0xb
 2507 11ee 3605     		.2byte	0x536
 2508 11f0 32       		.uleb128 0x32
 2509 11f1 6D0C0000 		.4byte	.LASF278
 2510 11f5 6D0C0000 		.4byte	.LASF278
 2511 11f9 15       		.byte	0x15
 2512 11fa 1B       		.byte	0x1b
 2513 11fb 32       		.uleb128 0x32
 2514 11fc 2E050000 		.4byte	.LASF279
 2515 1200 2E050000 		.4byte	.LASF279
 2516 1204 13       		.byte	0x13
 2517 1205 38       		.byte	0x38
 2518 1206 00       		.byte	0
 2519              		.section	.debug_abbrev,"",%progbits
 2520              	.Ldebug_abbrev0:
 2521 0000 01       		.uleb128 0x1
 2522 0001 11       		.uleb128 0x11
 2523 0002 01       		.byte	0x1
 2524 0003 25       		.uleb128 0x25
 2525 0004 0E       		.uleb128 0xe
 2526 0005 13       		.uleb128 0x13
 2527 0006 0B       		.uleb128 0xb
 2528 0007 03       		.uleb128 0x3
 2529 0008 0E       		.uleb128 0xe
 2530 0009 1B       		.uleb128 0x1b
 2531 000a 0E       		.uleb128 0xe
 2532 000b 55       		.uleb128 0x55
 2533 000c 17       		.uleb128 0x17
 2534 000d 11       		.uleb128 0x11
ARM GAS  C:\Users\stijn\AppData\Local\Temp\ccVPn9Mg.s 			page 79


 2535 000e 01       		.uleb128 0x1
 2536 000f 10       		.uleb128 0x10
 2537 0010 17       		.uleb128 0x17
 2538 0011 00       		.byte	0
 2539 0012 00       		.byte	0
 2540 0013 02       		.uleb128 0x2
 2541 0014 24       		.uleb128 0x24
 2542 0015 00       		.byte	0
 2543 0016 0B       		.uleb128 0xb
 2544 0017 0B       		.uleb128 0xb
 2545 0018 3E       		.uleb128 0x3e
 2546 0019 0B       		.uleb128 0xb
 2547 001a 03       		.uleb128 0x3
 2548 001b 0E       		.uleb128 0xe
 2549 001c 00       		.byte	0
 2550 001d 00       		.byte	0
 2551 001e 03       		.uleb128 0x3
 2552 001f 16       		.uleb128 0x16
 2553 0020 00       		.byte	0
 2554 0021 03       		.uleb128 0x3
 2555 0022 0E       		.uleb128 0xe
 2556 0023 3A       		.uleb128 0x3a
 2557 0024 0B       		.uleb128 0xb
 2558 0025 3B       		.uleb128 0x3b
 2559 0026 0B       		.uleb128 0xb
 2560 0027 49       		.uleb128 0x49
 2561 0028 13       		.uleb128 0x13
 2562 0029 00       		.byte	0
 2563 002a 00       		.byte	0
 2564 002b 04       		.uleb128 0x4
 2565 002c 24       		.uleb128 0x24
 2566 002d 00       		.byte	0
 2567 002e 0B       		.uleb128 0xb
 2568 002f 0B       		.uleb128 0xb
 2569 0030 3E       		.uleb128 0x3e
 2570 0031 0B       		.uleb128 0xb
 2571 0032 03       		.uleb128 0x3
 2572 0033 08       		.uleb128 0x8
 2573 0034 00       		.byte	0
 2574 0035 00       		.byte	0
 2575 0036 05       		.uleb128 0x5
 2576 0037 35       		.uleb128 0x35
 2577 0038 00       		.byte	0
 2578 0039 49       		.uleb128 0x49
 2579 003a 13       		.uleb128 0x13
 2580 003b 00       		.byte	0
 2581 003c 00       		.byte	0
 2582 003d 06       		.uleb128 0x6
 2583 003e 26       		.uleb128 0x26
 2584 003f 00       		.byte	0
 2585 0040 49       		.uleb128 0x49
 2586 0041 13       		.uleb128 0x13
 2587 0042 00       		.byte	0
 2588 0043 00       		.byte	0
 2589 0044 07       		.uleb128 0x7
 2590 0045 01       		.uleb128 0x1
 2591 0046 01       		.byte	0x1
ARM GAS  C:\Users\stijn\AppData\Local\Temp\ccVPn9Mg.s 			page 80


 2592 0047 49       		.uleb128 0x49
 2593 0048 13       		.uleb128 0x13
 2594 0049 01       		.uleb128 0x1
 2595 004a 13       		.uleb128 0x13
 2596 004b 00       		.byte	0
 2597 004c 00       		.byte	0
 2598 004d 08       		.uleb128 0x8
 2599 004e 21       		.uleb128 0x21
 2600 004f 00       		.byte	0
 2601 0050 49       		.uleb128 0x49
 2602 0051 13       		.uleb128 0x13
 2603 0052 2F       		.uleb128 0x2f
 2604 0053 0B       		.uleb128 0xb
 2605 0054 00       		.byte	0
 2606 0055 00       		.byte	0
 2607 0056 09       		.uleb128 0x9
 2608 0057 13       		.uleb128 0x13
 2609 0058 01       		.byte	0x1
 2610 0059 0B       		.uleb128 0xb
 2611 005a 0B       		.uleb128 0xb
 2612 005b 3A       		.uleb128 0x3a
 2613 005c 0B       		.uleb128 0xb
 2614 005d 3B       		.uleb128 0x3b
 2615 005e 0B       		.uleb128 0xb
 2616 005f 01       		.uleb128 0x1
 2617 0060 13       		.uleb128 0x13
 2618 0061 00       		.byte	0
 2619 0062 00       		.byte	0
 2620 0063 0A       		.uleb128 0xa
 2621 0064 0D       		.uleb128 0xd
 2622 0065 00       		.byte	0
 2623 0066 03       		.uleb128 0x3
 2624 0067 08       		.uleb128 0x8
 2625 0068 3A       		.uleb128 0x3a
 2626 0069 0B       		.uleb128 0xb
 2627 006a 3B       		.uleb128 0x3b
 2628 006b 0B       		.uleb128 0xb
 2629 006c 49       		.uleb128 0x49
 2630 006d 13       		.uleb128 0x13
 2631 006e 38       		.uleb128 0x38
 2632 006f 0B       		.uleb128 0xb
 2633 0070 00       		.byte	0
 2634 0071 00       		.byte	0
 2635 0072 0B       		.uleb128 0xb
 2636 0073 0D       		.uleb128 0xd
 2637 0074 00       		.byte	0
 2638 0075 03       		.uleb128 0x3
 2639 0076 0E       		.uleb128 0xe
 2640 0077 3A       		.uleb128 0x3a
 2641 0078 0B       		.uleb128 0xb
 2642 0079 3B       		.uleb128 0x3b
 2643 007a 0B       		.uleb128 0xb
 2644 007b 49       		.uleb128 0x49
 2645 007c 13       		.uleb128 0x13
 2646 007d 38       		.uleb128 0x38
 2647 007e 0B       		.uleb128 0xb
 2648 007f 00       		.byte	0
ARM GAS  C:\Users\stijn\AppData\Local\Temp\ccVPn9Mg.s 			page 81


 2649 0080 00       		.byte	0
 2650 0081 0C       		.uleb128 0xc
 2651 0082 13       		.uleb128 0x13
 2652 0083 01       		.byte	0x1
 2653 0084 0B       		.uleb128 0xb
 2654 0085 05       		.uleb128 0x5
 2655 0086 3A       		.uleb128 0x3a
 2656 0087 0B       		.uleb128 0xb
 2657 0088 3B       		.uleb128 0x3b
 2658 0089 0B       		.uleb128 0xb
 2659 008a 01       		.uleb128 0x1
 2660 008b 13       		.uleb128 0x13
 2661 008c 00       		.byte	0
 2662 008d 00       		.byte	0
 2663 008e 0D       		.uleb128 0xd
 2664 008f 0D       		.uleb128 0xd
 2665 0090 00       		.byte	0
 2666 0091 03       		.uleb128 0x3
 2667 0092 0E       		.uleb128 0xe
 2668 0093 3A       		.uleb128 0x3a
 2669 0094 0B       		.uleb128 0xb
 2670 0095 3B       		.uleb128 0x3b
 2671 0096 0B       		.uleb128 0xb
 2672 0097 49       		.uleb128 0x49
 2673 0098 13       		.uleb128 0x13
 2674 0099 38       		.uleb128 0x38
 2675 009a 05       		.uleb128 0x5
 2676 009b 00       		.byte	0
 2677 009c 00       		.byte	0
 2678 009d 0E       		.uleb128 0xe
 2679 009e 21       		.uleb128 0x21
 2680 009f 00       		.byte	0
 2681 00a0 49       		.uleb128 0x49
 2682 00a1 13       		.uleb128 0x13
 2683 00a2 2F       		.uleb128 0x2f
 2684 00a3 05       		.uleb128 0x5
 2685 00a4 00       		.byte	0
 2686 00a5 00       		.byte	0
 2687 00a6 0F       		.uleb128 0xf
 2688 00a7 16       		.uleb128 0x16
 2689 00a8 00       		.byte	0
 2690 00a9 03       		.uleb128 0x3
 2691 00aa 0E       		.uleb128 0xe
 2692 00ab 3A       		.uleb128 0x3a
 2693 00ac 0B       		.uleb128 0xb
 2694 00ad 3B       		.uleb128 0x3b
 2695 00ae 05       		.uleb128 0x5
 2696 00af 49       		.uleb128 0x49
 2697 00b0 13       		.uleb128 0x13
 2698 00b1 00       		.byte	0
 2699 00b2 00       		.byte	0
 2700 00b3 10       		.uleb128 0x10
 2701 00b4 0F       		.uleb128 0xf
 2702 00b5 00       		.byte	0
 2703 00b6 0B       		.uleb128 0xb
 2704 00b7 0B       		.uleb128 0xb
 2705 00b8 00       		.byte	0
ARM GAS  C:\Users\stijn\AppData\Local\Temp\ccVPn9Mg.s 			page 82


 2706 00b9 00       		.byte	0
 2707 00ba 11       		.uleb128 0x11
 2708 00bb 04       		.uleb128 0x4
 2709 00bc 01       		.byte	0x1
 2710 00bd 0B       		.uleb128 0xb
 2711 00be 0B       		.uleb128 0xb
 2712 00bf 49       		.uleb128 0x49
 2713 00c0 13       		.uleb128 0x13
 2714 00c1 3A       		.uleb128 0x3a
 2715 00c2 0B       		.uleb128 0xb
 2716 00c3 3B       		.uleb128 0x3b
 2717 00c4 05       		.uleb128 0x5
 2718 00c5 01       		.uleb128 0x1
 2719 00c6 13       		.uleb128 0x13
 2720 00c7 00       		.byte	0
 2721 00c8 00       		.byte	0
 2722 00c9 12       		.uleb128 0x12
 2723 00ca 28       		.uleb128 0x28
 2724 00cb 00       		.byte	0
 2725 00cc 03       		.uleb128 0x3
 2726 00cd 0E       		.uleb128 0xe
 2727 00ce 1C       		.uleb128 0x1c
 2728 00cf 0B       		.uleb128 0xb
 2729 00d0 00       		.byte	0
 2730 00d1 00       		.byte	0
 2731 00d2 13       		.uleb128 0x13
 2732 00d3 13       		.uleb128 0x13
 2733 00d4 01       		.byte	0x1
 2734 00d5 0B       		.uleb128 0xb
 2735 00d6 0B       		.uleb128 0xb
 2736 00d7 3A       		.uleb128 0x3a
 2737 00d8 0B       		.uleb128 0xb
 2738 00d9 3B       		.uleb128 0x3b
 2739 00da 05       		.uleb128 0x5
 2740 00db 01       		.uleb128 0x1
 2741 00dc 13       		.uleb128 0x13
 2742 00dd 00       		.byte	0
 2743 00de 00       		.byte	0
 2744 00df 14       		.uleb128 0x14
 2745 00e0 0D       		.uleb128 0xd
 2746 00e1 00       		.byte	0
 2747 00e2 03       		.uleb128 0x3
 2748 00e3 0E       		.uleb128 0xe
 2749 00e4 3A       		.uleb128 0x3a
 2750 00e5 0B       		.uleb128 0xb
 2751 00e6 3B       		.uleb128 0x3b
 2752 00e7 05       		.uleb128 0x5
 2753 00e8 49       		.uleb128 0x49
 2754 00e9 13       		.uleb128 0x13
 2755 00ea 38       		.uleb128 0x38
 2756 00eb 0B       		.uleb128 0xb
 2757 00ec 00       		.byte	0
 2758 00ed 00       		.byte	0
 2759 00ee 15       		.uleb128 0x15
 2760 00ef 0F       		.uleb128 0xf
 2761 00f0 00       		.byte	0
 2762 00f1 0B       		.uleb128 0xb
ARM GAS  C:\Users\stijn\AppData\Local\Temp\ccVPn9Mg.s 			page 83


 2763 00f2 0B       		.uleb128 0xb
 2764 00f3 49       		.uleb128 0x49
 2765 00f4 13       		.uleb128 0x13
 2766 00f5 00       		.byte	0
 2767 00f6 00       		.byte	0
 2768 00f7 16       		.uleb128 0x16
 2769 00f8 15       		.uleb128 0x15
 2770 00f9 01       		.byte	0x1
 2771 00fa 27       		.uleb128 0x27
 2772 00fb 19       		.uleb128 0x19
 2773 00fc 01       		.uleb128 0x1
 2774 00fd 13       		.uleb128 0x13
 2775 00fe 00       		.byte	0
 2776 00ff 00       		.byte	0
 2777 0100 17       		.uleb128 0x17
 2778 0101 05       		.uleb128 0x5
 2779 0102 00       		.byte	0
 2780 0103 49       		.uleb128 0x49
 2781 0104 13       		.uleb128 0x13
 2782 0105 00       		.byte	0
 2783 0106 00       		.byte	0
 2784 0107 18       		.uleb128 0x18
 2785 0108 15       		.uleb128 0x15
 2786 0109 01       		.byte	0x1
 2787 010a 27       		.uleb128 0x27
 2788 010b 19       		.uleb128 0x19
 2789 010c 49       		.uleb128 0x49
 2790 010d 13       		.uleb128 0x13
 2791 010e 01       		.uleb128 0x1
 2792 010f 13       		.uleb128 0x13
 2793 0110 00       		.byte	0
 2794 0111 00       		.byte	0
 2795 0112 19       		.uleb128 0x19
 2796 0113 13       		.uleb128 0x13
 2797 0114 01       		.byte	0x1
 2798 0115 03       		.uleb128 0x3
 2799 0116 0E       		.uleb128 0xe
 2800 0117 0B       		.uleb128 0xb
 2801 0118 0B       		.uleb128 0xb
 2802 0119 3A       		.uleb128 0x3a
 2803 011a 0B       		.uleb128 0xb
 2804 011b 3B       		.uleb128 0x3b
 2805 011c 05       		.uleb128 0x5
 2806 011d 01       		.uleb128 0x1
 2807 011e 13       		.uleb128 0x13
 2808 011f 00       		.byte	0
 2809 0120 00       		.byte	0
 2810 0121 1A       		.uleb128 0x1a
 2811 0122 16       		.uleb128 0x16
 2812 0123 00       		.byte	0
 2813 0124 03       		.uleb128 0x3
 2814 0125 08       		.uleb128 0x8
 2815 0126 3A       		.uleb128 0x3a
 2816 0127 0B       		.uleb128 0xb
 2817 0128 3B       		.uleb128 0x3b
 2818 0129 0B       		.uleb128 0xb
 2819 012a 49       		.uleb128 0x49
ARM GAS  C:\Users\stijn\AppData\Local\Temp\ccVPn9Mg.s 			page 84


 2820 012b 13       		.uleb128 0x13
 2821 012c 00       		.byte	0
 2822 012d 00       		.byte	0
 2823 012e 1B       		.uleb128 0x1b
 2824 012f 2E       		.uleb128 0x2e
 2825 0130 01       		.byte	0x1
 2826 0131 03       		.uleb128 0x3
 2827 0132 0E       		.uleb128 0xe
 2828 0133 3A       		.uleb128 0x3a
 2829 0134 0B       		.uleb128 0xb
 2830 0135 3B       		.uleb128 0x3b
 2831 0136 05       		.uleb128 0x5
 2832 0137 27       		.uleb128 0x27
 2833 0138 19       		.uleb128 0x19
 2834 0139 20       		.uleb128 0x20
 2835 013a 0B       		.uleb128 0xb
 2836 013b 01       		.uleb128 0x1
 2837 013c 13       		.uleb128 0x13
 2838 013d 00       		.byte	0
 2839 013e 00       		.byte	0
 2840 013f 1C       		.uleb128 0x1c
 2841 0140 05       		.uleb128 0x5
 2842 0141 00       		.byte	0
 2843 0142 03       		.uleb128 0x3
 2844 0143 0E       		.uleb128 0xe
 2845 0144 3A       		.uleb128 0x3a
 2846 0145 0B       		.uleb128 0xb
 2847 0146 3B       		.uleb128 0x3b
 2848 0147 05       		.uleb128 0x5
 2849 0148 49       		.uleb128 0x49
 2850 0149 13       		.uleb128 0x13
 2851 014a 00       		.byte	0
 2852 014b 00       		.byte	0
 2853 014c 1D       		.uleb128 0x1d
 2854 014d 2E       		.uleb128 0x2e
 2855 014e 01       		.byte	0x1
 2856 014f 3F       		.uleb128 0x3f
 2857 0150 19       		.uleb128 0x19
 2858 0151 03       		.uleb128 0x3
 2859 0152 0E       		.uleb128 0xe
 2860 0153 3A       		.uleb128 0x3a
 2861 0154 0B       		.uleb128 0xb
 2862 0155 3B       		.uleb128 0x3b
 2863 0156 0B       		.uleb128 0xb
 2864 0157 11       		.uleb128 0x11
 2865 0158 01       		.uleb128 0x1
 2866 0159 12       		.uleb128 0x12
 2867 015a 06       		.uleb128 0x6
 2868 015b 40       		.uleb128 0x40
 2869 015c 18       		.uleb128 0x18
 2870 015d 9742     		.uleb128 0x2117
 2871 015f 19       		.uleb128 0x19
 2872 0160 01       		.uleb128 0x1
 2873 0161 13       		.uleb128 0x13
 2874 0162 00       		.byte	0
 2875 0163 00       		.byte	0
 2876 0164 1E       		.uleb128 0x1e
ARM GAS  C:\Users\stijn\AppData\Local\Temp\ccVPn9Mg.s 			page 85


 2877 0165 898201   		.uleb128 0x4109
 2878 0168 00       		.byte	0
 2879 0169 11       		.uleb128 0x11
 2880 016a 01       		.uleb128 0x1
 2881 016b 31       		.uleb128 0x31
 2882 016c 13       		.uleb128 0x13
 2883 016d 00       		.byte	0
 2884 016e 00       		.byte	0
 2885 016f 1F       		.uleb128 0x1f
 2886 0170 2E       		.uleb128 0x2e
 2887 0171 01       		.byte	0x1
 2888 0172 3F       		.uleb128 0x3f
 2889 0173 19       		.uleb128 0x19
 2890 0174 03       		.uleb128 0x3
 2891 0175 0E       		.uleb128 0xe
 2892 0176 3A       		.uleb128 0x3a
 2893 0177 0B       		.uleb128 0xb
 2894 0178 3B       		.uleb128 0x3b
 2895 0179 0B       		.uleb128 0xb
 2896 017a 8701     		.uleb128 0x87
 2897 017c 19       		.uleb128 0x19
 2898 017d 11       		.uleb128 0x11
 2899 017e 01       		.uleb128 0x1
 2900 017f 12       		.uleb128 0x12
 2901 0180 06       		.uleb128 0x6
 2902 0181 40       		.uleb128 0x40
 2903 0182 18       		.uleb128 0x18
 2904 0183 9742     		.uleb128 0x2117
 2905 0185 19       		.uleb128 0x19
 2906 0186 01       		.uleb128 0x1
 2907 0187 13       		.uleb128 0x13
 2908 0188 00       		.byte	0
 2909 0189 00       		.byte	0
 2910 018a 20       		.uleb128 0x20
 2911 018b 34       		.uleb128 0x34
 2912 018c 00       		.byte	0
 2913 018d 03       		.uleb128 0x3
 2914 018e 0E       		.uleb128 0xe
 2915 018f 3A       		.uleb128 0x3a
 2916 0190 0B       		.uleb128 0xb
 2917 0191 3B       		.uleb128 0x3b
 2918 0192 0B       		.uleb128 0xb
 2919 0193 49       		.uleb128 0x49
 2920 0194 13       		.uleb128 0x13
 2921 0195 02       		.uleb128 0x2
 2922 0196 18       		.uleb128 0x18
 2923 0197 00       		.byte	0
 2924 0198 00       		.byte	0
 2925 0199 21       		.uleb128 0x21
 2926 019a 34       		.uleb128 0x34
 2927 019b 00       		.byte	0
 2928 019c 03       		.uleb128 0x3
 2929 019d 0E       		.uleb128 0xe
 2930 019e 3A       		.uleb128 0x3a
 2931 019f 0B       		.uleb128 0xb
 2932 01a0 3B       		.uleb128 0x3b
 2933 01a1 0B       		.uleb128 0xb
ARM GAS  C:\Users\stijn\AppData\Local\Temp\ccVPn9Mg.s 			page 86


 2934 01a2 49       		.uleb128 0x49
 2935 01a3 13       		.uleb128 0x13
 2936 01a4 1C       		.uleb128 0x1c
 2937 01a5 05       		.uleb128 0x5
 2938 01a6 00       		.byte	0
 2939 01a7 00       		.byte	0
 2940 01a8 22       		.uleb128 0x22
 2941 01a9 34       		.uleb128 0x34
 2942 01aa 00       		.byte	0
 2943 01ab 03       		.uleb128 0x3
 2944 01ac 0E       		.uleb128 0xe
 2945 01ad 3A       		.uleb128 0x3a
 2946 01ae 0B       		.uleb128 0xb
 2947 01af 3B       		.uleb128 0x3b
 2948 01b0 0B       		.uleb128 0xb
 2949 01b1 49       		.uleb128 0x49
 2950 01b2 13       		.uleb128 0x13
 2951 01b3 02       		.uleb128 0x2
 2952 01b4 17       		.uleb128 0x17
 2953 01b5 00       		.byte	0
 2954 01b6 00       		.byte	0
 2955 01b7 23       		.uleb128 0x23
 2956 01b8 898201   		.uleb128 0x4109
 2957 01bb 01       		.byte	0x1
 2958 01bc 11       		.uleb128 0x11
 2959 01bd 01       		.uleb128 0x1
 2960 01be 31       		.uleb128 0x31
 2961 01bf 13       		.uleb128 0x13
 2962 01c0 00       		.byte	0
 2963 01c1 00       		.byte	0
 2964 01c2 24       		.uleb128 0x24
 2965 01c3 8A8201   		.uleb128 0x410a
 2966 01c6 00       		.byte	0
 2967 01c7 02       		.uleb128 0x2
 2968 01c8 18       		.uleb128 0x18
 2969 01c9 9142     		.uleb128 0x2111
 2970 01cb 18       		.uleb128 0x18
 2971 01cc 00       		.byte	0
 2972 01cd 00       		.byte	0
 2973 01ce 25       		.uleb128 0x25
 2974 01cf 2E       		.uleb128 0x2e
 2975 01d0 01       		.byte	0x1
 2976 01d1 03       		.uleb128 0x3
 2977 01d2 0E       		.uleb128 0xe
 2978 01d3 3A       		.uleb128 0x3a
 2979 01d4 0B       		.uleb128 0xb
 2980 01d5 3B       		.uleb128 0x3b
 2981 01d6 05       		.uleb128 0x5
 2982 01d7 27       		.uleb128 0x27
 2983 01d8 19       		.uleb128 0x19
 2984 01d9 49       		.uleb128 0x49
 2985 01da 13       		.uleb128 0x13
 2986 01db 20       		.uleb128 0x20
 2987 01dc 0B       		.uleb128 0xb
 2988 01dd 01       		.uleb128 0x1
 2989 01de 13       		.uleb128 0x13
 2990 01df 00       		.byte	0
ARM GAS  C:\Users\stijn\AppData\Local\Temp\ccVPn9Mg.s 			page 87


 2991 01e0 00       		.byte	0
 2992 01e1 26       		.uleb128 0x26
 2993 01e2 2E       		.uleb128 0x2e
 2994 01e3 01       		.byte	0x1
 2995 01e4 3F       		.uleb128 0x3f
 2996 01e5 19       		.uleb128 0x19
 2997 01e6 03       		.uleb128 0x3
 2998 01e7 0E       		.uleb128 0xe
 2999 01e8 3A       		.uleb128 0x3a
 3000 01e9 0B       		.uleb128 0xb
 3001 01ea 3B       		.uleb128 0x3b
 3002 01eb 0B       		.uleb128 0xb
 3003 01ec 27       		.uleb128 0x27
 3004 01ed 19       		.uleb128 0x19
 3005 01ee 8701     		.uleb128 0x87
 3006 01f0 19       		.uleb128 0x19
 3007 01f1 11       		.uleb128 0x11
 3008 01f2 01       		.uleb128 0x1
 3009 01f3 12       		.uleb128 0x12
 3010 01f4 06       		.uleb128 0x6
 3011 01f5 40       		.uleb128 0x40
 3012 01f6 18       		.uleb128 0x18
 3013 01f7 9742     		.uleb128 0x2117
 3014 01f9 19       		.uleb128 0x19
 3015 01fa 01       		.uleb128 0x1
 3016 01fb 13       		.uleb128 0x13
 3017 01fc 00       		.byte	0
 3018 01fd 00       		.byte	0
 3019 01fe 27       		.uleb128 0x27
 3020 01ff 05       		.uleb128 0x5
 3021 0200 00       		.byte	0
 3022 0201 03       		.uleb128 0x3
 3023 0202 0E       		.uleb128 0xe
 3024 0203 3A       		.uleb128 0x3a
 3025 0204 0B       		.uleb128 0xb
 3026 0205 3B       		.uleb128 0x3b
 3027 0206 0B       		.uleb128 0xb
 3028 0207 49       		.uleb128 0x49
 3029 0208 13       		.uleb128 0x13
 3030 0209 02       		.uleb128 0x2
 3031 020a 17       		.uleb128 0x17
 3032 020b 00       		.byte	0
 3033 020c 00       		.byte	0
 3034 020d 28       		.uleb128 0x28
 3035 020e 34       		.uleb128 0x34
 3036 020f 00       		.byte	0
 3037 0210 03       		.uleb128 0x3
 3038 0211 0E       		.uleb128 0xe
 3039 0212 3A       		.uleb128 0x3a
 3040 0213 0B       		.uleb128 0xb
 3041 0214 3B       		.uleb128 0x3b
 3042 0215 0B       		.uleb128 0xb
 3043 0216 49       		.uleb128 0x49
 3044 0217 13       		.uleb128 0x13
 3045 0218 1C       		.uleb128 0x1c
 3046 0219 0B       		.uleb128 0xb
 3047 021a 00       		.byte	0
ARM GAS  C:\Users\stijn\AppData\Local\Temp\ccVPn9Mg.s 			page 88


 3048 021b 00       		.byte	0
 3049 021c 29       		.uleb128 0x29
 3050 021d 1D       		.uleb128 0x1d
 3051 021e 01       		.byte	0x1
 3052 021f 31       		.uleb128 0x31
 3053 0220 13       		.uleb128 0x13
 3054 0221 11       		.uleb128 0x11
 3055 0222 01       		.uleb128 0x1
 3056 0223 12       		.uleb128 0x12
 3057 0224 06       		.uleb128 0x6
 3058 0225 58       		.uleb128 0x58
 3059 0226 0B       		.uleb128 0xb
 3060 0227 59       		.uleb128 0x59
 3061 0228 0B       		.uleb128 0xb
 3062 0229 01       		.uleb128 0x1
 3063 022a 13       		.uleb128 0x13
 3064 022b 00       		.byte	0
 3065 022c 00       		.byte	0
 3066 022d 2A       		.uleb128 0x2a
 3067 022e 05       		.uleb128 0x5
 3068 022f 00       		.byte	0
 3069 0230 31       		.uleb128 0x31
 3070 0231 13       		.uleb128 0x13
 3071 0232 1C       		.uleb128 0x1c
 3072 0233 0B       		.uleb128 0xb
 3073 0234 00       		.byte	0
 3074 0235 00       		.byte	0
 3075 0236 2B       		.uleb128 0x2b
 3076 0237 05       		.uleb128 0x5
 3077 0238 00       		.byte	0
 3078 0239 31       		.uleb128 0x31
 3079 023a 13       		.uleb128 0x13
 3080 023b 02       		.uleb128 0x2
 3081 023c 17       		.uleb128 0x17
 3082 023d 00       		.byte	0
 3083 023e 00       		.byte	0
 3084 023f 2C       		.uleb128 0x2c
 3085 0240 898201   		.uleb128 0x4109
 3086 0243 01       		.byte	0x1
 3087 0244 11       		.uleb128 0x11
 3088 0245 01       		.uleb128 0x1
 3089 0246 31       		.uleb128 0x31
 3090 0247 13       		.uleb128 0x13
 3091 0248 01       		.uleb128 0x1
 3092 0249 13       		.uleb128 0x13
 3093 024a 00       		.byte	0
 3094 024b 00       		.byte	0
 3095 024c 2D       		.uleb128 0x2d
 3096 024d 2E       		.uleb128 0x2e
 3097 024e 01       		.byte	0x1
 3098 024f 3F       		.uleb128 0x3f
 3099 0250 19       		.uleb128 0x19
 3100 0251 03       		.uleb128 0x3
 3101 0252 0E       		.uleb128 0xe
 3102 0253 3A       		.uleb128 0x3a
 3103 0254 0B       		.uleb128 0xb
 3104 0255 3B       		.uleb128 0x3b
ARM GAS  C:\Users\stijn\AppData\Local\Temp\ccVPn9Mg.s 			page 89


 3105 0256 0B       		.uleb128 0xb
 3106 0257 27       		.uleb128 0x27
 3107 0258 19       		.uleb128 0x19
 3108 0259 11       		.uleb128 0x11
 3109 025a 01       		.uleb128 0x1
 3110 025b 12       		.uleb128 0x12
 3111 025c 06       		.uleb128 0x6
 3112 025d 40       		.uleb128 0x40
 3113 025e 18       		.uleb128 0x18
 3114 025f 9742     		.uleb128 0x2117
 3115 0261 19       		.uleb128 0x19
 3116 0262 01       		.uleb128 0x1
 3117 0263 13       		.uleb128 0x13
 3118 0264 00       		.byte	0
 3119 0265 00       		.byte	0
 3120 0266 2E       		.uleb128 0x2e
 3121 0267 1D       		.uleb128 0x1d
 3122 0268 01       		.byte	0x1
 3123 0269 31       		.uleb128 0x31
 3124 026a 13       		.uleb128 0x13
 3125 026b 11       		.uleb128 0x11
 3126 026c 01       		.uleb128 0x1
 3127 026d 12       		.uleb128 0x12
 3128 026e 06       		.uleb128 0x6
 3129 026f 58       		.uleb128 0x58
 3130 0270 0B       		.uleb128 0xb
 3131 0271 59       		.uleb128 0x59
 3132 0272 0B       		.uleb128 0xb
 3133 0273 00       		.byte	0
 3134 0274 00       		.byte	0
 3135 0275 2F       		.uleb128 0x2f
 3136 0276 34       		.uleb128 0x34
 3137 0277 00       		.byte	0
 3138 0278 03       		.uleb128 0x3
 3139 0279 0E       		.uleb128 0xe
 3140 027a 3A       		.uleb128 0x3a
 3141 027b 0B       		.uleb128 0xb
 3142 027c 3B       		.uleb128 0x3b
 3143 027d 0B       		.uleb128 0xb
 3144 027e 49       		.uleb128 0x49
 3145 027f 13       		.uleb128 0x13
 3146 0280 00       		.byte	0
 3147 0281 00       		.byte	0
 3148 0282 30       		.uleb128 0x30
 3149 0283 34       		.uleb128 0x34
 3150 0284 00       		.byte	0
 3151 0285 03       		.uleb128 0x3
 3152 0286 0E       		.uleb128 0xe
 3153 0287 3A       		.uleb128 0x3a
 3154 0288 0B       		.uleb128 0xb
 3155 0289 3B       		.uleb128 0x3b
 3156 028a 05       		.uleb128 0x5
 3157 028b 49       		.uleb128 0x49
 3158 028c 13       		.uleb128 0x13
 3159 028d 3F       		.uleb128 0x3f
 3160 028e 19       		.uleb128 0x19
 3161 028f 3C       		.uleb128 0x3c
ARM GAS  C:\Users\stijn\AppData\Local\Temp\ccVPn9Mg.s 			page 90


 3162 0290 19       		.uleb128 0x19
 3163 0291 00       		.byte	0
 3164 0292 00       		.byte	0
 3165 0293 31       		.uleb128 0x31
 3166 0294 34       		.uleb128 0x34
 3167 0295 00       		.byte	0
 3168 0296 03       		.uleb128 0x3
 3169 0297 0E       		.uleb128 0xe
 3170 0298 3A       		.uleb128 0x3a
 3171 0299 0B       		.uleb128 0xb
 3172 029a 3B       		.uleb128 0x3b
 3173 029b 0B       		.uleb128 0xb
 3174 029c 49       		.uleb128 0x49
 3175 029d 13       		.uleb128 0x13
 3176 029e 3F       		.uleb128 0x3f
 3177 029f 19       		.uleb128 0x19
 3178 02a0 3C       		.uleb128 0x3c
 3179 02a1 19       		.uleb128 0x19
 3180 02a2 00       		.byte	0
 3181 02a3 00       		.byte	0
 3182 02a4 32       		.uleb128 0x32
 3183 02a5 2E       		.uleb128 0x2e
 3184 02a6 00       		.byte	0
 3185 02a7 3F       		.uleb128 0x3f
 3186 02a8 19       		.uleb128 0x19
 3187 02a9 3C       		.uleb128 0x3c
 3188 02aa 19       		.uleb128 0x19
 3189 02ab 6E       		.uleb128 0x6e
 3190 02ac 0E       		.uleb128 0xe
 3191 02ad 03       		.uleb128 0x3
 3192 02ae 0E       		.uleb128 0xe
 3193 02af 3A       		.uleb128 0x3a
 3194 02b0 0B       		.uleb128 0xb
 3195 02b1 3B       		.uleb128 0x3b
 3196 02b2 0B       		.uleb128 0xb
 3197 02b3 00       		.byte	0
 3198 02b4 00       		.byte	0
 3199 02b5 33       		.uleb128 0x33
 3200 02b6 2E       		.uleb128 0x2e
 3201 02b7 00       		.byte	0
 3202 02b8 3F       		.uleb128 0x3f
 3203 02b9 19       		.uleb128 0x19
 3204 02ba 3C       		.uleb128 0x3c
 3205 02bb 19       		.uleb128 0x19
 3206 02bc 6E       		.uleb128 0x6e
 3207 02bd 0E       		.uleb128 0xe
 3208 02be 03       		.uleb128 0x3
 3209 02bf 0E       		.uleb128 0xe
 3210 02c0 3A       		.uleb128 0x3a
 3211 02c1 0B       		.uleb128 0xb
 3212 02c2 3B       		.uleb128 0x3b
 3213 02c3 05       		.uleb128 0x5
 3214 02c4 00       		.byte	0
 3215 02c5 00       		.byte	0
 3216 02c6 00       		.byte	0
 3217              		.section	.debug_loc,"",%progbits
 3218              	.Ldebug_loc0:
ARM GAS  C:\Users\stijn\AppData\Local\Temp\ccVPn9Mg.s 			page 91


 3219              	.LLST0:
 3220 0000 04000000 		.4byte	.LVL3
 3221 0004 0E000000 		.4byte	.LVL6
 3222 0008 0200     		.2byte	0x2
 3223 000a 30       		.byte	0x30
 3224 000b 9F       		.byte	0x9f
 3225 000c 00000000 		.4byte	0
 3226 0010 00000000 		.4byte	0
 3227              	.LLST1:
 3228 0014 00000000 		.4byte	.LVL9
 3229 0018 0B000000 		.4byte	.LVL12-1
 3230 001c 0100     		.2byte	0x1
 3231 001e 50       		.byte	0x50
 3232 001f 0B000000 		.4byte	.LVL12-1
 3233 0023 94000000 		.4byte	.LFE562
 3234 0027 0100     		.2byte	0x1
 3235 0029 54       		.byte	0x54
 3236 002a 00000000 		.4byte	0
 3237 002e 00000000 		.4byte	0
 3238              	.LLST2:
 3239 0032 06000000 		.4byte	.LVL10
 3240 0036 0B000000 		.4byte	.LVL12-1
 3241 003a 0100     		.2byte	0x1
 3242 003c 50       		.byte	0x50
 3243 003d 0B000000 		.4byte	.LVL12-1
 3244 0041 94000000 		.4byte	.LFE562
 3245 0045 0100     		.2byte	0x1
 3246 0047 54       		.byte	0x54
 3247 0048 00000000 		.4byte	0
 3248 004c 00000000 		.4byte	0
 3249              	.LLST3:
 3250 0050 1A000000 		.4byte	.LVL14
 3251 0054 46000000 		.4byte	.LVL20
 3252 0058 0100     		.2byte	0x1
 3253 005a 56       		.byte	0x56
 3254 005b 00000000 		.4byte	0
 3255 005f 00000000 		.4byte	0
 3256              	.LLST4:
 3257 0063 1A000000 		.4byte	.LVL14
 3258 0067 44000000 		.4byte	.LVL19
 3259 006b 0100     		.2byte	0x1
 3260 006d 57       		.byte	0x57
 3261 006e 00000000 		.4byte	0
 3262 0072 00000000 		.4byte	0
 3263              	.LLST5:
 3264 0076 46000000 		.4byte	.LVL20
 3265 007a 5A000000 		.4byte	.LVL22
 3266 007e 0200     		.2byte	0x2
 3267 0080 30       		.byte	0x30
 3268 0081 9F       		.byte	0x9f
 3269 0082 00000000 		.4byte	0
 3270 0086 00000000 		.4byte	0
 3271              	.LLST6:
 3272 008a 46000000 		.4byte	.LVL20
 3273 008e 5A000000 		.4byte	.LVL22
 3274 0092 0100     		.2byte	0x1
 3275 0094 56       		.byte	0x56
ARM GAS  C:\Users\stijn\AppData\Local\Temp\ccVPn9Mg.s 			page 92


 3276 0095 00000000 		.4byte	0
 3277 0099 00000000 		.4byte	0
 3278              	.LLST7:
 3279 009d 46000000 		.4byte	.LVL20
 3280 00a1 5A000000 		.4byte	.LVL22
 3281 00a5 0100     		.2byte	0x1
 3282 00a7 57       		.byte	0x57
 3283 00a8 00000000 		.4byte	0
 3284 00ac 00000000 		.4byte	0
 3285              	.LLST8:
 3286 00b0 08000000 		.4byte	.LVL25
 3287 00b4 2C000000 		.4byte	.LVL27
 3288 00b8 0200     		.2byte	0x2
 3289 00ba 30       		.byte	0x30
 3290 00bb 9F       		.byte	0x9f
 3291 00bc 00000000 		.4byte	0
 3292 00c0 00000000 		.4byte	0
 3293              		.section	.debug_aranges,"",%progbits
 3294 0000 34000000 		.4byte	0x34
 3295 0004 0200     		.2byte	0x2
 3296 0006 00000000 		.4byte	.Ldebug_info0
 3297 000a 04       		.byte	0x4
 3298 000b 00       		.byte	0
 3299 000c 0000     		.2byte	0
 3300 000e 0000     		.2byte	0
 3301 0010 00000000 		.4byte	.LFB560
 3302 0014 10000000 		.4byte	.LFE560-.LFB560
 3303 0018 00000000 		.4byte	.LFB561
 3304 001c 2C000000 		.4byte	.LFE561-.LFB561
 3305 0020 00000000 		.4byte	.LFB562
 3306 0024 94000000 		.4byte	.LFE562-.LFB562
 3307 0028 00000000 		.4byte	.LFB563
 3308 002c 44000000 		.4byte	.LFE563-.LFB563
 3309 0030 00000000 		.4byte	0
 3310 0034 00000000 		.4byte	0
 3311              		.section	.debug_ranges,"",%progbits
 3312              	.Ldebug_ranges0:
 3313 0000 00000000 		.4byte	.LFB560
 3314 0004 10000000 		.4byte	.LFE560
 3315 0008 00000000 		.4byte	.LFB561
 3316 000c 2C000000 		.4byte	.LFE561
 3317 0010 00000000 		.4byte	.LFB562
 3318 0014 94000000 		.4byte	.LFE562
 3319 0018 00000000 		.4byte	.LFB563
 3320 001c 44000000 		.4byte	.LFE563
 3321 0020 00000000 		.4byte	0
 3322 0024 00000000 		.4byte	0
 3323              		.section	.debug_line,"",%progbits
 3324              	.Ldebug_line0:
 3325 0000 BA040000 		.section	.debug_str,"MS",%progbits,1
 3325      02004304 
 3325      00000201 
 3325      FB0E0D00 
 3325      01010101 
 3326              	.LASF126:
 3327 0000 666C6173 		.ascii	"flashCtlMainWs1Freq\000"
 3327      6843746C 
ARM GAS  C:\Users\stijn\AppData\Local\Temp\ccVPn9Mg.s 			page 93


 3327      4D61696E 
 3327      57733146 
 3327      72657100 
 3328              	.LASF31:
 3329 0014 52455345 		.ascii	"RESERVED\000"
 3329      52564544 
 3329      00
 3330              	.LASF60:
 3331 001d 52414E47 		.ascii	"RANGE_INTR_MASKED\000"
 3331      455F494E 
 3331      54525F4D 
 3331      41534B45 
 3331      4400
 3332              	.LASF49:
 3333 002f 4348414E 		.ascii	"CHAN_WORK_UPDATED\000"
 3333      5F574F52 
 3333      4B5F5550 
 3333      44415445 
 3333      4400
 3334              	.LASF248:
 3335 0041 74696D69 		.ascii	"timing\000"
 3335      6E6700
 3336              	.LASF265:
 3337 0048 63795F64 		.ascii	"cy_device\000"
 3337      65766963 
 3337      6500
 3338              	.LASF153:
 3339 0052 63707573 		.ascii	"cpussCm0ClockCtlOffset\000"
 3339      73436D30 
 3339      436C6F63 
 3339      6B43746C 
 3339      4F666673 
 3340              	.LASF112:
 3341 0069 70657269 		.ascii	"periClockNr\000"
 3341      436C6F63 
 3341      6B4E7200 
 3342              	.LASF204:
 3343 0075 6D617374 		.ascii	"masterStatus\000"
 3343      65725374 
 3343      61747573 
 3343      00
 3344              	.LASF257:
 3345 0082 70784368 		.ascii	"pxChannel\000"
 3345      616E6E65 
 3345      6C00
 3346              	.LASF282:
 3347 008c 433A5C55 		.ascii	"C:\\Users\\stijn\\OneDrive\\Documenten\\PSoC Creato"
 3347      73657273 
 3347      5C737469 
 3347      6A6E5C4F 
 3347      6E654472 
 3348 00ba 725C4144 		.ascii	"r\\ADC Klodden\\RTOS_I2C_Test.cydsn\000"
 3348      43204B6C 
 3348      6F646465 
 3348      6E5C5254 
 3348      4F535F49 
 3349              	.LASF41:
ARM GAS  C:\Users\stijn\AppData\Local\Temp\ccVPn9Mg.s 			page 94


 3350 00dc 4348414E 		.ascii	"CHAN_EN\000"
 3350      5F454E00 
 3351              	.LASF226:
 3352 00e4 74785374 		.ascii	"txStatus\000"
 3352      61747573 
 3352      00
 3353              	.LASF85:
 3354 00ed 70657269 		.ascii	"periBase\000"
 3354      42617365 
 3354      00
 3355              	.LASF161:
 3356 00f6 63707573 		.ascii	"cpussCm0NmiCtlOffset\000"
 3356      73436D30 
 3356      4E6D6943 
 3356      746C4F66 
 3356      66736574 
 3357              	.LASF131:
 3358 010b 64774368 		.ascii	"dwChSize\000"
 3358      53697A65 
 3358      00
 3359              	.LASF59:
 3360 0114 52414E47 		.ascii	"RANGE_INTR_MASK\000"
 3360      455F494E 
 3360      54525F4D 
 3360      41534B00 
 3361              	.LASF13:
 3362 0124 756E7369 		.ascii	"unsigned int\000"
 3362      676E6564 
 3362      20696E74 
 3362      00
 3363              	.LASF199:
 3364 0131 63795F63 		.ascii	"cy_cb_scb_i2c_handle_events_t\000"
 3364      625F7363 
 3364      625F6932 
 3364      635F6861 
 3364      6E646C65 
 3365              	.LASF209:
 3366 014f 6D617374 		.ascii	"masterBufferIdx\000"
 3366      65724275 
 3366      66666572 
 3366      49647800 
 3367              	.LASF61:
 3368 015f 494E5452 		.ascii	"INTR_CAUSE\000"
 3368      5F434155 
 3368      534500
 3369              	.LASF113:
 3370 016a 736D6966 		.ascii	"smifDeviceNr\000"
 3370      44657669 
 3370      63654E72 
 3370      00
 3371              	.LASF178:
 3372 0177 43595F53 		.ascii	"CY_SAR_RANGE_COND_OUTSIDE\000"
 3372      41525F52 
 3372      414E4745 
 3372      5F434F4E 
 3372      445F4F55 
 3373              	.LASF143:
ARM GAS  C:\Users\stijn\AppData\Local\Temp\ccVPn9Mg.s 			page 95


 3374 0191 70657269 		.ascii	"periDivCmdPaTypeSelPos\000"
 3374      44697643 
 3374      6D645061 
 3374      54797065 
 3374      53656C50 
 3375              	.LASF30:
 3376 01a8 4346475F 		.ascii	"CFG_SIO\000"
 3376      53494F00 
 3377              	.LASF7:
 3378 01b0 5F5F696E 		.ascii	"__int32_t\000"
 3378      7433325F 
 3378      7400
 3379              	.LASF109:
 3380 01ba 73727373 		.ascii	"srssNumClkpath\000"
 3380      4E756D43 
 3380      6C6B7061 
 3380      746800
 3381              	.LASF51:
 3382 01c9 4348414E 		.ascii	"CHAN_WORK_NEWVALUE\000"
 3382      5F574F52 
 3382      4B5F4E45 
 3382      5756414C 
 3382      554500
 3383              	.LASF83:
 3384 01dc 63707573 		.ascii	"cpussBase\000"
 3384      73426173 
 3384      6500
 3385              	.LASF240:
 3386 01e6 6368616E 		.ascii	"channelBase\000"
 3386      6E656C42 
 3386      61736500 
 3387              	.LASF217:
 3388 01f2 736C6176 		.ascii	"slaveRxBuffer\000"
 3388      65527842 
 3388      75666665 
 3388      7200
 3389              	.LASF107:
 3390 0200 63707573 		.ascii	"cpussFmIrq\000"
 3390      73466D49 
 3390      727100
 3391              	.LASF242:
 3392 020b 6877436F 		.ascii	"hwConfigStc\000"
 3392      6E666967 
 3392      53746300 
 3393              	.LASF221:
 3394 0217 63624164 		.ascii	"cbAddr\000"
 3394      647200
 3395              	.LASF196:
 3396 021e 43595F53 		.ascii	"CY_SCB_I2C_ACK\000"
 3396      43425F49 
 3396      32435F41 
 3396      434B00
 3397              	.LASF0:
 3398 022d 73686F72 		.ascii	"short int\000"
 3398      7420696E 
 3398      7400
 3399              	.LASF229:
ARM GAS  C:\Users\stijn\AppData\Local\Temp\ccVPn9Mg.s 			page 96


 3400 0237 72785269 		.ascii	"rxRingBufSize\000"
 3400      6E674275 
 3400      6653697A 
 3400      6500
 3401              	.LASF53:
 3402 0245 53415455 		.ascii	"SATURATE_INTR\000"
 3402      52415445 
 3402      5F494E54 
 3402      5200
 3403              	.LASF198:
 3404 0253 63795F65 		.ascii	"cy_en_scb_i2c_command_t\000"
 3404      6E5F7363 
 3404      625F6932 
 3404      635F636F 
 3404      6D6D616E 
 3405              	.LASF139:
 3406 026b 70657269 		.ascii	"periTrGrSize\000"
 3406      54724772 
 3406      53697A65 
 3406      00
 3407              	.LASF65:
 3408 0278 494E4A5F 		.ascii	"INJ_RESULT\000"
 3408      52455355 
 3408      4C5400
 3409              	.LASF142:
 3410 0283 70657269 		.ascii	"periDivCmdPaDivSelPos\000"
 3410      44697643 
 3410      6D645061 
 3410      44697653 
 3410      656C506F 
 3411              	.LASF26:
 3412 0299 494E5452 		.ascii	"INTR_SET\000"
 3412      5F534554 
 3412      00
 3413              	.LASF286:
 3414 02a2 41444353 		.ascii	"ADCSampleTask\000"
 3414      616D706C 
 3414      65546173 
 3414      6B00
 3415              	.LASF189:
 3416 02b0 73617449 		.ascii	"satIntrMask\000"
 3416      6E74724D 
 3416      61736B00 
 3417              	.LASF165:
 3418 02bc 63707573 		.ascii	"cpussRam1Ctl0\000"
 3418      7352616D 
 3418      3143746C 
 3418      3000
 3419              	.LASF167:
 3420 02ca 69706353 		.ascii	"ipcStructSize\000"
 3420      74727563 
 3420      7453697A 
 3420      6500
 3421              	.LASF197:
 3422 02d8 43595F53 		.ascii	"CY_SCB_I2C_NAK\000"
 3422      43425F49 
 3422      32435F4E 
ARM GAS  C:\Users\stijn\AppData\Local\Temp\ccVPn9Mg.s 			page 97


 3422      414B00
 3423              	.LASF200:
 3424 02e7 63795F63 		.ascii	"cy_cb_scb_i2c_handle_addr_t\000"
 3424      625F7363 
 3424      625F6932 
 3424      635F6861 
 3424      6E646C65 
 3425              	.LASF280:
 3426 0303 474E5520 		.ascii	"GNU C11 5.4.1 20160609 (release) [ARM/embedded-5-br"
 3426      43313120 
 3426      352E342E 
 3426      31203230 
 3426      31363036 
 3427 0336 616E6368 		.ascii	"anch revision 237715] -mcpu=cortex-m4 -mfloat-abi=s"
 3427      20726576 
 3427      6973696F 
 3427      6E203233 
 3427      37373135 
 3428 0369 6F667466 		.ascii	"oftfp -mfpu=fpv4-sp-d16 -mthumb -g -Og -ffunction-s"
 3428      70202D6D 
 3428      6670753D 
 3428      66707634 
 3428      2D73702D 
 3429 039c 65637469 		.ascii	"ections -ffat-lto-objects\000"
 3429      6F6E7320 
 3429      2D666661 
 3429      742D6C74 
 3429      6F2D6F62 
 3430              	.LASF101:
 3431 03b6 70726F74 		.ascii	"protVersion\000"
 3431      56657273 
 3431      696F6E00 
 3432              	.LASF224:
 3433 03c2 63795F73 		.ascii	"cy_stc_scb_i2c_context\000"
 3433      74635F73 
 3433      63625F69 
 3433      32635F63 
 3433      6F6E7465 
 3434              	.LASF175:
 3435 03d9 43595F53 		.ascii	"CY_SAR_RANGE_COND_BELOW\000"
 3435      41525F52 
 3435      414E4745 
 3435      5F434F4E 
 3435      445F4245 
 3436              	.LASF141:
 3437 03f1 70657269 		.ascii	"periDivCmdTypeSelPos\000"
 3437      44697643 
 3437      6D645479 
 3437      70655365 
 3437      6C506F73 
 3438              	.LASF158:
 3439 0406 63707573 		.ascii	"cpussTrimRamCtlOffset\000"
 3439      73547269 
 3439      6D52616D 
 3439      43746C4F 
 3439      66667365 
 3440              	.LASF227:
ARM GAS  C:\Users\stijn\AppData\Local\Temp\ccVPn9Mg.s 			page 98


 3441 041c 72785374 		.ascii	"rxStatus\000"
 3441      61747573 
 3441      00
 3442              	.LASF261:
 3443 0425 41444354 		.ascii	"ADCTask\000"
 3443      61736B00 
 3444              	.LASF263:
 3445 042d 64617461 		.ascii	"dataReady\000"
 3445      52656164 
 3445      7900
 3446              	.LASF213:
 3447 0437 736C6176 		.ascii	"slaveTxBuffer\000"
 3447      65547842 
 3447      75666665 
 3447      7200
 3448              	.LASF215:
 3449 0445 736C6176 		.ascii	"slaveTxBufferIdx\000"
 3449      65547842 
 3449      75666665 
 3449      72496478 
 3449      00
 3450              	.LASF18:
 3451 0456 75696E74 		.ascii	"uint32_t\000"
 3451      33325F74 
 3451      00
 3452              	.LASF255:
 3453 045f 6E657752 		.ascii	"newReading\000"
 3453      65616469 
 3453      6E6700
 3454              	.LASF273:
 3455 046a 4144435F 		.ascii	"ADC_StartConvert\000"
 3455      53746172 
 3455      74436F6E 
 3455      76657274 
 3455      00
 3456              	.LASF151:
 3457 047b 6770696F 		.ascii	"gpioPrtCfgOutOffset\000"
 3457      50727443 
 3457      66674F75 
 3457      744F6666 
 3457      73657400 
 3458              	.LASF23:
 3459 048f 494E5452 		.ascii	"INTR\000"
 3459      00
 3460              	.LASF21:
 3461 0494 4F55545F 		.ascii	"OUT_SET\000"
 3461      53455400 
 3462              	.LASF94:
 3463 049c 63727970 		.ascii	"cryptoVersion\000"
 3463      746F5665 
 3463      7273696F 
 3463      6E00
 3464              	.LASF239:
 3465 04aa 63795F73 		.ascii	"cy_stc_scb_uart_context_t\000"
 3465      74635F73 
 3465      63625F75 
 3465      6172745F 
ARM GAS  C:\Users\stijn\AppData\Local\Temp\ccVPn9Mg.s 			page 99


 3465      636F6E74 
 3466              	.LASF115:
 3467 04c4 65704D6F 		.ascii	"epMonitorNr\000"
 3467      6E69746F 
 3467      724E7200 
 3468              	.LASF250:
 3469 04d0 62617365 		.ascii	"base\000"
 3469      00
 3470              	.LASF241:
 3471 04d5 6E756D43 		.ascii	"numChannels\000"
 3471      68616E6E 
 3471      656C7300 
 3472              	.LASF225:
 3473 04e1 63795F73 		.ascii	"cy_stc_scb_uart_context\000"
 3473      74635F73 
 3473      63625F75 
 3473      6172745F 
 3473      636F6E74 
 3474              	.LASF20:
 3475 04f9 4F55545F 		.ascii	"OUT_CLR\000"
 3475      434C5200 
 3476              	.LASF84:
 3477 0501 666C6173 		.ascii	"flashcBase\000"
 3477      68634261 
 3477      736500
 3478              	.LASF15:
 3479 050c 696E7431 		.ascii	"int16_t\000"
 3479      365F7400 
 3480              	.LASF150:
 3481 0514 6770696F 		.ascii	"gpioPrtCfgInOffset\000"
 3481      50727443 
 3481      6667496E 
 3481      4F666673 
 3481      657400
 3482              	.LASF288:
 3483 0527 72657375 		.ascii	"result\000"
 3483      6C7400
 3484              	.LASF279:
 3485 052e 414D7578 		.ascii	"AMuxSeq_GetChannel\000"
 3485      5365715F 
 3485      47657443 
 3485      68616E6E 
 3485      656C00
 3486              	.LASF12:
 3487 0541 6C6F6E67 		.ascii	"long long unsigned int\000"
 3487      206C6F6E 
 3487      6720756E 
 3487      7369676E 
 3487      65642069 
 3488              	.LASF147:
 3489 0558 70657269 		.ascii	"periDiv24_5CtlOffset\000"
 3489      44697632 
 3489      345F3543 
 3489      746C4F66 
 3489      66736574 
 3490              	.LASF152:
 3491 056d 6770696F 		.ascii	"gpioPrtCfgSioOffset\000"
ARM GAS  C:\Users\stijn\AppData\Local\Temp\ccVPn9Mg.s 			page 100


 3491      50727443 
 3491      66675369 
 3491      6F4F6666 
 3491      73657400 
 3492              	.LASF283:
 3493 0581 43795F47 		.ascii	"Cy_GPIO_Write\000"
 3493      50494F5F 
 3493      57726974 
 3493      6500
 3494              	.LASF106:
 3495 058f 63707573 		.ascii	"cpussIpc0Irq\000"
 3495      73497063 
 3495      30497271 
 3495      00
 3496              	.LASF284:
 3497 059c 696E6974 		.ascii	"initADC\000"
 3497      41444300 
 3498              	.LASF184:
 3499 05a4 72616E67 		.ascii	"rangeThres\000"
 3499      65546872 
 3499      657300
 3500              	.LASF86:
 3501 05af 75646242 		.ascii	"udbBase\000"
 3501      61736500 
 3502              	.LASF214:
 3503 05b7 736C6176 		.ascii	"slaveTxBufferSize\000"
 3503      65547842 
 3503      75666665 
 3503      7253697A 
 3503      6500
 3504              	.LASF176:
 3505 05c9 43595F53 		.ascii	"CY_SAR_RANGE_COND_INSIDE\000"
 3505      41525F52 
 3505      414E4745 
 3505      5F434F4E 
 3505      445F494E 
 3506              	.LASF212:
 3507 05e2 736C6176 		.ascii	"slaveRdBufEmpty\000"
 3507      65526442 
 3507      7566456D 
 3507      70747900 
 3508              	.LASF195:
 3509 05f2 63795F73 		.ascii	"cy_stc_sar_config_t\000"
 3509      74635F73 
 3509      61725F63 
 3509      6F6E6669 
 3509      675F7400 
 3510              	.LASF180:
 3511 0606 6374726C 		.ascii	"ctrl\000"
 3511      00
 3512              	.LASF270:
 3513 060b 4144435F 		.ascii	"ADC_Start\000"
 3513      53746172 
 3513      7400
 3514              	.LASF252:
 3515 0615 76616C75 		.ascii	"value\000"
 3515      6500
ARM GAS  C:\Users\stijn\AppData\Local\Temp\ccVPn9Mg.s 			page 101


 3516              	.LASF29:
 3517 061b 4346475F 		.ascii	"CFG_OUT\000"
 3517      4F555400 
 3518              	.LASF63:
 3519 0623 494E4A5F 		.ascii	"INJ_CHAN_CONFIG\000"
 3519      4348414E 
 3519      5F434F4E 
 3519      46494700 
 3520              	.LASF232:
 3521 0633 72784275 		.ascii	"rxBuf\000"
 3521      6600
 3522              	.LASF128:
 3523 0639 666C6173 		.ascii	"flashCtlMainWs3Freq\000"
 3523      6843746C 
 3523      4D61696E 
 3523      57733346 
 3523      72657100 
 3524              	.LASF110:
 3525 064d 73727373 		.ascii	"srssNumPll\000"
 3525      4E756D50 
 3525      6C6C00
 3526              	.LASF81:
 3527 0658 5341525F 		.ascii	"SAR_Type\000"
 3527      54797065 
 3527      00
 3528              	.LASF121:
 3529 0661 666C6173 		.ascii	"flashPipeRequired\000"
 3529      68506970 
 3529      65526571 
 3529      75697265 
 3529      6400
 3530              	.LASF220:
 3531 0673 63624576 		.ascii	"cbEvents\000"
 3531      656E7473 
 3531      00
 3532              	.LASF173:
 3533 067c 646F7562 		.ascii	"double\000"
 3533      6C6500
 3534              	.LASF174:
 3535 0683 5F426F6F 		.ascii	"_Bool\000"
 3535      6C00
 3536              	.LASF40:
 3537 0689 52414E47 		.ascii	"RANGE_COND\000"
 3537      455F434F 
 3537      4E4400
 3538              	.LASF125:
 3539 0694 666C6173 		.ascii	"flashCtlMainWs0Freq\000"
 3539      6843746C 
 3539      4D61696E 
 3539      57733046 
 3539      72657100 
 3540              	.LASF201:
 3541 06a8 75736552 		.ascii	"useRxFifo\000"
 3541      78466966 
 3541      6F00
 3542              	.LASF89:
 3543 06b2 6770696F 		.ascii	"gpioBase\000"
ARM GAS  C:\Users\stijn\AppData\Local\Temp\ccVPn9Mg.s 			page 102


 3543      42617365 
 3543      00
 3544              	.LASF95:
 3545 06bb 64775665 		.ascii	"dwVersion\000"
 3545      7273696F 
 3545      6E00
 3546              	.LASF172:
 3547 06c5 666C6F61 		.ascii	"float\000"
 3547      7400
 3548              	.LASF160:
 3549 06cb 63707573 		.ascii	"cpussSysTickCtlOffset\000"
 3549      73537973 
 3549      5469636B 
 3549      43746C4F 
 3549      66667365 
 3550              	.LASF116:
 3551 06e1 75646250 		.ascii	"udbPresent\000"
 3551      72657365 
 3551      6E7400
 3552              	.LASF80:
 3553 06ec 4750494F 		.ascii	"GPIO_PRT_Type\000"
 3553      5F505254 
 3553      5F547970 
 3553      6500
 3554              	.LASF134:
 3555 06fa 64775374 		.ascii	"dwStatusChIdxPos\000"
 3555      61747573 
 3555      43684964 
 3555      78506F73 
 3555      00
 3556              	.LASF5:
 3557 070b 5F5F7569 		.ascii	"__uint16_t\000"
 3557      6E743136 
 3557      5F7400
 3558              	.LASF79:
 3559 0716 5341525F 		.ascii	"SAR_V1_Type\000"
 3559      56315F54 
 3559      79706500 
 3560              	.LASF287:
 3561 0722 70764368 		.ascii	"pvChannel\000"
 3561      616E6E65 
 3561      6C00
 3562              	.LASF194:
 3563 072c 76726566 		.ascii	"vrefMvValue\000"
 3563      4D765661 
 3563      6C756500 
 3564              	.LASF92:
 3565 0738 63727970 		.ascii	"cryptoBase\000"
 3565      746F4261 
 3565      736500
 3566              	.LASF210:
 3567 0743 6D617374 		.ascii	"masterNumBytes\000"
 3567      65724E75 
 3567      6D427974 
 3567      657300
 3568              	.LASF281:
 3569 0752 616E616C 		.ascii	"analog.c\000"
ARM GAS  C:\Users\stijn\AppData\Local\Temp\ccVPn9Mg.s 			page 103


 3569      6F672E63 
 3569      00
 3570              	.LASF105:
 3571 075b 63707573 		.ascii	"cpussFlashPaSize\000"
 3571      73466C61 
 3571      73685061 
 3571      53697A65 
 3571      00
 3572              	.LASF272:
 3573 076c 414D7578 		.ascii	"AMuxSeq_Init\000"
 3573      5365715F 
 3573      496E6974 
 3573      00
 3574              	.LASF256:
 3575 0779 6368616E 		.ascii	"chan\000"
 3575      00
 3576              	.LASF177:
 3577 077e 43595F53 		.ascii	"CY_SAR_RANGE_COND_ABOVE\000"
 3577      41525F52 
 3577      414E4745 
 3577      5F434F4E 
 3577      445F4142 
 3578              	.LASF171:
 3579 0796 63686172 		.ascii	"char\000"
 3579      00
 3580              	.LASF276:
 3581 079b 43795F53 		.ascii	"Cy_SysLib_AssertFailed\000"
 3581      79734C69 
 3581      625F4173 
 3581      73657274 
 3581      4661696C 
 3582              	.LASF186:
 3583 07b2 6368616E 		.ascii	"chanEn\000"
 3583      456E00
 3584              	.LASF269:
 3585 07b9 6D493243 		.ascii	"mI2C_context\000"
 3585      5F636F6E 
 3585      74657874 
 3585      00
 3586              	.LASF231:
 3587 07c6 72785269 		.ascii	"rxRingBufTail\000"
 3587      6E674275 
 3587      66546169 
 3587      6C00
 3588              	.LASF117:
 3589 07d4 73797350 		.ascii	"sysPmSimoPresent\000"
 3589      6D53696D 
 3589      6F507265 
 3589      73656E74 
 3589      00
 3590              	.LASF208:
 3591 07e5 6D617374 		.ascii	"masterBufferSize\000"
 3591      65724275 
 3591      66666572 
 3591      53697A65 
 3591      00
 3592              	.LASF119:
ARM GAS  C:\Users\stijn\AppData\Local\Temp\ccVPn9Mg.s 			page 104


 3593 07f6 63727970 		.ascii	"cryptoMemSize\000"
 3593      746F4D65 
 3593      6D53697A 
 3593      6500
 3594              	.LASF52:
 3595 0804 4348414E 		.ascii	"CHAN_RESULT_NEWVALUE\000"
 3595      5F524553 
 3595      554C545F 
 3595      4E455756 
 3595      414C5545 
 3596              	.LASF234:
 3597 0819 72784275 		.ascii	"rxBufIdx\000"
 3597      66496478 
 3597      00
 3598              	.LASF238:
 3599 0822 696E6974 		.ascii	"initKey\000"
 3599      4B657900 
 3600              	.LASF68:
 3601 082a 4156475F 		.ascii	"AVG_STAT\000"
 3601      53544154 
 3601      00
 3602              	.LASF135:
 3603 0833 64775374 		.ascii	"dwStatusChIdxMsk\000"
 3603      61747573 
 3603      43684964 
 3603      784D736B 
 3603      00
 3604              	.LASF14:
 3605 0844 75696E74 		.ascii	"uint8_t\000"
 3605      385F7400 
 3606              	.LASF216:
 3607 084c 736C6176 		.ascii	"slaveTxBufferCnt\000"
 3607      65547842 
 3607      75666665 
 3607      72436E74 
 3607      00
 3608              	.LASF140:
 3609 085d 70657269 		.ascii	"periDivCmdDivSelMsk\000"
 3609      44697643 
 3609      6D644469 
 3609      7653656C 
 3609      4D736B00 
 3610              	.LASF58:
 3611 0871 52414E47 		.ascii	"RANGE_INTR_SET\000"
 3611      455F494E 
 3611      54525F53 
 3611      455400
 3612              	.LASF245:
 3613 0880 4144435F 		.ascii	"ADC_CONFIG_STRUCT\000"
 3613      434F4E46 
 3613      49475F53 
 3613      54525543 
 3613      5400
 3614              	.LASF192:
 3615 0892 6D757853 		.ascii	"muxSwitchSqCtrl\000"
 3615      77697463 
 3615      68537143 
ARM GAS  C:\Users\stijn\AppData\Local\Temp\ccVPn9Mg.s 			page 105


 3615      74726C00 
 3616              	.LASF274:
 3617 08a2 78546173 		.ascii	"xTaskGetTickCount\000"
 3617      6B476574 
 3617      5469636B 
 3617      436F756E 
 3617      7400
 3618              	.LASF223:
 3619 08b4 63795F63 		.ascii	"cy_cb_scb_uart_handle_events_t\000"
 3619      625F7363 
 3619      625F7561 
 3619      72745F68 
 3619      616E646C 
 3620              	.LASF185:
 3621 08d3 72616E67 		.ascii	"rangeCond\000"
 3621      65436F6E 
 3621      6400
 3622              	.LASF190:
 3623 08dd 72616E67 		.ascii	"rangeIntrMask\000"
 3623      65496E74 
 3623      724D6173 
 3623      6B00
 3624              	.LASF164:
 3625 08eb 63707573 		.ascii	"cpussRam0Ctl0\000"
 3625      7352616D 
 3625      3043746C 
 3625      3000
 3626              	.LASF11:
 3627 08f9 6C6F6E67 		.ascii	"long long int\000"
 3627      206C6F6E 
 3627      6720696E 
 3627      7400
 3628              	.LASF91:
 3629 0907 69706342 		.ascii	"ipcBase\000"
 3629      61736500 
 3630              	.LASF132:
 3631 090f 64774368 		.ascii	"dwChCtlPrioPos\000"
 3631      43746C50 
 3631      72696F50 
 3631      6F7300
 3632              	.LASF73:
 3633 091e 4D55585F 		.ascii	"MUX_SWITCH_DS_CTRL\000"
 3633      53574954 
 3633      43485F44 
 3633      535F4354 
 3633      524C00
 3634              	.LASF122:
 3635 0931 666C6173 		.ascii	"flashWriteDelay\000"
 3635      68577269 
 3635      74654465 
 3635      6C617900 
 3636              	.LASF202:
 3637 0941 75736554 		.ascii	"useTxFifo\000"
 3637      78466966 
 3637      6F00
 3638              	.LASF4:
 3639 094b 5F5F696E 		.ascii	"__int16_t\000"
ARM GAS  C:\Users\stijn\AppData\Local\Temp\ccVPn9Mg.s 			page 106


 3639      7431365F 
 3639      7400
 3640              	.LASF271:
 3641 0955 4144435F 		.ascii	"ADC_IRQ_Enable\000"
 3641      4952515F 
 3641      456E6162 
 3641      6C6500
 3642              	.LASF88:
 3643 0964 6873696F 		.ascii	"hsiomBase\000"
 3643      6D426173 
 3643      6500
 3644              	.LASF206:
 3645 096e 6D617374 		.ascii	"masterRdDir\000"
 3645      65725264 
 3645      44697200 
 3646              	.LASF47:
 3647 097a 4348414E 		.ascii	"CHAN_RESULT\000"
 3647      5F524553 
 3647      554C5400 
 3648              	.LASF138:
 3649 0986 70657269 		.ascii	"periTrGrOffset\000"
 3649      54724772 
 3649      4F666673 
 3649      657400
 3650              	.LASF108:
 3651 0995 63707573 		.ascii	"cpussNotConnectedIrq\000"
 3651      734E6F74 
 3651      436F6E6E 
 3651      65637465 
 3651      64497271 
 3652              	.LASF57:
 3653 09aa 52414E47 		.ascii	"RANGE_INTR\000"
 3653      455F494E 
 3653      545200
 3654              	.LASF230:
 3655 09b5 72785269 		.ascii	"rxRingBufHead\000"
 3655      6E674275 
 3655      66486561 
 3655      6400
 3656              	.LASF104:
 3657 09c3 63707573 		.ascii	"cpussDwChNr\000"
 3657      73447743 
 3657      684E7200 
 3658              	.LASF24:
 3659 09cf 494E5452 		.ascii	"INTR_MASK\000"
 3659      5F4D4153 
 3659      4B00
 3660              	.LASF36:
 3661 09d9 53414D50 		.ascii	"SAMPLE_CTRL\000"
 3661      4C455F43 
 3661      54524C00 
 3662              	.LASF187:
 3663 09e5 6368616E 		.ascii	"chanConfig\000"
 3663      436F6E66 
 3663      696700
 3664              	.LASF236:
 3665 09f0 74784275 		.ascii	"txBufSize\000"
ARM GAS  C:\Users\stijn\AppData\Local\Temp\ccVPn9Mg.s 			page 107


 3665      6653697A 
 3665      6500
 3666              	.LASF102:
 3667 09fa 63707573 		.ascii	"cpussIpcNr\000"
 3667      73497063 
 3667      4E7200
 3668              	.LASF71:
 3669 0a05 4D55585F 		.ascii	"MUX_SWITCH_CLEAR0\000"
 3669      53574954 
 3669      43485F43 
 3669      4C454152 
 3669      3000
 3670              	.LASF114:
 3671 0a17 70617373 		.ascii	"passSarChannels\000"
 3671      53617243 
 3671      68616E6E 
 3671      656C7300 
 3672              	.LASF219:
 3673 0a27 736C6176 		.ascii	"slaveRxBufferIdx\000"
 3673      65527842 
 3673      75666665 
 3673      72496478 
 3673      00
 3674              	.LASF166:
 3675 0a38 63707573 		.ascii	"cpussRam2Ctl0\000"
 3675      7352616D 
 3675      3243746C 
 3675      3000
 3676              	.LASF205:
 3677 0a46 6D617374 		.ascii	"masterPause\000"
 3677      65725061 
 3677      75736500 
 3678              	.LASF42:
 3679 0a52 53544152 		.ascii	"START_CTRL\000"
 3679      545F4354 
 3679      524C00
 3680              	.LASF235:
 3681 0a5d 74784275 		.ascii	"txBuf\000"
 3681      6600
 3682              	.LASF246:
 3683 0a63 5469636B 		.ascii	"TickType_t\000"
 3683      54797065 
 3683      5F7400
 3684              	.LASF123:
 3685 0a6e 666C6173 		.ascii	"flashProgramDelay\000"
 3685      6850726F 
 3685      6772616D 
 3685      44656C61 
 3685      7900
 3686              	.LASF145:
 3687 0a80 70657269 		.ascii	"periDiv16CtlOffset\000"
 3687      44697631 
 3687      3643746C 
 3687      4F666673 
 3687      657400
 3688              	.LASF218:
 3689 0a93 736C6176 		.ascii	"slaveRxBufferSize\000"
ARM GAS  C:\Users\stijn\AppData\Local\Temp\ccVPn9Mg.s 			page 108


 3689      65527842 
 3689      75666665 
 3689      7253697A 
 3689      6500
 3690              	.LASF6:
 3691 0aa5 73686F72 		.ascii	"short unsigned int\000"
 3691      7420756E 
 3691      7369676E 
 3691      65642069 
 3691      6E7400
 3692              	.LASF228:
 3693 0ab8 72785269 		.ascii	"rxRingBuf\000"
 3693      6E674275 
 3693      6600
 3694              	.LASF82:
 3695 0ac2 6C6F6E67 		.ascii	"long double\000"
 3695      20646F75 
 3695      626C6500 
 3696              	.LASF16:
 3697 0ace 75696E74 		.ascii	"uint16_t\000"
 3697      31365F74 
 3697      00
 3698              	.LASF87:
 3699 0ad7 70726F74 		.ascii	"protBase\000"
 3699      42617365 
 3699      00
 3700              	.LASF137:
 3701 0ae0 70657269 		.ascii	"periTrCmdGrSelMsk\000"
 3701      5472436D 
 3701      64477253 
 3701      656C4D73 
 3701      6B00
 3702              	.LASF207:
 3703 0af2 6D617374 		.ascii	"masterBuffer\000"
 3703      65724275 
 3703      66666572 
 3703      00
 3704              	.LASF28:
 3705 0aff 4346475F 		.ascii	"CFG_IN\000"
 3705      494E00
 3706              	.LASF182:
 3707 0b06 73616D70 		.ascii	"sampleTime01\000"
 3707      6C655469 
 3707      6D653031 
 3707      00
 3708              	.LASF249:
 3709 0b13 6368616E 		.ascii	"channel\000"
 3709      6E656C00 
 3710              	.LASF111:
 3711 0b1b 73727373 		.ascii	"srssNumHfroot\000"
 3711      4E756D48 
 3711      66726F6F 
 3711      7400
 3712              	.LASF254:
 3713 0b29 78467265 		.ascii	"xFrequency\000"
 3713      7175656E 
 3713      637900
ARM GAS  C:\Users\stijn\AppData\Local\Temp\ccVPn9Mg.s 			page 109


 3714              	.LASF191:
 3715 0b34 6D757853 		.ascii	"muxSwitch\000"
 3715      77697463 
 3715      6800
 3716              	.LASF127:
 3717 0b3e 666C6173 		.ascii	"flashCtlMainWs2Freq\000"
 3717      6843746C 
 3717      4D61696E 
 3717      57733246 
 3717      72657100 
 3718              	.LASF19:
 3719 0b52 73697A65 		.ascii	"sizetype\000"
 3719      74797065 
 3719      00
 3720              	.LASF162:
 3721 0b5b 63707573 		.ascii	"cpussCm4NmiCtlOffset\000"
 3721      73436D34 
 3721      4E6D6943 
 3721      746C4F66 
 3721      66736574 
 3722              	.LASF157:
 3723 0b70 63707573 		.ascii	"cpussCm4PwrCtlOffset\000"
 3723      73436D34 
 3723      50777243 
 3723      746C4F66 
 3723      66736574 
 3724              	.LASF144:
 3725 0b85 70657269 		.ascii	"periDiv8CtlOffset\000"
 3725      44697638 
 3725      43746C4F 
 3725      66667365 
 3725      7400
 3726              	.LASF44:
 3727 0b97 52455345 		.ascii	"RESERVED2\000"
 3727      52564544 
 3727      3200
 3728              	.LASF46:
 3729 0ba1 52455345 		.ascii	"RESERVED3\000"
 3729      52564544 
 3729      3300
 3730              	.LASF48:
 3731 0bab 52455345 		.ascii	"RESERVED4\000"
 3731      52564544 
 3731      3400
 3732              	.LASF62:
 3733 0bb5 52455345 		.ascii	"RESERVED5\000"
 3733      52564544 
 3733      3500
 3734              	.LASF64:
 3735 0bbf 52455345 		.ascii	"RESERVED6\000"
 3735      52564544 
 3735      3600
 3736              	.LASF66:
 3737 0bc9 52455345 		.ascii	"RESERVED7\000"
 3737      52564544 
 3737      3700
 3738              	.LASF69:
ARM GAS  C:\Users\stijn\AppData\Local\Temp\ccVPn9Mg.s 			page 110


 3739 0bd3 52455345 		.ascii	"RESERVED8\000"
 3739      52564544 
 3739      3800
 3740              	.LASF72:
 3741 0bdd 52455345 		.ascii	"RESERVED9\000"
 3741      52564544 
 3741      3900
 3742              	.LASF268:
 3743 0be7 4144435F 		.ascii	"ADC_allConfigs\000"
 3743      616C6C43 
 3743      6F6E6669 
 3743      677300
 3744              	.LASF56:
 3745 0bf6 53415455 		.ascii	"SATURATE_INTR_MASKED\000"
 3745      52415445 
 3745      5F494E54 
 3745      525F4D41 
 3745      534B4544 
 3746              	.LASF74:
 3747 0c0b 4D55585F 		.ascii	"MUX_SWITCH_SQ_CTRL\000"
 3747      53574954 
 3747      43485F53 
 3747      515F4354 
 3747      524C00
 3748              	.LASF8:
 3749 0c1e 6C6F6E67 		.ascii	"long int\000"
 3749      20696E74 
 3749      00
 3750              	.LASF93:
 3751 0c27 63707573 		.ascii	"cpussVersion\000"
 3751      73566572 
 3751      73696F6E 
 3751      00
 3752              	.LASF264:
 3753 0c34 49544D5F 		.ascii	"ITM_RxBuffer\000"
 3753      52784275 
 3753      66666572 
 3753      00
 3754              	.LASF97:
 3755 0c41 6770696F 		.ascii	"gpioVersion\000"
 3755      56657273 
 3755      696F6E00 
 3756              	.LASF96:
 3757 0c4d 666C6173 		.ascii	"flashcVersion\000"
 3757      68635665 
 3757      7273696F 
 3757      6E00
 3758              	.LASF118:
 3759 0c5b 70726F74 		.ascii	"protBusMasterMask\000"
 3759      4275734D 
 3759      61737465 
 3759      724D6173 
 3759      6B00
 3760              	.LASF278:
 3761 0c6d 414D7578 		.ascii	"AMuxSeq_Next\000"
 3761      5365715F 
 3761      4E657874 
ARM GAS  C:\Users\stijn\AppData\Local\Temp\ccVPn9Mg.s 			page 111


 3761      00
 3762              	.LASF34:
 3763 0c7a 4750494F 		.ascii	"GPIO_PRT_V1_Type\000"
 3763      5F505254 
 3763      5F56315F 
 3763      54797065 
 3763      00
 3764              	.LASF39:
 3765 0c8b 52414E47 		.ascii	"RANGE_THRES\000"
 3765      455F5448 
 3765      52455300 
 3766              	.LASF253:
 3767 0c97 784C6173 		.ascii	"xLastWakeTime\000"
 3767      7457616B 
 3767      6554696D 
 3767      6500
 3768              	.LASF170:
 3769 0ca5 63686172 		.ascii	"char_t\000"
 3769      5F7400
 3770              	.LASF45:
 3771 0cac 4348414E 		.ascii	"CHAN_WORK\000"
 3771      5F574F52 
 3771      4B00
 3772              	.LASF32:
 3773 0cb6 4346475F 		.ascii	"CFG_IN_GPIO5V\000"
 3773      494E5F47 
 3773      50494F35 
 3773      5600
 3774              	.LASF237:
 3775 0cc4 74784C65 		.ascii	"txLeftToTransmit\000"
 3775      6674546F 
 3775      5472616E 
 3775      736D6974 
 3775      00
 3776              	.LASF22:
 3777 0cd5 4F55545F 		.ascii	"OUT_INV\000"
 3777      494E5600 
 3778              	.LASF262:
 3779 0cdd 4144435F 		.ascii	"ADC_ISR_Callback\000"
 3779      4953525F 
 3779      43616C6C 
 3779      6261636B 
 3779      00
 3780              	.LASF3:
 3781 0cee 5F5F7569 		.ascii	"__uint8_t\000"
 3781      6E74385F 
 3781      7400
 3782              	.LASF243:
 3783 0cf8 6D697363 		.ascii	"miscConfig\000"
 3783      436F6E66 
 3783      696700
 3784              	.LASF148:
 3785 0d03 6770696F 		.ascii	"gpioPrtIntrCfgOffset\000"
 3785      50727449 
 3785      6E747243 
 3785      66674F66 
 3785      66736574 
ARM GAS  C:\Users\stijn\AppData\Local\Temp\ccVPn9Mg.s 			page 112


 3786              	.LASF154:
 3787 0d18 63707573 		.ascii	"cpussCm4ClockCtlOffset\000"
 3787      73436D34 
 3787      436C6F63 
 3787      6B43746C 
 3787      4F666673 
 3788              	.LASF25:
 3789 0d2f 494E5452 		.ascii	"INTR_MASKED\000"
 3789      5F4D4153 
 3789      4B454400 
 3790              	.LASF159:
 3791 0d3b 63707573 		.ascii	"cpussTrimRomCtlOffset\000"
 3791      73547269 
 3791      6D526F6D 
 3791      43746C4F 
 3791      66667365 
 3792              	.LASF183:
 3793 0d51 73616D70 		.ascii	"sampleTime23\000"
 3793      6C655469 
 3793      6D653233 
 3793      00
 3794              	.LASF98:
 3795 0d5e 6873696F 		.ascii	"hsiomVersion\000"
 3795      6D566572 
 3795      73696F6E 
 3795      00
 3796              	.LASF10:
 3797 0d6b 6C6F6E67 		.ascii	"long unsigned int\000"
 3797      20756E73 
 3797      69676E65 
 3797      6420696E 
 3797      7400
 3798              	.LASF163:
 3799 0d7d 63707573 		.ascii	"cpussRomCtl\000"
 3799      73526F6D 
 3799      43746C00 
 3800              	.LASF277:
 3801 0d89 43795F53 		.ascii	"Cy_SAR_GetResult16\000"
 3801      41525F47 
 3801      65745265 
 3801      73756C74 
 3801      313600
 3802              	.LASF17:
 3803 0d9c 696E7433 		.ascii	"int32_t\000"
 3803      325F7400 
 3804              	.LASF247:
 3805 0da4 706F7274 		.ascii	"port\000"
 3805      00
 3806              	.LASF50:
 3807 0da9 4348414E 		.ascii	"CHAN_RESULT_UPDATED\000"
 3807      5F524553 
 3807      554C545F 
 3807      55504441 
 3807      54454400 
 3808              	.LASF285:
 3809 0dbd 4144435F 		.ascii	"ADC_GetResult16\000"
 3809      47657452 
ARM GAS  C:\Users\stijn\AppData\Local\Temp\ccVPn9Mg.s 			page 113


 3809      6573756C 
 3809      74313600 
 3810              	.LASF156:
 3811 0dcd 63707573 		.ascii	"cpussCm0StatusOffset\000"
 3811      73436D30 
 3811      53746174 
 3811      75734F66 
 3811      66736574 
 3812              	.LASF181:
 3813 0de2 73616D70 		.ascii	"sampleCtrl\000"
 3813      6C654374 
 3813      726C00
 3814              	.LASF38:
 3815 0ded 53414D50 		.ascii	"SAMPLE_TIME23\000"
 3815      4C455F54 
 3815      494D4532 
 3815      3300
 3816              	.LASF2:
 3817 0dfb 756E7369 		.ascii	"unsigned char\000"
 3817      676E6564 
 3817      20636861 
 3817      7200
 3818              	.LASF77:
 3819 0e09 414E415F 		.ascii	"ANA_TRIM0\000"
 3819      5452494D 
 3819      3000
 3820              	.LASF78:
 3821 0e13 414E415F 		.ascii	"ANA_TRIM1\000"
 3821      5452494D 
 3821      3100
 3822              	.LASF9:
 3823 0e1d 5F5F7569 		.ascii	"__uint32_t\000"
 3823      6E743332 
 3823      5F7400
 3824              	.LASF168:
 3825 0e28 6970634C 		.ascii	"ipcLockStatusOffset\000"
 3825      6F636B53 
 3825      74617475 
 3825      734F6666 
 3825      73657400 
 3826              	.LASF27:
 3827 0e3c 494E5452 		.ascii	"INTR_CFG\000"
 3827      5F434647 
 3827      00
 3828              	.LASF275:
 3829 0e45 76546173 		.ascii	"vTaskDelayUntil\000"
 3829      6B44656C 
 3829      6179556E 
 3829      74696C00 
 3830              	.LASF55:
 3831 0e55 53415455 		.ascii	"SATURATE_INTR_MASK\000"
 3831      52415445 
 3831      5F494E54 
 3831      525F4D41 
 3831      534B00
 3832              	.LASF76:
 3833 0e68 52455345 		.ascii	"RESERVED10\000"
ARM GAS  C:\Users\stijn\AppData\Local\Temp\ccVPn9Mg.s 			page 114


 3833      52564544 
 3833      313000
 3834              	.LASF124:
 3835 0e73 666C6173 		.ascii	"flashEraseDelay\000"
 3835      68457261 
 3835      73654465 
 3835      6C617900 
 3836              	.LASF244:
 3837 0e83 636C6B44 		.ascii	"clkDivider\000"
 3837      69766964 
 3837      657200
 3838              	.LASF258:
 3839 0e8e 6E657752 		.ascii	"newReading1\000"
 3839      65616469 
 3839      6E673100 
 3840              	.LASF259:
 3841 0e9a 6E657752 		.ascii	"newReading2\000"
 3841      65616469 
 3841      6E673200 
 3842              	.LASF260:
 3843 0ea6 6E657752 		.ascii	"newReading3\000"
 3843      65616469 
 3843      6E673300 
 3844              	.LASF203:
 3845 0eb2 73746174 		.ascii	"state\000"
 3845      6500
 3846              	.LASF54:
 3847 0eb8 53415455 		.ascii	"SATURATE_INTR_SET\000"
 3847      52415445 
 3847      5F494E54 
 3847      525F5345 
 3847      5400
 3848              	.LASF267:
 3849 0eca 4144435F 		.ascii	"ADC_currentConfig\000"
 3849      63757272 
 3849      656E7443 
 3849      6F6E6669 
 3849      6700
 3850              	.LASF120:
 3851 0edc 666C6173 		.ascii	"flashRwwRequired\000"
 3851      68527777 
 3851      52657175 
 3851      69726564 
 3851      00
 3852              	.LASF149:
 3853 0eed 6770696F 		.ascii	"gpioPrtCfgOffset\000"
 3853      50727443 
 3853      66674F66 
 3853      66736574 
 3853      00
 3854              	.LASF251:
 3855 0efe 70696E4E 		.ascii	"pinNum\000"
 3855      756D00
 3856              	.LASF266:
 3857 0f05 55415254 		.ascii	"UART_context\000"
 3857      5F636F6E 
 3857      74657874 
ARM GAS  C:\Users\stijn\AppData\Local\Temp\ccVPn9Mg.s 			page 115


 3857      00
 3858              	.LASF1:
 3859 0f12 7369676E 		.ascii	"signed char\000"
 3859      65642063 
 3859      68617200 
 3860              	.LASF130:
 3861 0f1e 64774368 		.ascii	"dwChOffset\000"
 3861      4F666673 
 3861      657400
 3862              	.LASF103:
 3863 0f29 63707573 		.ascii	"cpussIpcIrqNr\000"
 3863      73497063 
 3863      4972714E 
 3863      7200
 3864              	.LASF133:
 3865 0f37 64774368 		.ascii	"dwChCtlPreemptablePos\000"
 3865      43746C50 
 3865      7265656D 
 3865      70746162 
 3865      6C65506F 
 3866              	.LASF211:
 3867 0f4d 736C6176 		.ascii	"slaveStatus\000"
 3867      65537461 
 3867      74757300 
 3868              	.LASF155:
 3869 0f59 63707573 		.ascii	"cpussCm4StatusOffset\000"
 3869      73436D34 
 3869      53746174 
 3869      75734F66 
 3869      66736574 
 3870              	.LASF169:
 3871 0f6e 63795F73 		.ascii	"cy_stc_device_t\000"
 3871      74635F64 
 3871      65766963 
 3871      655F7400 
 3872              	.LASF75:
 3873 0f7e 4D55585F 		.ascii	"MUX_SWITCH_STATUS\000"
 3873      53574954 
 3873      43485F53 
 3873      54415455 
 3873      5300
 3874              	.LASF100:
 3875 0f90 70657269 		.ascii	"periVersion\000"
 3875      56657273 
 3875      696F6E00 
 3876              	.LASF193:
 3877 0f9c 636F6E66 		.ascii	"configRouting\000"
 3877      6967526F 
 3877      7574696E 
 3877      6700
 3878              	.LASF90:
 3879 0faa 70617373 		.ascii	"passBase\000"
 3879      42617365 
 3879      00
 3880              	.LASF33:
 3881 0fb3 52455345 		.ascii	"RESERVED1\000"
 3881      52564544 
ARM GAS  C:\Users\stijn\AppData\Local\Temp\ccVPn9Mg.s 			page 116


 3881      3100
 3882              	.LASF146:
 3883 0fbd 70657269 		.ascii	"periDiv16_5CtlOffset\000"
 3883      44697631 
 3883      365F3543 
 3883      746C4F66 
 3883      66736574 
 3884              	.LASF67:
 3885 0fd2 53544154 		.ascii	"STATUS\000"
 3885      555300
 3886              	.LASF222:
 3887 0fd9 63795F73 		.ascii	"cy_stc_scb_i2c_context_t\000"
 3887      74635F73 
 3887      63625F69 
 3887      32635F63 
 3887      6F6E7465 
 3888              	.LASF129:
 3889 0ff2 666C6173 		.ascii	"flashCtlMainWs4Freq\000"
 3889      6843746C 
 3889      4D61696E 
 3889      57733446 
 3889      72657100 
 3890              	.LASF43:
 3891 1006 4348414E 		.ascii	"CHAN_CONFIG\000"
 3891      5F434F4E 
 3891      46494700 
 3892              	.LASF70:
 3893 1012 4D55585F 		.ascii	"MUX_SWITCH0\000"
 3893      53574954 
 3893      43483000 
 3894              	.LASF179:
 3895 101e 63795F65 		.ascii	"cy_en_sar_range_detect_condition_t\000"
 3895      6E5F7361 
 3895      725F7261 
 3895      6E67655F 
 3895      64657465 
 3896              	.LASF37:
 3897 1041 53414D50 		.ascii	"SAMPLE_TIME01\000"
 3897      4C455F54 
 3897      494D4530 
 3897      3100
 3898              	.LASF99:
 3899 104f 69706356 		.ascii	"ipcVersion\000"
 3899      65727369 
 3899      6F6E00
 3900              	.LASF188:
 3901 105a 696E7472 		.ascii	"intrMask\000"
 3901      4D61736B 
 3901      00
 3902              	.LASF136:
 3903 1063 70657269 		.ascii	"periTrCmdOffset\000"
 3903      5472436D 
 3903      644F6666 
 3903      73657400 
 3904              	.LASF233:
 3905 1073 72784275 		.ascii	"rxBufSize\000"
 3905      6653697A 
ARM GAS  C:\Users\stijn\AppData\Local\Temp\ccVPn9Mg.s 			page 117


 3905      6500
 3906              	.LASF35:
 3907 107d 4354524C 		.ascii	"CTRL\000"
 3907      00
 3908              		.ident	"GCC: (GNU Tools for ARM Embedded Processors) 5.4.1 20160609 (release) [ARM/embedded-5-bran
