ARM GAS  C:\Users\stijn\AppData\Local\Temp\ccPWVksW.s 			page 1


   1              		.syntax unified
   2              		.cpu cortex-m4
   3              		.eabi_attribute 27, 1
   4              		.fpu fpv4-sp-d16
   5              		.eabi_attribute 20, 1
   6              		.eabi_attribute 21, 1
   7              		.eabi_attribute 23, 3
   8              		.eabi_attribute 24, 1
   9              		.eabi_attribute 25, 1
  10              		.eabi_attribute 26, 1
  11              		.eabi_attribute 30, 6
  12              		.eabi_attribute 34, 1
  13              		.eabi_attribute 18, 4
  14              		.thumb
  15              		.syntax unified
  16              		.file	"cy_dma.c"
  17              		.text
  18              	.Ltext0:
  19              		.cfi_sections	.debug_frame
  20              		.section	.text.Cy_DMA_Descriptor_GetDescriptorType,"ax",%progbits
  21              		.align	2
  22              		.thumb
  23              		.thumb_func
  24              		.type	Cy_DMA_Descriptor_GetDescriptorType, %function
  25              	Cy_DMA_Descriptor_GetDescriptorType:
  26              	.LFB155:
  27              		.file 1 "Generated_Source\\PSoC6\\pdl\\drivers\\peripheral\\dma\\cy_dma.h"
   1:Generated_Source\PSoC6\pdl\drivers\peripheral\dma/cy_dma.h **** /***************************************************************************//**
   2:Generated_Source\PSoC6\pdl\drivers\peripheral\dma/cy_dma.h **** * \file cy_dma.h
   3:Generated_Source\PSoC6\pdl\drivers\peripheral\dma/cy_dma.h **** * \version 2.10
   4:Generated_Source\PSoC6\pdl\drivers\peripheral\dma/cy_dma.h **** *
   5:Generated_Source\PSoC6\pdl\drivers\peripheral\dma/cy_dma.h **** * \brief
   6:Generated_Source\PSoC6\pdl\drivers\peripheral\dma/cy_dma.h **** * The header file of the DMA driver.
   7:Generated_Source\PSoC6\pdl\drivers\peripheral\dma/cy_dma.h **** *
   8:Generated_Source\PSoC6\pdl\drivers\peripheral\dma/cy_dma.h **** ********************************************************************************
   9:Generated_Source\PSoC6\pdl\drivers\peripheral\dma/cy_dma.h **** * \copyright
  10:Generated_Source\PSoC6\pdl\drivers\peripheral\dma/cy_dma.h **** * Copyright 2016-2018, Cypress Semiconductor Corporation. All rights reserved.
  11:Generated_Source\PSoC6\pdl\drivers\peripheral\dma/cy_dma.h **** * You may use this file only in accordance with the license, terms, conditions,
  12:Generated_Source\PSoC6\pdl\drivers\peripheral\dma/cy_dma.h **** * disclaimers, and limitations in the end user license agreement accompanying
  13:Generated_Source\PSoC6\pdl\drivers\peripheral\dma/cy_dma.h **** * the software package with which this file was provided.
  14:Generated_Source\PSoC6\pdl\drivers\peripheral\dma/cy_dma.h **** *******************************************************************************/
  15:Generated_Source\PSoC6\pdl\drivers\peripheral\dma/cy_dma.h **** 
  16:Generated_Source\PSoC6\pdl\drivers\peripheral\dma/cy_dma.h **** /**
  17:Generated_Source\PSoC6\pdl\drivers\peripheral\dma/cy_dma.h **** * \addtogroup group_dma
  18:Generated_Source\PSoC6\pdl\drivers\peripheral\dma/cy_dma.h **** * \{
  19:Generated_Source\PSoC6\pdl\drivers\peripheral\dma/cy_dma.h **** * Configures a DMA channel and its descriptor(s).
  20:Generated_Source\PSoC6\pdl\drivers\peripheral\dma/cy_dma.h **** *
  21:Generated_Source\PSoC6\pdl\drivers\peripheral\dma/cy_dma.h **** * The functions and other declarations used in this driver are in cy_dma.h. 
  22:Generated_Source\PSoC6\pdl\drivers\peripheral\dma/cy_dma.h **** * You can include cy_pdl.h (ModusToolbox only) to get access to all functions 
  23:Generated_Source\PSoC6\pdl\drivers\peripheral\dma/cy_dma.h **** * and declarations in the PDL.
  24:Generated_Source\PSoC6\pdl\drivers\peripheral\dma/cy_dma.h **** *
  25:Generated_Source\PSoC6\pdl\drivers\peripheral\dma/cy_dma.h **** * The DMA channel can be used in any project to transfer data
  26:Generated_Source\PSoC6\pdl\drivers\peripheral\dma/cy_dma.h **** * without CPU intervention basing on a hardware trigger signal from another component.
  27:Generated_Source\PSoC6\pdl\drivers\peripheral\dma/cy_dma.h **** *
  28:Generated_Source\PSoC6\pdl\drivers\peripheral\dma/cy_dma.h **** * A device may support more than one DMA hardware block. Each block has a set of 
  29:Generated_Source\PSoC6\pdl\drivers\peripheral\dma/cy_dma.h **** * registers, a base hardware address, and supports multiple channels. 
  30:Generated_Source\PSoC6\pdl\drivers\peripheral\dma/cy_dma.h **** * Many API functions for the DMA driver require a base hardware address and  
ARM GAS  C:\Users\stijn\AppData\Local\Temp\ccPWVksW.s 			page 2


  31:Generated_Source\PSoC6\pdl\drivers\peripheral\dma/cy_dma.h **** * channel number. Ensure that you use the correct hardware address for the DMA block in use.
  32:Generated_Source\PSoC6\pdl\drivers\peripheral\dma/cy_dma.h **** * 
  33:Generated_Source\PSoC6\pdl\drivers\peripheral\dma/cy_dma.h **** * Features:
  34:Generated_Source\PSoC6\pdl\drivers\peripheral\dma/cy_dma.h **** * * Multiple DW blocks (device specific)
  35:Generated_Source\PSoC6\pdl\drivers\peripheral\dma/cy_dma.h **** * * Multiple channels per each DW block (device specific)
  36:Generated_Source\PSoC6\pdl\drivers\peripheral\dma/cy_dma.h **** * * Four priority levels for each channel
  37:Generated_Source\PSoC6\pdl\drivers\peripheral\dma/cy_dma.h **** * * Byte, half-word (2-byte), and word (4-byte) transfers
  38:Generated_Source\PSoC6\pdl\drivers\peripheral\dma/cy_dma.h **** * * Configurable source and destination addresses
  39:Generated_Source\PSoC6\pdl\drivers\peripheral\dma/cy_dma.h **** * * CRC calculation support (only for CPUSS_ver2)
  40:Generated_Source\PSoC6\pdl\drivers\peripheral\dma/cy_dma.h **** *
  41:Generated_Source\PSoC6\pdl\drivers\peripheral\dma/cy_dma.h **** * \section group_dma_configuration Configuration Considerations
  42:Generated_Source\PSoC6\pdl\drivers\peripheral\dma/cy_dma.h **** *
  43:Generated_Source\PSoC6\pdl\drivers\peripheral\dma/cy_dma.h **** * To set up a DMA driver, initialize a descriptor,
  44:Generated_Source\PSoC6\pdl\drivers\peripheral\dma/cy_dma.h **** * initialize and enable a channel, and enable the DMA block.
  45:Generated_Source\PSoC6\pdl\drivers\peripheral\dma/cy_dma.h **** * 
  46:Generated_Source\PSoC6\pdl\drivers\peripheral\dma/cy_dma.h **** * To set up a descriptor, provide the configuration parameters for the 
  47:Generated_Source\PSoC6\pdl\drivers\peripheral\dma/cy_dma.h **** * descriptor in the \ref cy_stc_dma_descriptor_config_t structure. Then call the 
  48:Generated_Source\PSoC6\pdl\drivers\peripheral\dma/cy_dma.h **** * \ref Cy_DMA_Descriptor_Init function to initialize the descriptor in SRAM. You can 
  49:Generated_Source\PSoC6\pdl\drivers\peripheral\dma/cy_dma.h **** * modify the source and destination addresses dynamically by calling 
  50:Generated_Source\PSoC6\pdl\drivers\peripheral\dma/cy_dma.h **** * \ref Cy_DMA_Descriptor_SetSrcAddress and \ref Cy_DMA_Descriptor_SetDstAddress.
  51:Generated_Source\PSoC6\pdl\drivers\peripheral\dma/cy_dma.h **** * 
  52:Generated_Source\PSoC6\pdl\drivers\peripheral\dma/cy_dma.h **** * To set up a DMA channel, provide a filled \ref cy_stc_dma_channel_config_t 
  53:Generated_Source\PSoC6\pdl\drivers\peripheral\dma/cy_dma.h **** * structure. Call the \ref Cy_DMA_Channel_Init function, specifying the channel
  54:Generated_Source\PSoC6\pdl\drivers\peripheral\dma/cy_dma.h **** * number. Use \ref Cy_DMA_Channel_Enable to enable the configured DMA channel.
  55:Generated_Source\PSoC6\pdl\drivers\peripheral\dma/cy_dma.h **** *
  56:Generated_Source\PSoC6\pdl\drivers\peripheral\dma/cy_dma.h **** * Call \ref Cy_DMA_Channel_Enable for each DMA channel in use.
  57:Generated_Source\PSoC6\pdl\drivers\peripheral\dma/cy_dma.h **** *
  58:Generated_Source\PSoC6\pdl\drivers\peripheral\dma/cy_dma.h **** * When configured, another peripheral typically triggers the DMA. The trigger is
  59:Generated_Source\PSoC6\pdl\drivers\peripheral\dma/cy_dma.h **** * connected to the DMA using the trigger multiplexer. The trigger multiplexer
  60:Generated_Source\PSoC6\pdl\drivers\peripheral\dma/cy_dma.h **** * driver has a software trigger you can use in firmware to trigger the DMA. See the
  61:Generated_Source\PSoC6\pdl\drivers\peripheral\dma/cy_dma.h **** * <a href="group__group__trigmux.html">Trigger Multiplexer</a> documentation.
  62:Generated_Source\PSoC6\pdl\drivers\peripheral\dma/cy_dma.h **** *
  63:Generated_Source\PSoC6\pdl\drivers\peripheral\dma/cy_dma.h **** * The following is a simplified structure of the DMA driver API interdependencies
  64:Generated_Source\PSoC6\pdl\drivers\peripheral\dma/cy_dma.h **** * in a typical user application:
  65:Generated_Source\PSoC6\pdl\drivers\peripheral\dma/cy_dma.h **** * \image html dma.png
  66:Generated_Source\PSoC6\pdl\drivers\peripheral\dma/cy_dma.h **** *
  67:Generated_Source\PSoC6\pdl\drivers\peripheral\dma/cy_dma.h **** * <B>NOTE:</B> Even if a DMA channel is enabled, it is not operational until 
  68:Generated_Source\PSoC6\pdl\drivers\peripheral\dma/cy_dma.h **** * the DMA block is enabled using function \ref Cy_DMA_Enable.\n
  69:Generated_Source\PSoC6\pdl\drivers\peripheral\dma/cy_dma.h **** * <B>NOTE:</B> If the DMA descriptor is configured to generate an interrupt, 
  70:Generated_Source\PSoC6\pdl\drivers\peripheral\dma/cy_dma.h **** * the interrupt must be enabled using the \ref Cy_DMA_Channel_SetInterruptMask 
  71:Generated_Source\PSoC6\pdl\drivers\peripheral\dma/cy_dma.h **** * function for each DMA channel.
  72:Generated_Source\PSoC6\pdl\drivers\peripheral\dma/cy_dma.h **** *
  73:Generated_Source\PSoC6\pdl\drivers\peripheral\dma/cy_dma.h **** * For example:
  74:Generated_Source\PSoC6\pdl\drivers\peripheral\dma/cy_dma.h **** * \snippet dma\2.10\snippet\main.c snippet_Cy_DMA_Enable
  75:Generated_Source\PSoC6\pdl\drivers\peripheral\dma/cy_dma.h **** * 
  76:Generated_Source\PSoC6\pdl\drivers\peripheral\dma/cy_dma.h **** * \section group_dma_more_information More Information.
  77:Generated_Source\PSoC6\pdl\drivers\peripheral\dma/cy_dma.h **** * See: the DMA chapter of the device technical reference manual (TRM);
  78:Generated_Source\PSoC6\pdl\drivers\peripheral\dma/cy_dma.h **** *      the DMA Component datasheet;
  79:Generated_Source\PSoC6\pdl\drivers\peripheral\dma/cy_dma.h **** *      CE219940 - PSoC 6 MCU Multiple DMA Concatenation.
  80:Generated_Source\PSoC6\pdl\drivers\peripheral\dma/cy_dma.h **** *
  81:Generated_Source\PSoC6\pdl\drivers\peripheral\dma/cy_dma.h **** * \section group_dma_MISRA MISRA-C Compliance
  82:Generated_Source\PSoC6\pdl\drivers\peripheral\dma/cy_dma.h **** * The DMA driver has the following specific deviations:
  83:Generated_Source\PSoC6\pdl\drivers\peripheral\dma/cy_dma.h **** *
  84:Generated_Source\PSoC6\pdl\drivers\peripheral\dma/cy_dma.h **** * <table class="doxtable">
  85:Generated_Source\PSoC6\pdl\drivers\peripheral\dma/cy_dma.h **** *   <tr>
  86:Generated_Source\PSoC6\pdl\drivers\peripheral\dma/cy_dma.h **** *     <th>MISRA Rule</th>
  87:Generated_Source\PSoC6\pdl\drivers\peripheral\dma/cy_dma.h **** *     <th>Rule Class (Required/Advisory)</th>
ARM GAS  C:\Users\stijn\AppData\Local\Temp\ccPWVksW.s 			page 3


  88:Generated_Source\PSoC6\pdl\drivers\peripheral\dma/cy_dma.h **** *     <th>Rule Description</th>
  89:Generated_Source\PSoC6\pdl\drivers\peripheral\dma/cy_dma.h **** *     <th>Description of Deviation(s)</th>
  90:Generated_Source\PSoC6\pdl\drivers\peripheral\dma/cy_dma.h **** *   </tr>
  91:Generated_Source\PSoC6\pdl\drivers\peripheral\dma/cy_dma.h **** *   <tr>
  92:Generated_Source\PSoC6\pdl\drivers\peripheral\dma/cy_dma.h **** *     <td>10.3</td>
  93:Generated_Source\PSoC6\pdl\drivers\peripheral\dma/cy_dma.h **** *     <td>R</td>
  94:Generated_Source\PSoC6\pdl\drivers\peripheral\dma/cy_dma.h **** *     <td>A composite expression of the "essentially unsigned" type is being
  95:Generated_Source\PSoC6\pdl\drivers\peripheral\dma/cy_dma.h **** *         cast to a different type category.</td>
  96:Generated_Source\PSoC6\pdl\drivers\peripheral\dma/cy_dma.h **** *     <td>The value got from the bitfield physically cannot exceed the enumeration
  97:Generated_Source\PSoC6\pdl\drivers\peripheral\dma/cy_dma.h **** *         that describes this bitfield. So, the code is safe by design.</td>
  98:Generated_Source\PSoC6\pdl\drivers\peripheral\dma/cy_dma.h **** *   </tr>
  99:Generated_Source\PSoC6\pdl\drivers\peripheral\dma/cy_dma.h **** *   <tr>
 100:Generated_Source\PSoC6\pdl\drivers\peripheral\dma/cy_dma.h **** *     <td>11.4</td>
 101:Generated_Source\PSoC6\pdl\drivers\peripheral\dma/cy_dma.h **** *     <td>A</td>
 102:Generated_Source\PSoC6\pdl\drivers\peripheral\dma/cy_dma.h **** *     <td>A cast should not be performed between a pointer to object type and
 103:Generated_Source\PSoC6\pdl\drivers\peripheral\dma/cy_dma.h **** *         a different pointer to object type.</td>
 104:Generated_Source\PSoC6\pdl\drivers\peripheral\dma/cy_dma.h **** *     <td>This piece of code is written for DW_V2_Type only and it will be never
 105:Generated_Source\PSoC6\pdl\drivers\peripheral\dma/cy_dma.h **** *         executed for DW_V1_Type (which is a default build option for DW_Type).</td>
 106:Generated_Source\PSoC6\pdl\drivers\peripheral\dma/cy_dma.h **** *   </tr>
 107:Generated_Source\PSoC6\pdl\drivers\peripheral\dma/cy_dma.h **** * </table>
 108:Generated_Source\PSoC6\pdl\drivers\peripheral\dma/cy_dma.h **** *
 109:Generated_Source\PSoC6\pdl\drivers\peripheral\dma/cy_dma.h **** * \section group_dma_changelog Changelog
 110:Generated_Source\PSoC6\pdl\drivers\peripheral\dma/cy_dma.h **** *
 111:Generated_Source\PSoC6\pdl\drivers\peripheral\dma/cy_dma.h **** * <table class="doxtable">
 112:Generated_Source\PSoC6\pdl\drivers\peripheral\dma/cy_dma.h **** *   <tr><th>Version</th><th>Changes</th><th>Reason for Change</th></tr>
 113:Generated_Source\PSoC6\pdl\drivers\peripheral\dma/cy_dma.h **** *   <tr>
 114:Generated_Source\PSoC6\pdl\drivers\peripheral\dma/cy_dma.h **** *     <td rowspan="3">2.10</td>
 115:Generated_Source\PSoC6\pdl\drivers\peripheral\dma/cy_dma.h **** *     <td>Flattened the organization of the driver source code into the single source directory and
 116:Generated_Source\PSoC6\pdl\drivers\peripheral\dma/cy_dma.h **** *     <td>Driver library directory-structure simplification.</td>
 117:Generated_Source\PSoC6\pdl\drivers\peripheral\dma/cy_dma.h **** *   </tr>
 118:Generated_Source\PSoC6\pdl\drivers\peripheral\dma/cy_dma.h **** *   <tr>
 119:Generated_Source\PSoC6\pdl\drivers\peripheral\dma/cy_dma.h **** *     <td>Added CRC mode and the CRC descriptor support. \n Added the \ref Cy_DMA_Crc_Init function
 120:Generated_Source\PSoC6\pdl\drivers\peripheral\dma/cy_dma.h **** *     <td>New devices support.</td>
 121:Generated_Source\PSoC6\pdl\drivers\peripheral\dma/cy_dma.h **** *   </tr>
 122:Generated_Source\PSoC6\pdl\drivers\peripheral\dma/cy_dma.h **** *   <tr>
 123:Generated_Source\PSoC6\pdl\drivers\peripheral\dma/cy_dma.h **** *     <td>Added register access layer. Use register access macros instead
 124:Generated_Source\PSoC6\pdl\drivers\peripheral\dma/cy_dma.h **** *         of direct register access using dereferenced pointers.</td>
 125:Generated_Source\PSoC6\pdl\drivers\peripheral\dma/cy_dma.h **** *     <td>Makes register access device-independent, so that the PDL does 
 126:Generated_Source\PSoC6\pdl\drivers\peripheral\dma/cy_dma.h **** *         not need to be recompiled for each supported part number.</td>
 127:Generated_Source\PSoC6\pdl\drivers\peripheral\dma/cy_dma.h **** *   </tr>
 128:Generated_Source\PSoC6\pdl\drivers\peripheral\dma/cy_dma.h **** *   <tr>
 129:Generated_Source\PSoC6\pdl\drivers\peripheral\dma/cy_dma.h **** *     <td>2.0.1</td>
 130:Generated_Source\PSoC6\pdl\drivers\peripheral\dma/cy_dma.h **** *     <td>Changed CY_DMA_BWC macro values from Boolean to numeric</td>
 131:Generated_Source\PSoC6\pdl\drivers\peripheral\dma/cy_dma.h **** *     <td>Improvements made based on usability feedback</td>
 132:Generated_Source\PSoC6\pdl\drivers\peripheral\dma/cy_dma.h **** *   </tr>
 133:Generated_Source\PSoC6\pdl\drivers\peripheral\dma/cy_dma.h **** *   <tr>
 134:Generated_Source\PSoC6\pdl\drivers\peripheral\dma/cy_dma.h **** *     <td>2.0</td>
 135:Generated_Source\PSoC6\pdl\drivers\peripheral\dma/cy_dma.h **** *     <td> * All the API is refactored to be consistent within itself and with the
 136:Generated_Source\PSoC6\pdl\drivers\peripheral\dma/cy_dma.h **** *            rest of the PDL content.
 137:Generated_Source\PSoC6\pdl\drivers\peripheral\dma/cy_dma.h **** *          * The descriptor API is updated as follows:
 138:Generated_Source\PSoC6\pdl\drivers\peripheral\dma/cy_dma.h **** *            The \ref Cy_DMA_Descriptor_Init function sets a full bunch of descriptor
 139:Generated_Source\PSoC6\pdl\drivers\peripheral\dma/cy_dma.h **** *            settings, and the rest of the descriptor API is a get/set interface
 140:Generated_Source\PSoC6\pdl\drivers\peripheral\dma/cy_dma.h **** *            to each of the descriptor settings.
 141:Generated_Source\PSoC6\pdl\drivers\peripheral\dma/cy_dma.h **** *          * There is a group of macros to support the backward compatibility with most 
 142:Generated_Source\PSoC6\pdl\drivers\peripheral\dma/cy_dma.h **** *            of the driver version 1.0 API. But, you should use
 143:Generated_Source\PSoC6\pdl\drivers\peripheral\dma/cy_dma.h **** *            the new v2.0 interface in new designs (do not just copy-paste from old
 144:Generated_Source\PSoC6\pdl\drivers\peripheral\dma/cy_dma.h **** *            projects). To enable the backward compatibility support, the CY_DMA_BWC 
ARM GAS  C:\Users\stijn\AppData\Local\Temp\ccPWVksW.s 			page 4


 145:Generated_Source\PSoC6\pdl\drivers\peripheral\dma/cy_dma.h **** *            definition should be changed to "1".</td>
 146:Generated_Source\PSoC6\pdl\drivers\peripheral\dma/cy_dma.h **** *     <td></td>
 147:Generated_Source\PSoC6\pdl\drivers\peripheral\dma/cy_dma.h **** *   </tr>
 148:Generated_Source\PSoC6\pdl\drivers\peripheral\dma/cy_dma.h **** *   <tr>
 149:Generated_Source\PSoC6\pdl\drivers\peripheral\dma/cy_dma.h **** *     <td>1.0</td>
 150:Generated_Source\PSoC6\pdl\drivers\peripheral\dma/cy_dma.h **** *     <td>Initial version</td>
 151:Generated_Source\PSoC6\pdl\drivers\peripheral\dma/cy_dma.h **** *     <td></td>
 152:Generated_Source\PSoC6\pdl\drivers\peripheral\dma/cy_dma.h **** *   </tr>
 153:Generated_Source\PSoC6\pdl\drivers\peripheral\dma/cy_dma.h **** * </table>
 154:Generated_Source\PSoC6\pdl\drivers\peripheral\dma/cy_dma.h **** *
 155:Generated_Source\PSoC6\pdl\drivers\peripheral\dma/cy_dma.h **** 
 156:Generated_Source\PSoC6\pdl\drivers\peripheral\dma/cy_dma.h **** * \defgroup group_dma_macros Macros
 157:Generated_Source\PSoC6\pdl\drivers\peripheral\dma/cy_dma.h **** * \defgroup group_dma_functions Functions
 158:Generated_Source\PSoC6\pdl\drivers\peripheral\dma/cy_dma.h **** * \{
 159:Generated_Source\PSoC6\pdl\drivers\peripheral\dma/cy_dma.h **** * \defgroup group_dma_block_functions Block Functions
 160:Generated_Source\PSoC6\pdl\drivers\peripheral\dma/cy_dma.h **** * \defgroup group_dma_channel_functions Channel Functions
 161:Generated_Source\PSoC6\pdl\drivers\peripheral\dma/cy_dma.h **** * \defgroup group_dma_descriptor_functions Descriptor Functions
 162:Generated_Source\PSoC6\pdl\drivers\peripheral\dma/cy_dma.h **** * \}
 163:Generated_Source\PSoC6\pdl\drivers\peripheral\dma/cy_dma.h **** * \defgroup group_dma_data_structures Data Structures
 164:Generated_Source\PSoC6\pdl\drivers\peripheral\dma/cy_dma.h **** * \defgroup group_dma_enums Enumerated Types
 165:Generated_Source\PSoC6\pdl\drivers\peripheral\dma/cy_dma.h **** */
 166:Generated_Source\PSoC6\pdl\drivers\peripheral\dma/cy_dma.h **** 
 167:Generated_Source\PSoC6\pdl\drivers\peripheral\dma/cy_dma.h **** #if !defined(CY_DMA_H)
 168:Generated_Source\PSoC6\pdl\drivers\peripheral\dma/cy_dma.h **** #define CY_DMA_H
 169:Generated_Source\PSoC6\pdl\drivers\peripheral\dma/cy_dma.h **** 
 170:Generated_Source\PSoC6\pdl\drivers\peripheral\dma/cy_dma.h **** #include "cy_device.h"
 171:Generated_Source\PSoC6\pdl\drivers\peripheral\dma/cy_dma.h **** #include "cy_device_headers.h"
 172:Generated_Source\PSoC6\pdl\drivers\peripheral\dma/cy_dma.h **** #include "cy_syslib.h"
 173:Generated_Source\PSoC6\pdl\drivers\peripheral\dma/cy_dma.h **** #include <stdint.h>
 174:Generated_Source\PSoC6\pdl\drivers\peripheral\dma/cy_dma.h **** #include <stdbool.h>
 175:Generated_Source\PSoC6\pdl\drivers\peripheral\dma/cy_dma.h **** #include <stddef.h>
 176:Generated_Source\PSoC6\pdl\drivers\peripheral\dma/cy_dma.h **** 
 177:Generated_Source\PSoC6\pdl\drivers\peripheral\dma/cy_dma.h **** #ifdef CY_IP_M4CPUSS_DMA
 178:Generated_Source\PSoC6\pdl\drivers\peripheral\dma/cy_dma.h **** 
 179:Generated_Source\PSoC6\pdl\drivers\peripheral\dma/cy_dma.h **** #if defined(__cplusplus)
 180:Generated_Source\PSoC6\pdl\drivers\peripheral\dma/cy_dma.h **** extern "C" {
 181:Generated_Source\PSoC6\pdl\drivers\peripheral\dma/cy_dma.h **** #endif
 182:Generated_Source\PSoC6\pdl\drivers\peripheral\dma/cy_dma.h **** 
 183:Generated_Source\PSoC6\pdl\drivers\peripheral\dma/cy_dma.h **** /******************************************************************************
 184:Generated_Source\PSoC6\pdl\drivers\peripheral\dma/cy_dma.h ****  * Macro definitions                                                          *
 185:Generated_Source\PSoC6\pdl\drivers\peripheral\dma/cy_dma.h ****  ******************************************************************************/
 186:Generated_Source\PSoC6\pdl\drivers\peripheral\dma/cy_dma.h **** 
 187:Generated_Source\PSoC6\pdl\drivers\peripheral\dma/cy_dma.h **** /**
 188:Generated_Source\PSoC6\pdl\drivers\peripheral\dma/cy_dma.h **** * \addtogroup group_dma_macros
 189:Generated_Source\PSoC6\pdl\drivers\peripheral\dma/cy_dma.h **** * \{
 190:Generated_Source\PSoC6\pdl\drivers\peripheral\dma/cy_dma.h **** */
 191:Generated_Source\PSoC6\pdl\drivers\peripheral\dma/cy_dma.h **** 
 192:Generated_Source\PSoC6\pdl\drivers\peripheral\dma/cy_dma.h **** /** The driver major version */
 193:Generated_Source\PSoC6\pdl\drivers\peripheral\dma/cy_dma.h **** #define CY_DMA_DRV_VERSION_MAJOR       2
 194:Generated_Source\PSoC6\pdl\drivers\peripheral\dma/cy_dma.h **** 
 195:Generated_Source\PSoC6\pdl\drivers\peripheral\dma/cy_dma.h **** /** The driver minor version */
 196:Generated_Source\PSoC6\pdl\drivers\peripheral\dma/cy_dma.h **** #define CY_DMA_DRV_VERSION_MINOR       10
 197:Generated_Source\PSoC6\pdl\drivers\peripheral\dma/cy_dma.h **** 
 198:Generated_Source\PSoC6\pdl\drivers\peripheral\dma/cy_dma.h **** /** The DMA driver identifier */
 199:Generated_Source\PSoC6\pdl\drivers\peripheral\dma/cy_dma.h **** #define CY_DMA_ID                      (CY_PDL_DRV_ID(0x13U))
 200:Generated_Source\PSoC6\pdl\drivers\peripheral\dma/cy_dma.h ****  
 201:Generated_Source\PSoC6\pdl\drivers\peripheral\dma/cy_dma.h **** /** The DMA channel interrupt mask */
ARM GAS  C:\Users\stijn\AppData\Local\Temp\ccPWVksW.s 			page 5


 202:Generated_Source\PSoC6\pdl\drivers\peripheral\dma/cy_dma.h **** #define CY_DMA_INTR_MASK               (0x01UL)
 203:Generated_Source\PSoC6\pdl\drivers\peripheral\dma/cy_dma.h **** 
 204:Generated_Source\PSoC6\pdl\drivers\peripheral\dma/cy_dma.h **** /** The minimum X/Y Count API parameters */
 205:Generated_Source\PSoC6\pdl\drivers\peripheral\dma/cy_dma.h **** #define CY_DMA_LOOP_COUNT_MIN          (1UL)
 206:Generated_Source\PSoC6\pdl\drivers\peripheral\dma/cy_dma.h **** /** The maximum X/Y Count API parameters */
 207:Generated_Source\PSoC6\pdl\drivers\peripheral\dma/cy_dma.h **** #define CY_DMA_LOOP_COUNT_MAX          (256UL)
 208:Generated_Source\PSoC6\pdl\drivers\peripheral\dma/cy_dma.h **** 
 209:Generated_Source\PSoC6\pdl\drivers\peripheral\dma/cy_dma.h **** /** The minimum X/Y Increment API parameters */
 210:Generated_Source\PSoC6\pdl\drivers\peripheral\dma/cy_dma.h **** #define CY_DMA_LOOP_INCREMENT_MIN      (-2048L)
 211:Generated_Source\PSoC6\pdl\drivers\peripheral\dma/cy_dma.h **** /** The maximum X/Y Increment API parameters */
 212:Generated_Source\PSoC6\pdl\drivers\peripheral\dma/cy_dma.h **** #define CY_DMA_LOOP_INCREMENT_MAX      (2047L)
 213:Generated_Source\PSoC6\pdl\drivers\peripheral\dma/cy_dma.h **** 
 214:Generated_Source\PSoC6\pdl\drivers\peripheral\dma/cy_dma.h **** /** The backward compatibility flag. Enables a group of macros which provide 
 215:Generated_Source\PSoC6\pdl\drivers\peripheral\dma/cy_dma.h **** * the backward compatibility with most of the DMA driver version 1.0 interface. */
 216:Generated_Source\PSoC6\pdl\drivers\peripheral\dma/cy_dma.h **** #ifndef CY_DMA_BWC
 217:Generated_Source\PSoC6\pdl\drivers\peripheral\dma/cy_dma.h ****     #define CY_DMA_BWC                 (0U) /* Disabled by default */
 218:Generated_Source\PSoC6\pdl\drivers\peripheral\dma/cy_dma.h **** #endif
 219:Generated_Source\PSoC6\pdl\drivers\peripheral\dma/cy_dma.h **** 
 220:Generated_Source\PSoC6\pdl\drivers\peripheral\dma/cy_dma.h **** /** \} group_dma_macros */
 221:Generated_Source\PSoC6\pdl\drivers\peripheral\dma/cy_dma.h **** 
 222:Generated_Source\PSoC6\pdl\drivers\peripheral\dma/cy_dma.h **** 
 223:Generated_Source\PSoC6\pdl\drivers\peripheral\dma/cy_dma.h **** /**
 224:Generated_Source\PSoC6\pdl\drivers\peripheral\dma/cy_dma.h **** * \addtogroup group_dma_enums
 225:Generated_Source\PSoC6\pdl\drivers\peripheral\dma/cy_dma.h **** * \{
 226:Generated_Source\PSoC6\pdl\drivers\peripheral\dma/cy_dma.h **** */
 227:Generated_Source\PSoC6\pdl\drivers\peripheral\dma/cy_dma.h **** 
 228:Generated_Source\PSoC6\pdl\drivers\peripheral\dma/cy_dma.h **** /** Contains the possible interrupt cause values */
 229:Generated_Source\PSoC6\pdl\drivers\peripheral\dma/cy_dma.h **** typedef enum
 230:Generated_Source\PSoC6\pdl\drivers\peripheral\dma/cy_dma.h **** {
 231:Generated_Source\PSoC6\pdl\drivers\peripheral\dma/cy_dma.h ****     CY_DMA_INTR_CAUSE_NO_INTR            = 0U, /**< No interrupt.                       */
 232:Generated_Source\PSoC6\pdl\drivers\peripheral\dma/cy_dma.h ****     CY_DMA_INTR_CAUSE_COMPLETION         = 1U, /**< Completion.                         */
 233:Generated_Source\PSoC6\pdl\drivers\peripheral\dma/cy_dma.h ****     CY_DMA_INTR_CAUSE_SRC_BUS_ERROR      = 2U, /**< Source bus error.                   */
 234:Generated_Source\PSoC6\pdl\drivers\peripheral\dma/cy_dma.h ****     CY_DMA_INTR_CAUSE_DST_BUS_ERROR      = 3U, /**< Destination bus error.              */
 235:Generated_Source\PSoC6\pdl\drivers\peripheral\dma/cy_dma.h ****     CY_DMA_INTR_CAUSE_SRC_MISAL          = 4U, /**< Source address is not aligned.       */
 236:Generated_Source\PSoC6\pdl\drivers\peripheral\dma/cy_dma.h ****     CY_DMA_INTR_CAUSE_DST_MISAL          = 5U, /**< Destination address is not aligned. */
 237:Generated_Source\PSoC6\pdl\drivers\peripheral\dma/cy_dma.h ****     CY_DMA_INTR_CAUSE_CURR_PTR_NULL      = 6U, /**< Current descriptor pointer is NULL. */
 238:Generated_Source\PSoC6\pdl\drivers\peripheral\dma/cy_dma.h ****     CY_DMA_INTR_CAUSE_ACTIVE_CH_DISABLED = 7U, /**< Active channel is disabled.         */
 239:Generated_Source\PSoC6\pdl\drivers\peripheral\dma/cy_dma.h ****     CY_DMA_INTR_CAUSE_DESCR_BUS_ERROR    = 8U  /**< Descriptor bus error.               */
 240:Generated_Source\PSoC6\pdl\drivers\peripheral\dma/cy_dma.h **** } cy_en_dma_intr_cause_t;
 241:Generated_Source\PSoC6\pdl\drivers\peripheral\dma/cy_dma.h **** 
 242:Generated_Source\PSoC6\pdl\drivers\peripheral\dma/cy_dma.h **** /** Contains the options for the descriptor type */
 243:Generated_Source\PSoC6\pdl\drivers\peripheral\dma/cy_dma.h **** typedef enum
 244:Generated_Source\PSoC6\pdl\drivers\peripheral\dma/cy_dma.h **** {
 245:Generated_Source\PSoC6\pdl\drivers\peripheral\dma/cy_dma.h ****     CY_DMA_SINGLE_TRANSFER = 0UL,          /**< Single transfer. */
 246:Generated_Source\PSoC6\pdl\drivers\peripheral\dma/cy_dma.h ****     CY_DMA_1D_TRANSFER     = 1UL,          /**< 1D transfer.     */
 247:Generated_Source\PSoC6\pdl\drivers\peripheral\dma/cy_dma.h ****     CY_DMA_2D_TRANSFER     = 2UL,          /**< 2D transfer.     */
 248:Generated_Source\PSoC6\pdl\drivers\peripheral\dma/cy_dma.h ****     CY_DMA_CRC_TRANSFER    = 3UL,          /**< CRC transfer. Supported by the CPUSS_ver2 only. */
 249:Generated_Source\PSoC6\pdl\drivers\peripheral\dma/cy_dma.h **** } cy_en_dma_descriptor_type_t;
 250:Generated_Source\PSoC6\pdl\drivers\peripheral\dma/cy_dma.h **** 
 251:Generated_Source\PSoC6\pdl\drivers\peripheral\dma/cy_dma.h **** /** Contains the options for the interrupt, trig-in and trig-out type parameters of the descriptor 
 252:Generated_Source\PSoC6\pdl\drivers\peripheral\dma/cy_dma.h **** typedef enum
 253:Generated_Source\PSoC6\pdl\drivers\peripheral\dma/cy_dma.h **** {
 254:Generated_Source\PSoC6\pdl\drivers\peripheral\dma/cy_dma.h ****     CY_DMA_1ELEMENT    = 0UL,              /**< One element transfer.             */
 255:Generated_Source\PSoC6\pdl\drivers\peripheral\dma/cy_dma.h ****     CY_DMA_X_LOOP      = 1UL,              /**< One X loop transfer.              */
 256:Generated_Source\PSoC6\pdl\drivers\peripheral\dma/cy_dma.h ****     CY_DMA_DESCR       = 2UL,              /**< One descriptor transfer.          */
 257:Generated_Source\PSoC6\pdl\drivers\peripheral\dma/cy_dma.h ****     CY_DMA_DESCR_CHAIN = 3UL               /**< Entire descriptor chain transfer. */
 258:Generated_Source\PSoC6\pdl\drivers\peripheral\dma/cy_dma.h **** } cy_en_dma_trigger_type_t;
ARM GAS  C:\Users\stijn\AppData\Local\Temp\ccPWVksW.s 			page 6


 259:Generated_Source\PSoC6\pdl\drivers\peripheral\dma/cy_dma.h **** 
 260:Generated_Source\PSoC6\pdl\drivers\peripheral\dma/cy_dma.h **** /** Contains the options for the data size */
 261:Generated_Source\PSoC6\pdl\drivers\peripheral\dma/cy_dma.h **** typedef enum
 262:Generated_Source\PSoC6\pdl\drivers\peripheral\dma/cy_dma.h **** {
 263:Generated_Source\PSoC6\pdl\drivers\peripheral\dma/cy_dma.h ****     CY_DMA_BYTE     = 0UL,                 /**< One byte.               */
 264:Generated_Source\PSoC6\pdl\drivers\peripheral\dma/cy_dma.h ****     CY_DMA_HALFWORD = 1UL,                 /**< Half word (two bytes).  */
 265:Generated_Source\PSoC6\pdl\drivers\peripheral\dma/cy_dma.h ****     CY_DMA_WORD     = 2UL                  /**< Full word (four bytes). */
 266:Generated_Source\PSoC6\pdl\drivers\peripheral\dma/cy_dma.h **** } cy_en_dma_data_size_t;
 267:Generated_Source\PSoC6\pdl\drivers\peripheral\dma/cy_dma.h **** 
 268:Generated_Source\PSoC6\pdl\drivers\peripheral\dma/cy_dma.h **** /** Contains the options for descriptor retriggering */
 269:Generated_Source\PSoC6\pdl\drivers\peripheral\dma/cy_dma.h **** typedef enum
 270:Generated_Source\PSoC6\pdl\drivers\peripheral\dma/cy_dma.h **** {
 271:Generated_Source\PSoC6\pdl\drivers\peripheral\dma/cy_dma.h ****     CY_DMA_RETRIG_IM      = 0UL,           /**< Retrigger immediately.              */
 272:Generated_Source\PSoC6\pdl\drivers\peripheral\dma/cy_dma.h ****     CY_DMA_RETRIG_4CYC    = 1UL,           /**< Retrigger after 4 Clk_Slow cycles.  */
 273:Generated_Source\PSoC6\pdl\drivers\peripheral\dma/cy_dma.h ****     CY_DMA_RETRIG_16CYC   = 2UL,           /**< Retrigger after 16 Clk_Slow cycles. */
 274:Generated_Source\PSoC6\pdl\drivers\peripheral\dma/cy_dma.h ****     CY_DMA_WAIT_FOR_REACT = 3UL            /**< Wait for trigger reactivation.      */
 275:Generated_Source\PSoC6\pdl\drivers\peripheral\dma/cy_dma.h **** } cy_en_dma_retrigger_t;
 276:Generated_Source\PSoC6\pdl\drivers\peripheral\dma/cy_dma.h **** 
 277:Generated_Source\PSoC6\pdl\drivers\peripheral\dma/cy_dma.h **** /** Contains the options for the transfer size */
 278:Generated_Source\PSoC6\pdl\drivers\peripheral\dma/cy_dma.h **** typedef enum
 279:Generated_Source\PSoC6\pdl\drivers\peripheral\dma/cy_dma.h **** {
 280:Generated_Source\PSoC6\pdl\drivers\peripheral\dma/cy_dma.h ****     CY_DMA_TRANSFER_SIZE_DATA = 0UL,       /**< As specified by dataSize. */
 281:Generated_Source\PSoC6\pdl\drivers\peripheral\dma/cy_dma.h ****     CY_DMA_TRANSFER_SIZE_WORD = 1UL,       /**< A full word (four bytes). */
 282:Generated_Source\PSoC6\pdl\drivers\peripheral\dma/cy_dma.h **** } cy_en_dma_transfer_size_t;
 283:Generated_Source\PSoC6\pdl\drivers\peripheral\dma/cy_dma.h **** 
 284:Generated_Source\PSoC6\pdl\drivers\peripheral\dma/cy_dma.h **** /** Contains the options for the state of the channel when the descriptor is completed   */
 285:Generated_Source\PSoC6\pdl\drivers\peripheral\dma/cy_dma.h **** typedef enum
 286:Generated_Source\PSoC6\pdl\drivers\peripheral\dma/cy_dma.h **** {
 287:Generated_Source\PSoC6\pdl\drivers\peripheral\dma/cy_dma.h ****     CY_DMA_CHANNEL_ENABLED  = 0UL,         /**< Channel stays enabled. */
 288:Generated_Source\PSoC6\pdl\drivers\peripheral\dma/cy_dma.h ****     CY_DMA_CHANNEL_DISABLED = 1UL          /**< Channel is disabled.   */
 289:Generated_Source\PSoC6\pdl\drivers\peripheral\dma/cy_dma.h **** } cy_en_dma_channel_state_t;
 290:Generated_Source\PSoC6\pdl\drivers\peripheral\dma/cy_dma.h **** 
 291:Generated_Source\PSoC6\pdl\drivers\peripheral\dma/cy_dma.h **** /** Contains the return values of the DMA driver */
 292:Generated_Source\PSoC6\pdl\drivers\peripheral\dma/cy_dma.h **** typedef enum 
 293:Generated_Source\PSoC6\pdl\drivers\peripheral\dma/cy_dma.h **** {
 294:Generated_Source\PSoC6\pdl\drivers\peripheral\dma/cy_dma.h ****     CY_DMA_SUCCESS   = 0x00UL, /**< Success. */
 295:Generated_Source\PSoC6\pdl\drivers\peripheral\dma/cy_dma.h ****     CY_DMA_BAD_PARAM = CY_DMA_ID | CY_PDL_STATUS_ERROR | 0x01UL /**< The input parameters passed to
 296:Generated_Source\PSoC6\pdl\drivers\peripheral\dma/cy_dma.h **** } cy_en_dma_status_t;
 297:Generated_Source\PSoC6\pdl\drivers\peripheral\dma/cy_dma.h **** 
 298:Generated_Source\PSoC6\pdl\drivers\peripheral\dma/cy_dma.h **** /** \} group_dma_enums */
 299:Generated_Source\PSoC6\pdl\drivers\peripheral\dma/cy_dma.h **** 
 300:Generated_Source\PSoC6\pdl\drivers\peripheral\dma/cy_dma.h **** 
 301:Generated_Source\PSoC6\pdl\drivers\peripheral\dma/cy_dma.h **** /** \cond Internal */
 302:Generated_Source\PSoC6\pdl\drivers\peripheral\dma/cy_dma.h **** 
 303:Generated_Source\PSoC6\pdl\drivers\peripheral\dma/cy_dma.h **** /* Macros for the conditions used by CY_ASSERT calls */
 304:Generated_Source\PSoC6\pdl\drivers\peripheral\dma/cy_dma.h **** #define CY_DMA_IS_LOOP_COUNT_VALID(count)      (((count) >= CY_DMA_LOOP_COUNT_MIN) && ((count) <= C
 305:Generated_Source\PSoC6\pdl\drivers\peripheral\dma/cy_dma.h **** #define CY_DMA_IS_LOOP_INCR_VALID(incr)        (((incr) >= CY_DMA_LOOP_INCREMENT_MIN) && ((incr) <=
 306:Generated_Source\PSoC6\pdl\drivers\peripheral\dma/cy_dma.h **** #define CY_DMA_IS_PRIORITY_VALID(prio)         ((prio) <= 3UL)
 307:Generated_Source\PSoC6\pdl\drivers\peripheral\dma/cy_dma.h **** #define CY_DMA_IS_INTR_MASK_VALID(intr)        (0UL == ((intr) & ((uint32_t) ~CY_DMA_INTR_MASK)))
 308:Generated_Source\PSoC6\pdl\drivers\peripheral\dma/cy_dma.h **** 
 309:Generated_Source\PSoC6\pdl\drivers\peripheral\dma/cy_dma.h **** #define CY_DMA_IS_RETRIG_VALID(retrig)         ((CY_DMA_RETRIG_IM      == (retrig)) || \
 310:Generated_Source\PSoC6\pdl\drivers\peripheral\dma/cy_dma.h ****                                                 (CY_DMA_RETRIG_4CYC    == (retrig)) || \
 311:Generated_Source\PSoC6\pdl\drivers\peripheral\dma/cy_dma.h ****                                                 (CY_DMA_RETRIG_16CYC   == (retrig)) || \
 312:Generated_Source\PSoC6\pdl\drivers\peripheral\dma/cy_dma.h ****                                                 (CY_DMA_WAIT_FOR_REACT == (retrig)))
 313:Generated_Source\PSoC6\pdl\drivers\peripheral\dma/cy_dma.h **** 
 314:Generated_Source\PSoC6\pdl\drivers\peripheral\dma/cy_dma.h **** #define CY_DMA_IS_TRIG_TYPE_VALID(trigType)    ((CY_DMA_1ELEMENT    == (trigType)) || \
 315:Generated_Source\PSoC6\pdl\drivers\peripheral\dma/cy_dma.h ****                                                 (CY_DMA_X_LOOP      == (trigType)) || \
ARM GAS  C:\Users\stijn\AppData\Local\Temp\ccPWVksW.s 			page 7


 316:Generated_Source\PSoC6\pdl\drivers\peripheral\dma/cy_dma.h ****                                                 (CY_DMA_DESCR       == (trigType)) || \
 317:Generated_Source\PSoC6\pdl\drivers\peripheral\dma/cy_dma.h ****                                                 (CY_DMA_DESCR_CHAIN == (trigType)))
 318:Generated_Source\PSoC6\pdl\drivers\peripheral\dma/cy_dma.h **** 
 319:Generated_Source\PSoC6\pdl\drivers\peripheral\dma/cy_dma.h **** #define CY_DMA_IS_XFER_SIZE_VALID(xferSize)    ((CY_DMA_TRANSFER_SIZE_DATA == (xferSize)) || \
 320:Generated_Source\PSoC6\pdl\drivers\peripheral\dma/cy_dma.h ****                                                 (CY_DMA_TRANSFER_SIZE_WORD == (xferSize)))
 321:Generated_Source\PSoC6\pdl\drivers\peripheral\dma/cy_dma.h **** 
 322:Generated_Source\PSoC6\pdl\drivers\peripheral\dma/cy_dma.h **** #define CY_DMA_IS_CHANNEL_STATE_VALID(state)   ((CY_DMA_CHANNEL_ENABLED  == (state)) || \
 323:Generated_Source\PSoC6\pdl\drivers\peripheral\dma/cy_dma.h ****                                                 (CY_DMA_CHANNEL_DISABLED == (state)))
 324:Generated_Source\PSoC6\pdl\drivers\peripheral\dma/cy_dma.h **** 
 325:Generated_Source\PSoC6\pdl\drivers\peripheral\dma/cy_dma.h **** #define CY_DMA_IS_DATA_SIZE_VALID(dataSize)    ((CY_DMA_BYTE     == (dataSize)) || \
 326:Generated_Source\PSoC6\pdl\drivers\peripheral\dma/cy_dma.h ****                                                 (CY_DMA_HALFWORD == (dataSize)) || \
 327:Generated_Source\PSoC6\pdl\drivers\peripheral\dma/cy_dma.h ****                                                 (CY_DMA_WORD     == (dataSize)))
 328:Generated_Source\PSoC6\pdl\drivers\peripheral\dma/cy_dma.h **** 
 329:Generated_Source\PSoC6\pdl\drivers\peripheral\dma/cy_dma.h **** #define CY_DMA_IS_TYPE_VALID(descrType)        ((CY_DMA_SINGLE_TRANSFER == (descrType)) || \
 330:Generated_Source\PSoC6\pdl\drivers\peripheral\dma/cy_dma.h ****                                                 (CY_DMA_1D_TRANSFER     == (descrType)) || \
 331:Generated_Source\PSoC6\pdl\drivers\peripheral\dma/cy_dma.h ****                                                 (CY_DMA_2D_TRANSFER     == (descrType)) || \
 332:Generated_Source\PSoC6\pdl\drivers\peripheral\dma/cy_dma.h ****                                                 (CY_DMA_CRC_TRANSFER    == (descrType)))
 333:Generated_Source\PSoC6\pdl\drivers\peripheral\dma/cy_dma.h **** 
 334:Generated_Source\PSoC6\pdl\drivers\peripheral\dma/cy_dma.h **** #define CY_DMA_IS_CH_NR_VALID(chNr)            ((chNr) < CY_DW_CH_NR)
 335:Generated_Source\PSoC6\pdl\drivers\peripheral\dma/cy_dma.h **** 
 336:Generated_Source\PSoC6\pdl\drivers\peripheral\dma/cy_dma.h **** 
 337:Generated_Source\PSoC6\pdl\drivers\peripheral\dma/cy_dma.h **** /* The descriptor structure bit field definitions */
 338:Generated_Source\PSoC6\pdl\drivers\peripheral\dma/cy_dma.h **** #define CY_DMA_CTL_RETRIG_Pos      (0UL)
 339:Generated_Source\PSoC6\pdl\drivers\peripheral\dma/cy_dma.h **** #define CY_DMA_CTL_RETRIG_Msk      ((uint32_t)0x3UL << CY_DMA_CTL_RETRIG_Pos)
 340:Generated_Source\PSoC6\pdl\drivers\peripheral\dma/cy_dma.h **** #define CY_DMA_CTL_INTR_TYPE_Pos   (2UL)
 341:Generated_Source\PSoC6\pdl\drivers\peripheral\dma/cy_dma.h **** #define CY_DMA_CTL_INTR_TYPE_Msk   ((uint32_t)0x3UL << CY_DMA_CTL_INTR_TYPE_Pos)
 342:Generated_Source\PSoC6\pdl\drivers\peripheral\dma/cy_dma.h **** #define CY_DMA_CTL_TR_OUT_TYPE_Pos (4UL)
 343:Generated_Source\PSoC6\pdl\drivers\peripheral\dma/cy_dma.h **** #define CY_DMA_CTL_TR_OUT_TYPE_Msk ((uint32_t)0x3UL << CY_DMA_CTL_TR_OUT_TYPE_Pos)
 344:Generated_Source\PSoC6\pdl\drivers\peripheral\dma/cy_dma.h **** #define CY_DMA_CTL_TR_IN_TYPE_Pos  (6UL)
 345:Generated_Source\PSoC6\pdl\drivers\peripheral\dma/cy_dma.h **** #define CY_DMA_CTL_TR_IN_TYPE_Msk  ((uint32_t)0x3UL << CY_DMA_CTL_TR_IN_TYPE_Pos)
 346:Generated_Source\PSoC6\pdl\drivers\peripheral\dma/cy_dma.h **** #define CY_DMA_CTL_CH_DISABLE_Pos  (24UL)
 347:Generated_Source\PSoC6\pdl\drivers\peripheral\dma/cy_dma.h **** #define CY_DMA_CTL_CH_DISABLE_Msk  ((uint32_t)0x1UL << CY_DMA_CTL_CH_DISABLE_Pos)
 348:Generated_Source\PSoC6\pdl\drivers\peripheral\dma/cy_dma.h **** #define CY_DMA_CTL_SRC_SIZE_Pos    (26UL)
 349:Generated_Source\PSoC6\pdl\drivers\peripheral\dma/cy_dma.h **** #define CY_DMA_CTL_SRC_SIZE_Msk    ((uint32_t)0x1UL << CY_DMA_CTL_SRC_SIZE_Pos)
 350:Generated_Source\PSoC6\pdl\drivers\peripheral\dma/cy_dma.h **** #define CY_DMA_CTL_DST_SIZE_Pos    (27UL)
 351:Generated_Source\PSoC6\pdl\drivers\peripheral\dma/cy_dma.h **** #define CY_DMA_CTL_DST_SIZE_Msk    ((uint32_t)0x1UL << CY_DMA_CTL_DST_SIZE_Pos)
 352:Generated_Source\PSoC6\pdl\drivers\peripheral\dma/cy_dma.h **** #define CY_DMA_CTL_DATA_SIZE_Pos   (28UL)
 353:Generated_Source\PSoC6\pdl\drivers\peripheral\dma/cy_dma.h **** #define CY_DMA_CTL_DATA_SIZE_Msk   ((uint32_t)0x3UL << CY_DMA_CTL_DATA_SIZE_Pos)
 354:Generated_Source\PSoC6\pdl\drivers\peripheral\dma/cy_dma.h **** #define CY_DMA_CTL_TYPE_Pos        (30UL)
 355:Generated_Source\PSoC6\pdl\drivers\peripheral\dma/cy_dma.h **** #define CY_DMA_CTL_TYPE_Msk        ((uint32_t)0x3UL << CY_DMA_CTL_TYPE_Pos)
 356:Generated_Source\PSoC6\pdl\drivers\peripheral\dma/cy_dma.h **** 
 357:Generated_Source\PSoC6\pdl\drivers\peripheral\dma/cy_dma.h **** #define CY_DMA_CTL_SRC_INCR_Pos    (0UL)
 358:Generated_Source\PSoC6\pdl\drivers\peripheral\dma/cy_dma.h **** #define CY_DMA_CTL_SRC_INCR_Msk    ((uint32_t)0xFFFUL << CY_DMA_CTL_SRC_INCR_Pos)
 359:Generated_Source\PSoC6\pdl\drivers\peripheral\dma/cy_dma.h **** #define CY_DMA_CTL_DST_INCR_Pos    (12UL)
 360:Generated_Source\PSoC6\pdl\drivers\peripheral\dma/cy_dma.h **** #define CY_DMA_CTL_DST_INCR_Msk    ((uint32_t)0xFFFUL << CY_DMA_CTL_DST_INCR_Pos)
 361:Generated_Source\PSoC6\pdl\drivers\peripheral\dma/cy_dma.h **** #define CY_DMA_CTL_COUNT_Pos       (24UL)
 362:Generated_Source\PSoC6\pdl\drivers\peripheral\dma/cy_dma.h **** #define CY_DMA_CTL_COUNT_Msk       ((uint32_t)0xFFUL << CY_DMA_CTL_COUNT_Pos)
 363:Generated_Source\PSoC6\pdl\drivers\peripheral\dma/cy_dma.h **** 
 364:Generated_Source\PSoC6\pdl\drivers\peripheral\dma/cy_dma.h **** /** \endcond */
 365:Generated_Source\PSoC6\pdl\drivers\peripheral\dma/cy_dma.h **** 
 366:Generated_Source\PSoC6\pdl\drivers\peripheral\dma/cy_dma.h **** 
 367:Generated_Source\PSoC6\pdl\drivers\peripheral\dma/cy_dma.h **** /**
 368:Generated_Source\PSoC6\pdl\drivers\peripheral\dma/cy_dma.h **** * \addtogroup group_dma_data_structures
 369:Generated_Source\PSoC6\pdl\drivers\peripheral\dma/cy_dma.h **** * \{
 370:Generated_Source\PSoC6\pdl\drivers\peripheral\dma/cy_dma.h **** */
 371:Generated_Source\PSoC6\pdl\drivers\peripheral\dma/cy_dma.h **** 
 372:Generated_Source\PSoC6\pdl\drivers\peripheral\dma/cy_dma.h **** /** 
ARM GAS  C:\Users\stijn\AppData\Local\Temp\ccPWVksW.s 			page 8


 373:Generated_Source\PSoC6\pdl\drivers\peripheral\dma/cy_dma.h **** * DMA descriptor structure type. It is a user/component-declared structure 
 374:Generated_Source\PSoC6\pdl\drivers\peripheral\dma/cy_dma.h **** * allocated in RAM. The DMA HW requires a pointer to this structure to work with it.
 375:Generated_Source\PSoC6\pdl\drivers\peripheral\dma/cy_dma.h **** *
 376:Generated_Source\PSoC6\pdl\drivers\peripheral\dma/cy_dma.h **** * For advanced users: the descriptor can be allocated even in flash, then the user
 377:Generated_Source\PSoC6\pdl\drivers\peripheral\dma/cy_dma.h **** * manually predefines all the structure items with constants. This is 
 378:Generated_Source\PSoC6\pdl\drivers\peripheral\dma/cy_dma.h **** * because most of the driver's API (especially functions modifying
 379:Generated_Source\PSoC6\pdl\drivers\peripheral\dma/cy_dma.h **** * descriptors, including \ref Cy_DMA_Descriptor_Init()) can't work with 
 380:Generated_Source\PSoC6\pdl\drivers\peripheral\dma/cy_dma.h **** * read-only descriptors.
 381:Generated_Source\PSoC6\pdl\drivers\peripheral\dma/cy_dma.h **** */
 382:Generated_Source\PSoC6\pdl\drivers\peripheral\dma/cy_dma.h **** typedef struct
 383:Generated_Source\PSoC6\pdl\drivers\peripheral\dma/cy_dma.h **** {
 384:Generated_Source\PSoC6\pdl\drivers\peripheral\dma/cy_dma.h ****     uint32_t ctl;                    /*!< 0x00000000 Descriptor control */
 385:Generated_Source\PSoC6\pdl\drivers\peripheral\dma/cy_dma.h ****     uint32_t src;                    /*!< 0x00000004 Descriptor source */
 386:Generated_Source\PSoC6\pdl\drivers\peripheral\dma/cy_dma.h ****     uint32_t dst;                    /*!< 0x00000008 Descriptor destination */
 387:Generated_Source\PSoC6\pdl\drivers\peripheral\dma/cy_dma.h ****     uint32_t xCtl;                   /*!< 0x0000000C Descriptor X loop control */
 388:Generated_Source\PSoC6\pdl\drivers\peripheral\dma/cy_dma.h ****     uint32_t yCtl;                   /*!< 0x00000010 Descriptor Y loop control */
 389:Generated_Source\PSoC6\pdl\drivers\peripheral\dma/cy_dma.h ****     uint32_t nextPtr;                /*!< 0x00000014 Descriptor next pointer */
 390:Generated_Source\PSoC6\pdl\drivers\peripheral\dma/cy_dma.h **** } cy_stc_dma_descriptor_t;
 391:Generated_Source\PSoC6\pdl\drivers\peripheral\dma/cy_dma.h **** 
 392:Generated_Source\PSoC6\pdl\drivers\peripheral\dma/cy_dma.h **** /**
 393:Generated_Source\PSoC6\pdl\drivers\peripheral\dma/cy_dma.h **** * This structure is a configuration structure pre-initialized by the user and
 394:Generated_Source\PSoC6\pdl\drivers\peripheral\dma/cy_dma.h **** * passed as a parameter to the \ref Cy_DMA_Descriptor_Init().
 395:Generated_Source\PSoC6\pdl\drivers\peripheral\dma/cy_dma.h **** * It can be allocated in RAM/flash (the user's choice).
 396:Generated_Source\PSoC6\pdl\drivers\peripheral\dma/cy_dma.h **** * In case of flash allocation, there is a possibility to reinitialize the descriptor in runtime.
 397:Generated_Source\PSoC6\pdl\drivers\peripheral\dma/cy_dma.h **** * This structure has all the parameters of the descriptor as separate parameters.
 398:Generated_Source\PSoC6\pdl\drivers\peripheral\dma/cy_dma.h **** * Most of these parameters are represented in the \ref cy_stc_dma_descriptor_t structure as bitfiel
 399:Generated_Source\PSoC6\pdl\drivers\peripheral\dma/cy_dma.h **** */
 400:Generated_Source\PSoC6\pdl\drivers\peripheral\dma/cy_dma.h **** typedef struct
 401:Generated_Source\PSoC6\pdl\drivers\peripheral\dma/cy_dma.h **** {
 402:Generated_Source\PSoC6\pdl\drivers\peripheral\dma/cy_dma.h ****     cy_en_dma_retrigger_t       retrigger;       /**< Specifies whether the DW controller should wa
 403:Generated_Source\PSoC6\pdl\drivers\peripheral\dma/cy_dma.h ****     cy_en_dma_trigger_type_t    interruptType;   /**< Sets the event that triggers an interrupt. Se
 404:Generated_Source\PSoC6\pdl\drivers\peripheral\dma/cy_dma.h ****     cy_en_dma_trigger_type_t    triggerOutType;  /**< Sets the event that triggers an output. See \
 405:Generated_Source\PSoC6\pdl\drivers\peripheral\dma/cy_dma.h ****     cy_en_dma_channel_state_t   channelState;    /**< Specifies whether the channel is enabled or d
 406:Generated_Source\PSoC6\pdl\drivers\peripheral\dma/cy_dma.h ****     cy_en_dma_trigger_type_t    triggerInType;   /**< Sets what type of transfer is triggered. See 
 407:Generated_Source\PSoC6\pdl\drivers\peripheral\dma/cy_dma.h ****     cy_en_dma_data_size_t       dataSize;        /**< The size of the data bus for transfer. See \r
 408:Generated_Source\PSoC6\pdl\drivers\peripheral\dma/cy_dma.h ****     cy_en_dma_transfer_size_t   srcTransferSize; /**< The source transfer size. */
 409:Generated_Source\PSoC6\pdl\drivers\peripheral\dma/cy_dma.h ****     cy_en_dma_transfer_size_t   dstTransferSize; /**< The destination transfer size. */
 410:Generated_Source\PSoC6\pdl\drivers\peripheral\dma/cy_dma.h ****     cy_en_dma_descriptor_type_t descriptorType;  /**< The type of the descriptor. See \ref cy_en_dm
 411:Generated_Source\PSoC6\pdl\drivers\peripheral\dma/cy_dma.h ****     void *                      srcAddress;      /**< The source address of the transfer. */
 412:Generated_Source\PSoC6\pdl\drivers\peripheral\dma/cy_dma.h ****     void *                      dstAddress;      /**< The destination address of the transfer.
 413:Generated_Source\PSoC6\pdl\drivers\peripheral\dma/cy_dma.h ****                                                    *  For CPUSS_ver2 only: for CRC transfer, the CR
 414:Generated_Source\PSoC6\pdl\drivers\peripheral\dma/cy_dma.h ****                                                    *  (reversing and/or XORing, if used) is placed 
 415:Generated_Source\PSoC6\pdl\drivers\peripheral\dma/cy_dma.h ****                                                    */
 416:Generated_Source\PSoC6\pdl\drivers\peripheral\dma/cy_dma.h ****     int32_t                     srcXincrement;   /**< The address increment of the source after eac
 417:Generated_Source\PSoC6\pdl\drivers\peripheral\dma/cy_dma.h ****     int32_t                     dstXincrement;   /**< The address increment of the destination afte
 418:Generated_Source\PSoC6\pdl\drivers\peripheral\dma/cy_dma.h ****     uint32_t                    xCount;          /**< The number of transfers in an X-loop. Valid r
 419:Generated_Source\PSoC6\pdl\drivers\peripheral\dma/cy_dma.h ****     int32_t                     srcYincrement;   /**< The address increment of the source after eac
 420:Generated_Source\PSoC6\pdl\drivers\peripheral\dma/cy_dma.h ****     int32_t                     dstYincrement;   /**< The address increment of the destination afte
 421:Generated_Source\PSoC6\pdl\drivers\peripheral\dma/cy_dma.h ****     uint32_t                    yCount;          /**< The number of X-loops in the Y-loop. Valid ra
 422:Generated_Source\PSoC6\pdl\drivers\peripheral\dma/cy_dma.h ****     cy_stc_dma_descriptor_t *   nextDescriptor;  /**< The next descriptor to chain after completion
 423:Generated_Source\PSoC6\pdl\drivers\peripheral\dma/cy_dma.h **** } cy_stc_dma_descriptor_config_t;
 424:Generated_Source\PSoC6\pdl\drivers\peripheral\dma/cy_dma.h **** 
 425:Generated_Source\PSoC6\pdl\drivers\peripheral\dma/cy_dma.h **** /** This structure holds the initialization values for the DMA channel */
 426:Generated_Source\PSoC6\pdl\drivers\peripheral\dma/cy_dma.h **** typedef struct
 427:Generated_Source\PSoC6\pdl\drivers\peripheral\dma/cy_dma.h **** {
 428:Generated_Source\PSoC6\pdl\drivers\peripheral\dma/cy_dma.h ****     cy_stc_dma_descriptor_t * descriptor;      /**< The DMA descriptor associated with the channel 
 429:Generated_Source\PSoC6\pdl\drivers\peripheral\dma/cy_dma.h ****     bool     preemptable;                      /**< Specifies whether the channel is preemptable by
ARM GAS  C:\Users\stijn\AppData\Local\Temp\ccPWVksW.s 			page 9


 430:Generated_Source\PSoC6\pdl\drivers\peripheral\dma/cy_dma.h ****     uint32_t priority;                         /**< This parameter specifies the channel's priority
 431:Generated_Source\PSoC6\pdl\drivers\peripheral\dma/cy_dma.h ****     bool     enable;                           /**< This parameter specifies whether the channel is
 432:Generated_Source\PSoC6\pdl\drivers\peripheral\dma/cy_dma.h ****     bool     bufferable;                       /**< This parameter specifies whether a write transa
 433:Generated_Source\PSoC6\pdl\drivers\peripheral\dma/cy_dma.h ****                                                     without waiting for the destination to accept t
 434:Generated_Source\PSoC6\pdl\drivers\peripheral\dma/cy_dma.h **** } cy_stc_dma_channel_config_t;
 435:Generated_Source\PSoC6\pdl\drivers\peripheral\dma/cy_dma.h **** 
 436:Generated_Source\PSoC6\pdl\drivers\peripheral\dma/cy_dma.h **** 
 437:Generated_Source\PSoC6\pdl\drivers\peripheral\dma/cy_dma.h **** /** This structure holds the initialization values for the CRC feature, only for CPUSS_ver2 */
 438:Generated_Source\PSoC6\pdl\drivers\peripheral\dma/cy_dma.h **** typedef struct
 439:Generated_Source\PSoC6\pdl\drivers\peripheral\dma/cy_dma.h **** {
 440:Generated_Source\PSoC6\pdl\drivers\peripheral\dma/cy_dma.h ****     bool     dataReverse;     /**< Specifies the bit order in which a data byte is processed (rever
 441:Generated_Source\PSoC6\pdl\drivers\peripheral\dma/cy_dma.h ****                                * 'false': Most significant bit (bit 1) first.
 442:Generated_Source\PSoC6\pdl\drivers\peripheral\dma/cy_dma.h ****                                * 'true': Least significant bit (bit 0) first.
 443:Generated_Source\PSoC6\pdl\drivers\peripheral\dma/cy_dma.h ****                                */
 444:Generated_Source\PSoC6\pdl\drivers\peripheral\dma/cy_dma.h ****     uint32_t dataXor;         /**< Specifies a byte mask with which each data byte is XORed. The XO
 445:Generated_Source\PSoC6\pdl\drivers\peripheral\dma/cy_dma.h ****     bool     reminderReverse; /**< Specifies whether the remainder is bit reversed (reversal is per
 446:Generated_Source\PSoC6\pdl\drivers\peripheral\dma/cy_dma.h ****                                *   Note: this parameter doesn't affect the CRC value stored into th
 447:Generated_Source\PSoC6\pdl\drivers\peripheral\dma/cy_dma.h ****                                *   The reversed value remains in the CRC_REM_RESULT register.
 448:Generated_Source\PSoC6\pdl\drivers\peripheral\dma/cy_dma.h ****                                */
 449:Generated_Source\PSoC6\pdl\drivers\peripheral\dma/cy_dma.h ****     uint32_t reminderXor;     /**< Specifies a mask with which the remainder is XORed. The XOR is p
 450:Generated_Source\PSoC6\pdl\drivers\peripheral\dma/cy_dma.h ****                                *   Note: this parameter doesn't affect the CRC value stored into th
 451:Generated_Source\PSoC6\pdl\drivers\peripheral\dma/cy_dma.h ****                                *   The XORed value remains in the CRC_REM_RESULT register.
 452:Generated_Source\PSoC6\pdl\drivers\peripheral\dma/cy_dma.h ****                                */
 453:Generated_Source\PSoC6\pdl\drivers\peripheral\dma/cy_dma.h ****     uint32_t polynomial;      /**< CRC polynomial. The polynomial is represented WITHOUT the high o
 454:Generated_Source\PSoC6\pdl\drivers\peripheral\dma/cy_dma.h ****                                * The polynomial should be aligned/shifted such that the more signif
 455:Generated_Source\PSoC6\pdl\drivers\peripheral\dma/cy_dma.h ****                                * and the less significant bits (bit 0 and up) contain padding '0's.
 456:Generated_Source\PSoC6\pdl\drivers\peripheral\dma/cy_dma.h ****                                * - CRC32: POLYNOMIAL is 0x04c11db7 (x^32 + x^26 + x^23 + x^22 + x^1
 457:Generated_Source\PSoC6\pdl\drivers\peripheral\dma/cy_dma.h ****                                * - CRC16: POLYNOMIAL is 0x80050000 (x^16 + x^15 + x^2 + 1, shifted 
 458:Generated_Source\PSoC6\pdl\drivers\peripheral\dma/cy_dma.h ****                                * - CRC16 CCITT: POLYNOMIAL is 0x10210000 (x^16 + x^12 + x^5 + 1, sh
 459:Generated_Source\PSoC6\pdl\drivers\peripheral\dma/cy_dma.h ****                                */
 460:Generated_Source\PSoC6\pdl\drivers\peripheral\dma/cy_dma.h ****     uint32_t lfsrInitVal;     /**< The initial value of the Linear Feedback Shift Register */
 461:Generated_Source\PSoC6\pdl\drivers\peripheral\dma/cy_dma.h **** } cy_stc_dma_crc_config_t;
 462:Generated_Source\PSoC6\pdl\drivers\peripheral\dma/cy_dma.h **** 
 463:Generated_Source\PSoC6\pdl\drivers\peripheral\dma/cy_dma.h **** /** \} group_dma_data_structures */
 464:Generated_Source\PSoC6\pdl\drivers\peripheral\dma/cy_dma.h **** 
 465:Generated_Source\PSoC6\pdl\drivers\peripheral\dma/cy_dma.h **** 
 466:Generated_Source\PSoC6\pdl\drivers\peripheral\dma/cy_dma.h **** /**
 467:Generated_Source\PSoC6\pdl\drivers\peripheral\dma/cy_dma.h **** * \addtogroup group_dma_functions
 468:Generated_Source\PSoC6\pdl\drivers\peripheral\dma/cy_dma.h **** * \{
 469:Generated_Source\PSoC6\pdl\drivers\peripheral\dma/cy_dma.h **** */
 470:Generated_Source\PSoC6\pdl\drivers\peripheral\dma/cy_dma.h **** 
 471:Generated_Source\PSoC6\pdl\drivers\peripheral\dma/cy_dma.h **** 
 472:Generated_Source\PSoC6\pdl\drivers\peripheral\dma/cy_dma.h **** /**
 473:Generated_Source\PSoC6\pdl\drivers\peripheral\dma/cy_dma.h **** * \addtogroup group_dma_block_functions
 474:Generated_Source\PSoC6\pdl\drivers\peripheral\dma/cy_dma.h **** * \{
 475:Generated_Source\PSoC6\pdl\drivers\peripheral\dma/cy_dma.h **** */
 476:Generated_Source\PSoC6\pdl\drivers\peripheral\dma/cy_dma.h **** 
 477:Generated_Source\PSoC6\pdl\drivers\peripheral\dma/cy_dma.h **** 
 478:Generated_Source\PSoC6\pdl\drivers\peripheral\dma/cy_dma.h **** __STATIC_INLINE void     Cy_DMA_Enable             (DW_Type * base);
 479:Generated_Source\PSoC6\pdl\drivers\peripheral\dma/cy_dma.h **** __STATIC_INLINE void     Cy_DMA_Disable            (DW_Type * base);
 480:Generated_Source\PSoC6\pdl\drivers\peripheral\dma/cy_dma.h **** __STATIC_INLINE uint32_t Cy_DMA_GetActiveChannel   (DW_Type const * base);
 481:Generated_Source\PSoC6\pdl\drivers\peripheral\dma/cy_dma.h **** __STATIC_INLINE void *   Cy_DMA_GetActiveSrcAddress(DW_Type * base);
 482:Generated_Source\PSoC6\pdl\drivers\peripheral\dma/cy_dma.h **** __STATIC_INLINE void *   Cy_DMA_GetActiveDstAddress(DW_Type * base);
 483:Generated_Source\PSoC6\pdl\drivers\peripheral\dma/cy_dma.h ****       cy_en_dma_status_t Cy_DMA_Crc_Init           (DW_Type * base, cy_stc_dma_crc_config_t const *
 484:Generated_Source\PSoC6\pdl\drivers\peripheral\dma/cy_dma.h **** 
 485:Generated_Source\PSoC6\pdl\drivers\peripheral\dma/cy_dma.h **** /** \} group_dma_block_functions */
 486:Generated_Source\PSoC6\pdl\drivers\peripheral\dma/cy_dma.h **** 
ARM GAS  C:\Users\stijn\AppData\Local\Temp\ccPWVksW.s 			page 10


 487:Generated_Source\PSoC6\pdl\drivers\peripheral\dma/cy_dma.h **** 
 488:Generated_Source\PSoC6\pdl\drivers\peripheral\dma/cy_dma.h **** /**
 489:Generated_Source\PSoC6\pdl\drivers\peripheral\dma/cy_dma.h **** * \addtogroup group_dma_channel_functions
 490:Generated_Source\PSoC6\pdl\drivers\peripheral\dma/cy_dma.h **** * \{
 491:Generated_Source\PSoC6\pdl\drivers\peripheral\dma/cy_dma.h **** */
 492:Generated_Source\PSoC6\pdl\drivers\peripheral\dma/cy_dma.h ****       cy_en_dma_status_t Cy_DMA_Channel_Init                    (DW_Type       * base, uint32_t cha
 493:Generated_Source\PSoC6\pdl\drivers\peripheral\dma/cy_dma.h ****                 void     Cy_DMA_Channel_DeInit                  (DW_Type       * base, uint32_t cha
 494:Generated_Source\PSoC6\pdl\drivers\peripheral\dma/cy_dma.h **** __STATIC_INLINE void     Cy_DMA_Channel_SetDescriptor           (DW_Type       * base, uint32_t cha
 495:Generated_Source\PSoC6\pdl\drivers\peripheral\dma/cy_dma.h **** __STATIC_INLINE void     Cy_DMA_Channel_Enable                  (DW_Type       * base, uint32_t cha
 496:Generated_Source\PSoC6\pdl\drivers\peripheral\dma/cy_dma.h **** __STATIC_INLINE void     Cy_DMA_Channel_Disable                 (DW_Type       * base, uint32_t cha
 497:Generated_Source\PSoC6\pdl\drivers\peripheral\dma/cy_dma.h **** __STATIC_INLINE void     Cy_DMA_Channel_SetPriority             (DW_Type       * base, uint32_t cha
 498:Generated_Source\PSoC6\pdl\drivers\peripheral\dma/cy_dma.h **** __STATIC_INLINE uint32_t Cy_DMA_Channel_GetPriority             (DW_Type const * base, uint32_t cha
 499:Generated_Source\PSoC6\pdl\drivers\peripheral\dma/cy_dma.h **** __STATIC_INLINE
 500:Generated_Source\PSoC6\pdl\drivers\peripheral\dma/cy_dma.h ****   cy_en_dma_intr_cause_t Cy_DMA_Channel_GetStatus               (DW_Type const * base, uint32_t cha
 501:Generated_Source\PSoC6\pdl\drivers\peripheral\dma/cy_dma.h **** __STATIC_INLINE
 502:Generated_Source\PSoC6\pdl\drivers\peripheral\dma/cy_dma.h **** cy_stc_dma_descriptor_t * Cy_DMA_Channel_GetCurrentDescriptor   (DW_Type const * base, uint32_t cha
 503:Generated_Source\PSoC6\pdl\drivers\peripheral\dma/cy_dma.h **** 
 504:Generated_Source\PSoC6\pdl\drivers\peripheral\dma/cy_dma.h **** __STATIC_INLINE uint32_t Cy_DMA_Channel_GetInterruptStatus      (DW_Type const * base, uint32_t cha
 505:Generated_Source\PSoC6\pdl\drivers\peripheral\dma/cy_dma.h **** __STATIC_INLINE void     Cy_DMA_Channel_ClearInterrupt          (DW_Type       * base, uint32_t cha
 506:Generated_Source\PSoC6\pdl\drivers\peripheral\dma/cy_dma.h **** __STATIC_INLINE void     Cy_DMA_Channel_SetInterrupt            (DW_Type       * base, uint32_t cha
 507:Generated_Source\PSoC6\pdl\drivers\peripheral\dma/cy_dma.h **** __STATIC_INLINE uint32_t Cy_DMA_Channel_GetInterruptMask        (DW_Type const * base, uint32_t cha
 508:Generated_Source\PSoC6\pdl\drivers\peripheral\dma/cy_dma.h **** __STATIC_INLINE void     Cy_DMA_Channel_SetInterruptMask        (DW_Type       * base, uint32_t cha
 509:Generated_Source\PSoC6\pdl\drivers\peripheral\dma/cy_dma.h **** __STATIC_INLINE uint32_t Cy_DMA_Channel_GetInterruptStatusMasked(DW_Type const * base, uint32_t cha
 510:Generated_Source\PSoC6\pdl\drivers\peripheral\dma/cy_dma.h **** 
 511:Generated_Source\PSoC6\pdl\drivers\peripheral\dma/cy_dma.h **** /** \} group_dma_channel_functions */
 512:Generated_Source\PSoC6\pdl\drivers\peripheral\dma/cy_dma.h **** 
 513:Generated_Source\PSoC6\pdl\drivers\peripheral\dma/cy_dma.h **** 
 514:Generated_Source\PSoC6\pdl\drivers\peripheral\dma/cy_dma.h **** /**
 515:Generated_Source\PSoC6\pdl\drivers\peripheral\dma/cy_dma.h **** * \addtogroup group_dma_descriptor_functions
 516:Generated_Source\PSoC6\pdl\drivers\peripheral\dma/cy_dma.h **** * \{
 517:Generated_Source\PSoC6\pdl\drivers\peripheral\dma/cy_dma.h **** */
 518:Generated_Source\PSoC6\pdl\drivers\peripheral\dma/cy_dma.h **** 
 519:Generated_Source\PSoC6\pdl\drivers\peripheral\dma/cy_dma.h ****   cy_en_dma_status_t Cy_DMA_Descriptor_Init  (cy_stc_dma_descriptor_t * descriptor, cy_stc_dma_desc
 520:Generated_Source\PSoC6\pdl\drivers\peripheral\dma/cy_dma.h ****                 void Cy_DMA_Descriptor_DeInit(cy_stc_dma_descriptor_t * descriptor);
 521:Generated_Source\PSoC6\pdl\drivers\peripheral\dma/cy_dma.h ****                 
 522:Generated_Source\PSoC6\pdl\drivers\peripheral\dma/cy_dma.h ****                 void Cy_DMA_Descriptor_SetNextDescriptor   (cy_stc_dma_descriptor_t * descriptor, c
 523:Generated_Source\PSoC6\pdl\drivers\peripheral\dma/cy_dma.h ****                 void Cy_DMA_Descriptor_SetDescriptorType   (cy_stc_dma_descriptor_t * descriptor, c
 524:Generated_Source\PSoC6\pdl\drivers\peripheral\dma/cy_dma.h **** __STATIC_INLINE void Cy_DMA_Descriptor_SetSrcAddress       (cy_stc_dma_descriptor_t * descriptor, v
 525:Generated_Source\PSoC6\pdl\drivers\peripheral\dma/cy_dma.h **** __STATIC_INLINE void Cy_DMA_Descriptor_SetDstAddress       (cy_stc_dma_descriptor_t * descriptor, v
 526:Generated_Source\PSoC6\pdl\drivers\peripheral\dma/cy_dma.h **** __STATIC_INLINE void Cy_DMA_Descriptor_SetXloopDataCount   (cy_stc_dma_descriptor_t * descriptor, u
 527:Generated_Source\PSoC6\pdl\drivers\peripheral\dma/cy_dma.h **** __STATIC_INLINE void Cy_DMA_Descriptor_SetYloopDataCount   (cy_stc_dma_descriptor_t * descriptor, u
 528:Generated_Source\PSoC6\pdl\drivers\peripheral\dma/cy_dma.h **** __STATIC_INLINE void Cy_DMA_Descriptor_SetXloopSrcIncrement(cy_stc_dma_descriptor_t * descriptor, i
 529:Generated_Source\PSoC6\pdl\drivers\peripheral\dma/cy_dma.h **** __STATIC_INLINE void Cy_DMA_Descriptor_SetXloopDstIncrement(cy_stc_dma_descriptor_t * descriptor, i
 530:Generated_Source\PSoC6\pdl\drivers\peripheral\dma/cy_dma.h **** __STATIC_INLINE void Cy_DMA_Descriptor_SetYloopSrcIncrement(cy_stc_dma_descriptor_t * descriptor, i
 531:Generated_Source\PSoC6\pdl\drivers\peripheral\dma/cy_dma.h **** __STATIC_INLINE void Cy_DMA_Descriptor_SetYloopDstIncrement(cy_stc_dma_descriptor_t * descriptor, i
 532:Generated_Source\PSoC6\pdl\drivers\peripheral\dma/cy_dma.h **** __STATIC_INLINE void Cy_DMA_Descriptor_SetInterruptType    (cy_stc_dma_descriptor_t * descriptor, c
 533:Generated_Source\PSoC6\pdl\drivers\peripheral\dma/cy_dma.h **** __STATIC_INLINE void Cy_DMA_Descriptor_SetTriggerInType    (cy_stc_dma_descriptor_t * descriptor, c
 534:Generated_Source\PSoC6\pdl\drivers\peripheral\dma/cy_dma.h **** __STATIC_INLINE void Cy_DMA_Descriptor_SetTriggerOutType   (cy_stc_dma_descriptor_t * descriptor, c
 535:Generated_Source\PSoC6\pdl\drivers\peripheral\dma/cy_dma.h **** __STATIC_INLINE void Cy_DMA_Descriptor_SetDataSize         (cy_stc_dma_descriptor_t * descriptor, c
 536:Generated_Source\PSoC6\pdl\drivers\peripheral\dma/cy_dma.h **** __STATIC_INLINE void Cy_DMA_Descriptor_SetSrcTransferSize  (cy_stc_dma_descriptor_t * descriptor, c
 537:Generated_Source\PSoC6\pdl\drivers\peripheral\dma/cy_dma.h **** __STATIC_INLINE void Cy_DMA_Descriptor_SetDstTransferSize  (cy_stc_dma_descriptor_t * descriptor, c
 538:Generated_Source\PSoC6\pdl\drivers\peripheral\dma/cy_dma.h **** __STATIC_INLINE void Cy_DMA_Descriptor_SetRetrigger        (cy_stc_dma_descriptor_t * descriptor, c
 539:Generated_Source\PSoC6\pdl\drivers\peripheral\dma/cy_dma.h **** __STATIC_INLINE void Cy_DMA_Descriptor_SetChannelState     (cy_stc_dma_descriptor_t * descriptor, c
 540:Generated_Source\PSoC6\pdl\drivers\peripheral\dma/cy_dma.h **** 
 541:Generated_Source\PSoC6\pdl\drivers\peripheral\dma/cy_dma.h ****                 cy_stc_dma_descriptor_t *   Cy_DMA_Descriptor_GetNextDescriptor   (cy_stc_dma_descr
 542:Generated_Source\PSoC6\pdl\drivers\peripheral\dma/cy_dma.h **** __STATIC_INLINE cy_en_dma_descriptor_type_t Cy_DMA_Descriptor_GetDescriptorType   (cy_stc_dma_descr
 543:Generated_Source\PSoC6\pdl\drivers\peripheral\dma/cy_dma.h **** __STATIC_INLINE void *                      Cy_DMA_Descriptor_GetSrcAddress       (cy_stc_dma_descr
ARM GAS  C:\Users\stijn\AppData\Local\Temp\ccPWVksW.s 			page 11


 544:Generated_Source\PSoC6\pdl\drivers\peripheral\dma/cy_dma.h **** __STATIC_INLINE void *                      Cy_DMA_Descriptor_GetDstAddress       (cy_stc_dma_descr
 545:Generated_Source\PSoC6\pdl\drivers\peripheral\dma/cy_dma.h **** __STATIC_INLINE uint32_t                    Cy_DMA_Descriptor_GetXloopDataCount   (cy_stc_dma_descr
 546:Generated_Source\PSoC6\pdl\drivers\peripheral\dma/cy_dma.h **** __STATIC_INLINE uint32_t                    Cy_DMA_Descriptor_GetYloopDataCount   (cy_stc_dma_descr
 547:Generated_Source\PSoC6\pdl\drivers\peripheral\dma/cy_dma.h **** __STATIC_INLINE int32_t                     Cy_DMA_Descriptor_GetXloopSrcIncrement(cy_stc_dma_descr
 548:Generated_Source\PSoC6\pdl\drivers\peripheral\dma/cy_dma.h **** __STATIC_INLINE int32_t                     Cy_DMA_Descriptor_GetXloopDstIncrement(cy_stc_dma_descr
 549:Generated_Source\PSoC6\pdl\drivers\peripheral\dma/cy_dma.h **** __STATIC_INLINE int32_t                     Cy_DMA_Descriptor_GetYloopSrcIncrement(cy_stc_dma_descr
 550:Generated_Source\PSoC6\pdl\drivers\peripheral\dma/cy_dma.h **** __STATIC_INLINE int32_t                     Cy_DMA_Descriptor_GetYloopDstIncrement(cy_stc_dma_descr
 551:Generated_Source\PSoC6\pdl\drivers\peripheral\dma/cy_dma.h **** __STATIC_INLINE cy_en_dma_trigger_type_t    Cy_DMA_Descriptor_GetInterruptType    (cy_stc_dma_descr
 552:Generated_Source\PSoC6\pdl\drivers\peripheral\dma/cy_dma.h **** __STATIC_INLINE cy_en_dma_trigger_type_t    Cy_DMA_Descriptor_GetTriggerInType    (cy_stc_dma_descr
 553:Generated_Source\PSoC6\pdl\drivers\peripheral\dma/cy_dma.h **** __STATIC_INLINE cy_en_dma_trigger_type_t    Cy_DMA_Descriptor_GetTriggerOutType   (cy_stc_dma_descr
 554:Generated_Source\PSoC6\pdl\drivers\peripheral\dma/cy_dma.h **** __STATIC_INLINE cy_en_dma_data_size_t       Cy_DMA_Descriptor_GetDataSize         (cy_stc_dma_descr
 555:Generated_Source\PSoC6\pdl\drivers\peripheral\dma/cy_dma.h **** __STATIC_INLINE cy_en_dma_transfer_size_t   Cy_DMA_Descriptor_GetSrcTransferSize  (cy_stc_dma_descr
 556:Generated_Source\PSoC6\pdl\drivers\peripheral\dma/cy_dma.h **** __STATIC_INLINE cy_en_dma_transfer_size_t   Cy_DMA_Descriptor_GetDstTransferSize  (cy_stc_dma_descr
 557:Generated_Source\PSoC6\pdl\drivers\peripheral\dma/cy_dma.h **** __STATIC_INLINE cy_en_dma_retrigger_t       Cy_DMA_Descriptor_GetRetrigger        (cy_stc_dma_descr
 558:Generated_Source\PSoC6\pdl\drivers\peripheral\dma/cy_dma.h **** __STATIC_INLINE cy_en_dma_channel_state_t   Cy_DMA_Descriptor_GetChannelState     (cy_stc_dma_descr
 559:Generated_Source\PSoC6\pdl\drivers\peripheral\dma/cy_dma.h **** 
 560:Generated_Source\PSoC6\pdl\drivers\peripheral\dma/cy_dma.h **** /** \} group_dma_descriptor_functions */
 561:Generated_Source\PSoC6\pdl\drivers\peripheral\dma/cy_dma.h **** 
 562:Generated_Source\PSoC6\pdl\drivers\peripheral\dma/cy_dma.h **** 
 563:Generated_Source\PSoC6\pdl\drivers\peripheral\dma/cy_dma.h **** 
 564:Generated_Source\PSoC6\pdl\drivers\peripheral\dma/cy_dma.h **** /***************************************
 565:Generated_Source\PSoC6\pdl\drivers\peripheral\dma/cy_dma.h **** *    In-line Function Implementation
 566:Generated_Source\PSoC6\pdl\drivers\peripheral\dma/cy_dma.h **** ***************************************/
 567:Generated_Source\PSoC6\pdl\drivers\peripheral\dma/cy_dma.h **** 
 568:Generated_Source\PSoC6\pdl\drivers\peripheral\dma/cy_dma.h **** 
 569:Generated_Source\PSoC6\pdl\drivers\peripheral\dma/cy_dma.h **** /**
 570:Generated_Source\PSoC6\pdl\drivers\peripheral\dma/cy_dma.h **** * \addtogroup group_dma_block_functions
 571:Generated_Source\PSoC6\pdl\drivers\peripheral\dma/cy_dma.h **** * \{
 572:Generated_Source\PSoC6\pdl\drivers\peripheral\dma/cy_dma.h **** */
 573:Generated_Source\PSoC6\pdl\drivers\peripheral\dma/cy_dma.h **** 
 574:Generated_Source\PSoC6\pdl\drivers\peripheral\dma/cy_dma.h **** 
 575:Generated_Source\PSoC6\pdl\drivers\peripheral\dma/cy_dma.h **** /*******************************************************************************
 576:Generated_Source\PSoC6\pdl\drivers\peripheral\dma/cy_dma.h **** * Function Name: Cy_DMA_Enable
 577:Generated_Source\PSoC6\pdl\drivers\peripheral\dma/cy_dma.h **** ****************************************************************************//**
 578:Generated_Source\PSoC6\pdl\drivers\peripheral\dma/cy_dma.h **** *
 579:Generated_Source\PSoC6\pdl\drivers\peripheral\dma/cy_dma.h **** * Enables the DMA block.
 580:Generated_Source\PSoC6\pdl\drivers\peripheral\dma/cy_dma.h **** *
 581:Generated_Source\PSoC6\pdl\drivers\peripheral\dma/cy_dma.h **** * \param base
 582:Generated_Source\PSoC6\pdl\drivers\peripheral\dma/cy_dma.h **** * The pointer to the hardware DMA block.
 583:Generated_Source\PSoC6\pdl\drivers\peripheral\dma/cy_dma.h **** *
 584:Generated_Source\PSoC6\pdl\drivers\peripheral\dma/cy_dma.h **** * \funcusage 
 585:Generated_Source\PSoC6\pdl\drivers\peripheral\dma/cy_dma.h **** * \snippet dma\2.10\snippet\main.c snippet_Cy_DMA_Enable
 586:Generated_Source\PSoC6\pdl\drivers\peripheral\dma/cy_dma.h **** *
 587:Generated_Source\PSoC6\pdl\drivers\peripheral\dma/cy_dma.h **** *******************************************************************************/
 588:Generated_Source\PSoC6\pdl\drivers\peripheral\dma/cy_dma.h **** __STATIC_INLINE void Cy_DMA_Enable(DW_Type * base)
 589:Generated_Source\PSoC6\pdl\drivers\peripheral\dma/cy_dma.h **** {
 590:Generated_Source\PSoC6\pdl\drivers\peripheral\dma/cy_dma.h ****     DW_CTL(base) |= DW_CTL_ENABLED_Msk;
 591:Generated_Source\PSoC6\pdl\drivers\peripheral\dma/cy_dma.h **** }
 592:Generated_Source\PSoC6\pdl\drivers\peripheral\dma/cy_dma.h **** 
 593:Generated_Source\PSoC6\pdl\drivers\peripheral\dma/cy_dma.h **** 
 594:Generated_Source\PSoC6\pdl\drivers\peripheral\dma/cy_dma.h **** /*******************************************************************************
 595:Generated_Source\PSoC6\pdl\drivers\peripheral\dma/cy_dma.h **** * Function Name: Cy_DMA_Disable
 596:Generated_Source\PSoC6\pdl\drivers\peripheral\dma/cy_dma.h **** ****************************************************************************//**
 597:Generated_Source\PSoC6\pdl\drivers\peripheral\dma/cy_dma.h **** *
 598:Generated_Source\PSoC6\pdl\drivers\peripheral\dma/cy_dma.h **** * Disables the DMA block.
 599:Generated_Source\PSoC6\pdl\drivers\peripheral\dma/cy_dma.h **** *
 600:Generated_Source\PSoC6\pdl\drivers\peripheral\dma/cy_dma.h **** * \param base
ARM GAS  C:\Users\stijn\AppData\Local\Temp\ccPWVksW.s 			page 12


 601:Generated_Source\PSoC6\pdl\drivers\peripheral\dma/cy_dma.h **** * The pointer to the hardware DMA block.
 602:Generated_Source\PSoC6\pdl\drivers\peripheral\dma/cy_dma.h **** *
 603:Generated_Source\PSoC6\pdl\drivers\peripheral\dma/cy_dma.h **** * \funcusage 
 604:Generated_Source\PSoC6\pdl\drivers\peripheral\dma/cy_dma.h **** * \snippet dma\2.10\snippet\main.c snippet_Cy_DMA_Disable
 605:Generated_Source\PSoC6\pdl\drivers\peripheral\dma/cy_dma.h **** *
 606:Generated_Source\PSoC6\pdl\drivers\peripheral\dma/cy_dma.h **** *******************************************************************************/
 607:Generated_Source\PSoC6\pdl\drivers\peripheral\dma/cy_dma.h **** __STATIC_INLINE void Cy_DMA_Disable(DW_Type * base)
 608:Generated_Source\PSoC6\pdl\drivers\peripheral\dma/cy_dma.h **** {
 609:Generated_Source\PSoC6\pdl\drivers\peripheral\dma/cy_dma.h ****     DW_CTL(base) &= (uint32_t) ~DW_CTL_ENABLED_Msk;
 610:Generated_Source\PSoC6\pdl\drivers\peripheral\dma/cy_dma.h **** }
 611:Generated_Source\PSoC6\pdl\drivers\peripheral\dma/cy_dma.h **** 
 612:Generated_Source\PSoC6\pdl\drivers\peripheral\dma/cy_dma.h **** 
 613:Generated_Source\PSoC6\pdl\drivers\peripheral\dma/cy_dma.h **** /*******************************************************************************
 614:Generated_Source\PSoC6\pdl\drivers\peripheral\dma/cy_dma.h **** * Function Name: Cy_DMA_GetActiveChannel
 615:Generated_Source\PSoC6\pdl\drivers\peripheral\dma/cy_dma.h **** ****************************************************************************//**
 616:Generated_Source\PSoC6\pdl\drivers\peripheral\dma/cy_dma.h **** *
 617:Generated_Source\PSoC6\pdl\drivers\peripheral\dma/cy_dma.h **** * Returns the status of the active/pending channels.
 618:Generated_Source\PSoC6\pdl\drivers\peripheral\dma/cy_dma.h **** * the DMA block.
 619:Generated_Source\PSoC6\pdl\drivers\peripheral\dma/cy_dma.h **** *
 620:Generated_Source\PSoC6\pdl\drivers\peripheral\dma/cy_dma.h **** * \param base
 621:Generated_Source\PSoC6\pdl\drivers\peripheral\dma/cy_dma.h **** * The pointer to the hardware DMA block.
 622:Generated_Source\PSoC6\pdl\drivers\peripheral\dma/cy_dma.h **** *
 623:Generated_Source\PSoC6\pdl\drivers\peripheral\dma/cy_dma.h **** * \return
 624:Generated_Source\PSoC6\pdl\drivers\peripheral\dma/cy_dma.h **** * Returns a bit-field with all of the currently active/pending channels in the
 625:Generated_Source\PSoC6\pdl\drivers\peripheral\dma/cy_dma.h **** * DMA block.
 626:Generated_Source\PSoC6\pdl\drivers\peripheral\dma/cy_dma.h **** *
 627:Generated_Source\PSoC6\pdl\drivers\peripheral\dma/cy_dma.h **** * \funcusage 
 628:Generated_Source\PSoC6\pdl\drivers\peripheral\dma/cy_dma.h **** * \snippet dma\2.10\snippet\main.c snippet_Cy_DMA_Disable
 629:Generated_Source\PSoC6\pdl\drivers\peripheral\dma/cy_dma.h **** *
 630:Generated_Source\PSoC6\pdl\drivers\peripheral\dma/cy_dma.h **** *******************************************************************************/
 631:Generated_Source\PSoC6\pdl\drivers\peripheral\dma/cy_dma.h **** __STATIC_INLINE uint32_t Cy_DMA_GetActiveChannel(DW_Type const * base)
 632:Generated_Source\PSoC6\pdl\drivers\peripheral\dma/cy_dma.h **** {
 633:Generated_Source\PSoC6\pdl\drivers\peripheral\dma/cy_dma.h ****     return(_FLD2VAL(CY_DW_STATUS_CH_IDX, DW_STATUS(base)));
 634:Generated_Source\PSoC6\pdl\drivers\peripheral\dma/cy_dma.h **** }
 635:Generated_Source\PSoC6\pdl\drivers\peripheral\dma/cy_dma.h **** 
 636:Generated_Source\PSoC6\pdl\drivers\peripheral\dma/cy_dma.h **** 
 637:Generated_Source\PSoC6\pdl\drivers\peripheral\dma/cy_dma.h **** /*******************************************************************************
 638:Generated_Source\PSoC6\pdl\drivers\peripheral\dma/cy_dma.h **** * Function Name: Cy_DMA_GetActiveSrcAddress
 639:Generated_Source\PSoC6\pdl\drivers\peripheral\dma/cy_dma.h **** ****************************************************************************//**
 640:Generated_Source\PSoC6\pdl\drivers\peripheral\dma/cy_dma.h **** *
 641:Generated_Source\PSoC6\pdl\drivers\peripheral\dma/cy_dma.h **** * Returns the source address being used for the current transfer.
 642:Generated_Source\PSoC6\pdl\drivers\peripheral\dma/cy_dma.h **** *
 643:Generated_Source\PSoC6\pdl\drivers\peripheral\dma/cy_dma.h **** * \param base
 644:Generated_Source\PSoC6\pdl\drivers\peripheral\dma/cy_dma.h **** * The pointer to the hardware DMA block.
 645:Generated_Source\PSoC6\pdl\drivers\peripheral\dma/cy_dma.h **** *
 646:Generated_Source\PSoC6\pdl\drivers\peripheral\dma/cy_dma.h **** * \return
 647:Generated_Source\PSoC6\pdl\drivers\peripheral\dma/cy_dma.h **** * Returns the pointer to the source of transfer.
 648:Generated_Source\PSoC6\pdl\drivers\peripheral\dma/cy_dma.h **** *
 649:Generated_Source\PSoC6\pdl\drivers\peripheral\dma/cy_dma.h **** * \funcusage 
 650:Generated_Source\PSoC6\pdl\drivers\peripheral\dma/cy_dma.h **** * \snippet dma\2.10\snippet\main.c snippet_Cy_DMA_GetActiveSrcAddress
 651:Generated_Source\PSoC6\pdl\drivers\peripheral\dma/cy_dma.h **** *
 652:Generated_Source\PSoC6\pdl\drivers\peripheral\dma/cy_dma.h **** *******************************************************************************/
 653:Generated_Source\PSoC6\pdl\drivers\peripheral\dma/cy_dma.h **** __STATIC_INLINE void * Cy_DMA_GetActiveSrcAddress(DW_Type * base)
 654:Generated_Source\PSoC6\pdl\drivers\peripheral\dma/cy_dma.h **** {
 655:Generated_Source\PSoC6\pdl\drivers\peripheral\dma/cy_dma.h ****     return ((void *) DW_DESCR_SRC(base));
 656:Generated_Source\PSoC6\pdl\drivers\peripheral\dma/cy_dma.h **** }
 657:Generated_Source\PSoC6\pdl\drivers\peripheral\dma/cy_dma.h **** 
ARM GAS  C:\Users\stijn\AppData\Local\Temp\ccPWVksW.s 			page 13


 658:Generated_Source\PSoC6\pdl\drivers\peripheral\dma/cy_dma.h **** 
 659:Generated_Source\PSoC6\pdl\drivers\peripheral\dma/cy_dma.h **** /*******************************************************************************
 660:Generated_Source\PSoC6\pdl\drivers\peripheral\dma/cy_dma.h **** * Function Name: Cy_DMA_GetActiveDstAddress
 661:Generated_Source\PSoC6\pdl\drivers\peripheral\dma/cy_dma.h **** ****************************************************************************//**
 662:Generated_Source\PSoC6\pdl\drivers\peripheral\dma/cy_dma.h **** *
 663:Generated_Source\PSoC6\pdl\drivers\peripheral\dma/cy_dma.h **** * Returns the destination address being used for the current transfer.
 664:Generated_Source\PSoC6\pdl\drivers\peripheral\dma/cy_dma.h **** *
 665:Generated_Source\PSoC6\pdl\drivers\peripheral\dma/cy_dma.h **** * \param base
 666:Generated_Source\PSoC6\pdl\drivers\peripheral\dma/cy_dma.h **** * The pointer to the hardware DMA block.
 667:Generated_Source\PSoC6\pdl\drivers\peripheral\dma/cy_dma.h **** *
 668:Generated_Source\PSoC6\pdl\drivers\peripheral\dma/cy_dma.h **** * \return
 669:Generated_Source\PSoC6\pdl\drivers\peripheral\dma/cy_dma.h **** * Returns the pointer to the destination of transfer.
 670:Generated_Source\PSoC6\pdl\drivers\peripheral\dma/cy_dma.h **** *
 671:Generated_Source\PSoC6\pdl\drivers\peripheral\dma/cy_dma.h **** * \funcusage 
 672:Generated_Source\PSoC6\pdl\drivers\peripheral\dma/cy_dma.h **** * \snippet dma\2.10\snippet\main.c snippet_Cy_DMA_GetActiveSrcAddress
 673:Generated_Source\PSoC6\pdl\drivers\peripheral\dma/cy_dma.h **** *
 674:Generated_Source\PSoC6\pdl\drivers\peripheral\dma/cy_dma.h **** *******************************************************************************/
 675:Generated_Source\PSoC6\pdl\drivers\peripheral\dma/cy_dma.h **** __STATIC_INLINE void * Cy_DMA_GetActiveDstAddress(DW_Type * base)
 676:Generated_Source\PSoC6\pdl\drivers\peripheral\dma/cy_dma.h **** {
 677:Generated_Source\PSoC6\pdl\drivers\peripheral\dma/cy_dma.h ****     return ((void *) DW_DESCR_DST(base));
 678:Generated_Source\PSoC6\pdl\drivers\peripheral\dma/cy_dma.h **** }
 679:Generated_Source\PSoC6\pdl\drivers\peripheral\dma/cy_dma.h **** 
 680:Generated_Source\PSoC6\pdl\drivers\peripheral\dma/cy_dma.h **** /** \} group_dma_block_functions */
 681:Generated_Source\PSoC6\pdl\drivers\peripheral\dma/cy_dma.h **** 
 682:Generated_Source\PSoC6\pdl\drivers\peripheral\dma/cy_dma.h **** /**
 683:Generated_Source\PSoC6\pdl\drivers\peripheral\dma/cy_dma.h **** * \addtogroup group_dma_descriptor_functions
 684:Generated_Source\PSoC6\pdl\drivers\peripheral\dma/cy_dma.h **** * \{
 685:Generated_Source\PSoC6\pdl\drivers\peripheral\dma/cy_dma.h **** */
 686:Generated_Source\PSoC6\pdl\drivers\peripheral\dma/cy_dma.h **** 
 687:Generated_Source\PSoC6\pdl\drivers\peripheral\dma/cy_dma.h **** 
 688:Generated_Source\PSoC6\pdl\drivers\peripheral\dma/cy_dma.h **** /*******************************************************************************
 689:Generated_Source\PSoC6\pdl\drivers\peripheral\dma/cy_dma.h **** * Function Name: Cy_DMA_Descriptor_SetSrcAddress
 690:Generated_Source\PSoC6\pdl\drivers\peripheral\dma/cy_dma.h **** ****************************************************************************//**
 691:Generated_Source\PSoC6\pdl\drivers\peripheral\dma/cy_dma.h **** *
 692:Generated_Source\PSoC6\pdl\drivers\peripheral\dma/cy_dma.h **** * Sets the source address for the specified descriptor.
 693:Generated_Source\PSoC6\pdl\drivers\peripheral\dma/cy_dma.h **** *
 694:Generated_Source\PSoC6\pdl\drivers\peripheral\dma/cy_dma.h **** * \param descriptor
 695:Generated_Source\PSoC6\pdl\drivers\peripheral\dma/cy_dma.h **** * The descriptor structure instance declared by the user/component.
 696:Generated_Source\PSoC6\pdl\drivers\peripheral\dma/cy_dma.h **** *
 697:Generated_Source\PSoC6\pdl\drivers\peripheral\dma/cy_dma.h **** * \param srcAddress
 698:Generated_Source\PSoC6\pdl\drivers\peripheral\dma/cy_dma.h **** * The source address value for the descriptor.
 699:Generated_Source\PSoC6\pdl\drivers\peripheral\dma/cy_dma.h **** *
 700:Generated_Source\PSoC6\pdl\drivers\peripheral\dma/cy_dma.h **** * \funcusage 
 701:Generated_Source\PSoC6\pdl\drivers\peripheral\dma/cy_dma.h **** * \snippet dma\2.10\snippet\main.c snippet_Cy_DMA_Descriptor_SetterFunctions
 702:Generated_Source\PSoC6\pdl\drivers\peripheral\dma/cy_dma.h **** *
 703:Generated_Source\PSoC6\pdl\drivers\peripheral\dma/cy_dma.h **** *******************************************************************************/
 704:Generated_Source\PSoC6\pdl\drivers\peripheral\dma/cy_dma.h **** __STATIC_INLINE void Cy_DMA_Descriptor_SetSrcAddress(cy_stc_dma_descriptor_t * descriptor, void con
 705:Generated_Source\PSoC6\pdl\drivers\peripheral\dma/cy_dma.h **** {
 706:Generated_Source\PSoC6\pdl\drivers\peripheral\dma/cy_dma.h ****     descriptor->src = (uint32_t) srcAddress;
 707:Generated_Source\PSoC6\pdl\drivers\peripheral\dma/cy_dma.h **** }
 708:Generated_Source\PSoC6\pdl\drivers\peripheral\dma/cy_dma.h **** 
 709:Generated_Source\PSoC6\pdl\drivers\peripheral\dma/cy_dma.h **** 
 710:Generated_Source\PSoC6\pdl\drivers\peripheral\dma/cy_dma.h **** /*******************************************************************************
 711:Generated_Source\PSoC6\pdl\drivers\peripheral\dma/cy_dma.h **** * Function Name: Cy_DMA_Descriptor_GetSrcAddress
 712:Generated_Source\PSoC6\pdl\drivers\peripheral\dma/cy_dma.h **** ****************************************************************************//**
 713:Generated_Source\PSoC6\pdl\drivers\peripheral\dma/cy_dma.h **** *
 714:Generated_Source\PSoC6\pdl\drivers\peripheral\dma/cy_dma.h **** * Returns the source address parameter of the specified descriptor.
ARM GAS  C:\Users\stijn\AppData\Local\Temp\ccPWVksW.s 			page 14


 715:Generated_Source\PSoC6\pdl\drivers\peripheral\dma/cy_dma.h **** * 
 716:Generated_Source\PSoC6\pdl\drivers\peripheral\dma/cy_dma.h **** * \param descriptor
 717:Generated_Source\PSoC6\pdl\drivers\peripheral\dma/cy_dma.h **** * The descriptor structure instance declared by the user/component.
 718:Generated_Source\PSoC6\pdl\drivers\peripheral\dma/cy_dma.h **** *
 719:Generated_Source\PSoC6\pdl\drivers\peripheral\dma/cy_dma.h **** * \return
 720:Generated_Source\PSoC6\pdl\drivers\peripheral\dma/cy_dma.h **** * The source address value of the descriptor.
 721:Generated_Source\PSoC6\pdl\drivers\peripheral\dma/cy_dma.h **** *
 722:Generated_Source\PSoC6\pdl\drivers\peripheral\dma/cy_dma.h **** * \funcusage 
 723:Generated_Source\PSoC6\pdl\drivers\peripheral\dma/cy_dma.h **** * \snippet dma\2.10\snippet\main.c snippet_Cy_DMA_Descriptor_GetterFunctions
 724:Generated_Source\PSoC6\pdl\drivers\peripheral\dma/cy_dma.h **** *
 725:Generated_Source\PSoC6\pdl\drivers\peripheral\dma/cy_dma.h **** *******************************************************************************/
 726:Generated_Source\PSoC6\pdl\drivers\peripheral\dma/cy_dma.h **** __STATIC_INLINE void * Cy_DMA_Descriptor_GetSrcAddress(cy_stc_dma_descriptor_t const * descriptor)
 727:Generated_Source\PSoC6\pdl\drivers\peripheral\dma/cy_dma.h **** {
 728:Generated_Source\PSoC6\pdl\drivers\peripheral\dma/cy_dma.h ****     return ((void *) descriptor->src);
 729:Generated_Source\PSoC6\pdl\drivers\peripheral\dma/cy_dma.h **** }
 730:Generated_Source\PSoC6\pdl\drivers\peripheral\dma/cy_dma.h **** 
 731:Generated_Source\PSoC6\pdl\drivers\peripheral\dma/cy_dma.h **** 
 732:Generated_Source\PSoC6\pdl\drivers\peripheral\dma/cy_dma.h **** /*******************************************************************************
 733:Generated_Source\PSoC6\pdl\drivers\peripheral\dma/cy_dma.h **** * Function Name: Cy_DMA_Descriptor_SetDstAddress
 734:Generated_Source\PSoC6\pdl\drivers\peripheral\dma/cy_dma.h **** ****************************************************************************//**
 735:Generated_Source\PSoC6\pdl\drivers\peripheral\dma/cy_dma.h **** *
 736:Generated_Source\PSoC6\pdl\drivers\peripheral\dma/cy_dma.h **** * Sets the destination address for the specified descriptor.
 737:Generated_Source\PSoC6\pdl\drivers\peripheral\dma/cy_dma.h **** *
 738:Generated_Source\PSoC6\pdl\drivers\peripheral\dma/cy_dma.h **** * \param descriptor
 739:Generated_Source\PSoC6\pdl\drivers\peripheral\dma/cy_dma.h **** * The descriptor structure instance declared by the user/component.
 740:Generated_Source\PSoC6\pdl\drivers\peripheral\dma/cy_dma.h **** *
 741:Generated_Source\PSoC6\pdl\drivers\peripheral\dma/cy_dma.h **** * \param dstAddress
 742:Generated_Source\PSoC6\pdl\drivers\peripheral\dma/cy_dma.h **** * The destination address value for the descriptor.
 743:Generated_Source\PSoC6\pdl\drivers\peripheral\dma/cy_dma.h **** *
 744:Generated_Source\PSoC6\pdl\drivers\peripheral\dma/cy_dma.h **** * \funcusage 
 745:Generated_Source\PSoC6\pdl\drivers\peripheral\dma/cy_dma.h **** * \snippet dma\2.10\snippet\main.c snippet_Cy_DMA_Descriptor_SetterFunctions
 746:Generated_Source\PSoC6\pdl\drivers\peripheral\dma/cy_dma.h **** *
 747:Generated_Source\PSoC6\pdl\drivers\peripheral\dma/cy_dma.h **** *******************************************************************************/
 748:Generated_Source\PSoC6\pdl\drivers\peripheral\dma/cy_dma.h **** __STATIC_INLINE void Cy_DMA_Descriptor_SetDstAddress(cy_stc_dma_descriptor_t * descriptor, void con
 749:Generated_Source\PSoC6\pdl\drivers\peripheral\dma/cy_dma.h **** {
 750:Generated_Source\PSoC6\pdl\drivers\peripheral\dma/cy_dma.h ****     descriptor->dst = (uint32_t) dstAddress;
 751:Generated_Source\PSoC6\pdl\drivers\peripheral\dma/cy_dma.h **** }
 752:Generated_Source\PSoC6\pdl\drivers\peripheral\dma/cy_dma.h **** 
 753:Generated_Source\PSoC6\pdl\drivers\peripheral\dma/cy_dma.h **** 
 754:Generated_Source\PSoC6\pdl\drivers\peripheral\dma/cy_dma.h **** /*******************************************************************************
 755:Generated_Source\PSoC6\pdl\drivers\peripheral\dma/cy_dma.h **** * Function Name: Cy_DMA_Descriptor_GetDstAddress
 756:Generated_Source\PSoC6\pdl\drivers\peripheral\dma/cy_dma.h **** ****************************************************************************//**
 757:Generated_Source\PSoC6\pdl\drivers\peripheral\dma/cy_dma.h **** *
 758:Generated_Source\PSoC6\pdl\drivers\peripheral\dma/cy_dma.h **** * Returns the destination address parameter of the specified descriptor.
 759:Generated_Source\PSoC6\pdl\drivers\peripheral\dma/cy_dma.h **** * 
 760:Generated_Source\PSoC6\pdl\drivers\peripheral\dma/cy_dma.h **** * \param descriptor
 761:Generated_Source\PSoC6\pdl\drivers\peripheral\dma/cy_dma.h **** * The descriptor structure instance declared by the user/component.
 762:Generated_Source\PSoC6\pdl\drivers\peripheral\dma/cy_dma.h **** *
 763:Generated_Source\PSoC6\pdl\drivers\peripheral\dma/cy_dma.h **** * \return
 764:Generated_Source\PSoC6\pdl\drivers\peripheral\dma/cy_dma.h **** * The destination address value of the descriptor.
 765:Generated_Source\PSoC6\pdl\drivers\peripheral\dma/cy_dma.h **** *
 766:Generated_Source\PSoC6\pdl\drivers\peripheral\dma/cy_dma.h **** * \funcusage 
 767:Generated_Source\PSoC6\pdl\drivers\peripheral\dma/cy_dma.h **** * \snippet dma\2.10\snippet\main.c snippet_Cy_DMA_Descriptor_GetterFunctions
 768:Generated_Source\PSoC6\pdl\drivers\peripheral\dma/cy_dma.h **** *
 769:Generated_Source\PSoC6\pdl\drivers\peripheral\dma/cy_dma.h **** *******************************************************************************/
 770:Generated_Source\PSoC6\pdl\drivers\peripheral\dma/cy_dma.h **** __STATIC_INLINE void * Cy_DMA_Descriptor_GetDstAddress(cy_stc_dma_descriptor_t const * descriptor)
 771:Generated_Source\PSoC6\pdl\drivers\peripheral\dma/cy_dma.h **** {
ARM GAS  C:\Users\stijn\AppData\Local\Temp\ccPWVksW.s 			page 15


 772:Generated_Source\PSoC6\pdl\drivers\peripheral\dma/cy_dma.h ****     return ((void *) descriptor->dst);
 773:Generated_Source\PSoC6\pdl\drivers\peripheral\dma/cy_dma.h **** }
 774:Generated_Source\PSoC6\pdl\drivers\peripheral\dma/cy_dma.h **** 
 775:Generated_Source\PSoC6\pdl\drivers\peripheral\dma/cy_dma.h **** 
 776:Generated_Source\PSoC6\pdl\drivers\peripheral\dma/cy_dma.h **** /*******************************************************************************
 777:Generated_Source\PSoC6\pdl\drivers\peripheral\dma/cy_dma.h **** * Function Name: Cy_DMA_Descriptor_SetInterruptType
 778:Generated_Source\PSoC6\pdl\drivers\peripheral\dma/cy_dma.h **** ****************************************************************************//**
 779:Generated_Source\PSoC6\pdl\drivers\peripheral\dma/cy_dma.h **** *
 780:Generated_Source\PSoC6\pdl\drivers\peripheral\dma/cy_dma.h **** * Sets the interrupt type for the specified descriptor.
 781:Generated_Source\PSoC6\pdl\drivers\peripheral\dma/cy_dma.h **** *
 782:Generated_Source\PSoC6\pdl\drivers\peripheral\dma/cy_dma.h **** * \param descriptor
 783:Generated_Source\PSoC6\pdl\drivers\peripheral\dma/cy_dma.h **** * The descriptor structure instance declared by the user/component.
 784:Generated_Source\PSoC6\pdl\drivers\peripheral\dma/cy_dma.h **** *
 785:Generated_Source\PSoC6\pdl\drivers\peripheral\dma/cy_dma.h **** * \param interruptType
 786:Generated_Source\PSoC6\pdl\drivers\peripheral\dma/cy_dma.h **** * The interrupt type set for the descriptor. \ref cy_en_dma_trigger_type_t
 787:Generated_Source\PSoC6\pdl\drivers\peripheral\dma/cy_dma.h **** *
 788:Generated_Source\PSoC6\pdl\drivers\peripheral\dma/cy_dma.h **** * \funcusage 
 789:Generated_Source\PSoC6\pdl\drivers\peripheral\dma/cy_dma.h **** * \snippet dma\2.10\snippet\main.c snippet_Cy_DMA_Descriptor_SetterFunctions
 790:Generated_Source\PSoC6\pdl\drivers\peripheral\dma/cy_dma.h **** *
 791:Generated_Source\PSoC6\pdl\drivers\peripheral\dma/cy_dma.h **** *******************************************************************************/
 792:Generated_Source\PSoC6\pdl\drivers\peripheral\dma/cy_dma.h **** __STATIC_INLINE void Cy_DMA_Descriptor_SetInterruptType(cy_stc_dma_descriptor_t * descriptor, cy_en
 793:Generated_Source\PSoC6\pdl\drivers\peripheral\dma/cy_dma.h **** {
 794:Generated_Source\PSoC6\pdl\drivers\peripheral\dma/cy_dma.h ****     CY_ASSERT_L3(CY_DMA_IS_TRIG_TYPE_VALID(interruptType));
 795:Generated_Source\PSoC6\pdl\drivers\peripheral\dma/cy_dma.h ****     
 796:Generated_Source\PSoC6\pdl\drivers\peripheral\dma/cy_dma.h ****     CY_REG32_CLR_SET(descriptor->ctl, CY_DMA_CTL_INTR_TYPE, interruptType);
 797:Generated_Source\PSoC6\pdl\drivers\peripheral\dma/cy_dma.h **** }
 798:Generated_Source\PSoC6\pdl\drivers\peripheral\dma/cy_dma.h **** 
 799:Generated_Source\PSoC6\pdl\drivers\peripheral\dma/cy_dma.h **** 
 800:Generated_Source\PSoC6\pdl\drivers\peripheral\dma/cy_dma.h **** /*******************************************************************************
 801:Generated_Source\PSoC6\pdl\drivers\peripheral\dma/cy_dma.h **** * Function Name: Cy_DMA_Descriptor_GetInterruptType
 802:Generated_Source\PSoC6\pdl\drivers\peripheral\dma/cy_dma.h **** ****************************************************************************//**
 803:Generated_Source\PSoC6\pdl\drivers\peripheral\dma/cy_dma.h **** *
 804:Generated_Source\PSoC6\pdl\drivers\peripheral\dma/cy_dma.h **** * Returns the Interrupt-Type of the specified descriptor.
 805:Generated_Source\PSoC6\pdl\drivers\peripheral\dma/cy_dma.h **** *
 806:Generated_Source\PSoC6\pdl\drivers\peripheral\dma/cy_dma.h **** * \param descriptor
 807:Generated_Source\PSoC6\pdl\drivers\peripheral\dma/cy_dma.h **** * The descriptor structure instance declared by the user/component.
 808:Generated_Source\PSoC6\pdl\drivers\peripheral\dma/cy_dma.h **** *
 809:Generated_Source\PSoC6\pdl\drivers\peripheral\dma/cy_dma.h **** * \return
 810:Generated_Source\PSoC6\pdl\drivers\peripheral\dma/cy_dma.h **** * The Interrupt-Type \ref cy_en_dma_trigger_type_t.
 811:Generated_Source\PSoC6\pdl\drivers\peripheral\dma/cy_dma.h **** *
 812:Generated_Source\PSoC6\pdl\drivers\peripheral\dma/cy_dma.h **** * \funcusage 
 813:Generated_Source\PSoC6\pdl\drivers\peripheral\dma/cy_dma.h **** * \snippet dma\2.10\snippet\main.c snippet_Cy_DMA_Descriptor_GetterFunctions
 814:Generated_Source\PSoC6\pdl\drivers\peripheral\dma/cy_dma.h **** *  
 815:Generated_Source\PSoC6\pdl\drivers\peripheral\dma/cy_dma.h **** *******************************************************************************/
 816:Generated_Source\PSoC6\pdl\drivers\peripheral\dma/cy_dma.h **** __STATIC_INLINE cy_en_dma_trigger_type_t Cy_DMA_Descriptor_GetInterruptType(cy_stc_dma_descriptor_t
 817:Generated_Source\PSoC6\pdl\drivers\peripheral\dma/cy_dma.h **** {
 818:Generated_Source\PSoC6\pdl\drivers\peripheral\dma/cy_dma.h ****     return((cy_en_dma_trigger_type_t) _FLD2VAL(CY_DMA_CTL_INTR_TYPE, descriptor->ctl));
 819:Generated_Source\PSoC6\pdl\drivers\peripheral\dma/cy_dma.h **** }
 820:Generated_Source\PSoC6\pdl\drivers\peripheral\dma/cy_dma.h **** 
 821:Generated_Source\PSoC6\pdl\drivers\peripheral\dma/cy_dma.h **** 
 822:Generated_Source\PSoC6\pdl\drivers\peripheral\dma/cy_dma.h **** /*******************************************************************************
 823:Generated_Source\PSoC6\pdl\drivers\peripheral\dma/cy_dma.h **** * Function Name: Cy_DMA_Descriptor_SetTriggerInType
 824:Generated_Source\PSoC6\pdl\drivers\peripheral\dma/cy_dma.h **** ****************************************************************************//**
 825:Generated_Source\PSoC6\pdl\drivers\peripheral\dma/cy_dma.h **** *
 826:Generated_Source\PSoC6\pdl\drivers\peripheral\dma/cy_dma.h **** * Sets the Trigger-In-Type for the specified descriptor.
 827:Generated_Source\PSoC6\pdl\drivers\peripheral\dma/cy_dma.h **** *
 828:Generated_Source\PSoC6\pdl\drivers\peripheral\dma/cy_dma.h **** * \param descriptor
ARM GAS  C:\Users\stijn\AppData\Local\Temp\ccPWVksW.s 			page 16


 829:Generated_Source\PSoC6\pdl\drivers\peripheral\dma/cy_dma.h **** * The descriptor structure instance declared by the user/component.
 830:Generated_Source\PSoC6\pdl\drivers\peripheral\dma/cy_dma.h **** *
 831:Generated_Source\PSoC6\pdl\drivers\peripheral\dma/cy_dma.h **** * \param triggerInType
 832:Generated_Source\PSoC6\pdl\drivers\peripheral\dma/cy_dma.h **** * The Trigger In Type parameter \ref cy_en_dma_trigger_type_t
 833:Generated_Source\PSoC6\pdl\drivers\peripheral\dma/cy_dma.h **** *
 834:Generated_Source\PSoC6\pdl\drivers\peripheral\dma/cy_dma.h **** * \funcusage 
 835:Generated_Source\PSoC6\pdl\drivers\peripheral\dma/cy_dma.h **** * \snippet dma\2.10\snippet\main.c snippet_Cy_DMA_Descriptor_SetterFunctions
 836:Generated_Source\PSoC6\pdl\drivers\peripheral\dma/cy_dma.h **** *
 837:Generated_Source\PSoC6\pdl\drivers\peripheral\dma/cy_dma.h **** *******************************************************************************/
 838:Generated_Source\PSoC6\pdl\drivers\peripheral\dma/cy_dma.h **** __STATIC_INLINE void Cy_DMA_Descriptor_SetTriggerInType(cy_stc_dma_descriptor_t * descriptor, cy_en
 839:Generated_Source\PSoC6\pdl\drivers\peripheral\dma/cy_dma.h **** {
 840:Generated_Source\PSoC6\pdl\drivers\peripheral\dma/cy_dma.h ****     CY_ASSERT_L3(CY_DMA_IS_TRIG_TYPE_VALID(triggerInType));
 841:Generated_Source\PSoC6\pdl\drivers\peripheral\dma/cy_dma.h ****     
 842:Generated_Source\PSoC6\pdl\drivers\peripheral\dma/cy_dma.h ****     CY_REG32_CLR_SET(descriptor->ctl, CY_DMA_CTL_TR_IN_TYPE, triggerInType);
 843:Generated_Source\PSoC6\pdl\drivers\peripheral\dma/cy_dma.h **** }
 844:Generated_Source\PSoC6\pdl\drivers\peripheral\dma/cy_dma.h **** 
 845:Generated_Source\PSoC6\pdl\drivers\peripheral\dma/cy_dma.h **** 
 846:Generated_Source\PSoC6\pdl\drivers\peripheral\dma/cy_dma.h **** /*******************************************************************************
 847:Generated_Source\PSoC6\pdl\drivers\peripheral\dma/cy_dma.h **** * Function Name: Cy_DMA_Descriptor_GetTriggerInType
 848:Generated_Source\PSoC6\pdl\drivers\peripheral\dma/cy_dma.h **** ****************************************************************************//**
 849:Generated_Source\PSoC6\pdl\drivers\peripheral\dma/cy_dma.h **** *
 850:Generated_Source\PSoC6\pdl\drivers\peripheral\dma/cy_dma.h **** * Returns the Trigger-In-Type parameter of the specified descriptor.
 851:Generated_Source\PSoC6\pdl\drivers\peripheral\dma/cy_dma.h **** *
 852:Generated_Source\PSoC6\pdl\drivers\peripheral\dma/cy_dma.h **** * \param descriptor
 853:Generated_Source\PSoC6\pdl\drivers\peripheral\dma/cy_dma.h **** * The descriptor structure instance declared by the user/component.
 854:Generated_Source\PSoC6\pdl\drivers\peripheral\dma/cy_dma.h **** *
 855:Generated_Source\PSoC6\pdl\drivers\peripheral\dma/cy_dma.h **** * \return
 856:Generated_Source\PSoC6\pdl\drivers\peripheral\dma/cy_dma.h **** * The Trigger-In-Type \ref cy_en_dma_trigger_type_t
 857:Generated_Source\PSoC6\pdl\drivers\peripheral\dma/cy_dma.h **** *
 858:Generated_Source\PSoC6\pdl\drivers\peripheral\dma/cy_dma.h **** * \funcusage 
 859:Generated_Source\PSoC6\pdl\drivers\peripheral\dma/cy_dma.h **** * \snippet dma\2.10\snippet\main.c snippet_Cy_DMA_Descriptor_GetterFunctions
 860:Generated_Source\PSoC6\pdl\drivers\peripheral\dma/cy_dma.h **** *  
 861:Generated_Source\PSoC6\pdl\drivers\peripheral\dma/cy_dma.h **** *******************************************************************************/
 862:Generated_Source\PSoC6\pdl\drivers\peripheral\dma/cy_dma.h **** __STATIC_INLINE cy_en_dma_trigger_type_t Cy_DMA_Descriptor_GetTriggerInType(cy_stc_dma_descriptor_t
 863:Generated_Source\PSoC6\pdl\drivers\peripheral\dma/cy_dma.h **** {
 864:Generated_Source\PSoC6\pdl\drivers\peripheral\dma/cy_dma.h ****     return((cy_en_dma_trigger_type_t) _FLD2VAL(CY_DMA_CTL_TR_IN_TYPE, descriptor->ctl));
 865:Generated_Source\PSoC6\pdl\drivers\peripheral\dma/cy_dma.h **** }
 866:Generated_Source\PSoC6\pdl\drivers\peripheral\dma/cy_dma.h **** 
 867:Generated_Source\PSoC6\pdl\drivers\peripheral\dma/cy_dma.h **** 
 868:Generated_Source\PSoC6\pdl\drivers\peripheral\dma/cy_dma.h **** /*******************************************************************************
 869:Generated_Source\PSoC6\pdl\drivers\peripheral\dma/cy_dma.h **** * Function Name: Cy_DMA_Descriptor_SetTriggerOutType
 870:Generated_Source\PSoC6\pdl\drivers\peripheral\dma/cy_dma.h **** ****************************************************************************//**
 871:Generated_Source\PSoC6\pdl\drivers\peripheral\dma/cy_dma.h **** *
 872:Generated_Source\PSoC6\pdl\drivers\peripheral\dma/cy_dma.h **** * Sets the Trigger-Out-Type for the specified descriptor.
 873:Generated_Source\PSoC6\pdl\drivers\peripheral\dma/cy_dma.h **** *
 874:Generated_Source\PSoC6\pdl\drivers\peripheral\dma/cy_dma.h **** * \param descriptor
 875:Generated_Source\PSoC6\pdl\drivers\peripheral\dma/cy_dma.h **** * The descriptor structure instance declared by the user/component.
 876:Generated_Source\PSoC6\pdl\drivers\peripheral\dma/cy_dma.h **** *
 877:Generated_Source\PSoC6\pdl\drivers\peripheral\dma/cy_dma.h **** * \param triggerOutType
 878:Generated_Source\PSoC6\pdl\drivers\peripheral\dma/cy_dma.h **** * The Trigger-Out-Type set for the descriptor. \ref cy_en_dma_trigger_type_t
 879:Generated_Source\PSoC6\pdl\drivers\peripheral\dma/cy_dma.h **** *
 880:Generated_Source\PSoC6\pdl\drivers\peripheral\dma/cy_dma.h **** * \funcusage 
 881:Generated_Source\PSoC6\pdl\drivers\peripheral\dma/cy_dma.h **** * \snippet dma\2.10\snippet\main.c snippet_Cy_DMA_Descriptor_SetterFunctions
 882:Generated_Source\PSoC6\pdl\drivers\peripheral\dma/cy_dma.h **** *
 883:Generated_Source\PSoC6\pdl\drivers\peripheral\dma/cy_dma.h **** *******************************************************************************/
 884:Generated_Source\PSoC6\pdl\drivers\peripheral\dma/cy_dma.h **** __STATIC_INLINE void Cy_DMA_Descriptor_SetTriggerOutType(cy_stc_dma_descriptor_t * descriptor, cy_e
 885:Generated_Source\PSoC6\pdl\drivers\peripheral\dma/cy_dma.h **** {
ARM GAS  C:\Users\stijn\AppData\Local\Temp\ccPWVksW.s 			page 17


 886:Generated_Source\PSoC6\pdl\drivers\peripheral\dma/cy_dma.h ****     CY_ASSERT_L3(CY_DMA_IS_TRIG_TYPE_VALID(triggerOutType));
 887:Generated_Source\PSoC6\pdl\drivers\peripheral\dma/cy_dma.h ****     
 888:Generated_Source\PSoC6\pdl\drivers\peripheral\dma/cy_dma.h ****     CY_REG32_CLR_SET(descriptor->ctl, CY_DMA_CTL_TR_OUT_TYPE, triggerOutType);
 889:Generated_Source\PSoC6\pdl\drivers\peripheral\dma/cy_dma.h **** }
 890:Generated_Source\PSoC6\pdl\drivers\peripheral\dma/cy_dma.h **** 
 891:Generated_Source\PSoC6\pdl\drivers\peripheral\dma/cy_dma.h **** 
 892:Generated_Source\PSoC6\pdl\drivers\peripheral\dma/cy_dma.h **** /*******************************************************************************
 893:Generated_Source\PSoC6\pdl\drivers\peripheral\dma/cy_dma.h **** * Function Name: Cy_DMA_Descriptor_GetTriggerOutType
 894:Generated_Source\PSoC6\pdl\drivers\peripheral\dma/cy_dma.h **** ****************************************************************************//**
 895:Generated_Source\PSoC6\pdl\drivers\peripheral\dma/cy_dma.h **** *
 896:Generated_Source\PSoC6\pdl\drivers\peripheral\dma/cy_dma.h **** * Returns the Trigger-Out-Type parameter of the specified descriptor.
 897:Generated_Source\PSoC6\pdl\drivers\peripheral\dma/cy_dma.h **** *
 898:Generated_Source\PSoC6\pdl\drivers\peripheral\dma/cy_dma.h **** * \param descriptor
 899:Generated_Source\PSoC6\pdl\drivers\peripheral\dma/cy_dma.h **** * The descriptor structure instance declared by the user/component.
 900:Generated_Source\PSoC6\pdl\drivers\peripheral\dma/cy_dma.h **** *
 901:Generated_Source\PSoC6\pdl\drivers\peripheral\dma/cy_dma.h **** * \return
 902:Generated_Source\PSoC6\pdl\drivers\peripheral\dma/cy_dma.h **** * The Trigger-Out-Type parameter \ref cy_en_dma_trigger_type_t.
 903:Generated_Source\PSoC6\pdl\drivers\peripheral\dma/cy_dma.h **** *
 904:Generated_Source\PSoC6\pdl\drivers\peripheral\dma/cy_dma.h **** * \funcusage 
 905:Generated_Source\PSoC6\pdl\drivers\peripheral\dma/cy_dma.h **** * \snippet dma\2.10\snippet\main.c snippet_Cy_DMA_Descriptor_GetterFunctions
 906:Generated_Source\PSoC6\pdl\drivers\peripheral\dma/cy_dma.h **** *  
 907:Generated_Source\PSoC6\pdl\drivers\peripheral\dma/cy_dma.h **** *******************************************************************************/
 908:Generated_Source\PSoC6\pdl\drivers\peripheral\dma/cy_dma.h **** __STATIC_INLINE cy_en_dma_trigger_type_t Cy_DMA_Descriptor_GetTriggerOutType(cy_stc_dma_descriptor_
 909:Generated_Source\PSoC6\pdl\drivers\peripheral\dma/cy_dma.h **** {
 910:Generated_Source\PSoC6\pdl\drivers\peripheral\dma/cy_dma.h ****     return((cy_en_dma_trigger_type_t) _FLD2VAL(CY_DMA_CTL_TR_OUT_TYPE, descriptor->ctl));
 911:Generated_Source\PSoC6\pdl\drivers\peripheral\dma/cy_dma.h **** }
 912:Generated_Source\PSoC6\pdl\drivers\peripheral\dma/cy_dma.h **** 
 913:Generated_Source\PSoC6\pdl\drivers\peripheral\dma/cy_dma.h **** 
 914:Generated_Source\PSoC6\pdl\drivers\peripheral\dma/cy_dma.h **** /*******************************************************************************
 915:Generated_Source\PSoC6\pdl\drivers\peripheral\dma/cy_dma.h **** * Function Name: Cy_DMA_Descriptor_SetDataSize
 916:Generated_Source\PSoC6\pdl\drivers\peripheral\dma/cy_dma.h **** ****************************************************************************//**
 917:Generated_Source\PSoC6\pdl\drivers\peripheral\dma/cy_dma.h **** *
 918:Generated_Source\PSoC6\pdl\drivers\peripheral\dma/cy_dma.h **** * Sets the Data Element Size for the specified descriptor.
 919:Generated_Source\PSoC6\pdl\drivers\peripheral\dma/cy_dma.h **** *
 920:Generated_Source\PSoC6\pdl\drivers\peripheral\dma/cy_dma.h **** * \param descriptor
 921:Generated_Source\PSoC6\pdl\drivers\peripheral\dma/cy_dma.h **** * The descriptor structure instance declared by the user/component.
 922:Generated_Source\PSoC6\pdl\drivers\peripheral\dma/cy_dma.h **** *
 923:Generated_Source\PSoC6\pdl\drivers\peripheral\dma/cy_dma.h **** * \param dataSize
 924:Generated_Source\PSoC6\pdl\drivers\peripheral\dma/cy_dma.h **** * The Data Element Size \ref cy_en_dma_data_size_t
 925:Generated_Source\PSoC6\pdl\drivers\peripheral\dma/cy_dma.h **** *
 926:Generated_Source\PSoC6\pdl\drivers\peripheral\dma/cy_dma.h **** * \funcusage 
 927:Generated_Source\PSoC6\pdl\drivers\peripheral\dma/cy_dma.h **** * \snippet dma\2.10\snippet\main.c snippet_Cy_DMA_Descriptor_SetterFunctions
 928:Generated_Source\PSoC6\pdl\drivers\peripheral\dma/cy_dma.h **** *  
 929:Generated_Source\PSoC6\pdl\drivers\peripheral\dma/cy_dma.h **** *******************************************************************************/
 930:Generated_Source\PSoC6\pdl\drivers\peripheral\dma/cy_dma.h **** __STATIC_INLINE void Cy_DMA_Descriptor_SetDataSize(cy_stc_dma_descriptor_t * descriptor, cy_en_dma_
 931:Generated_Source\PSoC6\pdl\drivers\peripheral\dma/cy_dma.h **** {
 932:Generated_Source\PSoC6\pdl\drivers\peripheral\dma/cy_dma.h ****     CY_ASSERT_L3(CY_DMA_IS_DATA_SIZE_VALID(dataSize));
 933:Generated_Source\PSoC6\pdl\drivers\peripheral\dma/cy_dma.h ****     
 934:Generated_Source\PSoC6\pdl\drivers\peripheral\dma/cy_dma.h ****     CY_REG32_CLR_SET(descriptor->ctl, CY_DMA_CTL_DATA_SIZE, dataSize);
 935:Generated_Source\PSoC6\pdl\drivers\peripheral\dma/cy_dma.h **** }
 936:Generated_Source\PSoC6\pdl\drivers\peripheral\dma/cy_dma.h **** 
 937:Generated_Source\PSoC6\pdl\drivers\peripheral\dma/cy_dma.h **** 
 938:Generated_Source\PSoC6\pdl\drivers\peripheral\dma/cy_dma.h **** /*******************************************************************************
 939:Generated_Source\PSoC6\pdl\drivers\peripheral\dma/cy_dma.h **** * Function Name: Cy_DMA_Descriptor_GetDataSize
 940:Generated_Source\PSoC6\pdl\drivers\peripheral\dma/cy_dma.h **** ****************************************************************************//**
 941:Generated_Source\PSoC6\pdl\drivers\peripheral\dma/cy_dma.h **** *
 942:Generated_Source\PSoC6\pdl\drivers\peripheral\dma/cy_dma.h **** * Returns the Data Element Size parameter of the specified descriptor.
ARM GAS  C:\Users\stijn\AppData\Local\Temp\ccPWVksW.s 			page 18


 943:Generated_Source\PSoC6\pdl\drivers\peripheral\dma/cy_dma.h **** *
 944:Generated_Source\PSoC6\pdl\drivers\peripheral\dma/cy_dma.h **** * \param descriptor
 945:Generated_Source\PSoC6\pdl\drivers\peripheral\dma/cy_dma.h **** * The descriptor structure instance declared by the user/component.
 946:Generated_Source\PSoC6\pdl\drivers\peripheral\dma/cy_dma.h **** *
 947:Generated_Source\PSoC6\pdl\drivers\peripheral\dma/cy_dma.h **** * \return
 948:Generated_Source\PSoC6\pdl\drivers\peripheral\dma/cy_dma.h **** * The Data Element Size \ref cy_en_dma_data_size_t.
 949:Generated_Source\PSoC6\pdl\drivers\peripheral\dma/cy_dma.h **** *
 950:Generated_Source\PSoC6\pdl\drivers\peripheral\dma/cy_dma.h **** * \funcusage 
 951:Generated_Source\PSoC6\pdl\drivers\peripheral\dma/cy_dma.h **** * \snippet dma\2.10\snippet\main.c snippet_Cy_DMA_Descriptor_GetterFunctions
 952:Generated_Source\PSoC6\pdl\drivers\peripheral\dma/cy_dma.h **** *  
 953:Generated_Source\PSoC6\pdl\drivers\peripheral\dma/cy_dma.h **** *******************************************************************************/
 954:Generated_Source\PSoC6\pdl\drivers\peripheral\dma/cy_dma.h **** __STATIC_INLINE cy_en_dma_data_size_t Cy_DMA_Descriptor_GetDataSize(cy_stc_dma_descriptor_t const *
 955:Generated_Source\PSoC6\pdl\drivers\peripheral\dma/cy_dma.h **** {
 956:Generated_Source\PSoC6\pdl\drivers\peripheral\dma/cy_dma.h ****     return((cy_en_dma_data_size_t) _FLD2VAL(CY_DMA_CTL_DATA_SIZE, descriptor->ctl));
 957:Generated_Source\PSoC6\pdl\drivers\peripheral\dma/cy_dma.h **** }
 958:Generated_Source\PSoC6\pdl\drivers\peripheral\dma/cy_dma.h **** 
 959:Generated_Source\PSoC6\pdl\drivers\peripheral\dma/cy_dma.h **** 
 960:Generated_Source\PSoC6\pdl\drivers\peripheral\dma/cy_dma.h **** /*******************************************************************************
 961:Generated_Source\PSoC6\pdl\drivers\peripheral\dma/cy_dma.h **** * Function Name: Cy_DMA_Descriptor_SetSrcTransferSize
 962:Generated_Source\PSoC6\pdl\drivers\peripheral\dma/cy_dma.h **** ****************************************************************************//**
 963:Generated_Source\PSoC6\pdl\drivers\peripheral\dma/cy_dma.h **** *
 964:Generated_Source\PSoC6\pdl\drivers\peripheral\dma/cy_dma.h **** * Sets the Source Transfer Size for the specified descriptor.
 965:Generated_Source\PSoC6\pdl\drivers\peripheral\dma/cy_dma.h **** *
 966:Generated_Source\PSoC6\pdl\drivers\peripheral\dma/cy_dma.h **** * \param descriptor
 967:Generated_Source\PSoC6\pdl\drivers\peripheral\dma/cy_dma.h **** * The descriptor structure instance declared by the user/component.
 968:Generated_Source\PSoC6\pdl\drivers\peripheral\dma/cy_dma.h **** *
 969:Generated_Source\PSoC6\pdl\drivers\peripheral\dma/cy_dma.h **** * \param srcTransferSize
 970:Generated_Source\PSoC6\pdl\drivers\peripheral\dma/cy_dma.h **** * The Source Transfer Size \ref cy_en_dma_transfer_size_t.
 971:Generated_Source\PSoC6\pdl\drivers\peripheral\dma/cy_dma.h **** *
 972:Generated_Source\PSoC6\pdl\drivers\peripheral\dma/cy_dma.h **** * \funcusage 
 973:Generated_Source\PSoC6\pdl\drivers\peripheral\dma/cy_dma.h **** * \snippet dma\2.10\snippet\main.c snippet_Cy_DMA_Descriptor_SetterFunctions
 974:Generated_Source\PSoC6\pdl\drivers\peripheral\dma/cy_dma.h **** *
 975:Generated_Source\PSoC6\pdl\drivers\peripheral\dma/cy_dma.h **** *******************************************************************************/
 976:Generated_Source\PSoC6\pdl\drivers\peripheral\dma/cy_dma.h **** __STATIC_INLINE void Cy_DMA_Descriptor_SetSrcTransferSize(cy_stc_dma_descriptor_t * descriptor, cy_
 977:Generated_Source\PSoC6\pdl\drivers\peripheral\dma/cy_dma.h **** {
 978:Generated_Source\PSoC6\pdl\drivers\peripheral\dma/cy_dma.h ****     CY_ASSERT_L3(CY_DMA_IS_XFER_SIZE_VALID(srcTransferSize));
 979:Generated_Source\PSoC6\pdl\drivers\peripheral\dma/cy_dma.h **** 
 980:Generated_Source\PSoC6\pdl\drivers\peripheral\dma/cy_dma.h ****     CY_REG32_CLR_SET(descriptor->ctl, CY_DMA_CTL_SRC_SIZE, srcTransferSize);
 981:Generated_Source\PSoC6\pdl\drivers\peripheral\dma/cy_dma.h **** }
 982:Generated_Source\PSoC6\pdl\drivers\peripheral\dma/cy_dma.h **** 
 983:Generated_Source\PSoC6\pdl\drivers\peripheral\dma/cy_dma.h **** 
 984:Generated_Source\PSoC6\pdl\drivers\peripheral\dma/cy_dma.h **** /*******************************************************************************
 985:Generated_Source\PSoC6\pdl\drivers\peripheral\dma/cy_dma.h **** * Function Name: Cy_DMA_Descriptor_GetSrcTransferSize
 986:Generated_Source\PSoC6\pdl\drivers\peripheral\dma/cy_dma.h **** ****************************************************************************//**
 987:Generated_Source\PSoC6\pdl\drivers\peripheral\dma/cy_dma.h **** *
 988:Generated_Source\PSoC6\pdl\drivers\peripheral\dma/cy_dma.h **** * Returns the Source Transfer Size parameter of the specified descriptor.
 989:Generated_Source\PSoC6\pdl\drivers\peripheral\dma/cy_dma.h **** *
 990:Generated_Source\PSoC6\pdl\drivers\peripheral\dma/cy_dma.h **** * \param descriptor
 991:Generated_Source\PSoC6\pdl\drivers\peripheral\dma/cy_dma.h **** * The descriptor structure instance declared by the user/component.
 992:Generated_Source\PSoC6\pdl\drivers\peripheral\dma/cy_dma.h **** *
 993:Generated_Source\PSoC6\pdl\drivers\peripheral\dma/cy_dma.h **** * \return
 994:Generated_Source\PSoC6\pdl\drivers\peripheral\dma/cy_dma.h **** * The Source Transfer Size \ref cy_en_dma_transfer_size_t.
 995:Generated_Source\PSoC6\pdl\drivers\peripheral\dma/cy_dma.h **** *
 996:Generated_Source\PSoC6\pdl\drivers\peripheral\dma/cy_dma.h **** * \funcusage 
 997:Generated_Source\PSoC6\pdl\drivers\peripheral\dma/cy_dma.h **** * \snippet dma\2.10\snippet\main.c snippet_Cy_DMA_Descriptor_GetterFunctions
 998:Generated_Source\PSoC6\pdl\drivers\peripheral\dma/cy_dma.h **** *  
 999:Generated_Source\PSoC6\pdl\drivers\peripheral\dma/cy_dma.h **** *******************************************************************************/
ARM GAS  C:\Users\stijn\AppData\Local\Temp\ccPWVksW.s 			page 19


1000:Generated_Source\PSoC6\pdl\drivers\peripheral\dma/cy_dma.h **** __STATIC_INLINE cy_en_dma_transfer_size_t Cy_DMA_Descriptor_GetSrcTransferSize(cy_stc_dma_descripto
1001:Generated_Source\PSoC6\pdl\drivers\peripheral\dma/cy_dma.h **** {
1002:Generated_Source\PSoC6\pdl\drivers\peripheral\dma/cy_dma.h ****     return((cy_en_dma_transfer_size_t) _FLD2VAL(CY_DMA_CTL_SRC_SIZE, descriptor->ctl));
1003:Generated_Source\PSoC6\pdl\drivers\peripheral\dma/cy_dma.h **** }
1004:Generated_Source\PSoC6\pdl\drivers\peripheral\dma/cy_dma.h **** 
1005:Generated_Source\PSoC6\pdl\drivers\peripheral\dma/cy_dma.h **** 
1006:Generated_Source\PSoC6\pdl\drivers\peripheral\dma/cy_dma.h **** /*******************************************************************************
1007:Generated_Source\PSoC6\pdl\drivers\peripheral\dma/cy_dma.h **** * Function Name: Cy_DMA_Descriptor_SetDstTransferSize
1008:Generated_Source\PSoC6\pdl\drivers\peripheral\dma/cy_dma.h **** ****************************************************************************//**
1009:Generated_Source\PSoC6\pdl\drivers\peripheral\dma/cy_dma.h **** *
1010:Generated_Source\PSoC6\pdl\drivers\peripheral\dma/cy_dma.h **** * Sets the Destination Transfer Size for the specified descriptor.
1011:Generated_Source\PSoC6\pdl\drivers\peripheral\dma/cy_dma.h **** *
1012:Generated_Source\PSoC6\pdl\drivers\peripheral\dma/cy_dma.h **** * \param descriptor
1013:Generated_Source\PSoC6\pdl\drivers\peripheral\dma/cy_dma.h **** * The descriptor structure instance declared by the user/component.
1014:Generated_Source\PSoC6\pdl\drivers\peripheral\dma/cy_dma.h **** *
1015:Generated_Source\PSoC6\pdl\drivers\peripheral\dma/cy_dma.h **** * \param dstTransferSize
1016:Generated_Source\PSoC6\pdl\drivers\peripheral\dma/cy_dma.h **** * The Destination Transfer Size \ref cy_en_dma_transfer_size_t.
1017:Generated_Source\PSoC6\pdl\drivers\peripheral\dma/cy_dma.h **** *
1018:Generated_Source\PSoC6\pdl\drivers\peripheral\dma/cy_dma.h **** * \funcusage 
1019:Generated_Source\PSoC6\pdl\drivers\peripheral\dma/cy_dma.h **** * \snippet dma\2.10\snippet\main.c snippet_Cy_DMA_Descriptor_SetterFunctions
1020:Generated_Source\PSoC6\pdl\drivers\peripheral\dma/cy_dma.h **** *
1021:Generated_Source\PSoC6\pdl\drivers\peripheral\dma/cy_dma.h **** *******************************************************************************/
1022:Generated_Source\PSoC6\pdl\drivers\peripheral\dma/cy_dma.h **** __STATIC_INLINE void Cy_DMA_Descriptor_SetDstTransferSize(cy_stc_dma_descriptor_t * descriptor, cy_
1023:Generated_Source\PSoC6\pdl\drivers\peripheral\dma/cy_dma.h **** {
1024:Generated_Source\PSoC6\pdl\drivers\peripheral\dma/cy_dma.h ****     CY_ASSERT_L3(CY_DMA_IS_XFER_SIZE_VALID(dstTransferSize));
1025:Generated_Source\PSoC6\pdl\drivers\peripheral\dma/cy_dma.h ****     
1026:Generated_Source\PSoC6\pdl\drivers\peripheral\dma/cy_dma.h ****     CY_REG32_CLR_SET(descriptor->ctl, CY_DMA_CTL_DST_SIZE, dstTransferSize);
1027:Generated_Source\PSoC6\pdl\drivers\peripheral\dma/cy_dma.h **** }
1028:Generated_Source\PSoC6\pdl\drivers\peripheral\dma/cy_dma.h **** 
1029:Generated_Source\PSoC6\pdl\drivers\peripheral\dma/cy_dma.h **** 
1030:Generated_Source\PSoC6\pdl\drivers\peripheral\dma/cy_dma.h **** /*******************************************************************************
1031:Generated_Source\PSoC6\pdl\drivers\peripheral\dma/cy_dma.h **** * Function Name: Cy_DMA_Descriptor_GetDstTransferSize
1032:Generated_Source\PSoC6\pdl\drivers\peripheral\dma/cy_dma.h **** ****************************************************************************//**
1033:Generated_Source\PSoC6\pdl\drivers\peripheral\dma/cy_dma.h **** *
1034:Generated_Source\PSoC6\pdl\drivers\peripheral\dma/cy_dma.h **** * Returns the Destination Transfer Size parameter of the specified descriptor.
1035:Generated_Source\PSoC6\pdl\drivers\peripheral\dma/cy_dma.h **** *
1036:Generated_Source\PSoC6\pdl\drivers\peripheral\dma/cy_dma.h **** * \param descriptor
1037:Generated_Source\PSoC6\pdl\drivers\peripheral\dma/cy_dma.h **** * The descriptor structure instance declared by the user/component.
1038:Generated_Source\PSoC6\pdl\drivers\peripheral\dma/cy_dma.h **** *
1039:Generated_Source\PSoC6\pdl\drivers\peripheral\dma/cy_dma.h **** * \return
1040:Generated_Source\PSoC6\pdl\drivers\peripheral\dma/cy_dma.h **** * The Destination Transfer Size \ref cy_en_dma_transfer_size_t.
1041:Generated_Source\PSoC6\pdl\drivers\peripheral\dma/cy_dma.h **** *
1042:Generated_Source\PSoC6\pdl\drivers\peripheral\dma/cy_dma.h **** * \funcusage 
1043:Generated_Source\PSoC6\pdl\drivers\peripheral\dma/cy_dma.h **** * \snippet dma\2.10\snippet\main.c snippet_Cy_DMA_Descriptor_GetterFunctions
1044:Generated_Source\PSoC6\pdl\drivers\peripheral\dma/cy_dma.h **** *  
1045:Generated_Source\PSoC6\pdl\drivers\peripheral\dma/cy_dma.h **** *******************************************************************************/
1046:Generated_Source\PSoC6\pdl\drivers\peripheral\dma/cy_dma.h **** __STATIC_INLINE cy_en_dma_transfer_size_t Cy_DMA_Descriptor_GetDstTransferSize(cy_stc_dma_descripto
1047:Generated_Source\PSoC6\pdl\drivers\peripheral\dma/cy_dma.h **** {
1048:Generated_Source\PSoC6\pdl\drivers\peripheral\dma/cy_dma.h ****     return((cy_en_dma_transfer_size_t) _FLD2VAL(CY_DMA_CTL_DST_SIZE, descriptor->ctl));
1049:Generated_Source\PSoC6\pdl\drivers\peripheral\dma/cy_dma.h **** }
1050:Generated_Source\PSoC6\pdl\drivers\peripheral\dma/cy_dma.h **** 
1051:Generated_Source\PSoC6\pdl\drivers\peripheral\dma/cy_dma.h **** 
1052:Generated_Source\PSoC6\pdl\drivers\peripheral\dma/cy_dma.h **** /*******************************************************************************
1053:Generated_Source\PSoC6\pdl\drivers\peripheral\dma/cy_dma.h **** * Function Name: Cy_DMA_Descriptor_SetRetrigger
1054:Generated_Source\PSoC6\pdl\drivers\peripheral\dma/cy_dma.h **** ****************************************************************************//**
1055:Generated_Source\PSoC6\pdl\drivers\peripheral\dma/cy_dma.h **** *
1056:Generated_Source\PSoC6\pdl\drivers\peripheral\dma/cy_dma.h **** * Sets the retrigger value that specifies whether the controller should 
ARM GAS  C:\Users\stijn\AppData\Local\Temp\ccPWVksW.s 			page 20


1057:Generated_Source\PSoC6\pdl\drivers\peripheral\dma/cy_dma.h **** * wait for the input trigger to be deactivated.
1058:Generated_Source\PSoC6\pdl\drivers\peripheral\dma/cy_dma.h **** *
1059:Generated_Source\PSoC6\pdl\drivers\peripheral\dma/cy_dma.h **** * \param descriptor
1060:Generated_Source\PSoC6\pdl\drivers\peripheral\dma/cy_dma.h **** * The descriptor structure instance declared by the user/component.
1061:Generated_Source\PSoC6\pdl\drivers\peripheral\dma/cy_dma.h **** *
1062:Generated_Source\PSoC6\pdl\drivers\peripheral\dma/cy_dma.h **** * \param retrigger 
1063:Generated_Source\PSoC6\pdl\drivers\peripheral\dma/cy_dma.h **** * The \ref cy_en_dma_retrigger_t parameter specifies whether the controller
1064:Generated_Source\PSoC6\pdl\drivers\peripheral\dma/cy_dma.h **** * should wait for the input trigger to be deactivated.
1065:Generated_Source\PSoC6\pdl\drivers\peripheral\dma/cy_dma.h **** *
1066:Generated_Source\PSoC6\pdl\drivers\peripheral\dma/cy_dma.h **** * \funcusage 
1067:Generated_Source\PSoC6\pdl\drivers\peripheral\dma/cy_dma.h **** * \snippet dma\2.10\snippet\main.c snippet_Cy_DMA_Descriptor_SetterFunctions
1068:Generated_Source\PSoC6\pdl\drivers\peripheral\dma/cy_dma.h **** *
1069:Generated_Source\PSoC6\pdl\drivers\peripheral\dma/cy_dma.h **** *******************************************************************************/
1070:Generated_Source\PSoC6\pdl\drivers\peripheral\dma/cy_dma.h **** __STATIC_INLINE void Cy_DMA_Descriptor_SetRetrigger(cy_stc_dma_descriptor_t * descriptor, cy_en_dma
1071:Generated_Source\PSoC6\pdl\drivers\peripheral\dma/cy_dma.h **** {
1072:Generated_Source\PSoC6\pdl\drivers\peripheral\dma/cy_dma.h ****     CY_ASSERT_L3(CY_DMA_IS_RETRIG_VALID(retrigger));
1073:Generated_Source\PSoC6\pdl\drivers\peripheral\dma/cy_dma.h ****     
1074:Generated_Source\PSoC6\pdl\drivers\peripheral\dma/cy_dma.h ****     CY_REG32_CLR_SET(descriptor->ctl, CY_DMA_CTL_RETRIG, retrigger);
1075:Generated_Source\PSoC6\pdl\drivers\peripheral\dma/cy_dma.h **** }
1076:Generated_Source\PSoC6\pdl\drivers\peripheral\dma/cy_dma.h **** 
1077:Generated_Source\PSoC6\pdl\drivers\peripheral\dma/cy_dma.h **** 
1078:Generated_Source\PSoC6\pdl\drivers\peripheral\dma/cy_dma.h **** /*******************************************************************************
1079:Generated_Source\PSoC6\pdl\drivers\peripheral\dma/cy_dma.h **** * Function Name: Cy_DMA_Descriptor_GetRetrigger
1080:Generated_Source\PSoC6\pdl\drivers\peripheral\dma/cy_dma.h **** ****************************************************************************//**
1081:Generated_Source\PSoC6\pdl\drivers\peripheral\dma/cy_dma.h **** *
1082:Generated_Source\PSoC6\pdl\drivers\peripheral\dma/cy_dma.h **** * Returns a value that specifies whether the controller should 
1083:Generated_Source\PSoC6\pdl\drivers\peripheral\dma/cy_dma.h **** * wait for the input trigger to be deactivated.
1084:Generated_Source\PSoC6\pdl\drivers\peripheral\dma/cy_dma.h **** *
1085:Generated_Source\PSoC6\pdl\drivers\peripheral\dma/cy_dma.h **** * \param descriptor
1086:Generated_Source\PSoC6\pdl\drivers\peripheral\dma/cy_dma.h **** * The descriptor structure instance declared by the user/component.
1087:Generated_Source\PSoC6\pdl\drivers\peripheral\dma/cy_dma.h **** *
1088:Generated_Source\PSoC6\pdl\drivers\peripheral\dma/cy_dma.h **** * \return
1089:Generated_Source\PSoC6\pdl\drivers\peripheral\dma/cy_dma.h **** * The Retrigger setting \ref cy_en_dma_retrigger_t.
1090:Generated_Source\PSoC6\pdl\drivers\peripheral\dma/cy_dma.h **** *
1091:Generated_Source\PSoC6\pdl\drivers\peripheral\dma/cy_dma.h **** * \funcusage 
1092:Generated_Source\PSoC6\pdl\drivers\peripheral\dma/cy_dma.h **** * \snippet dma\2.10\snippet\main.c snippet_Cy_DMA_Descriptor_GetterFunctions
1093:Generated_Source\PSoC6\pdl\drivers\peripheral\dma/cy_dma.h **** *  
1094:Generated_Source\PSoC6\pdl\drivers\peripheral\dma/cy_dma.h **** *******************************************************************************/
1095:Generated_Source\PSoC6\pdl\drivers\peripheral\dma/cy_dma.h **** __STATIC_INLINE cy_en_dma_retrigger_t Cy_DMA_Descriptor_GetRetrigger(cy_stc_dma_descriptor_t const 
1096:Generated_Source\PSoC6\pdl\drivers\peripheral\dma/cy_dma.h **** {
1097:Generated_Source\PSoC6\pdl\drivers\peripheral\dma/cy_dma.h ****     return((cy_en_dma_retrigger_t) _FLD2VAL(CY_DMA_CTL_RETRIG, descriptor->ctl));
1098:Generated_Source\PSoC6\pdl\drivers\peripheral\dma/cy_dma.h **** }
1099:Generated_Source\PSoC6\pdl\drivers\peripheral\dma/cy_dma.h **** 
1100:Generated_Source\PSoC6\pdl\drivers\peripheral\dma/cy_dma.h **** 
1101:Generated_Source\PSoC6\pdl\drivers\peripheral\dma/cy_dma.h **** /*******************************************************************************
1102:Generated_Source\PSoC6\pdl\drivers\peripheral\dma/cy_dma.h **** * Function Name: Cy_DMA_Descriptor_GetDescriptorType
1103:Generated_Source\PSoC6\pdl\drivers\peripheral\dma/cy_dma.h **** ****************************************************************************//**
1104:Generated_Source\PSoC6\pdl\drivers\peripheral\dma/cy_dma.h **** *
1105:Generated_Source\PSoC6\pdl\drivers\peripheral\dma/cy_dma.h **** * Returns the descriptor's type of the specified descriptor.
1106:Generated_Source\PSoC6\pdl\drivers\peripheral\dma/cy_dma.h **** *
1107:Generated_Source\PSoC6\pdl\drivers\peripheral\dma/cy_dma.h **** * \param descriptor
1108:Generated_Source\PSoC6\pdl\drivers\peripheral\dma/cy_dma.h **** * The descriptor structure instance declared by the user/component.
1109:Generated_Source\PSoC6\pdl\drivers\peripheral\dma/cy_dma.h **** *
1110:Generated_Source\PSoC6\pdl\drivers\peripheral\dma/cy_dma.h **** * \return
1111:Generated_Source\PSoC6\pdl\drivers\peripheral\dma/cy_dma.h **** * The descriptor type \ref cy_en_dma_descriptor_type_t.
1112:Generated_Source\PSoC6\pdl\drivers\peripheral\dma/cy_dma.h **** *
1113:Generated_Source\PSoC6\pdl\drivers\peripheral\dma/cy_dma.h **** * \funcusage 
ARM GAS  C:\Users\stijn\AppData\Local\Temp\ccPWVksW.s 			page 21


1114:Generated_Source\PSoC6\pdl\drivers\peripheral\dma/cy_dma.h **** * \snippet dma\2.10\snippet\main.c snippet_Cy_DMA_Descriptor_GetterFunctions
1115:Generated_Source\PSoC6\pdl\drivers\peripheral\dma/cy_dma.h **** *  
1116:Generated_Source\PSoC6\pdl\drivers\peripheral\dma/cy_dma.h **** *******************************************************************************/
1117:Generated_Source\PSoC6\pdl\drivers\peripheral\dma/cy_dma.h **** __STATIC_INLINE cy_en_dma_descriptor_type_t Cy_DMA_Descriptor_GetDescriptorType(cy_stc_dma_descript
1118:Generated_Source\PSoC6\pdl\drivers\peripheral\dma/cy_dma.h **** {
  28              		.loc 1 1118 0
  29              		.cfi_startproc
  30              		@ args = 0, pretend = 0, frame = 8
  31              		@ frame_needed = 1, uses_anonymous_args = 0
  32              		@ link register save eliminated.
  33 0000 80B4     		push	{r7}
  34              		.cfi_def_cfa_offset 4
  35              		.cfi_offset 7, -4
  36 0002 83B0     		sub	sp, sp, #12
  37              		.cfi_def_cfa_offset 16
  38 0004 00AF     		add	r7, sp, #0
  39              		.cfi_def_cfa_register 7
  40 0006 7860     		str	r0, [r7, #4]
1119:Generated_Source\PSoC6\pdl\drivers\peripheral\dma/cy_dma.h ****     return((cy_en_dma_descriptor_type_t) _FLD2VAL(CY_DMA_CTL_TYPE, descriptor->ctl));
  41              		.loc 1 1119 0
  42 0008 7B68     		ldr	r3, [r7, #4]
  43 000a 1B68     		ldr	r3, [r3]
  44 000c 9B0F     		lsrs	r3, r3, #30
  45 000e DBB2     		uxtb	r3, r3
1120:Generated_Source\PSoC6\pdl\drivers\peripheral\dma/cy_dma.h **** }
  46              		.loc 1 1120 0
  47 0010 1846     		mov	r0, r3
  48 0012 0C37     		adds	r7, r7, #12
  49              		.cfi_def_cfa_offset 4
  50 0014 BD46     		mov	sp, r7
  51              		.cfi_def_cfa_register 13
  52              		@ sp needed
  53 0016 5DF8047B 		ldr	r7, [sp], #4
  54              		.cfi_restore 7
  55              		.cfi_def_cfa_offset 0
  56 001a 7047     		bx	lr
  57              		.cfi_endproc
  58              	.LFE155:
  59              		.size	Cy_DMA_Descriptor_GetDescriptorType, .-Cy_DMA_Descriptor_GetDescriptorType
  60              		.section	.rodata
  61              		.align	2
  62              	.LC0:
  63 0000 47656E65 		.ascii	"Generated_Source\\PSoC6\\pdl\\drivers\\peripheral\\"
  63      72617465 
  63      645F536F 
  63      75726365 
  63      5C50536F 
  64 002e 646D615C 		.ascii	"dma\\cy_dma.h\000"
  64      63795F64 
  64      6D612E68 
  64      00
  65              		.section	.text.Cy_DMA_Channel_SetDescriptor,"ax",%progbits
  66              		.align	2
  67              		.thumb
  68              		.thumb_func
  69              		.type	Cy_DMA_Channel_SetDescriptor, %function
  70              	Cy_DMA_Channel_SetDescriptor:
ARM GAS  C:\Users\stijn\AppData\Local\Temp\ccPWVksW.s 			page 22


  71              	.LFB170:
1121:Generated_Source\PSoC6\pdl\drivers\peripheral\dma/cy_dma.h **** 
1122:Generated_Source\PSoC6\pdl\drivers\peripheral\dma/cy_dma.h **** 
1123:Generated_Source\PSoC6\pdl\drivers\peripheral\dma/cy_dma.h **** /*******************************************************************************
1124:Generated_Source\PSoC6\pdl\drivers\peripheral\dma/cy_dma.h **** * Function Name: Cy_DMA_Descriptor_SetChannelState
1125:Generated_Source\PSoC6\pdl\drivers\peripheral\dma/cy_dma.h **** ****************************************************************************//**
1126:Generated_Source\PSoC6\pdl\drivers\peripheral\dma/cy_dma.h **** *
1127:Generated_Source\PSoC6\pdl\drivers\peripheral\dma/cy_dma.h **** * Sets the channel state on completion of the specified descriptor.
1128:Generated_Source\PSoC6\pdl\drivers\peripheral\dma/cy_dma.h **** *
1129:Generated_Source\PSoC6\pdl\drivers\peripheral\dma/cy_dma.h **** * \param descriptor
1130:Generated_Source\PSoC6\pdl\drivers\peripheral\dma/cy_dma.h **** * The descriptor structure instance declared by the user/component.
1131:Generated_Source\PSoC6\pdl\drivers\peripheral\dma/cy_dma.h **** *
1132:Generated_Source\PSoC6\pdl\drivers\peripheral\dma/cy_dma.h **** * \param channelState 
1133:Generated_Source\PSoC6\pdl\drivers\peripheral\dma/cy_dma.h **** * The channel state \ref cy_en_dma_channel_state_t.
1134:Generated_Source\PSoC6\pdl\drivers\peripheral\dma/cy_dma.h **** *
1135:Generated_Source\PSoC6\pdl\drivers\peripheral\dma/cy_dma.h **** * \funcusage 
1136:Generated_Source\PSoC6\pdl\drivers\peripheral\dma/cy_dma.h **** * \snippet dma\2.10\snippet\main.c snippet_Cy_DMA_Descriptor_SetterFunctions
1137:Generated_Source\PSoC6\pdl\drivers\peripheral\dma/cy_dma.h **** *
1138:Generated_Source\PSoC6\pdl\drivers\peripheral\dma/cy_dma.h **** *******************************************************************************/
1139:Generated_Source\PSoC6\pdl\drivers\peripheral\dma/cy_dma.h **** __STATIC_INLINE void Cy_DMA_Descriptor_SetChannelState(cy_stc_dma_descriptor_t * descriptor, cy_en_
1140:Generated_Source\PSoC6\pdl\drivers\peripheral\dma/cy_dma.h **** {
1141:Generated_Source\PSoC6\pdl\drivers\peripheral\dma/cy_dma.h ****     CY_ASSERT_L3(CY_DMA_IS_CHANNEL_STATE_VALID(channelState));
1142:Generated_Source\PSoC6\pdl\drivers\peripheral\dma/cy_dma.h ****     
1143:Generated_Source\PSoC6\pdl\drivers\peripheral\dma/cy_dma.h ****     CY_REG32_CLR_SET(descriptor->ctl, CY_DMA_CTL_CH_DISABLE, channelState);
1144:Generated_Source\PSoC6\pdl\drivers\peripheral\dma/cy_dma.h **** }
1145:Generated_Source\PSoC6\pdl\drivers\peripheral\dma/cy_dma.h **** 
1146:Generated_Source\PSoC6\pdl\drivers\peripheral\dma/cy_dma.h **** 
1147:Generated_Source\PSoC6\pdl\drivers\peripheral\dma/cy_dma.h **** /*******************************************************************************
1148:Generated_Source\PSoC6\pdl\drivers\peripheral\dma/cy_dma.h **** * Function Name: Cy_DMA_Descriptor_GetChannelState
1149:Generated_Source\PSoC6\pdl\drivers\peripheral\dma/cy_dma.h **** ****************************************************************************//**
1150:Generated_Source\PSoC6\pdl\drivers\peripheral\dma/cy_dma.h **** *
1151:Generated_Source\PSoC6\pdl\drivers\peripheral\dma/cy_dma.h **** * Returns the channel state on completion of the specified descriptor.
1152:Generated_Source\PSoC6\pdl\drivers\peripheral\dma/cy_dma.h **** *
1153:Generated_Source\PSoC6\pdl\drivers\peripheral\dma/cy_dma.h **** * \param descriptor
1154:Generated_Source\PSoC6\pdl\drivers\peripheral\dma/cy_dma.h **** * The descriptor structure instance declared by the user/component.
1155:Generated_Source\PSoC6\pdl\drivers\peripheral\dma/cy_dma.h **** *
1156:Generated_Source\PSoC6\pdl\drivers\peripheral\dma/cy_dma.h **** * \return
1157:Generated_Source\PSoC6\pdl\drivers\peripheral\dma/cy_dma.h **** * The Channel State setting \ref cy_en_dma_channel_state_t.
1158:Generated_Source\PSoC6\pdl\drivers\peripheral\dma/cy_dma.h **** *
1159:Generated_Source\PSoC6\pdl\drivers\peripheral\dma/cy_dma.h **** * \funcusage 
1160:Generated_Source\PSoC6\pdl\drivers\peripheral\dma/cy_dma.h **** * \snippet dma\2.10\snippet\main.c snippet_Cy_DMA_Descriptor_GetterFunctions
1161:Generated_Source\PSoC6\pdl\drivers\peripheral\dma/cy_dma.h **** *  
1162:Generated_Source\PSoC6\pdl\drivers\peripheral\dma/cy_dma.h **** *******************************************************************************/
1163:Generated_Source\PSoC6\pdl\drivers\peripheral\dma/cy_dma.h **** __STATIC_INLINE cy_en_dma_channel_state_t Cy_DMA_Descriptor_GetChannelState(cy_stc_dma_descriptor_t
1164:Generated_Source\PSoC6\pdl\drivers\peripheral\dma/cy_dma.h **** {
1165:Generated_Source\PSoC6\pdl\drivers\peripheral\dma/cy_dma.h ****     return((cy_en_dma_channel_state_t) _FLD2VAL(CY_DMA_CTL_CH_DISABLE, descriptor->ctl));
1166:Generated_Source\PSoC6\pdl\drivers\peripheral\dma/cy_dma.h **** }
1167:Generated_Source\PSoC6\pdl\drivers\peripheral\dma/cy_dma.h **** 
1168:Generated_Source\PSoC6\pdl\drivers\peripheral\dma/cy_dma.h **** 
1169:Generated_Source\PSoC6\pdl\drivers\peripheral\dma/cy_dma.h **** /*******************************************************************************
1170:Generated_Source\PSoC6\pdl\drivers\peripheral\dma/cy_dma.h **** * Function Name: Cy_DMA_Descriptor_SetXloopDataCount
1171:Generated_Source\PSoC6\pdl\drivers\peripheral\dma/cy_dma.h **** ****************************************************************************//**
1172:Generated_Source\PSoC6\pdl\drivers\peripheral\dma/cy_dma.h **** *
1173:Generated_Source\PSoC6\pdl\drivers\peripheral\dma/cy_dma.h **** * Sets the number of data elements to transfer in the X loop
1174:Generated_Source\PSoC6\pdl\drivers\peripheral\dma/cy_dma.h **** * for the specified descriptor (for 1D or 2D descriptors only).
1175:Generated_Source\PSoC6\pdl\drivers\peripheral\dma/cy_dma.h **** *
1176:Generated_Source\PSoC6\pdl\drivers\peripheral\dma/cy_dma.h **** * \param descriptor
ARM GAS  C:\Users\stijn\AppData\Local\Temp\ccPWVksW.s 			page 23


1177:Generated_Source\PSoC6\pdl\drivers\peripheral\dma/cy_dma.h **** * The descriptor structure instance declared by the user/component.
1178:Generated_Source\PSoC6\pdl\drivers\peripheral\dma/cy_dma.h **** *
1179:Generated_Source\PSoC6\pdl\drivers\peripheral\dma/cy_dma.h **** * \param xCount
1180:Generated_Source\PSoC6\pdl\drivers\peripheral\dma/cy_dma.h **** * The number of data elements to transfer in the X loop. Valid range is 1 ... 256.
1181:Generated_Source\PSoC6\pdl\drivers\peripheral\dma/cy_dma.h **** *
1182:Generated_Source\PSoC6\pdl\drivers\peripheral\dma/cy_dma.h **** * \funcusage 
1183:Generated_Source\PSoC6\pdl\drivers\peripheral\dma/cy_dma.h **** * \snippet dma\2.10\snippet\main.c snippet_Cy_DMA_Descriptor_SetterFunctions
1184:Generated_Source\PSoC6\pdl\drivers\peripheral\dma/cy_dma.h **** *  
1185:Generated_Source\PSoC6\pdl\drivers\peripheral\dma/cy_dma.h **** *******************************************************************************/
1186:Generated_Source\PSoC6\pdl\drivers\peripheral\dma/cy_dma.h **** __STATIC_INLINE void Cy_DMA_Descriptor_SetXloopDataCount(cy_stc_dma_descriptor_t * descriptor, uint
1187:Generated_Source\PSoC6\pdl\drivers\peripheral\dma/cy_dma.h **** {
1188:Generated_Source\PSoC6\pdl\drivers\peripheral\dma/cy_dma.h ****     CY_ASSERT_L1(CY_DMA_SINGLE_TRANSFER != Cy_DMA_Descriptor_GetDescriptorType(descriptor));
1189:Generated_Source\PSoC6\pdl\drivers\peripheral\dma/cy_dma.h ****     CY_ASSERT_L2(CY_DMA_IS_LOOP_COUNT_VALID(xCount));
1190:Generated_Source\PSoC6\pdl\drivers\peripheral\dma/cy_dma.h ****     /* Convert the data count from the user's range (1-256) into the machine range (0-255). */
1191:Generated_Source\PSoC6\pdl\drivers\peripheral\dma/cy_dma.h ****     CY_REG32_CLR_SET(descriptor->xCtl, CY_DMA_CTL_COUNT, xCount - 1UL);
1192:Generated_Source\PSoC6\pdl\drivers\peripheral\dma/cy_dma.h **** }
1193:Generated_Source\PSoC6\pdl\drivers\peripheral\dma/cy_dma.h **** 
1194:Generated_Source\PSoC6\pdl\drivers\peripheral\dma/cy_dma.h **** 
1195:Generated_Source\PSoC6\pdl\drivers\peripheral\dma/cy_dma.h **** /*******************************************************************************
1196:Generated_Source\PSoC6\pdl\drivers\peripheral\dma/cy_dma.h **** * Function Name: Cy_DMA_Descriptor_GetXloopDataCount
1197:Generated_Source\PSoC6\pdl\drivers\peripheral\dma/cy_dma.h **** ****************************************************************************//**
1198:Generated_Source\PSoC6\pdl\drivers\peripheral\dma/cy_dma.h **** *
1199:Generated_Source\PSoC6\pdl\drivers\peripheral\dma/cy_dma.h **** * Returns the number of data elements for the X loop of the specified
1200:Generated_Source\PSoC6\pdl\drivers\peripheral\dma/cy_dma.h **** * descriptor (for 1D or 2D descriptors only).
1201:Generated_Source\PSoC6\pdl\drivers\peripheral\dma/cy_dma.h **** *
1202:Generated_Source\PSoC6\pdl\drivers\peripheral\dma/cy_dma.h **** * \param descriptor
1203:Generated_Source\PSoC6\pdl\drivers\peripheral\dma/cy_dma.h **** * The descriptor structure instance declared by the user/component.
1204:Generated_Source\PSoC6\pdl\drivers\peripheral\dma/cy_dma.h **** *
1205:Generated_Source\PSoC6\pdl\drivers\peripheral\dma/cy_dma.h **** * \return
1206:Generated_Source\PSoC6\pdl\drivers\peripheral\dma/cy_dma.h **** * The number of data elements to transfer in the X loop. The range is 1 ... 256.
1207:Generated_Source\PSoC6\pdl\drivers\peripheral\dma/cy_dma.h **** *
1208:Generated_Source\PSoC6\pdl\drivers\peripheral\dma/cy_dma.h **** * \funcusage 
1209:Generated_Source\PSoC6\pdl\drivers\peripheral\dma/cy_dma.h **** * \snippet dma\2.10\snippet\main.c snippet_Cy_DMA_Descriptor_GetterFunctions
1210:Generated_Source\PSoC6\pdl\drivers\peripheral\dma/cy_dma.h **** *  
1211:Generated_Source\PSoC6\pdl\drivers\peripheral\dma/cy_dma.h **** *******************************************************************************/
1212:Generated_Source\PSoC6\pdl\drivers\peripheral\dma/cy_dma.h **** __STATIC_INLINE uint32_t Cy_DMA_Descriptor_GetXloopDataCount(cy_stc_dma_descriptor_t const * descri
1213:Generated_Source\PSoC6\pdl\drivers\peripheral\dma/cy_dma.h **** {
1214:Generated_Source\PSoC6\pdl\drivers\peripheral\dma/cy_dma.h ****     CY_ASSERT_L1(CY_DMA_SINGLE_TRANSFER != Cy_DMA_Descriptor_GetDescriptorType(descriptor));
1215:Generated_Source\PSoC6\pdl\drivers\peripheral\dma/cy_dma.h ****     /* Convert the data count from the machine range (0-255) into the user's range (1-256). */
1216:Generated_Source\PSoC6\pdl\drivers\peripheral\dma/cy_dma.h ****     return (_FLD2VAL(CY_DMA_CTL_COUNT, descriptor->xCtl) + 1UL);
1217:Generated_Source\PSoC6\pdl\drivers\peripheral\dma/cy_dma.h **** }
1218:Generated_Source\PSoC6\pdl\drivers\peripheral\dma/cy_dma.h **** 
1219:Generated_Source\PSoC6\pdl\drivers\peripheral\dma/cy_dma.h **** 
1220:Generated_Source\PSoC6\pdl\drivers\peripheral\dma/cy_dma.h **** /*******************************************************************************
1221:Generated_Source\PSoC6\pdl\drivers\peripheral\dma/cy_dma.h **** * Function Name: Cy_DMA_Descriptor_SetXloopSrcIncrement
1222:Generated_Source\PSoC6\pdl\drivers\peripheral\dma/cy_dma.h **** ****************************************************************************//**
1223:Generated_Source\PSoC6\pdl\drivers\peripheral\dma/cy_dma.h **** *
1224:Generated_Source\PSoC6\pdl\drivers\peripheral\dma/cy_dma.h **** * Sets the source increment parameter for the X loop of the specified
1225:Generated_Source\PSoC6\pdl\drivers\peripheral\dma/cy_dma.h **** * descriptor (for 1D or 2D descriptors only).
1226:Generated_Source\PSoC6\pdl\drivers\peripheral\dma/cy_dma.h **** *
1227:Generated_Source\PSoC6\pdl\drivers\peripheral\dma/cy_dma.h **** * \param descriptor
1228:Generated_Source\PSoC6\pdl\drivers\peripheral\dma/cy_dma.h **** * The descriptor structure instance declared by the user/component.
1229:Generated_Source\PSoC6\pdl\drivers\peripheral\dma/cy_dma.h **** *
1230:Generated_Source\PSoC6\pdl\drivers\peripheral\dma/cy_dma.h **** * \param srcXincrement
1231:Generated_Source\PSoC6\pdl\drivers\peripheral\dma/cy_dma.h **** * The value of the source increment. The valid range is -2048 ... 2047.
1232:Generated_Source\PSoC6\pdl\drivers\peripheral\dma/cy_dma.h **** *
1233:Generated_Source\PSoC6\pdl\drivers\peripheral\dma/cy_dma.h **** * \funcusage 
ARM GAS  C:\Users\stijn\AppData\Local\Temp\ccPWVksW.s 			page 24


1234:Generated_Source\PSoC6\pdl\drivers\peripheral\dma/cy_dma.h **** * \snippet dma\2.10\snippet\main.c snippet_Cy_DMA_Descriptor_SetterFunctions
1235:Generated_Source\PSoC6\pdl\drivers\peripheral\dma/cy_dma.h **** *
1236:Generated_Source\PSoC6\pdl\drivers\peripheral\dma/cy_dma.h **** *******************************************************************************/
1237:Generated_Source\PSoC6\pdl\drivers\peripheral\dma/cy_dma.h **** __STATIC_INLINE void Cy_DMA_Descriptor_SetXloopSrcIncrement(cy_stc_dma_descriptor_t * descriptor, i
1238:Generated_Source\PSoC6\pdl\drivers\peripheral\dma/cy_dma.h **** {
1239:Generated_Source\PSoC6\pdl\drivers\peripheral\dma/cy_dma.h ****     CY_ASSERT_L1(CY_DMA_SINGLE_TRANSFER != Cy_DMA_Descriptor_GetDescriptorType(descriptor));
1240:Generated_Source\PSoC6\pdl\drivers\peripheral\dma/cy_dma.h ****     CY_ASSERT_L2(CY_DMA_IS_LOOP_INCR_VALID(srcXincrement));
1241:Generated_Source\PSoC6\pdl\drivers\peripheral\dma/cy_dma.h ****     
1242:Generated_Source\PSoC6\pdl\drivers\peripheral\dma/cy_dma.h ****     CY_REG32_CLR_SET(descriptor->xCtl, CY_DMA_CTL_SRC_INCR, srcXincrement);
1243:Generated_Source\PSoC6\pdl\drivers\peripheral\dma/cy_dma.h **** }
1244:Generated_Source\PSoC6\pdl\drivers\peripheral\dma/cy_dma.h **** 
1245:Generated_Source\PSoC6\pdl\drivers\peripheral\dma/cy_dma.h **** 
1246:Generated_Source\PSoC6\pdl\drivers\peripheral\dma/cy_dma.h **** /*******************************************************************************
1247:Generated_Source\PSoC6\pdl\drivers\peripheral\dma/cy_dma.h **** * Function Name: Cy_DMA_Descriptor_GetXloopSrcIncrement
1248:Generated_Source\PSoC6\pdl\drivers\peripheral\dma/cy_dma.h **** ****************************************************************************//**
1249:Generated_Source\PSoC6\pdl\drivers\peripheral\dma/cy_dma.h **** *
1250:Generated_Source\PSoC6\pdl\drivers\peripheral\dma/cy_dma.h **** * Returns the source increment parameter for the X loop of the specified
1251:Generated_Source\PSoC6\pdl\drivers\peripheral\dma/cy_dma.h **** * descriptor (for 1D or 2D descriptors only).
1252:Generated_Source\PSoC6\pdl\drivers\peripheral\dma/cy_dma.h **** *
1253:Generated_Source\PSoC6\pdl\drivers\peripheral\dma/cy_dma.h **** * \param descriptor
1254:Generated_Source\PSoC6\pdl\drivers\peripheral\dma/cy_dma.h **** * The descriptor structure instance declared by the user/component.
1255:Generated_Source\PSoC6\pdl\drivers\peripheral\dma/cy_dma.h **** *
1256:Generated_Source\PSoC6\pdl\drivers\peripheral\dma/cy_dma.h **** * \return
1257:Generated_Source\PSoC6\pdl\drivers\peripheral\dma/cy_dma.h **** * The value of the source increment. The range is -2048 ... 2047.
1258:Generated_Source\PSoC6\pdl\drivers\peripheral\dma/cy_dma.h **** *
1259:Generated_Source\PSoC6\pdl\drivers\peripheral\dma/cy_dma.h **** * \funcusage 
1260:Generated_Source\PSoC6\pdl\drivers\peripheral\dma/cy_dma.h **** * \snippet dma\2.10\snippet\main.c snippet_Cy_DMA_Descriptor_GetterFunctions
1261:Generated_Source\PSoC6\pdl\drivers\peripheral\dma/cy_dma.h **** *  
1262:Generated_Source\PSoC6\pdl\drivers\peripheral\dma/cy_dma.h **** *******************************************************************************/
1263:Generated_Source\PSoC6\pdl\drivers\peripheral\dma/cy_dma.h **** __STATIC_INLINE int32_t Cy_DMA_Descriptor_GetXloopSrcIncrement(cy_stc_dma_descriptor_t const * desc
1264:Generated_Source\PSoC6\pdl\drivers\peripheral\dma/cy_dma.h **** {
1265:Generated_Source\PSoC6\pdl\drivers\peripheral\dma/cy_dma.h ****     CY_ASSERT_L1(CY_DMA_SINGLE_TRANSFER != Cy_DMA_Descriptor_GetDescriptorType(descriptor));
1266:Generated_Source\PSoC6\pdl\drivers\peripheral\dma/cy_dma.h ****     
1267:Generated_Source\PSoC6\pdl\drivers\peripheral\dma/cy_dma.h ****     return ((int32_t) _FLD2VAL(CY_DMA_CTL_SRC_INCR, descriptor->xCtl));
1268:Generated_Source\PSoC6\pdl\drivers\peripheral\dma/cy_dma.h **** }
1269:Generated_Source\PSoC6\pdl\drivers\peripheral\dma/cy_dma.h **** 
1270:Generated_Source\PSoC6\pdl\drivers\peripheral\dma/cy_dma.h **** 
1271:Generated_Source\PSoC6\pdl\drivers\peripheral\dma/cy_dma.h **** /*******************************************************************************
1272:Generated_Source\PSoC6\pdl\drivers\peripheral\dma/cy_dma.h **** * Function Name: Cy_DMA_Descriptor_SetXloopDstIncrement
1273:Generated_Source\PSoC6\pdl\drivers\peripheral\dma/cy_dma.h **** ****************************************************************************//**
1274:Generated_Source\PSoC6\pdl\drivers\peripheral\dma/cy_dma.h **** *
1275:Generated_Source\PSoC6\pdl\drivers\peripheral\dma/cy_dma.h **** * Sets the destination increment parameter for the X loop for the specified
1276:Generated_Source\PSoC6\pdl\drivers\peripheral\dma/cy_dma.h **** * descriptor (for 1D or 2D descriptors only).
1277:Generated_Source\PSoC6\pdl\drivers\peripheral\dma/cy_dma.h **** *
1278:Generated_Source\PSoC6\pdl\drivers\peripheral\dma/cy_dma.h **** * \param descriptor
1279:Generated_Source\PSoC6\pdl\drivers\peripheral\dma/cy_dma.h **** * The descriptor structure instance declared by the user/component.
1280:Generated_Source\PSoC6\pdl\drivers\peripheral\dma/cy_dma.h **** *
1281:Generated_Source\PSoC6\pdl\drivers\peripheral\dma/cy_dma.h **** * \param dstXincrement
1282:Generated_Source\PSoC6\pdl\drivers\peripheral\dma/cy_dma.h **** * The value of the destination increment. The valid range is -2048 ... 2047.
1283:Generated_Source\PSoC6\pdl\drivers\peripheral\dma/cy_dma.h **** *
1284:Generated_Source\PSoC6\pdl\drivers\peripheral\dma/cy_dma.h **** * \funcusage 
1285:Generated_Source\PSoC6\pdl\drivers\peripheral\dma/cy_dma.h **** * \snippet dma\2.10\snippet\main.c snippet_Cy_DMA_Descriptor_SetterFunctions
1286:Generated_Source\PSoC6\pdl\drivers\peripheral\dma/cy_dma.h **** *  
1287:Generated_Source\PSoC6\pdl\drivers\peripheral\dma/cy_dma.h **** *******************************************************************************/
1288:Generated_Source\PSoC6\pdl\drivers\peripheral\dma/cy_dma.h **** __STATIC_INLINE void Cy_DMA_Descriptor_SetXloopDstIncrement(cy_stc_dma_descriptor_t * descriptor, i
1289:Generated_Source\PSoC6\pdl\drivers\peripheral\dma/cy_dma.h **** {
1290:Generated_Source\PSoC6\pdl\drivers\peripheral\dma/cy_dma.h ****     CY_ASSERT_L1(CY_DMA_SINGLE_TRANSFER != Cy_DMA_Descriptor_GetDescriptorType(descriptor));
ARM GAS  C:\Users\stijn\AppData\Local\Temp\ccPWVksW.s 			page 25


1291:Generated_Source\PSoC6\pdl\drivers\peripheral\dma/cy_dma.h ****     CY_ASSERT_L2(CY_DMA_IS_LOOP_INCR_VALID(dstXincrement));
1292:Generated_Source\PSoC6\pdl\drivers\peripheral\dma/cy_dma.h ****     
1293:Generated_Source\PSoC6\pdl\drivers\peripheral\dma/cy_dma.h ****     CY_REG32_CLR_SET(descriptor->xCtl, CY_DMA_CTL_DST_INCR, dstXincrement);
1294:Generated_Source\PSoC6\pdl\drivers\peripheral\dma/cy_dma.h **** }
1295:Generated_Source\PSoC6\pdl\drivers\peripheral\dma/cy_dma.h **** 
1296:Generated_Source\PSoC6\pdl\drivers\peripheral\dma/cy_dma.h **** 
1297:Generated_Source\PSoC6\pdl\drivers\peripheral\dma/cy_dma.h **** /*******************************************************************************
1298:Generated_Source\PSoC6\pdl\drivers\peripheral\dma/cy_dma.h **** * Function Name: Cy_DMA_Descriptor_GetXloopDstIncrement
1299:Generated_Source\PSoC6\pdl\drivers\peripheral\dma/cy_dma.h **** ****************************************************************************//**
1300:Generated_Source\PSoC6\pdl\drivers\peripheral\dma/cy_dma.h **** *
1301:Generated_Source\PSoC6\pdl\drivers\peripheral\dma/cy_dma.h **** * Returns the destination increment parameter for the X loop of the specified
1302:Generated_Source\PSoC6\pdl\drivers\peripheral\dma/cy_dma.h **** * descriptor (for 1D or 2D descriptors only).
1303:Generated_Source\PSoC6\pdl\drivers\peripheral\dma/cy_dma.h **** *
1304:Generated_Source\PSoC6\pdl\drivers\peripheral\dma/cy_dma.h **** * \param descriptor
1305:Generated_Source\PSoC6\pdl\drivers\peripheral\dma/cy_dma.h **** * The descriptor structure instance declared by the user/component.
1306:Generated_Source\PSoC6\pdl\drivers\peripheral\dma/cy_dma.h **** *
1307:Generated_Source\PSoC6\pdl\drivers\peripheral\dma/cy_dma.h **** * \return
1308:Generated_Source\PSoC6\pdl\drivers\peripheral\dma/cy_dma.h **** * The value of the destination increment. The range is -2048 ... 2047.
1309:Generated_Source\PSoC6\pdl\drivers\peripheral\dma/cy_dma.h **** *
1310:Generated_Source\PSoC6\pdl\drivers\peripheral\dma/cy_dma.h **** * \funcusage 
1311:Generated_Source\PSoC6\pdl\drivers\peripheral\dma/cy_dma.h **** * \snippet dma\2.10\snippet\main.c snippet_Cy_DMA_Descriptor_GetterFunctions
1312:Generated_Source\PSoC6\pdl\drivers\peripheral\dma/cy_dma.h **** *  
1313:Generated_Source\PSoC6\pdl\drivers\peripheral\dma/cy_dma.h **** *******************************************************************************/
1314:Generated_Source\PSoC6\pdl\drivers\peripheral\dma/cy_dma.h **** __STATIC_INLINE int32_t Cy_DMA_Descriptor_GetXloopDstIncrement(cy_stc_dma_descriptor_t const * desc
1315:Generated_Source\PSoC6\pdl\drivers\peripheral\dma/cy_dma.h **** {
1316:Generated_Source\PSoC6\pdl\drivers\peripheral\dma/cy_dma.h ****     CY_ASSERT_L1(CY_DMA_SINGLE_TRANSFER != Cy_DMA_Descriptor_GetDescriptorType(descriptor));
1317:Generated_Source\PSoC6\pdl\drivers\peripheral\dma/cy_dma.h ****     
1318:Generated_Source\PSoC6\pdl\drivers\peripheral\dma/cy_dma.h ****     return ((int32_t) _FLD2VAL(CY_DMA_CTL_DST_INCR, descriptor->xCtl));
1319:Generated_Source\PSoC6\pdl\drivers\peripheral\dma/cy_dma.h **** }
1320:Generated_Source\PSoC6\pdl\drivers\peripheral\dma/cy_dma.h **** 
1321:Generated_Source\PSoC6\pdl\drivers\peripheral\dma/cy_dma.h **** 
1322:Generated_Source\PSoC6\pdl\drivers\peripheral\dma/cy_dma.h **** /*******************************************************************************
1323:Generated_Source\PSoC6\pdl\drivers\peripheral\dma/cy_dma.h **** * Function Name: Cy_DMA_Descriptor_SetYloopDataCount
1324:Generated_Source\PSoC6\pdl\drivers\peripheral\dma/cy_dma.h **** ****************************************************************************//**
1325:Generated_Source\PSoC6\pdl\drivers\peripheral\dma/cy_dma.h **** *
1326:Generated_Source\PSoC6\pdl\drivers\peripheral\dma/cy_dma.h **** * Sets the number of data elements for the Y loop of the specified descriptor
1327:Generated_Source\PSoC6\pdl\drivers\peripheral\dma/cy_dma.h **** * (for 2D descriptors only).
1328:Generated_Source\PSoC6\pdl\drivers\peripheral\dma/cy_dma.h **** *
1329:Generated_Source\PSoC6\pdl\drivers\peripheral\dma/cy_dma.h **** * \param descriptor
1330:Generated_Source\PSoC6\pdl\drivers\peripheral\dma/cy_dma.h **** * The descriptor structure instance declared by the user/component.
1331:Generated_Source\PSoC6\pdl\drivers\peripheral\dma/cy_dma.h **** *
1332:Generated_Source\PSoC6\pdl\drivers\peripheral\dma/cy_dma.h **** * \param yCount
1333:Generated_Source\PSoC6\pdl\drivers\peripheral\dma/cy_dma.h **** * The number of X loops to execute in the Y loop. The valid range is 1 ... 256.
1334:Generated_Source\PSoC6\pdl\drivers\peripheral\dma/cy_dma.h **** *
1335:Generated_Source\PSoC6\pdl\drivers\peripheral\dma/cy_dma.h **** * \funcusage 
1336:Generated_Source\PSoC6\pdl\drivers\peripheral\dma/cy_dma.h **** * \snippet dma\2.10\snippet\main.c snippet_Cy_DMA_Descriptor_SetterFunctions
1337:Generated_Source\PSoC6\pdl\drivers\peripheral\dma/cy_dma.h **** *  
1338:Generated_Source\PSoC6\pdl\drivers\peripheral\dma/cy_dma.h **** *******************************************************************************/
1339:Generated_Source\PSoC6\pdl\drivers\peripheral\dma/cy_dma.h **** __STATIC_INLINE void Cy_DMA_Descriptor_SetYloopDataCount(cy_stc_dma_descriptor_t * descriptor, uint
1340:Generated_Source\PSoC6\pdl\drivers\peripheral\dma/cy_dma.h **** {
1341:Generated_Source\PSoC6\pdl\drivers\peripheral\dma/cy_dma.h ****     CY_ASSERT_L1(CY_DMA_2D_TRANSFER == Cy_DMA_Descriptor_GetDescriptorType(descriptor));
1342:Generated_Source\PSoC6\pdl\drivers\peripheral\dma/cy_dma.h ****     CY_ASSERT_L2(CY_DMA_IS_LOOP_COUNT_VALID(yCount));
1343:Generated_Source\PSoC6\pdl\drivers\peripheral\dma/cy_dma.h ****     /* Convert the data count from the user's range (1-256) into the machine range (0-255). */
1344:Generated_Source\PSoC6\pdl\drivers\peripheral\dma/cy_dma.h ****     CY_REG32_CLR_SET(descriptor->yCtl, CY_DMA_CTL_COUNT, yCount - 1UL);
1345:Generated_Source\PSoC6\pdl\drivers\peripheral\dma/cy_dma.h **** }
1346:Generated_Source\PSoC6\pdl\drivers\peripheral\dma/cy_dma.h **** 
1347:Generated_Source\PSoC6\pdl\drivers\peripheral\dma/cy_dma.h **** 
ARM GAS  C:\Users\stijn\AppData\Local\Temp\ccPWVksW.s 			page 26


1348:Generated_Source\PSoC6\pdl\drivers\peripheral\dma/cy_dma.h **** /*******************************************************************************
1349:Generated_Source\PSoC6\pdl\drivers\peripheral\dma/cy_dma.h **** * Function Name: Cy_DMA_Descriptor_GetYloopDataCount
1350:Generated_Source\PSoC6\pdl\drivers\peripheral\dma/cy_dma.h **** ****************************************************************************//**
1351:Generated_Source\PSoC6\pdl\drivers\peripheral\dma/cy_dma.h **** *
1352:Generated_Source\PSoC6\pdl\drivers\peripheral\dma/cy_dma.h **** * Returns the number of X loops to execute in the Y loop of the specified
1353:Generated_Source\PSoC6\pdl\drivers\peripheral\dma/cy_dma.h **** * descriptor (for 2D descriptors only).
1354:Generated_Source\PSoC6\pdl\drivers\peripheral\dma/cy_dma.h **** *
1355:Generated_Source\PSoC6\pdl\drivers\peripheral\dma/cy_dma.h **** * \param descriptor
1356:Generated_Source\PSoC6\pdl\drivers\peripheral\dma/cy_dma.h **** * The descriptor structure instance declared by the user/component.
1357:Generated_Source\PSoC6\pdl\drivers\peripheral\dma/cy_dma.h **** *
1358:Generated_Source\PSoC6\pdl\drivers\peripheral\dma/cy_dma.h **** * \return
1359:Generated_Source\PSoC6\pdl\drivers\peripheral\dma/cy_dma.h **** * The number of X loops to execute in the Y loop. The range is 1 ... 256.
1360:Generated_Source\PSoC6\pdl\drivers\peripheral\dma/cy_dma.h **** *
1361:Generated_Source\PSoC6\pdl\drivers\peripheral\dma/cy_dma.h **** * \funcusage 
1362:Generated_Source\PSoC6\pdl\drivers\peripheral\dma/cy_dma.h **** * \snippet dma\2.10\snippet\main.c snippet_Cy_DMA_Descriptor_GetterFunctions
1363:Generated_Source\PSoC6\pdl\drivers\peripheral\dma/cy_dma.h **** *  
1364:Generated_Source\PSoC6\pdl\drivers\peripheral\dma/cy_dma.h **** *******************************************************************************/
1365:Generated_Source\PSoC6\pdl\drivers\peripheral\dma/cy_dma.h **** __STATIC_INLINE uint32_t Cy_DMA_Descriptor_GetYloopDataCount(cy_stc_dma_descriptor_t const * descri
1366:Generated_Source\PSoC6\pdl\drivers\peripheral\dma/cy_dma.h **** {
1367:Generated_Source\PSoC6\pdl\drivers\peripheral\dma/cy_dma.h ****     CY_ASSERT_L1(CY_DMA_2D_TRANSFER == Cy_DMA_Descriptor_GetDescriptorType(descriptor));
1368:Generated_Source\PSoC6\pdl\drivers\peripheral\dma/cy_dma.h ****     /* Convert the data count from the machine range (0-255) into the user's range (1-256). */
1369:Generated_Source\PSoC6\pdl\drivers\peripheral\dma/cy_dma.h ****     return (_FLD2VAL(CY_DMA_CTL_COUNT, descriptor->yCtl) + 1UL);
1370:Generated_Source\PSoC6\pdl\drivers\peripheral\dma/cy_dma.h **** }
1371:Generated_Source\PSoC6\pdl\drivers\peripheral\dma/cy_dma.h **** 
1372:Generated_Source\PSoC6\pdl\drivers\peripheral\dma/cy_dma.h **** 
1373:Generated_Source\PSoC6\pdl\drivers\peripheral\dma/cy_dma.h **** /*******************************************************************************
1374:Generated_Source\PSoC6\pdl\drivers\peripheral\dma/cy_dma.h **** * Function Name: Cy_DMA_Descriptor_SetYloopSrcIncrement
1375:Generated_Source\PSoC6\pdl\drivers\peripheral\dma/cy_dma.h **** ****************************************************************************//**
1376:Generated_Source\PSoC6\pdl\drivers\peripheral\dma/cy_dma.h **** *
1377:Generated_Source\PSoC6\pdl\drivers\peripheral\dma/cy_dma.h **** * Sets the source increment parameter for the Y loop for the specified
1378:Generated_Source\PSoC6\pdl\drivers\peripheral\dma/cy_dma.h **** * descriptor (for 2D descriptors only).
1379:Generated_Source\PSoC6\pdl\drivers\peripheral\dma/cy_dma.h **** *
1380:Generated_Source\PSoC6\pdl\drivers\peripheral\dma/cy_dma.h **** * \param descriptor
1381:Generated_Source\PSoC6\pdl\drivers\peripheral\dma/cy_dma.h **** * The descriptor structure instance declared by the user/component.
1382:Generated_Source\PSoC6\pdl\drivers\peripheral\dma/cy_dma.h **** *
1383:Generated_Source\PSoC6\pdl\drivers\peripheral\dma/cy_dma.h **** * \param srcYincrement
1384:Generated_Source\PSoC6\pdl\drivers\peripheral\dma/cy_dma.h **** * The value of the source increment. The valid range is -2048 ... 2047.
1385:Generated_Source\PSoC6\pdl\drivers\peripheral\dma/cy_dma.h **** *
1386:Generated_Source\PSoC6\pdl\drivers\peripheral\dma/cy_dma.h **** * \funcusage 
1387:Generated_Source\PSoC6\pdl\drivers\peripheral\dma/cy_dma.h **** * \snippet dma\2.10\snippet\main.c snippet_Cy_DMA_Descriptor_SetterFunctions
1388:Generated_Source\PSoC6\pdl\drivers\peripheral\dma/cy_dma.h **** *  
1389:Generated_Source\PSoC6\pdl\drivers\peripheral\dma/cy_dma.h **** *******************************************************************************/
1390:Generated_Source\PSoC6\pdl\drivers\peripheral\dma/cy_dma.h **** __STATIC_INLINE void Cy_DMA_Descriptor_SetYloopSrcIncrement(cy_stc_dma_descriptor_t * descriptor, i
1391:Generated_Source\PSoC6\pdl\drivers\peripheral\dma/cy_dma.h **** {
1392:Generated_Source\PSoC6\pdl\drivers\peripheral\dma/cy_dma.h ****     CY_ASSERT_L1(CY_DMA_2D_TRANSFER == Cy_DMA_Descriptor_GetDescriptorType(descriptor));
1393:Generated_Source\PSoC6\pdl\drivers\peripheral\dma/cy_dma.h ****     CY_ASSERT_L2(CY_DMA_IS_LOOP_INCR_VALID(srcYincrement));
1394:Generated_Source\PSoC6\pdl\drivers\peripheral\dma/cy_dma.h ****     
1395:Generated_Source\PSoC6\pdl\drivers\peripheral\dma/cy_dma.h ****     CY_REG32_CLR_SET(descriptor->yCtl, CY_DMA_CTL_SRC_INCR, srcYincrement);
1396:Generated_Source\PSoC6\pdl\drivers\peripheral\dma/cy_dma.h **** }
1397:Generated_Source\PSoC6\pdl\drivers\peripheral\dma/cy_dma.h **** 
1398:Generated_Source\PSoC6\pdl\drivers\peripheral\dma/cy_dma.h **** 
1399:Generated_Source\PSoC6\pdl\drivers\peripheral\dma/cy_dma.h **** /*******************************************************************************
1400:Generated_Source\PSoC6\pdl\drivers\peripheral\dma/cy_dma.h **** * Function Name: Cy_DMA_Descriptor_GetYloopSrcIncrement
1401:Generated_Source\PSoC6\pdl\drivers\peripheral\dma/cy_dma.h **** ****************************************************************************//**
1402:Generated_Source\PSoC6\pdl\drivers\peripheral\dma/cy_dma.h **** *
1403:Generated_Source\PSoC6\pdl\drivers\peripheral\dma/cy_dma.h **** * Returns the source increment parameter for the outer Y of the specified
1404:Generated_Source\PSoC6\pdl\drivers\peripheral\dma/cy_dma.h **** * descriptor (for 2D descriptors only).
ARM GAS  C:\Users\stijn\AppData\Local\Temp\ccPWVksW.s 			page 27


1405:Generated_Source\PSoC6\pdl\drivers\peripheral\dma/cy_dma.h **** *
1406:Generated_Source\PSoC6\pdl\drivers\peripheral\dma/cy_dma.h **** * \param descriptor
1407:Generated_Source\PSoC6\pdl\drivers\peripheral\dma/cy_dma.h **** * The descriptor structure instance declared by the user/component.
1408:Generated_Source\PSoC6\pdl\drivers\peripheral\dma/cy_dma.h **** *
1409:Generated_Source\PSoC6\pdl\drivers\peripheral\dma/cy_dma.h **** * \return
1410:Generated_Source\PSoC6\pdl\drivers\peripheral\dma/cy_dma.h **** * The value of the source increment. The range is -2048 ... 2047.
1411:Generated_Source\PSoC6\pdl\drivers\peripheral\dma/cy_dma.h **** *
1412:Generated_Source\PSoC6\pdl\drivers\peripheral\dma/cy_dma.h **** * \funcusage 
1413:Generated_Source\PSoC6\pdl\drivers\peripheral\dma/cy_dma.h **** * \snippet dma\2.10\snippet\main.c snippet_Cy_DMA_Descriptor_GetterFunctions
1414:Generated_Source\PSoC6\pdl\drivers\peripheral\dma/cy_dma.h **** *  
1415:Generated_Source\PSoC6\pdl\drivers\peripheral\dma/cy_dma.h **** *******************************************************************************/
1416:Generated_Source\PSoC6\pdl\drivers\peripheral\dma/cy_dma.h **** __STATIC_INLINE int32_t Cy_DMA_Descriptor_GetYloopSrcIncrement(cy_stc_dma_descriptor_t const * desc
1417:Generated_Source\PSoC6\pdl\drivers\peripheral\dma/cy_dma.h **** {
1418:Generated_Source\PSoC6\pdl\drivers\peripheral\dma/cy_dma.h ****     CY_ASSERT_L1(CY_DMA_2D_TRANSFER == Cy_DMA_Descriptor_GetDescriptorType(descriptor));
1419:Generated_Source\PSoC6\pdl\drivers\peripheral\dma/cy_dma.h ****     
1420:Generated_Source\PSoC6\pdl\drivers\peripheral\dma/cy_dma.h ****     return ((int32_t) _FLD2VAL(CY_DMA_CTL_SRC_INCR, descriptor->yCtl));
1421:Generated_Source\PSoC6\pdl\drivers\peripheral\dma/cy_dma.h **** }
1422:Generated_Source\PSoC6\pdl\drivers\peripheral\dma/cy_dma.h **** 
1423:Generated_Source\PSoC6\pdl\drivers\peripheral\dma/cy_dma.h **** 
1424:Generated_Source\PSoC6\pdl\drivers\peripheral\dma/cy_dma.h **** /*******************************************************************************
1425:Generated_Source\PSoC6\pdl\drivers\peripheral\dma/cy_dma.h **** * Function Name: Cy_DMA_Descriptor_SetYloopDstIncrement
1426:Generated_Source\PSoC6\pdl\drivers\peripheral\dma/cy_dma.h **** ****************************************************************************//**
1427:Generated_Source\PSoC6\pdl\drivers\peripheral\dma/cy_dma.h **** *
1428:Generated_Source\PSoC6\pdl\drivers\peripheral\dma/cy_dma.h **** * Sets the destination increment parameter for the Y loop of the specified
1429:Generated_Source\PSoC6\pdl\drivers\peripheral\dma/cy_dma.h **** * descriptor (for 2D descriptors only).
1430:Generated_Source\PSoC6\pdl\drivers\peripheral\dma/cy_dma.h **** *
1431:Generated_Source\PSoC6\pdl\drivers\peripheral\dma/cy_dma.h **** * \param descriptor
1432:Generated_Source\PSoC6\pdl\drivers\peripheral\dma/cy_dma.h **** * The descriptor structure instance declared by the user/component.
1433:Generated_Source\PSoC6\pdl\drivers\peripheral\dma/cy_dma.h **** *
1434:Generated_Source\PSoC6\pdl\drivers\peripheral\dma/cy_dma.h **** * \param dstYincrement
1435:Generated_Source\PSoC6\pdl\drivers\peripheral\dma/cy_dma.h **** * The value of the destination increment. The valid range is -2048 ... 2047.
1436:Generated_Source\PSoC6\pdl\drivers\peripheral\dma/cy_dma.h **** *
1437:Generated_Source\PSoC6\pdl\drivers\peripheral\dma/cy_dma.h **** * \funcusage 
1438:Generated_Source\PSoC6\pdl\drivers\peripheral\dma/cy_dma.h **** * \snippet dma\2.10\snippet\main.c snippet_Cy_DMA_Descriptor_SetterFunctions
1439:Generated_Source\PSoC6\pdl\drivers\peripheral\dma/cy_dma.h **** *
1440:Generated_Source\PSoC6\pdl\drivers\peripheral\dma/cy_dma.h **** *******************************************************************************/
1441:Generated_Source\PSoC6\pdl\drivers\peripheral\dma/cy_dma.h **** __STATIC_INLINE void Cy_DMA_Descriptor_SetYloopDstIncrement(cy_stc_dma_descriptor_t * descriptor, i
1442:Generated_Source\PSoC6\pdl\drivers\peripheral\dma/cy_dma.h **** {
1443:Generated_Source\PSoC6\pdl\drivers\peripheral\dma/cy_dma.h ****     CY_ASSERT_L1(CY_DMA_2D_TRANSFER == Cy_DMA_Descriptor_GetDescriptorType(descriptor));
1444:Generated_Source\PSoC6\pdl\drivers\peripheral\dma/cy_dma.h ****     CY_ASSERT_L2(CY_DMA_IS_LOOP_INCR_VALID(dstYincrement));
1445:Generated_Source\PSoC6\pdl\drivers\peripheral\dma/cy_dma.h ****     
1446:Generated_Source\PSoC6\pdl\drivers\peripheral\dma/cy_dma.h ****     CY_REG32_CLR_SET(descriptor->yCtl, CY_DMA_CTL_DST_INCR, dstYincrement);
1447:Generated_Source\PSoC6\pdl\drivers\peripheral\dma/cy_dma.h **** }
1448:Generated_Source\PSoC6\pdl\drivers\peripheral\dma/cy_dma.h **** 
1449:Generated_Source\PSoC6\pdl\drivers\peripheral\dma/cy_dma.h **** 
1450:Generated_Source\PSoC6\pdl\drivers\peripheral\dma/cy_dma.h **** /*******************************************************************************
1451:Generated_Source\PSoC6\pdl\drivers\peripheral\dma/cy_dma.h **** * Function Name: Cy_DMA_Descriptor_GetYloopDstIncrement
1452:Generated_Source\PSoC6\pdl\drivers\peripheral\dma/cy_dma.h **** ****************************************************************************//**
1453:Generated_Source\PSoC6\pdl\drivers\peripheral\dma/cy_dma.h **** *
1454:Generated_Source\PSoC6\pdl\drivers\peripheral\dma/cy_dma.h **** * Returns the destination increment parameter for the Y loop of the specified
1455:Generated_Source\PSoC6\pdl\drivers\peripheral\dma/cy_dma.h **** * descriptor (for 2D descriptors only). 
1456:Generated_Source\PSoC6\pdl\drivers\peripheral\dma/cy_dma.h **** *
1457:Generated_Source\PSoC6\pdl\drivers\peripheral\dma/cy_dma.h **** * \param descriptor
1458:Generated_Source\PSoC6\pdl\drivers\peripheral\dma/cy_dma.h **** * The descriptor structure instance declared by the user/component.
1459:Generated_Source\PSoC6\pdl\drivers\peripheral\dma/cy_dma.h **** *
1460:Generated_Source\PSoC6\pdl\drivers\peripheral\dma/cy_dma.h **** * \return
1461:Generated_Source\PSoC6\pdl\drivers\peripheral\dma/cy_dma.h **** * The value of the destination increment. The range is -2048 ... 2047.
ARM GAS  C:\Users\stijn\AppData\Local\Temp\ccPWVksW.s 			page 28


1462:Generated_Source\PSoC6\pdl\drivers\peripheral\dma/cy_dma.h **** *
1463:Generated_Source\PSoC6\pdl\drivers\peripheral\dma/cy_dma.h **** * \funcusage 
1464:Generated_Source\PSoC6\pdl\drivers\peripheral\dma/cy_dma.h **** * \snippet dma\2.10\snippet\main.c snippet_Cy_DMA_Descriptor_GetterFunctions
1465:Generated_Source\PSoC6\pdl\drivers\peripheral\dma/cy_dma.h **** *  
1466:Generated_Source\PSoC6\pdl\drivers\peripheral\dma/cy_dma.h **** *******************************************************************************/
1467:Generated_Source\PSoC6\pdl\drivers\peripheral\dma/cy_dma.h **** __STATIC_INLINE int32_t Cy_DMA_Descriptor_GetYloopDstIncrement(cy_stc_dma_descriptor_t const * desc
1468:Generated_Source\PSoC6\pdl\drivers\peripheral\dma/cy_dma.h **** {
1469:Generated_Source\PSoC6\pdl\drivers\peripheral\dma/cy_dma.h ****     CY_ASSERT_L1(CY_DMA_2D_TRANSFER == Cy_DMA_Descriptor_GetDescriptorType(descriptor));
1470:Generated_Source\PSoC6\pdl\drivers\peripheral\dma/cy_dma.h ****     
1471:Generated_Source\PSoC6\pdl\drivers\peripheral\dma/cy_dma.h ****     return ((int32_t) _FLD2VAL(CY_DMA_CTL_DST_INCR, descriptor->yCtl));
1472:Generated_Source\PSoC6\pdl\drivers\peripheral\dma/cy_dma.h **** }
1473:Generated_Source\PSoC6\pdl\drivers\peripheral\dma/cy_dma.h **** 
1474:Generated_Source\PSoC6\pdl\drivers\peripheral\dma/cy_dma.h **** 
1475:Generated_Source\PSoC6\pdl\drivers\peripheral\dma/cy_dma.h **** /** \} group_dma_descriptor_functions */
1476:Generated_Source\PSoC6\pdl\drivers\peripheral\dma/cy_dma.h **** 
1477:Generated_Source\PSoC6\pdl\drivers\peripheral\dma/cy_dma.h **** 
1478:Generated_Source\PSoC6\pdl\drivers\peripheral\dma/cy_dma.h **** /**
1479:Generated_Source\PSoC6\pdl\drivers\peripheral\dma/cy_dma.h **** * \addtogroup group_dma_channel_functions
1480:Generated_Source\PSoC6\pdl\drivers\peripheral\dma/cy_dma.h **** * \{
1481:Generated_Source\PSoC6\pdl\drivers\peripheral\dma/cy_dma.h **** */
1482:Generated_Source\PSoC6\pdl\drivers\peripheral\dma/cy_dma.h **** 
1483:Generated_Source\PSoC6\pdl\drivers\peripheral\dma/cy_dma.h **** 
1484:Generated_Source\PSoC6\pdl\drivers\peripheral\dma/cy_dma.h **** /*******************************************************************************
1485:Generated_Source\PSoC6\pdl\drivers\peripheral\dma/cy_dma.h **** * Function Name: Cy_DMA_Channel_SetDescriptor
1486:Generated_Source\PSoC6\pdl\drivers\peripheral\dma/cy_dma.h **** ****************************************************************************//**
1487:Generated_Source\PSoC6\pdl\drivers\peripheral\dma/cy_dma.h **** *
1488:Generated_Source\PSoC6\pdl\drivers\peripheral\dma/cy_dma.h **** * Sets a descriptor as current for the specified DMA channel.
1489:Generated_Source\PSoC6\pdl\drivers\peripheral\dma/cy_dma.h **** *
1490:Generated_Source\PSoC6\pdl\drivers\peripheral\dma/cy_dma.h **** * \param base
1491:Generated_Source\PSoC6\pdl\drivers\peripheral\dma/cy_dma.h **** * The pointer to the hardware DMA block.
1492:Generated_Source\PSoC6\pdl\drivers\peripheral\dma/cy_dma.h **** *
1493:Generated_Source\PSoC6\pdl\drivers\peripheral\dma/cy_dma.h **** * \param channel
1494:Generated_Source\PSoC6\pdl\drivers\peripheral\dma/cy_dma.h **** * The channel number.
1495:Generated_Source\PSoC6\pdl\drivers\peripheral\dma/cy_dma.h **** *
1496:Generated_Source\PSoC6\pdl\drivers\peripheral\dma/cy_dma.h **** * \param descriptor
1497:Generated_Source\PSoC6\pdl\drivers\peripheral\dma/cy_dma.h **** * This is the descriptor to be associated with the channel.
1498:Generated_Source\PSoC6\pdl\drivers\peripheral\dma/cy_dma.h **** *
1499:Generated_Source\PSoC6\pdl\drivers\peripheral\dma/cy_dma.h **** * \funcusage 
1500:Generated_Source\PSoC6\pdl\drivers\peripheral\dma/cy_dma.h **** * \snippet dma\2.10\snippet\main.c snippet_Cy_DMA_Enable
1501:Generated_Source\PSoC6\pdl\drivers\peripheral\dma/cy_dma.h **** *
1502:Generated_Source\PSoC6\pdl\drivers\peripheral\dma/cy_dma.h **** *******************************************************************************/
1503:Generated_Source\PSoC6\pdl\drivers\peripheral\dma/cy_dma.h **** __STATIC_INLINE void Cy_DMA_Channel_SetDescriptor(DW_Type * base, uint32_t channel, cy_stc_dma_desc
1504:Generated_Source\PSoC6\pdl\drivers\peripheral\dma/cy_dma.h **** {
  72              		.loc 1 1504 0
  73              		.cfi_startproc
  74              		@ args = 0, pretend = 0, frame = 16
  75              		@ frame_needed = 1, uses_anonymous_args = 0
  76 0000 80B5     		push	{r7, lr}
  77              		.cfi_def_cfa_offset 8
  78              		.cfi_offset 7, -8
  79              		.cfi_offset 14, -4
  80 0002 84B0     		sub	sp, sp, #16
  81              		.cfi_def_cfa_offset 24
  82 0004 00AF     		add	r7, sp, #0
  83              		.cfi_def_cfa_register 7
  84 0006 F860     		str	r0, [r7, #12]
  85 0008 B960     		str	r1, [r7, #8]
ARM GAS  C:\Users\stijn\AppData\Local\Temp\ccPWVksW.s 			page 29


  86 000a 7A60     		str	r2, [r7, #4]
1505:Generated_Source\PSoC6\pdl\drivers\peripheral\dma/cy_dma.h ****     CY_ASSERT_L1(CY_DMA_IS_CH_NR_VALID(channel));
  87              		.loc 1 1505 0
  88 000c 244B     		ldr	r3, .L5
  89 000e 1B68     		ldr	r3, [r3]
  90 0010 93F83330 		ldrb	r3, [r3, #51]	@ zero_extendqisi2
  91 0014 1A46     		mov	r2, r3
  92 0016 BB68     		ldr	r3, [r7, #8]
  93 0018 9A42     		cmp	r2, r3
  94 001a 04D8     		bhi	.L4
  95              		.loc 1 1505 0 is_stmt 0 discriminator 1
  96 001c 40F2E151 		movw	r1, #1505
  97 0020 2048     		ldr	r0, .L5+4
  98 0022 FFF7FEFF 		bl	Cy_SysLib_AssertFailed
  99              	.L4:
1506:Generated_Source\PSoC6\pdl\drivers\peripheral\dma/cy_dma.h ****     
1507:Generated_Source\PSoC6\pdl\drivers\peripheral\dma/cy_dma.h ****     DW_CH_CURR_PTR(base, channel) = (uint32_t)descriptor;
 100              		.loc 1 1507 0 is_stmt 1
 101 0026 1E4B     		ldr	r3, .L5
 102 0028 1B68     		ldr	r3, [r3]
 103 002a B3F85A30 		ldrh	r3, [r3, #90]
 104 002e 1A46     		mov	r2, r3
 105 0030 FB68     		ldr	r3, [r7, #12]
 106 0032 1A44     		add	r2, r2, r3
 107 0034 1A4B     		ldr	r3, .L5
 108 0036 1B68     		ldr	r3, [r3]
 109 0038 B3F85C30 		ldrh	r3, [r3, #92]
 110 003c 1946     		mov	r1, r3
 111 003e BB68     		ldr	r3, [r7, #8]
 112 0040 03FB01F3 		mul	r3, r3, r1
 113 0044 1344     		add	r3, r3, r2
 114 0046 1A46     		mov	r2, r3
 115 0048 7B68     		ldr	r3, [r7, #4]
 116 004a D360     		str	r3, [r2, #12]
1508:Generated_Source\PSoC6\pdl\drivers\peripheral\dma/cy_dma.h ****     DW_CH_IDX(base, channel) &= (uint32_t) ~(DW_CH_STRUCT_CH_IDX_X_IDX_Msk | DW_CH_STRUCT_CH_IDX_Y_
 117              		.loc 1 1508 0
 118 004c 144B     		ldr	r3, .L5
 119 004e 1B68     		ldr	r3, [r3]
 120 0050 B3F85A30 		ldrh	r3, [r3, #90]
 121 0054 1A46     		mov	r2, r3
 122 0056 FB68     		ldr	r3, [r7, #12]
 123 0058 1A44     		add	r2, r2, r3
 124 005a 114B     		ldr	r3, .L5
 125 005c 1B68     		ldr	r3, [r3]
 126 005e B3F85C30 		ldrh	r3, [r3, #92]
 127 0062 1946     		mov	r1, r3
 128 0064 BB68     		ldr	r3, [r7, #8]
 129 0066 03FB01F3 		mul	r3, r3, r1
 130 006a 1344     		add	r3, r3, r2
 131 006c 1946     		mov	r1, r3
 132 006e 0C4B     		ldr	r3, .L5
 133 0070 1B68     		ldr	r3, [r3]
 134 0072 B3F85A30 		ldrh	r3, [r3, #90]
 135 0076 1A46     		mov	r2, r3
 136 0078 FB68     		ldr	r3, [r7, #12]
 137 007a 1A44     		add	r2, r2, r3
 138 007c 084B     		ldr	r3, .L5
ARM GAS  C:\Users\stijn\AppData\Local\Temp\ccPWVksW.s 			page 30


 139 007e 1B68     		ldr	r3, [r3]
 140 0080 B3F85C30 		ldrh	r3, [r3, #92]
 141 0084 1846     		mov	r0, r3
 142 0086 BB68     		ldr	r3, [r7, #8]
 143 0088 03FB00F3 		mul	r3, r3, r0
 144 008c 1344     		add	r3, r3, r2
 145 008e 9B68     		ldr	r3, [r3, #8]
 146 0090 1B0C     		lsrs	r3, r3, #16
 147 0092 1B04     		lsls	r3, r3, #16
 148 0094 8B60     		str	r3, [r1, #8]
1509:Generated_Source\PSoC6\pdl\drivers\peripheral\dma/cy_dma.h **** }
 149              		.loc 1 1509 0
 150 0096 00BF     		nop
 151 0098 1037     		adds	r7, r7, #16
 152              		.cfi_def_cfa_offset 8
 153 009a BD46     		mov	sp, r7
 154              		.cfi_def_cfa_register 13
 155              		@ sp needed
 156 009c 80BD     		pop	{r7, pc}
 157              	.L6:
 158 009e 00BF     		.align	2
 159              	.L5:
 160 00a0 00000000 		.word	cy_device
 161 00a4 00000000 		.word	.LC0
 162              		.cfi_endproc
 163              	.LFE170:
 164              		.size	Cy_DMA_Channel_SetDescriptor, .-Cy_DMA_Channel_SetDescriptor
 165              		.section	.text.Cy_DMA_Crc_Init,"ax",%progbits
 166              		.align	2
 167              		.global	Cy_DMA_Crc_Init
 168              		.thumb
 169              		.thumb_func
 170              		.type	Cy_DMA_Crc_Init, %function
 171              	Cy_DMA_Crc_Init:
 172              	.LFB183:
 173              		.file 2 "Generated_Source\\PSoC6\\pdl\\drivers\\peripheral\\dma\\cy_dma.c"
   1:Generated_Source\PSoC6\pdl\drivers\peripheral\dma/cy_dma.c **** /***************************************************************************//**
   2:Generated_Source\PSoC6\pdl\drivers\peripheral\dma/cy_dma.c **** * \file cy_dma.c
   3:Generated_Source\PSoC6\pdl\drivers\peripheral\dma/cy_dma.c **** * \version 2.10
   4:Generated_Source\PSoC6\pdl\drivers\peripheral\dma/cy_dma.c **** *
   5:Generated_Source\PSoC6\pdl\drivers\peripheral\dma/cy_dma.c **** * \brief
   6:Generated_Source\PSoC6\pdl\drivers\peripheral\dma/cy_dma.c **** * The source code file for the DMA driver.
   7:Generated_Source\PSoC6\pdl\drivers\peripheral\dma/cy_dma.c **** *
   8:Generated_Source\PSoC6\pdl\drivers\peripheral\dma/cy_dma.c **** ********************************************************************************
   9:Generated_Source\PSoC6\pdl\drivers\peripheral\dma/cy_dma.c **** * \copyright
  10:Generated_Source\PSoC6\pdl\drivers\peripheral\dma/cy_dma.c **** * Copyright 2016-2018, Cypress Semiconductor Corporation. All rights reserved.
  11:Generated_Source\PSoC6\pdl\drivers\peripheral\dma/cy_dma.c **** * You may use this file only in accordance with the license, terms, conditions,
  12:Generated_Source\PSoC6\pdl\drivers\peripheral\dma/cy_dma.c **** * disclaimers, and limitations in the end user license agreement accompanying
  13:Generated_Source\PSoC6\pdl\drivers\peripheral\dma/cy_dma.c **** * the software package with which this file was provided.
  14:Generated_Source\PSoC6\pdl\drivers\peripheral\dma/cy_dma.c **** *******************************************************************************/
  15:Generated_Source\PSoC6\pdl\drivers\peripheral\dma/cy_dma.c **** 
  16:Generated_Source\PSoC6\pdl\drivers\peripheral\dma/cy_dma.c **** #include "cy_dma.h"
  17:Generated_Source\PSoC6\pdl\drivers\peripheral\dma/cy_dma.c **** 
  18:Generated_Source\PSoC6\pdl\drivers\peripheral\dma/cy_dma.c **** #ifdef CY_IP_M4CPUSS_DMA
  19:Generated_Source\PSoC6\pdl\drivers\peripheral\dma/cy_dma.c **** 
  20:Generated_Source\PSoC6\pdl\drivers\peripheral\dma/cy_dma.c **** 
  21:Generated_Source\PSoC6\pdl\drivers\peripheral\dma/cy_dma.c **** /*******************************************************************************
ARM GAS  C:\Users\stijn\AppData\Local\Temp\ccPWVksW.s 			page 31


  22:Generated_Source\PSoC6\pdl\drivers\peripheral\dma/cy_dma.c **** * Function Name: Cy_DMA_Crc_Init
  23:Generated_Source\PSoC6\pdl\drivers\peripheral\dma/cy_dma.c **** ****************************************************************************//**
  24:Generated_Source\PSoC6\pdl\drivers\peripheral\dma/cy_dma.c **** *
  25:Generated_Source\PSoC6\pdl\drivers\peripheral\dma/cy_dma.c **** * Initializes the DMA CRC functionality.
  26:Generated_Source\PSoC6\pdl\drivers\peripheral\dma/cy_dma.c **** *
  27:Generated_Source\PSoC6\pdl\drivers\peripheral\dma/cy_dma.c **** * \param base The pointer to the hardware DMA block.
  28:Generated_Source\PSoC6\pdl\drivers\peripheral\dma/cy_dma.c **** *
  29:Generated_Source\PSoC6\pdl\drivers\peripheral\dma/cy_dma.c **** * \param crcConfig The pointer to the CRC configuration structure
  30:Generated_Source\PSoC6\pdl\drivers\peripheral\dma/cy_dma.c **** *                  \ref cy_stc_dma_crc_config_t.
  31:Generated_Source\PSoC6\pdl\drivers\peripheral\dma/cy_dma.c **** *
  32:Generated_Source\PSoC6\pdl\drivers\peripheral\dma/cy_dma.c **** * \return The status /ref cy_en_dma_status_t.
  33:Generated_Source\PSoC6\pdl\drivers\peripheral\dma/cy_dma.c **** *
  34:Generated_Source\PSoC6\pdl\drivers\peripheral\dma/cy_dma.c **** * \funcusage 
  35:Generated_Source\PSoC6\pdl\drivers\peripheral\dma/cy_dma.c **** * \snippet dma\2.10\snippet\main.c snippet_Cy_DMA_Crc_Init
  36:Generated_Source\PSoC6\pdl\drivers\peripheral\dma/cy_dma.c **** *
  37:Generated_Source\PSoC6\pdl\drivers\peripheral\dma/cy_dma.c **** *******************************************************************************/
  38:Generated_Source\PSoC6\pdl\drivers\peripheral\dma/cy_dma.c **** cy_en_dma_status_t Cy_DMA_Crc_Init(DW_Type * base, cy_stc_dma_crc_config_t const * crcConfig)
  39:Generated_Source\PSoC6\pdl\drivers\peripheral\dma/cy_dma.c **** {
 174              		.loc 2 39 0
 175              		.cfi_startproc
 176              		@ args = 0, pretend = 0, frame = 16
 177              		@ frame_needed = 1, uses_anonymous_args = 0
 178              		@ link register save eliminated.
 179 0000 80B4     		push	{r7}
 180              		.cfi_def_cfa_offset 4
 181              		.cfi_offset 7, -4
 182 0002 85B0     		sub	sp, sp, #20
 183              		.cfi_def_cfa_offset 24
 184 0004 00AF     		add	r7, sp, #0
 185              		.cfi_def_cfa_register 7
 186 0006 7860     		str	r0, [r7, #4]
 187 0008 3960     		str	r1, [r7]
  40:Generated_Source\PSoC6\pdl\drivers\peripheral\dma/cy_dma.c ****     cy_en_dma_status_t ret = CY_DMA_BAD_PARAM;
 188              		.loc 2 40 0
 189 000a 1F4B     		ldr	r3, .L14
 190 000c FB60     		str	r3, [r7, #12]
  41:Generated_Source\PSoC6\pdl\drivers\peripheral\dma/cy_dma.c ****     
  42:Generated_Source\PSoC6\pdl\drivers\peripheral\dma/cy_dma.c ****     if((NULL != base) && (NULL != crcConfig) && CY_DW_CRC)
 191              		.loc 2 42 0
 192 000e 7B68     		ldr	r3, [r7, #4]
 193 0010 002B     		cmp	r3, #0
 194 0012 32D0     		beq	.L8
 195              		.loc 2 42 0 is_stmt 0 discriminator 1
 196 0014 3B68     		ldr	r3, [r7]
 197 0016 002B     		cmp	r3, #0
 198 0018 2FD0     		beq	.L8
 199              		.loc 2 42 0 discriminator 2
 200 001a 1C4B     		ldr	r3, .L14+4
 201 001c 1B68     		ldr	r3, [r3]
 202 001e 93F82A30 		ldrb	r3, [r3, #42]	@ zero_extendqisi2
 203 0022 012B     		cmp	r3, #1
 204 0024 29D9     		bls	.L8
  43:Generated_Source\PSoC6\pdl\drivers\peripheral\dma/cy_dma.c ****     {
  44:Generated_Source\PSoC6\pdl\drivers\peripheral\dma/cy_dma.c ****         DW_CRC_CTL(base) = _BOOL2FLD(DW_V2_CRC_CTL_DATA_REVERSE, crcConfig->dataReverse) |
 205              		.loc 2 44 0 is_stmt 1
 206 0026 3B68     		ldr	r3, [r7]
 207 0028 1B78     		ldrb	r3, [r3]	@ zero_extendqisi2
ARM GAS  C:\Users\stijn\AppData\Local\Temp\ccPWVksW.s 			page 32


 208 002a 002B     		cmp	r3, #0
 209 002c 01D0     		beq	.L9
 210              		.loc 2 44 0 is_stmt 0 discriminator 1
 211 002e 0122     		movs	r2, #1
 212 0030 00E0     		b	.L10
 213              	.L9:
 214              		.loc 2 44 0 discriminator 2
 215 0032 0022     		movs	r2, #0
 216              	.L10:
  45:Generated_Source\PSoC6\pdl\drivers\peripheral\dma/cy_dma.c ****                            _BOOL2FLD(DW_V2_CRC_CTL_REM_REVERSE,  crcConfig->reminderReverse);
 217              		.loc 2 45 0 is_stmt 1
 218 0034 3B68     		ldr	r3, [r7]
 219 0036 1B7A     		ldrb	r3, [r3, #8]	@ zero_extendqisi2
 220 0038 002B     		cmp	r3, #0
 221 003a 02D0     		beq	.L11
 222              		.loc 2 45 0 is_stmt 0 discriminator 1
 223 003c 4FF48073 		mov	r3, #256
 224 0040 00E0     		b	.L12
 225              	.L11:
 226              		.loc 2 45 0 discriminator 2
 227 0042 0023     		movs	r3, #0
 228              	.L12:
  44:Generated_Source\PSoC6\pdl\drivers\peripheral\dma/cy_dma.c ****                            _BOOL2FLD(DW_V2_CRC_CTL_REM_REVERSE,  crcConfig->reminderReverse);
 229              		.loc 2 44 0 is_stmt 1
 230 0044 1A43     		orrs	r2, r2, r3
 231 0046 7B68     		ldr	r3, [r7, #4]
 232 0048 C3F80021 		str	r2, [r3, #256]
  46:Generated_Source\PSoC6\pdl\drivers\peripheral\dma/cy_dma.c **** 
  47:Generated_Source\PSoC6\pdl\drivers\peripheral\dma/cy_dma.c ****         DW_CRC_DATA_CTL(base) = _VAL2FLD(DW_V2_CRC_DATA_CTL_DATA_XOR,  crcConfig->dataXor);
 233              		.loc 2 47 0
 234 004c 3B68     		ldr	r3, [r7]
 235 004e 5B68     		ldr	r3, [r3, #4]
 236 0050 DAB2     		uxtb	r2, r3
 237 0052 7B68     		ldr	r3, [r7, #4]
 238 0054 C3F81021 		str	r2, [r3, #272]
  48:Generated_Source\PSoC6\pdl\drivers\peripheral\dma/cy_dma.c ****         DW_CRC_REM_CTL(base)  = _VAL2FLD(DW_V2_CRC_REM_CTL_REM_XOR,    crcConfig->reminderXor);
 239              		.loc 2 48 0
 240 0058 3B68     		ldr	r3, [r7]
 241 005a DA68     		ldr	r2, [r3, #12]
 242 005c 7B68     		ldr	r3, [r7, #4]
 243 005e C3F84021 		str	r2, [r3, #320]
  49:Generated_Source\PSoC6\pdl\drivers\peripheral\dma/cy_dma.c ****         DW_CRC_POL_CTL(base)  = _VAL2FLD(DW_V2_CRC_POL_CTL_POLYNOMIAL, crcConfig->polynomial);
 244              		.loc 2 49 0
 245 0062 3B68     		ldr	r3, [r7]
 246 0064 1A69     		ldr	r2, [r3, #16]
 247 0066 7B68     		ldr	r3, [r7, #4]
 248 0068 C3F82021 		str	r2, [r3, #288]
  50:Generated_Source\PSoC6\pdl\drivers\peripheral\dma/cy_dma.c ****         DW_CRC_LFSR_CTL(base) = _VAL2FLD(DW_V2_CRC_LFSR_CTL_LFSR32,    crcConfig->lfsrInitVal);
 249              		.loc 2 50 0
 250 006c 3B68     		ldr	r3, [r7]
 251 006e 5A69     		ldr	r2, [r3, #20]
 252 0070 7B68     		ldr	r3, [r7, #4]
 253 0072 C3F83021 		str	r2, [r3, #304]
  51:Generated_Source\PSoC6\pdl\drivers\peripheral\dma/cy_dma.c **** 
  52:Generated_Source\PSoC6\pdl\drivers\peripheral\dma/cy_dma.c ****         ret = CY_DMA_SUCCESS;
 254              		.loc 2 52 0
 255 0076 0023     		movs	r3, #0
ARM GAS  C:\Users\stijn\AppData\Local\Temp\ccPWVksW.s 			page 33


 256 0078 FB60     		str	r3, [r7, #12]
 257              	.L8:
  53:Generated_Source\PSoC6\pdl\drivers\peripheral\dma/cy_dma.c ****     }
  54:Generated_Source\PSoC6\pdl\drivers\peripheral\dma/cy_dma.c **** 
  55:Generated_Source\PSoC6\pdl\drivers\peripheral\dma/cy_dma.c ****     return ret;
 258              		.loc 2 55 0
 259 007a FB68     		ldr	r3, [r7, #12]
  56:Generated_Source\PSoC6\pdl\drivers\peripheral\dma/cy_dma.c **** }
 260              		.loc 2 56 0
 261 007c 1846     		mov	r0, r3
 262 007e 1437     		adds	r7, r7, #20
 263              		.cfi_def_cfa_offset 4
 264 0080 BD46     		mov	sp, r7
 265              		.cfi_def_cfa_register 13
 266              		@ sp needed
 267 0082 5DF8047B 		ldr	r7, [sp], #4
 268              		.cfi_restore 7
 269              		.cfi_def_cfa_offset 0
 270 0086 7047     		bx	lr
 271              	.L15:
 272              		.align	2
 273              	.L14:
 274 0088 01004E00 		.word	5111809
 275 008c 00000000 		.word	cy_device
 276              		.cfi_endproc
 277              	.LFE183:
 278              		.size	Cy_DMA_Crc_Init, .-Cy_DMA_Crc_Init
 279              		.section	.rodata
 280 003b 00       		.align	2
 281              	.LC1:
 282 003c 47656E65 		.ascii	"Generated_Source\\PSoC6\\pdl\\drivers\\peripheral\\"
 282      72617465 
 282      645F536F 
 282      75726365 
 282      5C50536F 
 283 006a 646D615C 		.ascii	"dma\\cy_dma.c\000"
 283      63795F64 
 283      6D612E63 
 283      00
 284              		.section	.text.Cy_DMA_Descriptor_Init,"ax",%progbits
 285              		.align	2
 286              		.global	Cy_DMA_Descriptor_Init
 287              		.thumb
 288              		.thumb_func
 289              		.type	Cy_DMA_Descriptor_Init, %function
 290              	Cy_DMA_Descriptor_Init:
 291              	.LFB184:
  57:Generated_Source\PSoC6\pdl\drivers\peripheral\dma/cy_dma.c **** 
  58:Generated_Source\PSoC6\pdl\drivers\peripheral\dma/cy_dma.c **** 
  59:Generated_Source\PSoC6\pdl\drivers\peripheral\dma/cy_dma.c **** /*******************************************************************************
  60:Generated_Source\PSoC6\pdl\drivers\peripheral\dma/cy_dma.c **** * Function Name: Cy_DMA_Descriptor_Init
  61:Generated_Source\PSoC6\pdl\drivers\peripheral\dma/cy_dma.c **** ****************************************************************************//**
  62:Generated_Source\PSoC6\pdl\drivers\peripheral\dma/cy_dma.c **** *
  63:Generated_Source\PSoC6\pdl\drivers\peripheral\dma/cy_dma.c **** * Initializes the descriptor structure in SRAM from a pre-initialized
  64:Generated_Source\PSoC6\pdl\drivers\peripheral\dma/cy_dma.c **** * configuration structure.
  65:Generated_Source\PSoC6\pdl\drivers\peripheral\dma/cy_dma.c **** * This function initializes only the descriptor and not the channel.
  66:Generated_Source\PSoC6\pdl\drivers\peripheral\dma/cy_dma.c **** *
ARM GAS  C:\Users\stijn\AppData\Local\Temp\ccPWVksW.s 			page 34


  67:Generated_Source\PSoC6\pdl\drivers\peripheral\dma/cy_dma.c **** * \param descriptor
  68:Generated_Source\PSoC6\pdl\drivers\peripheral\dma/cy_dma.c **** * The descriptor structure instance declared by the user/component.
  69:Generated_Source\PSoC6\pdl\drivers\peripheral\dma/cy_dma.c **** *
  70:Generated_Source\PSoC6\pdl\drivers\peripheral\dma/cy_dma.c **** * \param config
  71:Generated_Source\PSoC6\pdl\drivers\peripheral\dma/cy_dma.c **** * This is a configuration structure that has all initialization information for
  72:Generated_Source\PSoC6\pdl\drivers\peripheral\dma/cy_dma.c **** * the descriptor.
  73:Generated_Source\PSoC6\pdl\drivers\peripheral\dma/cy_dma.c **** *
  74:Generated_Source\PSoC6\pdl\drivers\peripheral\dma/cy_dma.c **** * \return
  75:Generated_Source\PSoC6\pdl\drivers\peripheral\dma/cy_dma.c **** * The status /ref cy_en_dma_status_t.
  76:Generated_Source\PSoC6\pdl\drivers\peripheral\dma/cy_dma.c **** *
  77:Generated_Source\PSoC6\pdl\drivers\peripheral\dma/cy_dma.c **** * \funcusage 
  78:Generated_Source\PSoC6\pdl\drivers\peripheral\dma/cy_dma.c **** * \snippet dma\2.10\snippet\main.c snippet_Cy_DMA_Enable
  79:Generated_Source\PSoC6\pdl\drivers\peripheral\dma/cy_dma.c **** *
  80:Generated_Source\PSoC6\pdl\drivers\peripheral\dma/cy_dma.c **** *******************************************************************************/
  81:Generated_Source\PSoC6\pdl\drivers\peripheral\dma/cy_dma.c **** cy_en_dma_status_t Cy_DMA_Descriptor_Init(cy_stc_dma_descriptor_t * descriptor, const cy_stc_dma_de
  82:Generated_Source\PSoC6\pdl\drivers\peripheral\dma/cy_dma.c **** {
 292              		.loc 2 82 0
 293              		.cfi_startproc
 294              		@ args = 0, pretend = 0, frame = 16
 295              		@ frame_needed = 1, uses_anonymous_args = 0
 296 0000 80B5     		push	{r7, lr}
 297              		.cfi_def_cfa_offset 8
 298              		.cfi_offset 7, -8
 299              		.cfi_offset 14, -4
 300 0002 84B0     		sub	sp, sp, #16
 301              		.cfi_def_cfa_offset 24
 302 0004 00AF     		add	r7, sp, #0
 303              		.cfi_def_cfa_register 7
 304 0006 7860     		str	r0, [r7, #4]
 305 0008 3960     		str	r1, [r7]
  83:Generated_Source\PSoC6\pdl\drivers\peripheral\dma/cy_dma.c ****     cy_en_dma_status_t ret = CY_DMA_BAD_PARAM;
 306              		.loc 2 83 0
 307 000a 9C4B     		ldr	r3, .L59
 308 000c FB60     		str	r3, [r7, #12]
  84:Generated_Source\PSoC6\pdl\drivers\peripheral\dma/cy_dma.c **** 
  85:Generated_Source\PSoC6\pdl\drivers\peripheral\dma/cy_dma.c ****     if ((NULL != descriptor) && (NULL != config))
 309              		.loc 2 85 0
 310 000e 7B68     		ldr	r3, [r7, #4]
 311 0010 002B     		cmp	r3, #0
 312 0012 00F0EC81 		beq	.L17
 313              		.loc 2 85 0 is_stmt 0 discriminator 1
 314 0016 3B68     		ldr	r3, [r7]
 315 0018 002B     		cmp	r3, #0
 316 001a 00F0E881 		beq	.L17
  86:Generated_Source\PSoC6\pdl\drivers\peripheral\dma/cy_dma.c ****     {
  87:Generated_Source\PSoC6\pdl\drivers\peripheral\dma/cy_dma.c ****         CY_ASSERT_L3(CY_DMA_IS_RETRIG_VALID(config->retrigger));
 317              		.loc 2 87 0 is_stmt 1
 318 001e 3B68     		ldr	r3, [r7]
 319 0020 1B78     		ldrb	r3, [r3]	@ zero_extendqisi2
 320 0022 002B     		cmp	r3, #0
 321 0024 0FD0     		beq	.L18
 322              		.loc 2 87 0 is_stmt 0 discriminator 1
 323 0026 3B68     		ldr	r3, [r7]
 324 0028 1B78     		ldrb	r3, [r3]	@ zero_extendqisi2
 325 002a 012B     		cmp	r3, #1
 326 002c 0BD0     		beq	.L18
 327              		.loc 2 87 0 discriminator 2
ARM GAS  C:\Users\stijn\AppData\Local\Temp\ccPWVksW.s 			page 35


 328 002e 3B68     		ldr	r3, [r7]
 329 0030 1B78     		ldrb	r3, [r3]	@ zero_extendqisi2
 330 0032 022B     		cmp	r3, #2
 331 0034 07D0     		beq	.L18
 332              		.loc 2 87 0 discriminator 3
 333 0036 3B68     		ldr	r3, [r7]
 334 0038 1B78     		ldrb	r3, [r3]	@ zero_extendqisi2
 335 003a 032B     		cmp	r3, #3
 336 003c 03D0     		beq	.L18
 337              		.loc 2 87 0 discriminator 4
 338 003e 5721     		movs	r1, #87
 339 0040 8F48     		ldr	r0, .L59+4
 340 0042 FFF7FEFF 		bl	Cy_SysLib_AssertFailed
 341              	.L18:
  88:Generated_Source\PSoC6\pdl\drivers\peripheral\dma/cy_dma.c ****         CY_ASSERT_L3(CY_DMA_IS_TRIG_TYPE_VALID(config->interruptType));
 342              		.loc 2 88 0 is_stmt 1
 343 0046 3B68     		ldr	r3, [r7]
 344 0048 5B78     		ldrb	r3, [r3, #1]	@ zero_extendqisi2
 345 004a 002B     		cmp	r3, #0
 346 004c 0FD0     		beq	.L19
 347              		.loc 2 88 0 is_stmt 0 discriminator 1
 348 004e 3B68     		ldr	r3, [r7]
 349 0050 5B78     		ldrb	r3, [r3, #1]	@ zero_extendqisi2
 350 0052 012B     		cmp	r3, #1
 351 0054 0BD0     		beq	.L19
 352              		.loc 2 88 0 discriminator 2
 353 0056 3B68     		ldr	r3, [r7]
 354 0058 5B78     		ldrb	r3, [r3, #1]	@ zero_extendqisi2
 355 005a 022B     		cmp	r3, #2
 356 005c 07D0     		beq	.L19
 357              		.loc 2 88 0 discriminator 3
 358 005e 3B68     		ldr	r3, [r7]
 359 0060 5B78     		ldrb	r3, [r3, #1]	@ zero_extendqisi2
 360 0062 032B     		cmp	r3, #3
 361 0064 03D0     		beq	.L19
 362              		.loc 2 88 0 discriminator 4
 363 0066 5821     		movs	r1, #88
 364 0068 8548     		ldr	r0, .L59+4
 365 006a FFF7FEFF 		bl	Cy_SysLib_AssertFailed
 366              	.L19:
  89:Generated_Source\PSoC6\pdl\drivers\peripheral\dma/cy_dma.c ****         CY_ASSERT_L3(CY_DMA_IS_TRIG_TYPE_VALID(config->triggerOutType));
 367              		.loc 2 89 0 is_stmt 1
 368 006e 3B68     		ldr	r3, [r7]
 369 0070 9B78     		ldrb	r3, [r3, #2]	@ zero_extendqisi2
 370 0072 002B     		cmp	r3, #0
 371 0074 0FD0     		beq	.L20
 372              		.loc 2 89 0 is_stmt 0 discriminator 1
 373 0076 3B68     		ldr	r3, [r7]
 374 0078 9B78     		ldrb	r3, [r3, #2]	@ zero_extendqisi2
 375 007a 012B     		cmp	r3, #1
 376 007c 0BD0     		beq	.L20
 377              		.loc 2 89 0 discriminator 2
 378 007e 3B68     		ldr	r3, [r7]
 379 0080 9B78     		ldrb	r3, [r3, #2]	@ zero_extendqisi2
 380 0082 022B     		cmp	r3, #2
 381 0084 07D0     		beq	.L20
 382              		.loc 2 89 0 discriminator 3
ARM GAS  C:\Users\stijn\AppData\Local\Temp\ccPWVksW.s 			page 36


 383 0086 3B68     		ldr	r3, [r7]
 384 0088 9B78     		ldrb	r3, [r3, #2]	@ zero_extendqisi2
 385 008a 032B     		cmp	r3, #3
 386 008c 03D0     		beq	.L20
 387              		.loc 2 89 0 discriminator 4
 388 008e 5921     		movs	r1, #89
 389 0090 7B48     		ldr	r0, .L59+4
 390 0092 FFF7FEFF 		bl	Cy_SysLib_AssertFailed
 391              	.L20:
  90:Generated_Source\PSoC6\pdl\drivers\peripheral\dma/cy_dma.c ****         CY_ASSERT_L3(CY_DMA_IS_TRIG_TYPE_VALID(config->triggerInType));
 392              		.loc 2 90 0 is_stmt 1
 393 0096 3B68     		ldr	r3, [r7]
 394 0098 1B79     		ldrb	r3, [r3, #4]	@ zero_extendqisi2
 395 009a 002B     		cmp	r3, #0
 396 009c 0FD0     		beq	.L21
 397              		.loc 2 90 0 is_stmt 0 discriminator 1
 398 009e 3B68     		ldr	r3, [r7]
 399 00a0 1B79     		ldrb	r3, [r3, #4]	@ zero_extendqisi2
 400 00a2 012B     		cmp	r3, #1
 401 00a4 0BD0     		beq	.L21
 402              		.loc 2 90 0 discriminator 2
 403 00a6 3B68     		ldr	r3, [r7]
 404 00a8 1B79     		ldrb	r3, [r3, #4]	@ zero_extendqisi2
 405 00aa 022B     		cmp	r3, #2
 406 00ac 07D0     		beq	.L21
 407              		.loc 2 90 0 discriminator 3
 408 00ae 3B68     		ldr	r3, [r7]
 409 00b0 1B79     		ldrb	r3, [r3, #4]	@ zero_extendqisi2
 410 00b2 032B     		cmp	r3, #3
 411 00b4 03D0     		beq	.L21
 412              		.loc 2 90 0 discriminator 4
 413 00b6 5A21     		movs	r1, #90
 414 00b8 7148     		ldr	r0, .L59+4
 415 00ba FFF7FEFF 		bl	Cy_SysLib_AssertFailed
 416              	.L21:
  91:Generated_Source\PSoC6\pdl\drivers\peripheral\dma/cy_dma.c ****         CY_ASSERT_L3(CY_DMA_IS_XFER_SIZE_VALID(config->srcTransferSize));
 417              		.loc 2 91 0 is_stmt 1
 418 00be 3B68     		ldr	r3, [r7]
 419 00c0 9B79     		ldrb	r3, [r3, #6]	@ zero_extendqisi2
 420 00c2 002B     		cmp	r3, #0
 421 00c4 07D0     		beq	.L22
 422              		.loc 2 91 0 is_stmt 0 discriminator 1
 423 00c6 3B68     		ldr	r3, [r7]
 424 00c8 9B79     		ldrb	r3, [r3, #6]	@ zero_extendqisi2
 425 00ca 012B     		cmp	r3, #1
 426 00cc 03D0     		beq	.L22
 427              		.loc 2 91 0 discriminator 2
 428 00ce 5B21     		movs	r1, #91
 429 00d0 6B48     		ldr	r0, .L59+4
 430 00d2 FFF7FEFF 		bl	Cy_SysLib_AssertFailed
 431              	.L22:
  92:Generated_Source\PSoC6\pdl\drivers\peripheral\dma/cy_dma.c ****         CY_ASSERT_L3(CY_DMA_IS_XFER_SIZE_VALID(config->dstTransferSize));
 432              		.loc 2 92 0 is_stmt 1
 433 00d6 3B68     		ldr	r3, [r7]
 434 00d8 DB79     		ldrb	r3, [r3, #7]	@ zero_extendqisi2
 435 00da 002B     		cmp	r3, #0
 436 00dc 07D0     		beq	.L23
ARM GAS  C:\Users\stijn\AppData\Local\Temp\ccPWVksW.s 			page 37


 437              		.loc 2 92 0 is_stmt 0 discriminator 1
 438 00de 3B68     		ldr	r3, [r7]
 439 00e0 DB79     		ldrb	r3, [r3, #7]	@ zero_extendqisi2
 440 00e2 012B     		cmp	r3, #1
 441 00e4 03D0     		beq	.L23
 442              		.loc 2 92 0 discriminator 2
 443 00e6 5C21     		movs	r1, #92
 444 00e8 6548     		ldr	r0, .L59+4
 445 00ea FFF7FEFF 		bl	Cy_SysLib_AssertFailed
 446              	.L23:
  93:Generated_Source\PSoC6\pdl\drivers\peripheral\dma/cy_dma.c ****         CY_ASSERT_L3(CY_DMA_IS_CHANNEL_STATE_VALID(config->channelState));
 447              		.loc 2 93 0 is_stmt 1
 448 00ee 3B68     		ldr	r3, [r7]
 449 00f0 DB78     		ldrb	r3, [r3, #3]	@ zero_extendqisi2
 450 00f2 002B     		cmp	r3, #0
 451 00f4 07D0     		beq	.L24
 452              		.loc 2 93 0 is_stmt 0 discriminator 1
 453 00f6 3B68     		ldr	r3, [r7]
 454 00f8 DB78     		ldrb	r3, [r3, #3]	@ zero_extendqisi2
 455 00fa 012B     		cmp	r3, #1
 456 00fc 03D0     		beq	.L24
 457              		.loc 2 93 0 discriminator 2
 458 00fe 5D21     		movs	r1, #93
 459 0100 5F48     		ldr	r0, .L59+4
 460 0102 FFF7FEFF 		bl	Cy_SysLib_AssertFailed
 461              	.L24:
  94:Generated_Source\PSoC6\pdl\drivers\peripheral\dma/cy_dma.c ****         CY_ASSERT_L3(CY_DMA_IS_DATA_SIZE_VALID(config->dataSize));
 462              		.loc 2 94 0 is_stmt 1
 463 0106 3B68     		ldr	r3, [r7]
 464 0108 5B79     		ldrb	r3, [r3, #5]	@ zero_extendqisi2
 465 010a 002B     		cmp	r3, #0
 466 010c 0BD0     		beq	.L25
 467              		.loc 2 94 0 is_stmt 0 discriminator 1
 468 010e 3B68     		ldr	r3, [r7]
 469 0110 5B79     		ldrb	r3, [r3, #5]	@ zero_extendqisi2
 470 0112 012B     		cmp	r3, #1
 471 0114 07D0     		beq	.L25
 472              		.loc 2 94 0 discriminator 2
 473 0116 3B68     		ldr	r3, [r7]
 474 0118 5B79     		ldrb	r3, [r3, #5]	@ zero_extendqisi2
 475 011a 022B     		cmp	r3, #2
 476 011c 03D0     		beq	.L25
 477              		.loc 2 94 0 discriminator 3
 478 011e 5E21     		movs	r1, #94
 479 0120 5748     		ldr	r0, .L59+4
 480 0122 FFF7FEFF 		bl	Cy_SysLib_AssertFailed
 481              	.L25:
  95:Generated_Source\PSoC6\pdl\drivers\peripheral\dma/cy_dma.c ****         CY_ASSERT_L3(CY_DMA_IS_TYPE_VALID(config->descriptorType));
 482              		.loc 2 95 0 is_stmt 1
 483 0126 3B68     		ldr	r3, [r7]
 484 0128 1B7A     		ldrb	r3, [r3, #8]	@ zero_extendqisi2
 485 012a 002B     		cmp	r3, #0
 486 012c 0FD0     		beq	.L26
 487              		.loc 2 95 0 is_stmt 0 discriminator 1
 488 012e 3B68     		ldr	r3, [r7]
 489 0130 1B7A     		ldrb	r3, [r3, #8]	@ zero_extendqisi2
 490 0132 012B     		cmp	r3, #1
ARM GAS  C:\Users\stijn\AppData\Local\Temp\ccPWVksW.s 			page 38


 491 0134 0BD0     		beq	.L26
 492              		.loc 2 95 0 discriminator 2
 493 0136 3B68     		ldr	r3, [r7]
 494 0138 1B7A     		ldrb	r3, [r3, #8]	@ zero_extendqisi2
 495 013a 022B     		cmp	r3, #2
 496 013c 07D0     		beq	.L26
 497              		.loc 2 95 0 discriminator 3
 498 013e 3B68     		ldr	r3, [r7]
 499 0140 1B7A     		ldrb	r3, [r3, #8]	@ zero_extendqisi2
 500 0142 032B     		cmp	r3, #3
 501 0144 03D0     		beq	.L26
 502              		.loc 2 95 0 discriminator 4
 503 0146 5F21     		movs	r1, #95
 504 0148 4D48     		ldr	r0, .L59+4
 505 014a FFF7FEFF 		bl	Cy_SysLib_AssertFailed
 506              	.L26:
  96:Generated_Source\PSoC6\pdl\drivers\peripheral\dma/cy_dma.c **** 
  97:Generated_Source\PSoC6\pdl\drivers\peripheral\dma/cy_dma.c ****         descriptor->ctl =
  98:Generated_Source\PSoC6\pdl\drivers\peripheral\dma/cy_dma.c ****             _VAL2FLD(CY_DMA_CTL_RETRIG, config->retrigger) |
 507              		.loc 2 98 0 is_stmt 1
 508 014e 3B68     		ldr	r3, [r7]
 509 0150 1B78     		ldrb	r3, [r3]	@ zero_extendqisi2
 510 0152 03F00302 		and	r2, r3, #3
  99:Generated_Source\PSoC6\pdl\drivers\peripheral\dma/cy_dma.c ****             _VAL2FLD(CY_DMA_CTL_INTR_TYPE, config->interruptType) |
 511              		.loc 2 99 0
 512 0156 3B68     		ldr	r3, [r7]
 513 0158 5B78     		ldrb	r3, [r3, #1]	@ zero_extendqisi2
 514 015a 9B00     		lsls	r3, r3, #2
 515 015c 03F00C03 		and	r3, r3, #12
  98:Generated_Source\PSoC6\pdl\drivers\peripheral\dma/cy_dma.c ****             _VAL2FLD(CY_DMA_CTL_INTR_TYPE, config->interruptType) |
 516              		.loc 2 98 0
 517 0160 1A43     		orrs	r2, r2, r3
 100:Generated_Source\PSoC6\pdl\drivers\peripheral\dma/cy_dma.c ****             _VAL2FLD(CY_DMA_CTL_TR_OUT_TYPE, config->triggerOutType) |
 518              		.loc 2 100 0
 519 0162 3B68     		ldr	r3, [r7]
 520 0164 9B78     		ldrb	r3, [r3, #2]	@ zero_extendqisi2
 521 0166 1B01     		lsls	r3, r3, #4
 522 0168 03F03003 		and	r3, r3, #48
  99:Generated_Source\PSoC6\pdl\drivers\peripheral\dma/cy_dma.c ****             _VAL2FLD(CY_DMA_CTL_INTR_TYPE, config->interruptType) |
 523              		.loc 2 99 0
 524 016c 1A43     		orrs	r2, r2, r3
 101:Generated_Source\PSoC6\pdl\drivers\peripheral\dma/cy_dma.c ****             _VAL2FLD(CY_DMA_CTL_TR_IN_TYPE, config->triggerInType) |
 525              		.loc 2 101 0
 526 016e 3B68     		ldr	r3, [r7]
 527 0170 1B79     		ldrb	r3, [r3, #4]	@ zero_extendqisi2
 528 0172 9B01     		lsls	r3, r3, #6
 529 0174 DBB2     		uxtb	r3, r3
 100:Generated_Source\PSoC6\pdl\drivers\peripheral\dma/cy_dma.c ****             _VAL2FLD(CY_DMA_CTL_TR_OUT_TYPE, config->triggerOutType) |
 530              		.loc 2 100 0
 531 0176 1A43     		orrs	r2, r2, r3
 102:Generated_Source\PSoC6\pdl\drivers\peripheral\dma/cy_dma.c ****             _VAL2FLD(CY_DMA_CTL_SRC_SIZE, config->srcTransferSize) |
 532              		.loc 2 102 0
 533 0178 3B68     		ldr	r3, [r7]
 534 017a 9B79     		ldrb	r3, [r3, #6]	@ zero_extendqisi2
 535 017c 9B06     		lsls	r3, r3, #26
 536 017e 03F08063 		and	r3, r3, #67108864
 101:Generated_Source\PSoC6\pdl\drivers\peripheral\dma/cy_dma.c ****             _VAL2FLD(CY_DMA_CTL_TR_IN_TYPE, config->triggerInType) |
ARM GAS  C:\Users\stijn\AppData\Local\Temp\ccPWVksW.s 			page 39


 537              		.loc 2 101 0
 538 0182 1A43     		orrs	r2, r2, r3
 103:Generated_Source\PSoC6\pdl\drivers\peripheral\dma/cy_dma.c ****             _VAL2FLD(CY_DMA_CTL_DST_SIZE, config->dstTransferSize) |
 539              		.loc 2 103 0
 540 0184 3B68     		ldr	r3, [r7]
 541 0186 DB79     		ldrb	r3, [r3, #7]	@ zero_extendqisi2
 542 0188 DB06     		lsls	r3, r3, #27
 543 018a 03F00063 		and	r3, r3, #134217728
 102:Generated_Source\PSoC6\pdl\drivers\peripheral\dma/cy_dma.c ****             _VAL2FLD(CY_DMA_CTL_SRC_SIZE, config->srcTransferSize) |
 544              		.loc 2 102 0
 545 018e 1A43     		orrs	r2, r2, r3
 104:Generated_Source\PSoC6\pdl\drivers\peripheral\dma/cy_dma.c ****             _VAL2FLD(CY_DMA_CTL_CH_DISABLE, config->channelState) |
 546              		.loc 2 104 0
 547 0190 3B68     		ldr	r3, [r7]
 548 0192 DB78     		ldrb	r3, [r3, #3]	@ zero_extendqisi2
 549 0194 1B06     		lsls	r3, r3, #24
 550 0196 03F08073 		and	r3, r3, #16777216
 103:Generated_Source\PSoC6\pdl\drivers\peripheral\dma/cy_dma.c ****             _VAL2FLD(CY_DMA_CTL_DST_SIZE, config->dstTransferSize) |
 551              		.loc 2 103 0
 552 019a 1A43     		orrs	r2, r2, r3
 105:Generated_Source\PSoC6\pdl\drivers\peripheral\dma/cy_dma.c ****             _VAL2FLD(CY_DMA_CTL_DATA_SIZE, config->dataSize) |
 553              		.loc 2 105 0
 554 019c 3B68     		ldr	r3, [r7]
 555 019e 5B79     		ldrb	r3, [r3, #5]	@ zero_extendqisi2
 556 01a0 1B07     		lsls	r3, r3, #28
 557 01a2 03F04053 		and	r3, r3, #805306368
 104:Generated_Source\PSoC6\pdl\drivers\peripheral\dma/cy_dma.c ****             _VAL2FLD(CY_DMA_CTL_CH_DISABLE, config->channelState) |
 558              		.loc 2 104 0
 559 01a6 1A43     		orrs	r2, r2, r3
 106:Generated_Source\PSoC6\pdl\drivers\peripheral\dma/cy_dma.c ****             _VAL2FLD(CY_DMA_CTL_TYPE, config->descriptorType);
 560              		.loc 2 106 0
 561 01a8 3B68     		ldr	r3, [r7]
 562 01aa 1B7A     		ldrb	r3, [r3, #8]	@ zero_extendqisi2
 563 01ac 9B07     		lsls	r3, r3, #30
 105:Generated_Source\PSoC6\pdl\drivers\peripheral\dma/cy_dma.c ****             _VAL2FLD(CY_DMA_CTL_DATA_SIZE, config->dataSize) |
 564              		.loc 2 105 0
 565 01ae 1A43     		orrs	r2, r2, r3
  97:Generated_Source\PSoC6\pdl\drivers\peripheral\dma/cy_dma.c ****             _VAL2FLD(CY_DMA_CTL_RETRIG, config->retrigger) |
 566              		.loc 2 97 0
 567 01b0 7B68     		ldr	r3, [r7, #4]
 568 01b2 1A60     		str	r2, [r3]
 107:Generated_Source\PSoC6\pdl\drivers\peripheral\dma/cy_dma.c **** 
 108:Generated_Source\PSoC6\pdl\drivers\peripheral\dma/cy_dma.c ****         descriptor->src = (uint32_t)config->srcAddress;
 569              		.loc 2 108 0
 570 01b4 3B68     		ldr	r3, [r7]
 571 01b6 DB68     		ldr	r3, [r3, #12]
 572 01b8 1A46     		mov	r2, r3
 573 01ba 7B68     		ldr	r3, [r7, #4]
 574 01bc 5A60     		str	r2, [r3, #4]
 109:Generated_Source\PSoC6\pdl\drivers\peripheral\dma/cy_dma.c **** 
 110:Generated_Source\PSoC6\pdl\drivers\peripheral\dma/cy_dma.c ****         descriptor->dst = (uint32_t)config->dstAddress;
 575              		.loc 2 110 0
 576 01be 3B68     		ldr	r3, [r7]
 577 01c0 1B69     		ldr	r3, [r3, #16]
 578 01c2 1A46     		mov	r2, r3
 579 01c4 7B68     		ldr	r3, [r7, #4]
 580 01c6 9A60     		str	r2, [r3, #8]
ARM GAS  C:\Users\stijn\AppData\Local\Temp\ccPWVksW.s 			page 40


 111:Generated_Source\PSoC6\pdl\drivers\peripheral\dma/cy_dma.c **** 
 112:Generated_Source\PSoC6\pdl\drivers\peripheral\dma/cy_dma.c ****         switch(config->descriptorType)
 581              		.loc 2 112 0
 582 01c8 3B68     		ldr	r3, [r7]
 583 01ca 1B7A     		ldrb	r3, [r3, #8]	@ zero_extendqisi2
 584 01cc 032B     		cmp	r3, #3
 585 01ce 00F20B81 		bhi	.L57
 586 01d2 01A2     		adr	r2, .L29
 587 01d4 52F823F0 		ldr	pc, [r2, r3, lsl #2]
 588              		.p2align 2
 589              	.L29:
 590 01d8 E9010000 		.word	.L28+1
 591 01dc F9010000 		.word	.L30+1
 592 01e0 89020000 		.word	.L31+1
 593 01e4 81030000 		.word	.L32+1
 594              		.p2align 1
 595              	.L28:
 113:Generated_Source\PSoC6\pdl\drivers\peripheral\dma/cy_dma.c ****         {
 114:Generated_Source\PSoC6\pdl\drivers\peripheral\dma/cy_dma.c ****             case CY_DMA_SINGLE_TRANSFER:
 115:Generated_Source\PSoC6\pdl\drivers\peripheral\dma/cy_dma.c ****                 descriptor->xCtl = (uint32_t)config->nextDescriptor;
 596              		.loc 2 115 0
 597 01e8 3B68     		ldr	r3, [r7]
 598 01ea DB6A     		ldr	r3, [r3, #44]
 599 01ec 1A46     		mov	r2, r3
 600 01ee 7B68     		ldr	r3, [r7, #4]
 601 01f0 DA60     		str	r2, [r3, #12]
 116:Generated_Source\PSoC6\pdl\drivers\peripheral\dma/cy_dma.c ****                 ret = CY_DMA_SUCCESS;
 602              		.loc 2 116 0
 603 01f2 0023     		movs	r3, #0
 604 01f4 FB60     		str	r3, [r7, #12]
 117:Generated_Source\PSoC6\pdl\drivers\peripheral\dma/cy_dma.c ****                 break;
 605              		.loc 2 117 0
 606 01f6 FAE0     		b	.L17
 607              	.L30:
 118:Generated_Source\PSoC6\pdl\drivers\peripheral\dma/cy_dma.c **** 
 119:Generated_Source\PSoC6\pdl\drivers\peripheral\dma/cy_dma.c ****             case CY_DMA_1D_TRANSFER:
 120:Generated_Source\PSoC6\pdl\drivers\peripheral\dma/cy_dma.c ****                 CY_ASSERT_L2(CY_DMA_IS_LOOP_INCR_VALID(config->srcXincrement));
 608              		.loc 2 120 0
 609 01f8 3B68     		ldr	r3, [r7]
 610 01fa 5B69     		ldr	r3, [r3, #20]
 611 01fc 13F5006F 		cmn	r3, #2048
 612 0200 04DB     		blt	.L33
 613              		.loc 2 120 0 is_stmt 0 discriminator 2
 614 0202 3B68     		ldr	r3, [r7]
 615 0204 5B69     		ldr	r3, [r3, #20]
 616 0206 B3F5006F 		cmp	r3, #2048
 617 020a 03DB     		blt	.L34
 618              	.L33:
 619              		.loc 2 120 0 discriminator 3
 620 020c 7821     		movs	r1, #120
 621 020e 1C48     		ldr	r0, .L59+4
 622 0210 FFF7FEFF 		bl	Cy_SysLib_AssertFailed
 623              	.L34:
 121:Generated_Source\PSoC6\pdl\drivers\peripheral\dma/cy_dma.c ****                 CY_ASSERT_L2(CY_DMA_IS_LOOP_INCR_VALID(config->dstXincrement));
 624              		.loc 2 121 0 is_stmt 1
 625 0214 3B68     		ldr	r3, [r7]
 626 0216 9B69     		ldr	r3, [r3, #24]
ARM GAS  C:\Users\stijn\AppData\Local\Temp\ccPWVksW.s 			page 41


 627 0218 13F5006F 		cmn	r3, #2048
 628 021c 04DB     		blt	.L35
 629              		.loc 2 121 0 is_stmt 0 discriminator 2
 630 021e 3B68     		ldr	r3, [r7]
 631 0220 9B69     		ldr	r3, [r3, #24]
 632 0222 B3F5006F 		cmp	r3, #2048
 633 0226 03DB     		blt	.L36
 634              	.L35:
 635              		.loc 2 121 0 discriminator 3
 636 0228 7921     		movs	r1, #121
 637 022a 1548     		ldr	r0, .L59+4
 638 022c FFF7FEFF 		bl	Cy_SysLib_AssertFailed
 639              	.L36:
 122:Generated_Source\PSoC6\pdl\drivers\peripheral\dma/cy_dma.c ****                 CY_ASSERT_L2(CY_DMA_IS_LOOP_COUNT_VALID(config->xCount));
 640              		.loc 2 122 0 is_stmt 1
 641 0230 3B68     		ldr	r3, [r7]
 642 0232 DB69     		ldr	r3, [r3, #28]
 643 0234 002B     		cmp	r3, #0
 644 0236 04D0     		beq	.L37
 645              		.loc 2 122 0 is_stmt 0 discriminator 2
 646 0238 3B68     		ldr	r3, [r7]
 647 023a DB69     		ldr	r3, [r3, #28]
 648 023c B3F5807F 		cmp	r3, #256
 649 0240 03D9     		bls	.L38
 650              	.L37:
 651              		.loc 2 122 0 discriminator 3
 652 0242 7A21     		movs	r1, #122
 653 0244 0E48     		ldr	r0, .L59+4
 654 0246 FFF7FEFF 		bl	Cy_SysLib_AssertFailed
 655              	.L38:
 123:Generated_Source\PSoC6\pdl\drivers\peripheral\dma/cy_dma.c **** 
 124:Generated_Source\PSoC6\pdl\drivers\peripheral\dma/cy_dma.c ****                 descriptor->xCtl =
 125:Generated_Source\PSoC6\pdl\drivers\peripheral\dma/cy_dma.c ****                     _VAL2FLD(CY_DMA_CTL_SRC_INCR, config->srcXincrement) |
 656              		.loc 2 125 0 is_stmt 1
 657 024a 3B68     		ldr	r3, [r7]
 658 024c 5B69     		ldr	r3, [r3, #20]
 659 024e C3F30B02 		ubfx	r2, r3, #0, #12
 126:Generated_Source\PSoC6\pdl\drivers\peripheral\dma/cy_dma.c ****                     _VAL2FLD(CY_DMA_CTL_DST_INCR, config->dstXincrement) |
 660              		.loc 2 126 0
 661 0252 3B68     		ldr	r3, [r7]
 662 0254 9B69     		ldr	r3, [r3, #24]
 663 0256 1903     		lsls	r1, r3, #12
 664 0258 0A4B     		ldr	r3, .L59+8
 665 025a 0B40     		ands	r3, r3, r1
 125:Generated_Source\PSoC6\pdl\drivers\peripheral\dma/cy_dma.c ****                     _VAL2FLD(CY_DMA_CTL_DST_INCR, config->dstXincrement) |
 666              		.loc 2 125 0
 667 025c 1A43     		orrs	r2, r2, r3
 127:Generated_Source\PSoC6\pdl\drivers\peripheral\dma/cy_dma.c ****     /* Convert the data count from the user's range (1-256) into the machine range (0-255). */
 128:Generated_Source\PSoC6\pdl\drivers\peripheral\dma/cy_dma.c ****                     _VAL2FLD(CY_DMA_CTL_COUNT, config->xCount - 1UL);
 668              		.loc 2 128 0
 669 025e 3B68     		ldr	r3, [r7]
 670 0260 DB69     		ldr	r3, [r3, #28]
 671 0262 013B     		subs	r3, r3, #1
 672 0264 1B06     		lsls	r3, r3, #24
 126:Generated_Source\PSoC6\pdl\drivers\peripheral\dma/cy_dma.c ****     /* Convert the data count from the user's range (1-256) into the machine range (0-255). */
 673              		.loc 2 126 0
 674 0266 1A43     		orrs	r2, r2, r3
ARM GAS  C:\Users\stijn\AppData\Local\Temp\ccPWVksW.s 			page 42


 124:Generated_Source\PSoC6\pdl\drivers\peripheral\dma/cy_dma.c ****                     _VAL2FLD(CY_DMA_CTL_SRC_INCR, config->srcXincrement) |
 675              		.loc 2 124 0
 676 0268 7B68     		ldr	r3, [r7, #4]
 677 026a DA60     		str	r2, [r3, #12]
 129:Generated_Source\PSoC6\pdl\drivers\peripheral\dma/cy_dma.c **** 
 130:Generated_Source\PSoC6\pdl\drivers\peripheral\dma/cy_dma.c ****                 descriptor->yCtl = (uint32_t)config->nextDescriptor;
 678              		.loc 2 130 0
 679 026c 3B68     		ldr	r3, [r7]
 680 026e DB6A     		ldr	r3, [r3, #44]
 681 0270 1A46     		mov	r2, r3
 682 0272 7B68     		ldr	r3, [r7, #4]
 683 0274 1A61     		str	r2, [r3, #16]
 131:Generated_Source\PSoC6\pdl\drivers\peripheral\dma/cy_dma.c ****                 ret = CY_DMA_SUCCESS;
 684              		.loc 2 131 0
 685 0276 0023     		movs	r3, #0
 686 0278 FB60     		str	r3, [r7, #12]
 132:Generated_Source\PSoC6\pdl\drivers\peripheral\dma/cy_dma.c ****                 break;
 687              		.loc 2 132 0
 688 027a B8E0     		b	.L17
 689              	.L60:
 690              		.align	2
 691              	.L59:
 692 027c 01004E00 		.word	5111809
 693 0280 3C000000 		.word	.LC1
 694 0284 00F0FF00 		.word	16773120
 695              	.L31:
 133:Generated_Source\PSoC6\pdl\drivers\peripheral\dma/cy_dma.c **** 
 134:Generated_Source\PSoC6\pdl\drivers\peripheral\dma/cy_dma.c ****             case CY_DMA_2D_TRANSFER:
 135:Generated_Source\PSoC6\pdl\drivers\peripheral\dma/cy_dma.c ****                 CY_ASSERT_L2(CY_DMA_IS_LOOP_INCR_VALID(config->srcXincrement));
 696              		.loc 2 135 0
 697 0288 3B68     		ldr	r3, [r7]
 698 028a 5B69     		ldr	r3, [r3, #20]
 699 028c 13F5006F 		cmn	r3, #2048
 700 0290 04DB     		blt	.L39
 701              		.loc 2 135 0 is_stmt 0 discriminator 2
 702 0292 3B68     		ldr	r3, [r7]
 703 0294 5B69     		ldr	r3, [r3, #20]
 704 0296 B3F5006F 		cmp	r3, #2048
 705 029a 03DB     		blt	.L40
 706              	.L39:
 707              		.loc 2 135 0 discriminator 3
 708 029c 8721     		movs	r1, #135
 709 029e 5648     		ldr	r0, .L61
 710 02a0 FFF7FEFF 		bl	Cy_SysLib_AssertFailed
 711              	.L40:
 136:Generated_Source\PSoC6\pdl\drivers\peripheral\dma/cy_dma.c ****                 CY_ASSERT_L2(CY_DMA_IS_LOOP_INCR_VALID(config->dstXincrement));
 712              		.loc 2 136 0 is_stmt 1
 713 02a4 3B68     		ldr	r3, [r7]
 714 02a6 9B69     		ldr	r3, [r3, #24]
 715 02a8 13F5006F 		cmn	r3, #2048
 716 02ac 04DB     		blt	.L41
 717              		.loc 2 136 0 is_stmt 0 discriminator 2
 718 02ae 3B68     		ldr	r3, [r7]
 719 02b0 9B69     		ldr	r3, [r3, #24]
 720 02b2 B3F5006F 		cmp	r3, #2048
 721 02b6 03DB     		blt	.L42
 722              	.L41:
ARM GAS  C:\Users\stijn\AppData\Local\Temp\ccPWVksW.s 			page 43


 723              		.loc 2 136 0 discriminator 3
 724 02b8 8821     		movs	r1, #136
 725 02ba 4F48     		ldr	r0, .L61
 726 02bc FFF7FEFF 		bl	Cy_SysLib_AssertFailed
 727              	.L42:
 137:Generated_Source\PSoC6\pdl\drivers\peripheral\dma/cy_dma.c ****                 CY_ASSERT_L2(CY_DMA_IS_LOOP_COUNT_VALID(config->xCount));
 728              		.loc 2 137 0 is_stmt 1
 729 02c0 3B68     		ldr	r3, [r7]
 730 02c2 DB69     		ldr	r3, [r3, #28]
 731 02c4 002B     		cmp	r3, #0
 732 02c6 04D0     		beq	.L43
 733              		.loc 2 137 0 is_stmt 0 discriminator 2
 734 02c8 3B68     		ldr	r3, [r7]
 735 02ca DB69     		ldr	r3, [r3, #28]
 736 02cc B3F5807F 		cmp	r3, #256
 737 02d0 03D9     		bls	.L44
 738              	.L43:
 739              		.loc 2 137 0 discriminator 3
 740 02d2 8921     		movs	r1, #137
 741 02d4 4848     		ldr	r0, .L61
 742 02d6 FFF7FEFF 		bl	Cy_SysLib_AssertFailed
 743              	.L44:
 138:Generated_Source\PSoC6\pdl\drivers\peripheral\dma/cy_dma.c ****                 CY_ASSERT_L2(CY_DMA_IS_LOOP_INCR_VALID(config->srcYincrement));
 744              		.loc 2 138 0 is_stmt 1
 745 02da 3B68     		ldr	r3, [r7]
 746 02dc 1B6A     		ldr	r3, [r3, #32]
 747 02de 13F5006F 		cmn	r3, #2048
 748 02e2 04DB     		blt	.L45
 749              		.loc 2 138 0 is_stmt 0 discriminator 2
 750 02e4 3B68     		ldr	r3, [r7]
 751 02e6 1B6A     		ldr	r3, [r3, #32]
 752 02e8 B3F5006F 		cmp	r3, #2048
 753 02ec 03DB     		blt	.L46
 754              	.L45:
 755              		.loc 2 138 0 discriminator 3
 756 02ee 8A21     		movs	r1, #138
 757 02f0 4148     		ldr	r0, .L61
 758 02f2 FFF7FEFF 		bl	Cy_SysLib_AssertFailed
 759              	.L46:
 139:Generated_Source\PSoC6\pdl\drivers\peripheral\dma/cy_dma.c ****                 CY_ASSERT_L2(CY_DMA_IS_LOOP_INCR_VALID(config->dstYincrement));
 760              		.loc 2 139 0 is_stmt 1
 761 02f6 3B68     		ldr	r3, [r7]
 762 02f8 5B6A     		ldr	r3, [r3, #36]
 763 02fa 13F5006F 		cmn	r3, #2048
 764 02fe 04DB     		blt	.L47
 765              		.loc 2 139 0 is_stmt 0 discriminator 2
 766 0300 3B68     		ldr	r3, [r7]
 767 0302 5B6A     		ldr	r3, [r3, #36]
 768 0304 B3F5006F 		cmp	r3, #2048
 769 0308 03DB     		blt	.L48
 770              	.L47:
 771              		.loc 2 139 0 discriminator 3
 772 030a 8B21     		movs	r1, #139
 773 030c 3A48     		ldr	r0, .L61
 774 030e FFF7FEFF 		bl	Cy_SysLib_AssertFailed
 775              	.L48:
 140:Generated_Source\PSoC6\pdl\drivers\peripheral\dma/cy_dma.c ****                 CY_ASSERT_L2(CY_DMA_IS_LOOP_COUNT_VALID(config->yCount));
ARM GAS  C:\Users\stijn\AppData\Local\Temp\ccPWVksW.s 			page 44


 776              		.loc 2 140 0 is_stmt 1
 777 0312 3B68     		ldr	r3, [r7]
 778 0314 9B6A     		ldr	r3, [r3, #40]
 779 0316 002B     		cmp	r3, #0
 780 0318 04D0     		beq	.L49
 781              		.loc 2 140 0 is_stmt 0 discriminator 2
 782 031a 3B68     		ldr	r3, [r7]
 783 031c 9B6A     		ldr	r3, [r3, #40]
 784 031e B3F5807F 		cmp	r3, #256
 785 0322 03D9     		bls	.L50
 786              	.L49:
 787              		.loc 2 140 0 discriminator 3
 788 0324 8C21     		movs	r1, #140
 789 0326 3448     		ldr	r0, .L61
 790 0328 FFF7FEFF 		bl	Cy_SysLib_AssertFailed
 791              	.L50:
 141:Generated_Source\PSoC6\pdl\drivers\peripheral\dma/cy_dma.c **** 
 142:Generated_Source\PSoC6\pdl\drivers\peripheral\dma/cy_dma.c ****                 descriptor->xCtl =
 143:Generated_Source\PSoC6\pdl\drivers\peripheral\dma/cy_dma.c ****                     _VAL2FLD(CY_DMA_CTL_SRC_INCR, config->srcXincrement) |
 792              		.loc 2 143 0 is_stmt 1
 793 032c 3B68     		ldr	r3, [r7]
 794 032e 5B69     		ldr	r3, [r3, #20]
 795 0330 C3F30B02 		ubfx	r2, r3, #0, #12
 144:Generated_Source\PSoC6\pdl\drivers\peripheral\dma/cy_dma.c ****                     _VAL2FLD(CY_DMA_CTL_DST_INCR, config->dstXincrement) |
 796              		.loc 2 144 0
 797 0334 3B68     		ldr	r3, [r7]
 798 0336 9B69     		ldr	r3, [r3, #24]
 799 0338 1903     		lsls	r1, r3, #12
 800 033a 304B     		ldr	r3, .L61+4
 801 033c 0B40     		ands	r3, r3, r1
 143:Generated_Source\PSoC6\pdl\drivers\peripheral\dma/cy_dma.c ****                     _VAL2FLD(CY_DMA_CTL_DST_INCR, config->dstXincrement) |
 802              		.loc 2 143 0
 803 033e 1A43     		orrs	r2, r2, r3
 145:Generated_Source\PSoC6\pdl\drivers\peripheral\dma/cy_dma.c ****     /* Convert the data count from the user's range (1-256) into the machine range (0-255). */
 146:Generated_Source\PSoC6\pdl\drivers\peripheral\dma/cy_dma.c ****                     _VAL2FLD(CY_DMA_CTL_COUNT, config->xCount - 1UL);
 804              		.loc 2 146 0
 805 0340 3B68     		ldr	r3, [r7]
 806 0342 DB69     		ldr	r3, [r3, #28]
 807 0344 013B     		subs	r3, r3, #1
 808 0346 1B06     		lsls	r3, r3, #24
 144:Generated_Source\PSoC6\pdl\drivers\peripheral\dma/cy_dma.c ****     /* Convert the data count from the user's range (1-256) into the machine range (0-255). */
 809              		.loc 2 144 0
 810 0348 1A43     		orrs	r2, r2, r3
 142:Generated_Source\PSoC6\pdl\drivers\peripheral\dma/cy_dma.c ****                     _VAL2FLD(CY_DMA_CTL_SRC_INCR, config->srcXincrement) |
 811              		.loc 2 142 0
 812 034a 7B68     		ldr	r3, [r7, #4]
 813 034c DA60     		str	r2, [r3, #12]
 147:Generated_Source\PSoC6\pdl\drivers\peripheral\dma/cy_dma.c **** 
 148:Generated_Source\PSoC6\pdl\drivers\peripheral\dma/cy_dma.c ****                 descriptor->yCtl =
 149:Generated_Source\PSoC6\pdl\drivers\peripheral\dma/cy_dma.c ****                     _VAL2FLD(CY_DMA_CTL_SRC_INCR, config->srcYincrement) |
 814              		.loc 2 149 0
 815 034e 3B68     		ldr	r3, [r7]
 816 0350 1B6A     		ldr	r3, [r3, #32]
 817 0352 C3F30B02 		ubfx	r2, r3, #0, #12
 150:Generated_Source\PSoC6\pdl\drivers\peripheral\dma/cy_dma.c ****                     _VAL2FLD(CY_DMA_CTL_DST_INCR, config->dstYincrement) |
 818              		.loc 2 150 0
 819 0356 3B68     		ldr	r3, [r7]
ARM GAS  C:\Users\stijn\AppData\Local\Temp\ccPWVksW.s 			page 45


 820 0358 5B6A     		ldr	r3, [r3, #36]
 821 035a 1903     		lsls	r1, r3, #12
 822 035c 274B     		ldr	r3, .L61+4
 823 035e 0B40     		ands	r3, r3, r1
 149:Generated_Source\PSoC6\pdl\drivers\peripheral\dma/cy_dma.c ****                     _VAL2FLD(CY_DMA_CTL_DST_INCR, config->dstYincrement) |
 824              		.loc 2 149 0
 825 0360 1A43     		orrs	r2, r2, r3
 151:Generated_Source\PSoC6\pdl\drivers\peripheral\dma/cy_dma.c ****     /* Convert the data count from the user's range (1-256) into the machine range (0-255). */
 152:Generated_Source\PSoC6\pdl\drivers\peripheral\dma/cy_dma.c ****                     _VAL2FLD(CY_DMA_CTL_COUNT, config->yCount - 1UL);
 826              		.loc 2 152 0
 827 0362 3B68     		ldr	r3, [r7]
 828 0364 9B6A     		ldr	r3, [r3, #40]
 829 0366 013B     		subs	r3, r3, #1
 830 0368 1B06     		lsls	r3, r3, #24
 150:Generated_Source\PSoC6\pdl\drivers\peripheral\dma/cy_dma.c ****     /* Convert the data count from the user's range (1-256) into the machine range (0-255). */
 831              		.loc 2 150 0
 832 036a 1A43     		orrs	r2, r2, r3
 148:Generated_Source\PSoC6\pdl\drivers\peripheral\dma/cy_dma.c ****                     _VAL2FLD(CY_DMA_CTL_SRC_INCR, config->srcYincrement) |
 833              		.loc 2 148 0
 834 036c 7B68     		ldr	r3, [r7, #4]
 835 036e 1A61     		str	r2, [r3, #16]
 153:Generated_Source\PSoC6\pdl\drivers\peripheral\dma/cy_dma.c **** 
 154:Generated_Source\PSoC6\pdl\drivers\peripheral\dma/cy_dma.c ****                 descriptor->nextPtr = (uint32_t)config->nextDescriptor;
 836              		.loc 2 154 0
 837 0370 3B68     		ldr	r3, [r7]
 838 0372 DB6A     		ldr	r3, [r3, #44]
 839 0374 1A46     		mov	r2, r3
 840 0376 7B68     		ldr	r3, [r7, #4]
 841 0378 5A61     		str	r2, [r3, #20]
 155:Generated_Source\PSoC6\pdl\drivers\peripheral\dma/cy_dma.c ****                 ret = CY_DMA_SUCCESS;
 842              		.loc 2 155 0
 843 037a 0023     		movs	r3, #0
 844 037c FB60     		str	r3, [r7, #12]
 156:Generated_Source\PSoC6\pdl\drivers\peripheral\dma/cy_dma.c ****                 break;
 845              		.loc 2 156 0
 846 037e 36E0     		b	.L17
 847              	.L32:
 157:Generated_Source\PSoC6\pdl\drivers\peripheral\dma/cy_dma.c **** 
 158:Generated_Source\PSoC6\pdl\drivers\peripheral\dma/cy_dma.c ****             case CY_DMA_CRC_TRANSFER:
 159:Generated_Source\PSoC6\pdl\drivers\peripheral\dma/cy_dma.c ****                 if (CY_DW_CRC)
 848              		.loc 2 159 0
 849 0380 1F4B     		ldr	r3, .L61+8
 850 0382 1B68     		ldr	r3, [r3]
 851 0384 93F82A30 		ldrb	r3, [r3, #42]	@ zero_extendqisi2
 852 0388 012B     		cmp	r3, #1
 853 038a 2FD9     		bls	.L58
 160:Generated_Source\PSoC6\pdl\drivers\peripheral\dma/cy_dma.c ****                 {
 161:Generated_Source\PSoC6\pdl\drivers\peripheral\dma/cy_dma.c ****                     CY_ASSERT_L2(CY_DMA_IS_LOOP_INCR_VALID(config->srcXincrement));
 854              		.loc 2 161 0
 855 038c 3B68     		ldr	r3, [r7]
 856 038e 5B69     		ldr	r3, [r3, #20]
 857 0390 13F5006F 		cmn	r3, #2048
 858 0394 04DB     		blt	.L52
 859              		.loc 2 161 0 is_stmt 0 discriminator 2
 860 0396 3B68     		ldr	r3, [r7]
 861 0398 5B69     		ldr	r3, [r3, #20]
 862 039a B3F5006F 		cmp	r3, #2048
ARM GAS  C:\Users\stijn\AppData\Local\Temp\ccPWVksW.s 			page 46


 863 039e 03DB     		blt	.L53
 864              	.L52:
 865              		.loc 2 161 0 discriminator 3
 866 03a0 A121     		movs	r1, #161
 867 03a2 1548     		ldr	r0, .L61
 868 03a4 FFF7FEFF 		bl	Cy_SysLib_AssertFailed
 869              	.L53:
 162:Generated_Source\PSoC6\pdl\drivers\peripheral\dma/cy_dma.c ****                     CY_ASSERT_L2(CY_DMA_IS_LOOP_COUNT_VALID(config->xCount));
 870              		.loc 2 162 0 is_stmt 1
 871 03a8 3B68     		ldr	r3, [r7]
 872 03aa DB69     		ldr	r3, [r3, #28]
 873 03ac 002B     		cmp	r3, #0
 874 03ae 04D0     		beq	.L54
 875              		.loc 2 162 0 is_stmt 0 discriminator 2
 876 03b0 3B68     		ldr	r3, [r7]
 877 03b2 DB69     		ldr	r3, [r3, #28]
 878 03b4 B3F5807F 		cmp	r3, #256
 879 03b8 03D9     		bls	.L55
 880              	.L54:
 881              		.loc 2 162 0 discriminator 3
 882 03ba A221     		movs	r1, #162
 883 03bc 0E48     		ldr	r0, .L61
 884 03be FFF7FEFF 		bl	Cy_SysLib_AssertFailed
 885              	.L55:
 163:Generated_Source\PSoC6\pdl\drivers\peripheral\dma/cy_dma.c **** 
 164:Generated_Source\PSoC6\pdl\drivers\peripheral\dma/cy_dma.c ****                     descriptor->xCtl =
 165:Generated_Source\PSoC6\pdl\drivers\peripheral\dma/cy_dma.c ****                         _VAL2FLD(CY_DMA_CTL_SRC_INCR, config->srcXincrement) |
 886              		.loc 2 165 0 is_stmt 1
 887 03c2 3B68     		ldr	r3, [r7]
 888 03c4 5B69     		ldr	r3, [r3, #20]
 889 03c6 C3F30B02 		ubfx	r2, r3, #0, #12
 166:Generated_Source\PSoC6\pdl\drivers\peripheral\dma/cy_dma.c ****         /* Convert the data count from the user's range (1-256) into the machine range (0-255). */
 167:Generated_Source\PSoC6\pdl\drivers\peripheral\dma/cy_dma.c ****                         _VAL2FLD(CY_DMA_CTL_COUNT, config->xCount - 1UL);
 890              		.loc 2 167 0
 891 03ca 3B68     		ldr	r3, [r7]
 892 03cc DB69     		ldr	r3, [r3, #28]
 893 03ce 013B     		subs	r3, r3, #1
 894 03d0 1B06     		lsls	r3, r3, #24
 165:Generated_Source\PSoC6\pdl\drivers\peripheral\dma/cy_dma.c ****         /* Convert the data count from the user's range (1-256) into the machine range (0-255). */
 895              		.loc 2 165 0
 896 03d2 1A43     		orrs	r2, r2, r3
 164:Generated_Source\PSoC6\pdl\drivers\peripheral\dma/cy_dma.c ****                         _VAL2FLD(CY_DMA_CTL_SRC_INCR, config->srcXincrement) |
 897              		.loc 2 164 0
 898 03d4 7B68     		ldr	r3, [r7, #4]
 899 03d6 DA60     		str	r2, [r3, #12]
 168:Generated_Source\PSoC6\pdl\drivers\peripheral\dma/cy_dma.c **** 
 169:Generated_Source\PSoC6\pdl\drivers\peripheral\dma/cy_dma.c ****                     descriptor->yCtl = (uint32_t)config->nextDescriptor;
 900              		.loc 2 169 0
 901 03d8 3B68     		ldr	r3, [r7]
 902 03da DB6A     		ldr	r3, [r3, #44]
 903 03dc 1A46     		mov	r2, r3
 904 03de 7B68     		ldr	r3, [r7, #4]
 905 03e0 1A61     		str	r2, [r3, #16]
 170:Generated_Source\PSoC6\pdl\drivers\peripheral\dma/cy_dma.c ****                     ret = CY_DMA_SUCCESS;
 906              		.loc 2 170 0
 907 03e2 0023     		movs	r3, #0
 908 03e4 FB60     		str	r3, [r7, #12]
ARM GAS  C:\Users\stijn\AppData\Local\Temp\ccPWVksW.s 			page 47


 171:Generated_Source\PSoC6\pdl\drivers\peripheral\dma/cy_dma.c ****                 }
 172:Generated_Source\PSoC6\pdl\drivers\peripheral\dma/cy_dma.c ****                 break;
 909              		.loc 2 172 0
 910 03e6 01E0     		b	.L58
 911              	.L57:
 173:Generated_Source\PSoC6\pdl\drivers\peripheral\dma/cy_dma.c **** 
 174:Generated_Source\PSoC6\pdl\drivers\peripheral\dma/cy_dma.c ****             default: /* An unsupported type of a descriptor */
 175:Generated_Source\PSoC6\pdl\drivers\peripheral\dma/cy_dma.c ****                 break;
 912              		.loc 2 175 0
 913 03e8 00BF     		nop
 914 03ea 00E0     		b	.L17
 915              	.L58:
 172:Generated_Source\PSoC6\pdl\drivers\peripheral\dma/cy_dma.c **** 
 916              		.loc 2 172 0
 917 03ec 00BF     		nop
 918              	.L17:
 176:Generated_Source\PSoC6\pdl\drivers\peripheral\dma/cy_dma.c ****         }
 177:Generated_Source\PSoC6\pdl\drivers\peripheral\dma/cy_dma.c ****     }
 178:Generated_Source\PSoC6\pdl\drivers\peripheral\dma/cy_dma.c **** 
 179:Generated_Source\PSoC6\pdl\drivers\peripheral\dma/cy_dma.c ****     return ret;
 919              		.loc 2 179 0
 920 03ee FB68     		ldr	r3, [r7, #12]
 180:Generated_Source\PSoC6\pdl\drivers\peripheral\dma/cy_dma.c **** }
 921              		.loc 2 180 0
 922 03f0 1846     		mov	r0, r3
 923 03f2 1037     		adds	r7, r7, #16
 924              		.cfi_def_cfa_offset 8
 925 03f4 BD46     		mov	sp, r7
 926              		.cfi_def_cfa_register 13
 927              		@ sp needed
 928 03f6 80BD     		pop	{r7, pc}
 929              	.L62:
 930              		.align	2
 931              	.L61:
 932 03f8 3C000000 		.word	.LC1
 933 03fc 00F0FF00 		.word	16773120
 934 0400 00000000 		.word	cy_device
 935              		.cfi_endproc
 936              	.LFE184:
 937              		.size	Cy_DMA_Descriptor_Init, .-Cy_DMA_Descriptor_Init
 938              		.section	.text.Cy_DMA_Descriptor_DeInit,"ax",%progbits
 939              		.align	2
 940              		.global	Cy_DMA_Descriptor_DeInit
 941              		.thumb
 942              		.thumb_func
 943              		.type	Cy_DMA_Descriptor_DeInit, %function
 944              	Cy_DMA_Descriptor_DeInit:
 945              	.LFB185:
 181:Generated_Source\PSoC6\pdl\drivers\peripheral\dma/cy_dma.c **** 
 182:Generated_Source\PSoC6\pdl\drivers\peripheral\dma/cy_dma.c **** 
 183:Generated_Source\PSoC6\pdl\drivers\peripheral\dma/cy_dma.c **** /*******************************************************************************
 184:Generated_Source\PSoC6\pdl\drivers\peripheral\dma/cy_dma.c **** * Function Name: Cy_DMA_Descriptor_DeInit
 185:Generated_Source\PSoC6\pdl\drivers\peripheral\dma/cy_dma.c **** ****************************************************************************//**
 186:Generated_Source\PSoC6\pdl\drivers\peripheral\dma/cy_dma.c **** *
 187:Generated_Source\PSoC6\pdl\drivers\peripheral\dma/cy_dma.c **** * Clears the content of the specified descriptor.
 188:Generated_Source\PSoC6\pdl\drivers\peripheral\dma/cy_dma.c **** *
 189:Generated_Source\PSoC6\pdl\drivers\peripheral\dma/cy_dma.c **** * \param descriptor
ARM GAS  C:\Users\stijn\AppData\Local\Temp\ccPWVksW.s 			page 48


 190:Generated_Source\PSoC6\pdl\drivers\peripheral\dma/cy_dma.c **** * The descriptor structure instance declared by the user/component.
 191:Generated_Source\PSoC6\pdl\drivers\peripheral\dma/cy_dma.c **** *
 192:Generated_Source\PSoC6\pdl\drivers\peripheral\dma/cy_dma.c **** * \funcusage 
 193:Generated_Source\PSoC6\pdl\drivers\peripheral\dma/cy_dma.c **** * \snippet dma\2.10\snippet\main.c snippet_Cy_DMA_Descriptor_Deinit
 194:Generated_Source\PSoC6\pdl\drivers\peripheral\dma/cy_dma.c **** *
 195:Generated_Source\PSoC6\pdl\drivers\peripheral\dma/cy_dma.c **** *******************************************************************************/
 196:Generated_Source\PSoC6\pdl\drivers\peripheral\dma/cy_dma.c **** void Cy_DMA_Descriptor_DeInit(cy_stc_dma_descriptor_t * descriptor)
 197:Generated_Source\PSoC6\pdl\drivers\peripheral\dma/cy_dma.c **** {
 946              		.loc 2 197 0
 947              		.cfi_startproc
 948              		@ args = 0, pretend = 0, frame = 8
 949              		@ frame_needed = 1, uses_anonymous_args = 0
 950              		@ link register save eliminated.
 951 0000 80B4     		push	{r7}
 952              		.cfi_def_cfa_offset 4
 953              		.cfi_offset 7, -4
 954 0002 83B0     		sub	sp, sp, #12
 955              		.cfi_def_cfa_offset 16
 956 0004 00AF     		add	r7, sp, #0
 957              		.cfi_def_cfa_register 7
 958 0006 7860     		str	r0, [r7, #4]
 198:Generated_Source\PSoC6\pdl\drivers\peripheral\dma/cy_dma.c ****     descriptor->ctl = 0UL;
 959              		.loc 2 198 0
 960 0008 7B68     		ldr	r3, [r7, #4]
 961 000a 0022     		movs	r2, #0
 962 000c 1A60     		str	r2, [r3]
 199:Generated_Source\PSoC6\pdl\drivers\peripheral\dma/cy_dma.c ****     descriptor->src = 0UL;
 963              		.loc 2 199 0
 964 000e 7B68     		ldr	r3, [r7, #4]
 965 0010 0022     		movs	r2, #0
 966 0012 5A60     		str	r2, [r3, #4]
 200:Generated_Source\PSoC6\pdl\drivers\peripheral\dma/cy_dma.c ****     descriptor->dst = 0UL;
 967              		.loc 2 200 0
 968 0014 7B68     		ldr	r3, [r7, #4]
 969 0016 0022     		movs	r2, #0
 970 0018 9A60     		str	r2, [r3, #8]
 201:Generated_Source\PSoC6\pdl\drivers\peripheral\dma/cy_dma.c ****     descriptor->xCtl = 0UL;
 971              		.loc 2 201 0
 972 001a 7B68     		ldr	r3, [r7, #4]
 973 001c 0022     		movs	r2, #0
 974 001e DA60     		str	r2, [r3, #12]
 202:Generated_Source\PSoC6\pdl\drivers\peripheral\dma/cy_dma.c ****     descriptor->yCtl = 0UL;
 975              		.loc 2 202 0
 976 0020 7B68     		ldr	r3, [r7, #4]
 977 0022 0022     		movs	r2, #0
 978 0024 1A61     		str	r2, [r3, #16]
 203:Generated_Source\PSoC6\pdl\drivers\peripheral\dma/cy_dma.c ****     descriptor->nextPtr = 0UL;
 979              		.loc 2 203 0
 980 0026 7B68     		ldr	r3, [r7, #4]
 981 0028 0022     		movs	r2, #0
 982 002a 5A61     		str	r2, [r3, #20]
 204:Generated_Source\PSoC6\pdl\drivers\peripheral\dma/cy_dma.c **** }
 983              		.loc 2 204 0
 984 002c 00BF     		nop
 985 002e 0C37     		adds	r7, r7, #12
 986              		.cfi_def_cfa_offset 4
 987 0030 BD46     		mov	sp, r7
ARM GAS  C:\Users\stijn\AppData\Local\Temp\ccPWVksW.s 			page 49


 988              		.cfi_def_cfa_register 13
 989              		@ sp needed
 990 0032 5DF8047B 		ldr	r7, [sp], #4
 991              		.cfi_restore 7
 992              		.cfi_def_cfa_offset 0
 993 0036 7047     		bx	lr
 994              		.cfi_endproc
 995              	.LFE185:
 996              		.size	Cy_DMA_Descriptor_DeInit, .-Cy_DMA_Descriptor_DeInit
 997              		.section	.text.Cy_DMA_Channel_Init,"ax",%progbits
 998              		.align	2
 999              		.global	Cy_DMA_Channel_Init
 1000              		.thumb
 1001              		.thumb_func
 1002              		.type	Cy_DMA_Channel_Init, %function
 1003              	Cy_DMA_Channel_Init:
 1004              	.LFB186:
 205:Generated_Source\PSoC6\pdl\drivers\peripheral\dma/cy_dma.c **** 
 206:Generated_Source\PSoC6\pdl\drivers\peripheral\dma/cy_dma.c **** 
 207:Generated_Source\PSoC6\pdl\drivers\peripheral\dma/cy_dma.c **** /*******************************************************************************
 208:Generated_Source\PSoC6\pdl\drivers\peripheral\dma/cy_dma.c **** * Function Name: Cy_DMA_Channel_Init
 209:Generated_Source\PSoC6\pdl\drivers\peripheral\dma/cy_dma.c **** ****************************************************************************//**
 210:Generated_Source\PSoC6\pdl\drivers\peripheral\dma/cy_dma.c **** *
 211:Generated_Source\PSoC6\pdl\drivers\peripheral\dma/cy_dma.c **** * Initializes the DMA channel with a descriptor and other parameters.
 212:Generated_Source\PSoC6\pdl\drivers\peripheral\dma/cy_dma.c **** *
 213:Generated_Source\PSoC6\pdl\drivers\peripheral\dma/cy_dma.c **** * \param base
 214:Generated_Source\PSoC6\pdl\drivers\peripheral\dma/cy_dma.c **** * The pointer to the hardware DMA block.
 215:Generated_Source\PSoC6\pdl\drivers\peripheral\dma/cy_dma.c **** *
 216:Generated_Source\PSoC6\pdl\drivers\peripheral\dma/cy_dma.c **** * \param channel
 217:Generated_Source\PSoC6\pdl\drivers\peripheral\dma/cy_dma.c **** * A channel number.
 218:Generated_Source\PSoC6\pdl\drivers\peripheral\dma/cy_dma.c **** *
 219:Generated_Source\PSoC6\pdl\drivers\peripheral\dma/cy_dma.c **** * \param channelConfig
 220:Generated_Source\PSoC6\pdl\drivers\peripheral\dma/cy_dma.c **** * The structure that has the initialization information for the
 221:Generated_Source\PSoC6\pdl\drivers\peripheral\dma/cy_dma.c **** * channel.
 222:Generated_Source\PSoC6\pdl\drivers\peripheral\dma/cy_dma.c **** *
 223:Generated_Source\PSoC6\pdl\drivers\peripheral\dma/cy_dma.c **** * \return
 224:Generated_Source\PSoC6\pdl\drivers\peripheral\dma/cy_dma.c **** * The status /ref cy_en_dma_status_t.
 225:Generated_Source\PSoC6\pdl\drivers\peripheral\dma/cy_dma.c **** *
 226:Generated_Source\PSoC6\pdl\drivers\peripheral\dma/cy_dma.c **** * \funcusage 
 227:Generated_Source\PSoC6\pdl\drivers\peripheral\dma/cy_dma.c **** * \snippet dma\2.10\snippet\main.c snippet_Cy_DMA_Enable
 228:Generated_Source\PSoC6\pdl\drivers\peripheral\dma/cy_dma.c **** *
 229:Generated_Source\PSoC6\pdl\drivers\peripheral\dma/cy_dma.c **** *******************************************************************************/
 230:Generated_Source\PSoC6\pdl\drivers\peripheral\dma/cy_dma.c **** cy_en_dma_status_t Cy_DMA_Channel_Init(DW_Type * base, uint32_t channel, cy_stc_dma_channel_config_
 231:Generated_Source\PSoC6\pdl\drivers\peripheral\dma/cy_dma.c **** {
 1005              		.loc 2 231 0
 1006              		.cfi_startproc
 1007              		@ args = 0, pretend = 0, frame = 24
 1008              		@ frame_needed = 1, uses_anonymous_args = 0
 1009 0000 90B5     		push	{r4, r7, lr}
 1010              		.cfi_def_cfa_offset 12
 1011              		.cfi_offset 4, -12
 1012              		.cfi_offset 7, -8
 1013              		.cfi_offset 14, -4
 1014 0002 87B0     		sub	sp, sp, #28
 1015              		.cfi_def_cfa_offset 40
 1016 0004 00AF     		add	r7, sp, #0
 1017              		.cfi_def_cfa_register 7
ARM GAS  C:\Users\stijn\AppData\Local\Temp\ccPWVksW.s 			page 50


 1018 0006 F860     		str	r0, [r7, #12]
 1019 0008 B960     		str	r1, [r7, #8]
 1020 000a 7A60     		str	r2, [r7, #4]
 232:Generated_Source\PSoC6\pdl\drivers\peripheral\dma/cy_dma.c ****     cy_en_dma_status_t ret = CY_DMA_BAD_PARAM;
 1021              		.loc 2 232 0
 1022 000c 354B     		ldr	r3, .L74
 1023 000e 7B61     		str	r3, [r7, #20]
 233:Generated_Source\PSoC6\pdl\drivers\peripheral\dma/cy_dma.c **** 
 234:Generated_Source\PSoC6\pdl\drivers\peripheral\dma/cy_dma.c ****     if ((NULL != base) &&
 1024              		.loc 2 234 0
 1025 0010 FB68     		ldr	r3, [r7, #12]
 1026 0012 002B     		cmp	r3, #0
 1027 0014 60D0     		beq	.L65
 1028              		.loc 2 234 0 is_stmt 0 discriminator 1
 1029 0016 7B68     		ldr	r3, [r7, #4]
 1030 0018 002B     		cmp	r3, #0
 1031 001a 5DD0     		beq	.L65
 235:Generated_Source\PSoC6\pdl\drivers\peripheral\dma/cy_dma.c ****         (NULL != channelConfig) && 
 236:Generated_Source\PSoC6\pdl\drivers\peripheral\dma/cy_dma.c ****         (NULL != channelConfig->descriptor) &&
 1032              		.loc 2 236 0 is_stmt 1
 1033 001c 7B68     		ldr	r3, [r7, #4]
 1034 001e 1B68     		ldr	r3, [r3]
 235:Generated_Source\PSoC6\pdl\drivers\peripheral\dma/cy_dma.c ****         (NULL != channelConfig) && 
 1035              		.loc 2 235 0
 1036 0020 002B     		cmp	r3, #0
 1037 0022 59D0     		beq	.L65
 237:Generated_Source\PSoC6\pdl\drivers\peripheral\dma/cy_dma.c ****         (CY_DMA_IS_CH_NR_VALID(channel)))
 1038              		.loc 2 237 0
 1039 0024 304B     		ldr	r3, .L74+4
 1040 0026 1B68     		ldr	r3, [r3]
 1041 0028 93F83330 		ldrb	r3, [r3, #51]	@ zero_extendqisi2
 1042 002c 1A46     		mov	r2, r3
 236:Generated_Source\PSoC6\pdl\drivers\peripheral\dma/cy_dma.c ****         (CY_DMA_IS_CH_NR_VALID(channel)))
 1043              		.loc 2 236 0
 1044 002e BB68     		ldr	r3, [r7, #8]
 1045 0030 9A42     		cmp	r2, r3
 1046 0032 51D9     		bls	.L65
 238:Generated_Source\PSoC6\pdl\drivers\peripheral\dma/cy_dma.c ****     {
 239:Generated_Source\PSoC6\pdl\drivers\peripheral\dma/cy_dma.c ****         CY_ASSERT_L2(CY_DMA_IS_PRIORITY_VALID(channelConfig->priority));
 1047              		.loc 2 239 0
 1048 0034 7B68     		ldr	r3, [r7, #4]
 1049 0036 9B68     		ldr	r3, [r3, #8]
 1050 0038 032B     		cmp	r3, #3
 1051 003a 03D9     		bls	.L66
 1052              		.loc 2 239 0 is_stmt 0 discriminator 1
 1053 003c EF21     		movs	r1, #239
 1054 003e 2B48     		ldr	r0, .L74+8
 1055 0040 FFF7FEFF 		bl	Cy_SysLib_AssertFailed
 1056              	.L66:
 240:Generated_Source\PSoC6\pdl\drivers\peripheral\dma/cy_dma.c ****         
 241:Generated_Source\PSoC6\pdl\drivers\peripheral\dma/cy_dma.c ****         /* Set the current descriptor */
 242:Generated_Source\PSoC6\pdl\drivers\peripheral\dma/cy_dma.c ****         Cy_DMA_Channel_SetDescriptor(base, channel, channelConfig->descriptor);
 1057              		.loc 2 242 0 is_stmt 1
 1058 0044 7B68     		ldr	r3, [r7, #4]
 1059 0046 1B68     		ldr	r3, [r3]
 1060 0048 1A46     		mov	r2, r3
 1061 004a B968     		ldr	r1, [r7, #8]
ARM GAS  C:\Users\stijn\AppData\Local\Temp\ccPWVksW.s 			page 51


 1062 004c F868     		ldr	r0, [r7, #12]
 1063 004e FFF7FEFF 		bl	Cy_DMA_Channel_SetDescriptor
 243:Generated_Source\PSoC6\pdl\drivers\peripheral\dma/cy_dma.c **** 
 244:Generated_Source\PSoC6\pdl\drivers\peripheral\dma/cy_dma.c ****         /* Set the channel configuration */
 245:Generated_Source\PSoC6\pdl\drivers\peripheral\dma/cy_dma.c ****         DW_CH_CTL(base, channel) =
 1064              		.loc 2 245 0
 1065 0052 254B     		ldr	r3, .L74+4
 1066 0054 1B68     		ldr	r3, [r3]
 1067 0056 B3F85A30 		ldrh	r3, [r3, #90]
 1068 005a 1A46     		mov	r2, r3
 1069 005c FB68     		ldr	r3, [r7, #12]
 1070 005e 1A44     		add	r2, r2, r3
 1071 0060 214B     		ldr	r3, .L74+4
 1072 0062 1B68     		ldr	r3, [r3]
 1073 0064 B3F85C30 		ldrh	r3, [r3, #92]
 1074 0068 1946     		mov	r1, r3
 1075 006a BB68     		ldr	r3, [r7, #8]
 1076 006c 03FB01F3 		mul	r3, r3, r1
 1077 0070 1344     		add	r3, r3, r2
 1078 0072 1846     		mov	r0, r3
 246:Generated_Source\PSoC6\pdl\drivers\peripheral\dma/cy_dma.c ****             _BOOL2FLD(CY_DW_CH_CTL_PREEMPTABLE,    channelConfig->preemptable) |
 1079              		.loc 2 246 0
 1080 0074 7B68     		ldr	r3, [r7, #4]
 1081 0076 1B79     		ldrb	r3, [r3, #4]	@ zero_extendqisi2
 1082 0078 002B     		cmp	r3, #0
 1083 007a 07D0     		beq	.L67
 1084              		.loc 2 246 0 is_stmt 0 discriminator 1
 1085 007c 1A4B     		ldr	r3, .L74+4
 1086 007e 1B68     		ldr	r3, [r3]
 1087 0080 93F85F30 		ldrb	r3, [r3, #95]	@ zero_extendqisi2
 1088 0084 1A46     		mov	r2, r3
 1089 0086 0123     		movs	r3, #1
 1090 0088 9340     		lsls	r3, r3, r2
 1091 008a 00E0     		b	.L68
 1092              	.L67:
 1093              		.loc 2 246 0 discriminator 2
 1094 008c 0023     		movs	r3, #0
 1095              	.L68:
 247:Generated_Source\PSoC6\pdl\drivers\peripheral\dma/cy_dma.c ****              _VAL2FLD(CY_DW_CH_CTL_PRIO,           channelConfig->priority)    |
 1096              		.loc 2 247 0 is_stmt 1
 1097 008e 7A68     		ldr	r2, [r7, #4]
 1098 0090 9268     		ldr	r2, [r2, #8]
 1099 0092 1549     		ldr	r1, .L74+4
 1100 0094 0968     		ldr	r1, [r1]
 1101 0096 91F85E10 		ldrb	r1, [r1, #94]	@ zero_extendqisi2
 1102 009a 02FA01F1 		lsl	r1, r2, r1
 1103 009e 124A     		ldr	r2, .L74+4
 1104 00a0 1268     		ldr	r2, [r2]
 1105 00a2 92F85E20 		ldrb	r2, [r2, #94]	@ zero_extendqisi2
 1106 00a6 1446     		mov	r4, r2
 1107 00a8 0322     		movs	r2, #3
 1108 00aa A240     		lsls	r2, r2, r4
 1109 00ac 0A40     		ands	r2, r2, r1
 246:Generated_Source\PSoC6\pdl\drivers\peripheral\dma/cy_dma.c ****             _BOOL2FLD(CY_DW_CH_CTL_PREEMPTABLE,    channelConfig->preemptable) |
 1110              		.loc 2 246 0
 1111 00ae 1A43     		orrs	r2, r2, r3
 248:Generated_Source\PSoC6\pdl\drivers\peripheral\dma/cy_dma.c ****             _BOOL2FLD(DW_CH_STRUCT_CH_CTL_ENABLED, channelConfig->enable)      |
ARM GAS  C:\Users\stijn\AppData\Local\Temp\ccPWVksW.s 			page 52


 1112              		.loc 2 248 0
 1113 00b0 7B68     		ldr	r3, [r7, #4]
 1114 00b2 1B7B     		ldrb	r3, [r3, #12]	@ zero_extendqisi2
 1115 00b4 002B     		cmp	r3, #0
 1116 00b6 02D0     		beq	.L69
 1117              		.loc 2 248 0 is_stmt 0 discriminator 1
 1118 00b8 4FF00043 		mov	r3, #-2147483648
 1119 00bc 00E0     		b	.L70
 1120              	.L69:
 1121              		.loc 2 248 0 discriminator 2
 1122 00be 0023     		movs	r3, #0
 1123              	.L70:
 247:Generated_Source\PSoC6\pdl\drivers\peripheral\dma/cy_dma.c ****              _VAL2FLD(CY_DW_CH_CTL_PRIO,           channelConfig->priority)    |
 1124              		.loc 2 247 0 is_stmt 1
 1125 00c0 1A43     		orrs	r2, r2, r3
 249:Generated_Source\PSoC6\pdl\drivers\peripheral\dma/cy_dma.c ****             _BOOL2FLD(DW_CH_STRUCT_CH_CTL_B,       channelConfig->bufferable);
 1126              		.loc 2 249 0
 1127 00c2 7B68     		ldr	r3, [r7, #4]
 1128 00c4 5B7B     		ldrb	r3, [r3, #13]	@ zero_extendqisi2
 1129 00c6 002B     		cmp	r3, #0
 1130 00c8 01D0     		beq	.L71
 1131              		.loc 2 249 0 is_stmt 0 discriminator 1
 1132 00ca 0423     		movs	r3, #4
 1133 00cc 00E0     		b	.L72
 1134              	.L71:
 1135              		.loc 2 249 0 discriminator 2
 1136 00ce 0023     		movs	r3, #0
 1137              	.L72:
 248:Generated_Source\PSoC6\pdl\drivers\peripheral\dma/cy_dma.c ****             _BOOL2FLD(DW_CH_STRUCT_CH_CTL_ENABLED, channelConfig->enable)      |
 1138              		.loc 2 248 0 is_stmt 1
 1139 00d0 1343     		orrs	r3, r3, r2
 245:Generated_Source\PSoC6\pdl\drivers\peripheral\dma/cy_dma.c ****             _BOOL2FLD(CY_DW_CH_CTL_PREEMPTABLE,    channelConfig->preemptable) |
 1140              		.loc 2 245 0
 1141 00d2 0360     		str	r3, [r0]
 250:Generated_Source\PSoC6\pdl\drivers\peripheral\dma/cy_dma.c ****         ret = CY_DMA_SUCCESS;
 1142              		.loc 2 250 0
 1143 00d4 0023     		movs	r3, #0
 1144 00d6 7B61     		str	r3, [r7, #20]
 1145              	.L65:
 251:Generated_Source\PSoC6\pdl\drivers\peripheral\dma/cy_dma.c ****     }
 252:Generated_Source\PSoC6\pdl\drivers\peripheral\dma/cy_dma.c **** 
 253:Generated_Source\PSoC6\pdl\drivers\peripheral\dma/cy_dma.c ****     return (ret);
 1146              		.loc 2 253 0
 1147 00d8 7B69     		ldr	r3, [r7, #20]
 254:Generated_Source\PSoC6\pdl\drivers\peripheral\dma/cy_dma.c **** }
 1148              		.loc 2 254 0
 1149 00da 1846     		mov	r0, r3
 1150 00dc 1C37     		adds	r7, r7, #28
 1151              		.cfi_def_cfa_offset 12
 1152 00de BD46     		mov	sp, r7
 1153              		.cfi_def_cfa_register 13
 1154              		@ sp needed
 1155 00e0 90BD     		pop	{r4, r7, pc}
 1156              	.L75:
 1157 00e2 00BF     		.align	2
 1158              	.L74:
 1159 00e4 01004E00 		.word	5111809
ARM GAS  C:\Users\stijn\AppData\Local\Temp\ccPWVksW.s 			page 53


 1160 00e8 00000000 		.word	cy_device
 1161 00ec 3C000000 		.word	.LC1
 1162              		.cfi_endproc
 1163              	.LFE186:
 1164              		.size	Cy_DMA_Channel_Init, .-Cy_DMA_Channel_Init
 1165              		.section	.text.Cy_DMA_Channel_DeInit,"ax",%progbits
 1166              		.align	2
 1167              		.global	Cy_DMA_Channel_DeInit
 1168              		.thumb
 1169              		.thumb_func
 1170              		.type	Cy_DMA_Channel_DeInit, %function
 1171              	Cy_DMA_Channel_DeInit:
 1172              	.LFB187:
 255:Generated_Source\PSoC6\pdl\drivers\peripheral\dma/cy_dma.c **** 
 256:Generated_Source\PSoC6\pdl\drivers\peripheral\dma/cy_dma.c **** 
 257:Generated_Source\PSoC6\pdl\drivers\peripheral\dma/cy_dma.c **** /*******************************************************************************
 258:Generated_Source\PSoC6\pdl\drivers\peripheral\dma/cy_dma.c **** * Function Name: Cy_DMA_Channel_DeInit
 259:Generated_Source\PSoC6\pdl\drivers\peripheral\dma/cy_dma.c **** ****************************************************************************//**
 260:Generated_Source\PSoC6\pdl\drivers\peripheral\dma/cy_dma.c **** *
 261:Generated_Source\PSoC6\pdl\drivers\peripheral\dma/cy_dma.c **** * Clears the content of registers corresponding to the channel.
 262:Generated_Source\PSoC6\pdl\drivers\peripheral\dma/cy_dma.c **** *
 263:Generated_Source\PSoC6\pdl\drivers\peripheral\dma/cy_dma.c **** * \param base
 264:Generated_Source\PSoC6\pdl\drivers\peripheral\dma/cy_dma.c **** * The pointer to the hardware DMA block.
 265:Generated_Source\PSoC6\pdl\drivers\peripheral\dma/cy_dma.c **** *
 266:Generated_Source\PSoC6\pdl\drivers\peripheral\dma/cy_dma.c **** * \param channel
 267:Generated_Source\PSoC6\pdl\drivers\peripheral\dma/cy_dma.c **** * A channel number.
 268:Generated_Source\PSoC6\pdl\drivers\peripheral\dma/cy_dma.c **** *
 269:Generated_Source\PSoC6\pdl\drivers\peripheral\dma/cy_dma.c **** * \funcusage 
 270:Generated_Source\PSoC6\pdl\drivers\peripheral\dma/cy_dma.c **** * \snippet dma\2.10\snippet\main.c snippet_Cy_DMA_Disable
 271:Generated_Source\PSoC6\pdl\drivers\peripheral\dma/cy_dma.c **** *
 272:Generated_Source\PSoC6\pdl\drivers\peripheral\dma/cy_dma.c **** *******************************************************************************/
 273:Generated_Source\PSoC6\pdl\drivers\peripheral\dma/cy_dma.c **** void Cy_DMA_Channel_DeInit(DW_Type * base, uint32_t channel)
 274:Generated_Source\PSoC6\pdl\drivers\peripheral\dma/cy_dma.c **** {
 1173              		.loc 2 274 0
 1174              		.cfi_startproc
 1175              		@ args = 0, pretend = 0, frame = 8
 1176              		@ frame_needed = 1, uses_anonymous_args = 0
 1177 0000 80B5     		push	{r7, lr}
 1178              		.cfi_def_cfa_offset 8
 1179              		.cfi_offset 7, -8
 1180              		.cfi_offset 14, -4
 1181 0002 82B0     		sub	sp, sp, #8
 1182              		.cfi_def_cfa_offset 16
 1183 0004 00AF     		add	r7, sp, #0
 1184              		.cfi_def_cfa_register 7
 1185 0006 7860     		str	r0, [r7, #4]
 1186 0008 3960     		str	r1, [r7]
 275:Generated_Source\PSoC6\pdl\drivers\peripheral\dma/cy_dma.c ****     CY_ASSERT_L1(CY_DMA_IS_CH_NR_VALID(channel));
 1187              		.loc 2 275 0
 1188 000a 2E4B     		ldr	r3, .L78
 1189 000c 1B68     		ldr	r3, [r3]
 1190 000e 93F83330 		ldrb	r3, [r3, #51]	@ zero_extendqisi2
 1191 0012 1A46     		mov	r2, r3
 1192 0014 3B68     		ldr	r3, [r7]
 1193 0016 9A42     		cmp	r2, r3
 1194 0018 04D8     		bhi	.L77
 1195              		.loc 2 275 0 is_stmt 0 discriminator 1
ARM GAS  C:\Users\stijn\AppData\Local\Temp\ccPWVksW.s 			page 54


 1196 001a 40F21311 		movw	r1, #275
 1197 001e 2A48     		ldr	r0, .L78+4
 1198 0020 FFF7FEFF 		bl	Cy_SysLib_AssertFailed
 1199              	.L77:
 276:Generated_Source\PSoC6\pdl\drivers\peripheral\dma/cy_dma.c ****     
 277:Generated_Source\PSoC6\pdl\drivers\peripheral\dma/cy_dma.c ****     DW_CH_CTL(base, channel) = 0UL;
 1200              		.loc 2 277 0 is_stmt 1
 1201 0024 274B     		ldr	r3, .L78
 1202 0026 1B68     		ldr	r3, [r3]
 1203 0028 B3F85A30 		ldrh	r3, [r3, #90]
 1204 002c 1A46     		mov	r2, r3
 1205 002e 7B68     		ldr	r3, [r7, #4]
 1206 0030 1A44     		add	r2, r2, r3
 1207 0032 244B     		ldr	r3, .L78
 1208 0034 1B68     		ldr	r3, [r3]
 1209 0036 B3F85C30 		ldrh	r3, [r3, #92]
 1210 003a 1946     		mov	r1, r3
 1211 003c 3B68     		ldr	r3, [r7]
 1212 003e 03FB01F3 		mul	r3, r3, r1
 1213 0042 1344     		add	r3, r3, r2
 1214 0044 1A46     		mov	r2, r3
 1215 0046 0023     		movs	r3, #0
 1216 0048 1360     		str	r3, [r2]
 278:Generated_Source\PSoC6\pdl\drivers\peripheral\dma/cy_dma.c ****     DW_CH_IDX(base, channel) = 0UL;
 1217              		.loc 2 278 0
 1218 004a 1E4B     		ldr	r3, .L78
 1219 004c 1B68     		ldr	r3, [r3]
 1220 004e B3F85A30 		ldrh	r3, [r3, #90]
 1221 0052 1A46     		mov	r2, r3
 1222 0054 7B68     		ldr	r3, [r7, #4]
 1223 0056 1A44     		add	r2, r2, r3
 1224 0058 1A4B     		ldr	r3, .L78
 1225 005a 1B68     		ldr	r3, [r3]
 1226 005c B3F85C30 		ldrh	r3, [r3, #92]
 1227 0060 1946     		mov	r1, r3
 1228 0062 3B68     		ldr	r3, [r7]
 1229 0064 03FB01F3 		mul	r3, r3, r1
 1230 0068 1344     		add	r3, r3, r2
 1231 006a 1A46     		mov	r2, r3
 1232 006c 0023     		movs	r3, #0
 1233 006e 9360     		str	r3, [r2, #8]
 279:Generated_Source\PSoC6\pdl\drivers\peripheral\dma/cy_dma.c ****     DW_CH_CURR_PTR(base, channel) = 0UL;
 1234              		.loc 2 279 0
 1235 0070 144B     		ldr	r3, .L78
 1236 0072 1B68     		ldr	r3, [r3]
 1237 0074 B3F85A30 		ldrh	r3, [r3, #90]
 1238 0078 1A46     		mov	r2, r3
 1239 007a 7B68     		ldr	r3, [r7, #4]
 1240 007c 1A44     		add	r2, r2, r3
 1241 007e 114B     		ldr	r3, .L78
 1242 0080 1B68     		ldr	r3, [r3]
 1243 0082 B3F85C30 		ldrh	r3, [r3, #92]
 1244 0086 1946     		mov	r1, r3
 1245 0088 3B68     		ldr	r3, [r7]
 1246 008a 03FB01F3 		mul	r3, r3, r1
 1247 008e 1344     		add	r3, r3, r2
 1248 0090 1A46     		mov	r2, r3
ARM GAS  C:\Users\stijn\AppData\Local\Temp\ccPWVksW.s 			page 55


 1249 0092 0023     		movs	r3, #0
 1250 0094 D360     		str	r3, [r2, #12]
 280:Generated_Source\PSoC6\pdl\drivers\peripheral\dma/cy_dma.c ****     DW_CH_INTR_MASK(base, channel) = 0UL;
 1251              		.loc 2 280 0
 1252 0096 0B4B     		ldr	r3, .L78
 1253 0098 1B68     		ldr	r3, [r3]
 1254 009a B3F85A30 		ldrh	r3, [r3, #90]
 1255 009e 1A46     		mov	r2, r3
 1256 00a0 7B68     		ldr	r3, [r7, #4]
 1257 00a2 1A44     		add	r2, r2, r3
 1258 00a4 074B     		ldr	r3, .L78
 1259 00a6 1B68     		ldr	r3, [r3]
 1260 00a8 B3F85C30 		ldrh	r3, [r3, #92]
 1261 00ac 1946     		mov	r1, r3
 1262 00ae 3B68     		ldr	r3, [r7]
 1263 00b0 03FB01F3 		mul	r3, r3, r1
 1264 00b4 1344     		add	r3, r3, r2
 1265 00b6 1A46     		mov	r2, r3
 1266 00b8 0023     		movs	r3, #0
 1267 00ba 9361     		str	r3, [r2, #24]
 281:Generated_Source\PSoC6\pdl\drivers\peripheral\dma/cy_dma.c **** }
 1268              		.loc 2 281 0
 1269 00bc 00BF     		nop
 1270 00be 0837     		adds	r7, r7, #8
 1271              		.cfi_def_cfa_offset 8
 1272 00c0 BD46     		mov	sp, r7
 1273              		.cfi_def_cfa_register 13
 1274              		@ sp needed
 1275 00c2 80BD     		pop	{r7, pc}
 1276              	.L79:
 1277              		.align	2
 1278              	.L78:
 1279 00c4 00000000 		.word	cy_device
 1280 00c8 3C000000 		.word	.LC1
 1281              		.cfi_endproc
 1282              	.LFE187:
 1283              		.size	Cy_DMA_Channel_DeInit, .-Cy_DMA_Channel_DeInit
 1284              		.section	.text.Cy_DMA_Descriptor_SetNextDescriptor,"ax",%progbits
 1285              		.align	2
 1286              		.global	Cy_DMA_Descriptor_SetNextDescriptor
 1287              		.thumb
 1288              		.thumb_func
 1289              		.type	Cy_DMA_Descriptor_SetNextDescriptor, %function
 1290              	Cy_DMA_Descriptor_SetNextDescriptor:
 1291              	.LFB188:
 282:Generated_Source\PSoC6\pdl\drivers\peripheral\dma/cy_dma.c **** 
 283:Generated_Source\PSoC6\pdl\drivers\peripheral\dma/cy_dma.c **** 
 284:Generated_Source\PSoC6\pdl\drivers\peripheral\dma/cy_dma.c **** /*******************************************************************************
 285:Generated_Source\PSoC6\pdl\drivers\peripheral\dma/cy_dma.c **** * Function Name: Cy_DMA_Descriptor_SetNextDescriptor
 286:Generated_Source\PSoC6\pdl\drivers\peripheral\dma/cy_dma.c **** ****************************************************************************//**
 287:Generated_Source\PSoC6\pdl\drivers\peripheral\dma/cy_dma.c **** *
 288:Generated_Source\PSoC6\pdl\drivers\peripheral\dma/cy_dma.c **** * Sets a Next Descriptor for the specified descriptor.
 289:Generated_Source\PSoC6\pdl\drivers\peripheral\dma/cy_dma.c **** *
 290:Generated_Source\PSoC6\pdl\drivers\peripheral\dma/cy_dma.c **** * Based on the descriptor type, the offset of the address for the next descriptor may
 291:Generated_Source\PSoC6\pdl\drivers\peripheral\dma/cy_dma.c **** * vary. For the single-transfer descriptor type, this register is at offset 0x0c.
 292:Generated_Source\PSoC6\pdl\drivers\peripheral\dma/cy_dma.c **** * For the 1D-transfer descriptor type, this register is at offset 0x10. 
 293:Generated_Source\PSoC6\pdl\drivers\peripheral\dma/cy_dma.c **** * For the 2D-transfer descriptor type, this register is at offset 0x14.  
ARM GAS  C:\Users\stijn\AppData\Local\Temp\ccPWVksW.s 			page 56


 294:Generated_Source\PSoC6\pdl\drivers\peripheral\dma/cy_dma.c **** *
 295:Generated_Source\PSoC6\pdl\drivers\peripheral\dma/cy_dma.c **** * \param descriptor
 296:Generated_Source\PSoC6\pdl\drivers\peripheral\dma/cy_dma.c **** * The descriptor structure instance declared by the user/component.
 297:Generated_Source\PSoC6\pdl\drivers\peripheral\dma/cy_dma.c **** *
 298:Generated_Source\PSoC6\pdl\drivers\peripheral\dma/cy_dma.c **** * \param nextDescriptor
 299:Generated_Source\PSoC6\pdl\drivers\peripheral\dma/cy_dma.c **** * The pointer to the next descriptor.
 300:Generated_Source\PSoC6\pdl\drivers\peripheral\dma/cy_dma.c **** *
 301:Generated_Source\PSoC6\pdl\drivers\peripheral\dma/cy_dma.c **** * \funcusage 
 302:Generated_Source\PSoC6\pdl\drivers\peripheral\dma/cy_dma.c **** * \snippet dma\2.10\snippet\main.c snippet_Cy_DMA_Descriptor_SetterFunctions
 303:Generated_Source\PSoC6\pdl\drivers\peripheral\dma/cy_dma.c **** *
 304:Generated_Source\PSoC6\pdl\drivers\peripheral\dma/cy_dma.c **** *******************************************************************************/
 305:Generated_Source\PSoC6\pdl\drivers\peripheral\dma/cy_dma.c **** void Cy_DMA_Descriptor_SetNextDescriptor(cy_stc_dma_descriptor_t * descriptor, cy_stc_dma_descripto
 306:Generated_Source\PSoC6\pdl\drivers\peripheral\dma/cy_dma.c **** {   
 1292              		.loc 2 306 0
 1293              		.cfi_startproc
 1294              		@ args = 0, pretend = 0, frame = 8
 1295              		@ frame_needed = 1, uses_anonymous_args = 0
 1296              		@ link register save eliminated.
 1297 0000 80B4     		push	{r7}
 1298              		.cfi_def_cfa_offset 4
 1299              		.cfi_offset 7, -4
 1300 0002 83B0     		sub	sp, sp, #12
 1301              		.cfi_def_cfa_offset 16
 1302 0004 00AF     		add	r7, sp, #0
 1303              		.cfi_def_cfa_register 7
 1304 0006 7860     		str	r0, [r7, #4]
 1305 0008 3960     		str	r1, [r7]
 307:Generated_Source\PSoC6\pdl\drivers\peripheral\dma/cy_dma.c ****     switch((cy_en_dma_descriptor_type_t) _FLD2VAL(CY_DMA_CTL_TYPE, descriptor->ctl))
 1306              		.loc 2 307 0
 1307 000a 7B68     		ldr	r3, [r7, #4]
 1308 000c 1B68     		ldr	r3, [r3]
 1309 000e 9B0F     		lsrs	r3, r3, #30
 1310 0010 032B     		cmp	r3, #3
 1311 0012 17D8     		bhi	.L87
 1312 0014 01A2     		adr	r2, .L83
 1313 0016 52F823F0 		ldr	pc, [r2, r3, lsl #2]
 1314 001a 00BF     		.p2align 2
 1315              	.L83:
 1316 001c 2D000000 		.word	.L82+1
 1317 0020 35000000 		.word	.L84+1
 1318 0024 3D000000 		.word	.L85+1
 1319 0028 35000000 		.word	.L84+1
 1320              		.p2align 1
 1321              	.L82:
 308:Generated_Source\PSoC6\pdl\drivers\peripheral\dma/cy_dma.c ****     {
 309:Generated_Source\PSoC6\pdl\drivers\peripheral\dma/cy_dma.c ****         case CY_DMA_SINGLE_TRANSFER:
 310:Generated_Source\PSoC6\pdl\drivers\peripheral\dma/cy_dma.c ****             descriptor->xCtl = (uint32_t)nextDescriptor;
 1322              		.loc 2 310 0
 1323 002c 3A68     		ldr	r2, [r7]
 1324 002e 7B68     		ldr	r3, [r7, #4]
 1325 0030 DA60     		str	r2, [r3, #12]
 311:Generated_Source\PSoC6\pdl\drivers\peripheral\dma/cy_dma.c ****             break;
 1326              		.loc 2 311 0
 1327 0032 08E0     		b	.L86
 1328              	.L84:
 312:Generated_Source\PSoC6\pdl\drivers\peripheral\dma/cy_dma.c **** 
 313:Generated_Source\PSoC6\pdl\drivers\peripheral\dma/cy_dma.c ****         case CY_DMA_CRC_TRANSFER:
ARM GAS  C:\Users\stijn\AppData\Local\Temp\ccPWVksW.s 			page 57


 314:Generated_Source\PSoC6\pdl\drivers\peripheral\dma/cy_dma.c ****         case CY_DMA_1D_TRANSFER:
 315:Generated_Source\PSoC6\pdl\drivers\peripheral\dma/cy_dma.c ****             descriptor->yCtl = (uint32_t)nextDescriptor;
 1329              		.loc 2 315 0
 1330 0034 3A68     		ldr	r2, [r7]
 1331 0036 7B68     		ldr	r3, [r7, #4]
 1332 0038 1A61     		str	r2, [r3, #16]
 316:Generated_Source\PSoC6\pdl\drivers\peripheral\dma/cy_dma.c ****             break;
 1333              		.loc 2 316 0
 1334 003a 04E0     		b	.L86
 1335              	.L85:
 317:Generated_Source\PSoC6\pdl\drivers\peripheral\dma/cy_dma.c ****             
 318:Generated_Source\PSoC6\pdl\drivers\peripheral\dma/cy_dma.c ****         case CY_DMA_2D_TRANSFER:
 319:Generated_Source\PSoC6\pdl\drivers\peripheral\dma/cy_dma.c ****             descriptor->nextPtr = (uint32_t)nextDescriptor;
 1336              		.loc 2 319 0
 1337 003c 3A68     		ldr	r2, [r7]
 1338 003e 7B68     		ldr	r3, [r7, #4]
 1339 0040 5A61     		str	r2, [r3, #20]
 320:Generated_Source\PSoC6\pdl\drivers\peripheral\dma/cy_dma.c ****             break;
 1340              		.loc 2 320 0
 1341 0042 00E0     		b	.L86
 1342              	.L87:
 321:Generated_Source\PSoC6\pdl\drivers\peripheral\dma/cy_dma.c ****             
 322:Generated_Source\PSoC6\pdl\drivers\peripheral\dma/cy_dma.c ****         default:
 323:Generated_Source\PSoC6\pdl\drivers\peripheral\dma/cy_dma.c ****             /* Unsupported type of descriptor */
 324:Generated_Source\PSoC6\pdl\drivers\peripheral\dma/cy_dma.c ****             break;
 1343              		.loc 2 324 0
 1344 0044 00BF     		nop
 1345              	.L86:
 325:Generated_Source\PSoC6\pdl\drivers\peripheral\dma/cy_dma.c ****     }
 326:Generated_Source\PSoC6\pdl\drivers\peripheral\dma/cy_dma.c **** }
 1346              		.loc 2 326 0
 1347 0046 00BF     		nop
 1348 0048 0C37     		adds	r7, r7, #12
 1349              		.cfi_def_cfa_offset 4
 1350 004a BD46     		mov	sp, r7
 1351              		.cfi_def_cfa_register 13
 1352              		@ sp needed
 1353 004c 5DF8047B 		ldr	r7, [sp], #4
 1354              		.cfi_restore 7
 1355              		.cfi_def_cfa_offset 0
 1356 0050 7047     		bx	lr
 1357              		.cfi_endproc
 1358              	.LFE188:
 1359              		.size	Cy_DMA_Descriptor_SetNextDescriptor, .-Cy_DMA_Descriptor_SetNextDescriptor
 1360 0052 00BF     		.section	.text.Cy_DMA_Descriptor_GetNextDescriptor,"ax",%progbits
 1361              		.align	2
 1362              		.global	Cy_DMA_Descriptor_GetNextDescriptor
 1363              		.thumb
 1364              		.thumb_func
 1365              		.type	Cy_DMA_Descriptor_GetNextDescriptor, %function
 1366              	Cy_DMA_Descriptor_GetNextDescriptor:
 1367              	.LFB189:
 327:Generated_Source\PSoC6\pdl\drivers\peripheral\dma/cy_dma.c **** 
 328:Generated_Source\PSoC6\pdl\drivers\peripheral\dma/cy_dma.c **** 
 329:Generated_Source\PSoC6\pdl\drivers\peripheral\dma/cy_dma.c **** /*******************************************************************************
 330:Generated_Source\PSoC6\pdl\drivers\peripheral\dma/cy_dma.c **** * Function Name: Cy_DMA_Descriptor_GetNextDescriptor
 331:Generated_Source\PSoC6\pdl\drivers\peripheral\dma/cy_dma.c **** ****************************************************************************//**
ARM GAS  C:\Users\stijn\AppData\Local\Temp\ccPWVksW.s 			page 58


 332:Generated_Source\PSoC6\pdl\drivers\peripheral\dma/cy_dma.c **** *
 333:Generated_Source\PSoC6\pdl\drivers\peripheral\dma/cy_dma.c **** * Returns a next descriptor address of the specified descriptor.
 334:Generated_Source\PSoC6\pdl\drivers\peripheral\dma/cy_dma.c **** *
 335:Generated_Source\PSoC6\pdl\drivers\peripheral\dma/cy_dma.c **** * Based on the descriptor type, the offset of the address for the next descriptor may
 336:Generated_Source\PSoC6\pdl\drivers\peripheral\dma/cy_dma.c **** * vary. For a single-transfer descriptor type, this register is at offset 0x0c.
 337:Generated_Source\PSoC6\pdl\drivers\peripheral\dma/cy_dma.c **** * For the 1D-transfer descriptor type, this register is at offset 0x10. 
 338:Generated_Source\PSoC6\pdl\drivers\peripheral\dma/cy_dma.c **** * For the 2D-transfer descriptor type, this register is at offset 0x14.  
 339:Generated_Source\PSoC6\pdl\drivers\peripheral\dma/cy_dma.c **** *
 340:Generated_Source\PSoC6\pdl\drivers\peripheral\dma/cy_dma.c **** * \param descriptor
 341:Generated_Source\PSoC6\pdl\drivers\peripheral\dma/cy_dma.c **** * The descriptor structure instance declared by the user/component.
 342:Generated_Source\PSoC6\pdl\drivers\peripheral\dma/cy_dma.c **** *
 343:Generated_Source\PSoC6\pdl\drivers\peripheral\dma/cy_dma.c **** * \return
 344:Generated_Source\PSoC6\pdl\drivers\peripheral\dma/cy_dma.c **** * The pointer to the next descriptor.
 345:Generated_Source\PSoC6\pdl\drivers\peripheral\dma/cy_dma.c **** *
 346:Generated_Source\PSoC6\pdl\drivers\peripheral\dma/cy_dma.c **** * \funcusage 
 347:Generated_Source\PSoC6\pdl\drivers\peripheral\dma/cy_dma.c **** * \snippet dma\2.10\snippet\main.c snippet_Cy_DMA_Descriptor_GetterFunctions
 348:Generated_Source\PSoC6\pdl\drivers\peripheral\dma/cy_dma.c **** *
 349:Generated_Source\PSoC6\pdl\drivers\peripheral\dma/cy_dma.c **** *******************************************************************************/
 350:Generated_Source\PSoC6\pdl\drivers\peripheral\dma/cy_dma.c **** cy_stc_dma_descriptor_t * Cy_DMA_Descriptor_GetNextDescriptor(cy_stc_dma_descriptor_t const * descr
 351:Generated_Source\PSoC6\pdl\drivers\peripheral\dma/cy_dma.c **** {
 1368              		.loc 2 351 0
 1369              		.cfi_startproc
 1370              		@ args = 0, pretend = 0, frame = 16
 1371              		@ frame_needed = 1, uses_anonymous_args = 0
 1372              		@ link register save eliminated.
 1373 0000 80B4     		push	{r7}
 1374              		.cfi_def_cfa_offset 4
 1375              		.cfi_offset 7, -4
 1376 0002 85B0     		sub	sp, sp, #20
 1377              		.cfi_def_cfa_offset 24
 1378 0004 00AF     		add	r7, sp, #0
 1379              		.cfi_def_cfa_register 7
 1380 0006 7860     		str	r0, [r7, #4]
 352:Generated_Source\PSoC6\pdl\drivers\peripheral\dma/cy_dma.c ****     cy_stc_dma_descriptor_t * retVal = NULL;
 1381              		.loc 2 352 0
 1382 0008 0023     		movs	r3, #0
 1383 000a FB60     		str	r3, [r7, #12]
 353:Generated_Source\PSoC6\pdl\drivers\peripheral\dma/cy_dma.c **** 
 354:Generated_Source\PSoC6\pdl\drivers\peripheral\dma/cy_dma.c ****     switch((cy_en_dma_descriptor_type_t) _FLD2VAL(CY_DMA_CTL_TYPE, descriptor->ctl))
 1384              		.loc 2 354 0
 1385 000c 7B68     		ldr	r3, [r7, #4]
 1386 000e 1B68     		ldr	r3, [r3]
 1387 0010 9B0F     		lsrs	r3, r3, #30
 1388 0012 032B     		cmp	r3, #3
 1389 0014 16D8     		bhi	.L96
 1390 0016 01A2     		adr	r2, .L91
 1391 0018 52F823F0 		ldr	pc, [r2, r3, lsl #2]
 1392              		.p2align 2
 1393              	.L91:
 1394 001c 2D000000 		.word	.L90+1
 1395 0020 35000000 		.word	.L92+1
 1396 0024 3D000000 		.word	.L93+1
 1397 0028 35000000 		.word	.L92+1
 1398              		.p2align 1
 1399              	.L90:
 355:Generated_Source\PSoC6\pdl\drivers\peripheral\dma/cy_dma.c ****     {
 356:Generated_Source\PSoC6\pdl\drivers\peripheral\dma/cy_dma.c ****         case CY_DMA_SINGLE_TRANSFER:
ARM GAS  C:\Users\stijn\AppData\Local\Temp\ccPWVksW.s 			page 59


 357:Generated_Source\PSoC6\pdl\drivers\peripheral\dma/cy_dma.c ****             retVal = (cy_stc_dma_descriptor_t*) descriptor->xCtl;
 1400              		.loc 2 357 0
 1401 002c 7B68     		ldr	r3, [r7, #4]
 1402 002e DB68     		ldr	r3, [r3, #12]
 1403 0030 FB60     		str	r3, [r7, #12]
 358:Generated_Source\PSoC6\pdl\drivers\peripheral\dma/cy_dma.c ****             break;
 1404              		.loc 2 358 0
 1405 0032 08E0     		b	.L94
 1406              	.L92:
 359:Generated_Source\PSoC6\pdl\drivers\peripheral\dma/cy_dma.c **** 
 360:Generated_Source\PSoC6\pdl\drivers\peripheral\dma/cy_dma.c ****         case CY_DMA_CRC_TRANSFER:
 361:Generated_Source\PSoC6\pdl\drivers\peripheral\dma/cy_dma.c ****         case CY_DMA_1D_TRANSFER:
 362:Generated_Source\PSoC6\pdl\drivers\peripheral\dma/cy_dma.c ****             retVal = (cy_stc_dma_descriptor_t*) descriptor->yCtl;
 1407              		.loc 2 362 0
 1408 0034 7B68     		ldr	r3, [r7, #4]
 1409 0036 1B69     		ldr	r3, [r3, #16]
 1410 0038 FB60     		str	r3, [r7, #12]
 363:Generated_Source\PSoC6\pdl\drivers\peripheral\dma/cy_dma.c ****             break;
 1411              		.loc 2 363 0
 1412 003a 04E0     		b	.L94
 1413              	.L93:
 364:Generated_Source\PSoC6\pdl\drivers\peripheral\dma/cy_dma.c ****             
 365:Generated_Source\PSoC6\pdl\drivers\peripheral\dma/cy_dma.c ****         case CY_DMA_2D_TRANSFER:
 366:Generated_Source\PSoC6\pdl\drivers\peripheral\dma/cy_dma.c ****             retVal = (cy_stc_dma_descriptor_t*) descriptor->nextPtr;
 1414              		.loc 2 366 0
 1415 003c 7B68     		ldr	r3, [r7, #4]
 1416 003e 5B69     		ldr	r3, [r3, #20]
 1417 0040 FB60     		str	r3, [r7, #12]
 367:Generated_Source\PSoC6\pdl\drivers\peripheral\dma/cy_dma.c ****             break;
 1418              		.loc 2 367 0
 1419 0042 00E0     		b	.L94
 1420              	.L96:
 368:Generated_Source\PSoC6\pdl\drivers\peripheral\dma/cy_dma.c ****             
 369:Generated_Source\PSoC6\pdl\drivers\peripheral\dma/cy_dma.c ****         default:
 370:Generated_Source\PSoC6\pdl\drivers\peripheral\dma/cy_dma.c ****             /* An unsupported type of the descriptor */
 371:Generated_Source\PSoC6\pdl\drivers\peripheral\dma/cy_dma.c ****             break;
 1421              		.loc 2 371 0
 1422 0044 00BF     		nop
 1423              	.L94:
 372:Generated_Source\PSoC6\pdl\drivers\peripheral\dma/cy_dma.c ****     }
 373:Generated_Source\PSoC6\pdl\drivers\peripheral\dma/cy_dma.c ****     
 374:Generated_Source\PSoC6\pdl\drivers\peripheral\dma/cy_dma.c ****     return (retVal);
 1424              		.loc 2 374 0
 1425 0046 FB68     		ldr	r3, [r7, #12]
 375:Generated_Source\PSoC6\pdl\drivers\peripheral\dma/cy_dma.c **** }
 1426              		.loc 2 375 0
 1427 0048 1846     		mov	r0, r3
 1428 004a 1437     		adds	r7, r7, #20
 1429              		.cfi_def_cfa_offset 4
 1430 004c BD46     		mov	sp, r7
 1431              		.cfi_def_cfa_register 13
 1432              		@ sp needed
 1433 004e 5DF8047B 		ldr	r7, [sp], #4
 1434              		.cfi_restore 7
 1435              		.cfi_def_cfa_offset 0
 1436 0052 7047     		bx	lr
 1437              		.cfi_endproc
ARM GAS  C:\Users\stijn\AppData\Local\Temp\ccPWVksW.s 			page 60


 1438              	.LFE189:
 1439              		.size	Cy_DMA_Descriptor_GetNextDescriptor, .-Cy_DMA_Descriptor_GetNextDescriptor
 1440              		.section	.text.Cy_DMA_Descriptor_SetDescriptorType,"ax",%progbits
 1441              		.align	2
 1442              		.global	Cy_DMA_Descriptor_SetDescriptorType
 1443              		.thumb
 1444              		.thumb_func
 1445              		.type	Cy_DMA_Descriptor_SetDescriptorType, %function
 1446              	Cy_DMA_Descriptor_SetDescriptorType:
 1447              	.LFB190:
 376:Generated_Source\PSoC6\pdl\drivers\peripheral\dma/cy_dma.c **** 
 377:Generated_Source\PSoC6\pdl\drivers\peripheral\dma/cy_dma.c **** 
 378:Generated_Source\PSoC6\pdl\drivers\peripheral\dma/cy_dma.c **** /*******************************************************************************
 379:Generated_Source\PSoC6\pdl\drivers\peripheral\dma/cy_dma.c **** * Function Name: Cy_DMA_Descriptor_SetDescriptorType
 380:Generated_Source\PSoC6\pdl\drivers\peripheral\dma/cy_dma.c **** ****************************************************************************//**
 381:Generated_Source\PSoC6\pdl\drivers\peripheral\dma/cy_dma.c **** *
 382:Generated_Source\PSoC6\pdl\drivers\peripheral\dma/cy_dma.c **** * Sets the descriptor's type for the specified descriptor.
 383:Generated_Source\PSoC6\pdl\drivers\peripheral\dma/cy_dma.c **** * Moves the next descriptor register value into the proper place in accordance
 384:Generated_Source\PSoC6\pdl\drivers\peripheral\dma/cy_dma.c **** * to the actual descriptor type.
 385:Generated_Source\PSoC6\pdl\drivers\peripheral\dma/cy_dma.c **** * During the descriptor's type changing, the Xloop and Yloop settings, such as 
 386:Generated_Source\PSoC6\pdl\drivers\peripheral\dma/cy_dma.c **** * data count and source/destination increment (i.e. the content of the 
 387:Generated_Source\PSoC6\pdl\drivers\peripheral\dma/cy_dma.c **** * xCtl and yCtl descriptor registers) might be lost (overridden by the 
 388:Generated_Source\PSoC6\pdl\drivers\peripheral\dma/cy_dma.c **** * next descriptor value) because of the different descriptor registers structures
 389:Generated_Source\PSoC6\pdl\drivers\peripheral\dma/cy_dma.c **** * for different descriptor types. Carefully set up the Xloop
 390:Generated_Source\PSoC6\pdl\drivers\peripheral\dma/cy_dma.c **** * (and Yloop, if used) data count and source/destination increment if the
 391:Generated_Source\PSoC6\pdl\drivers\peripheral\dma/cy_dma.c **** * descriptor type is changed from a simpler to a more complicated type 
 392:Generated_Source\PSoC6\pdl\drivers\peripheral\dma/cy_dma.c **** * ("single transfer" -> "1D", "1D" -> "2D", etc.).
 393:Generated_Source\PSoC6\pdl\drivers\peripheral\dma/cy_dma.c **** * 
 394:Generated_Source\PSoC6\pdl\drivers\peripheral\dma/cy_dma.c **** * \param descriptor
 395:Generated_Source\PSoC6\pdl\drivers\peripheral\dma/cy_dma.c **** * The descriptor structure instance declared by the user/component.
 396:Generated_Source\PSoC6\pdl\drivers\peripheral\dma/cy_dma.c **** *
 397:Generated_Source\PSoC6\pdl\drivers\peripheral\dma/cy_dma.c **** * \param descriptorType 
 398:Generated_Source\PSoC6\pdl\drivers\peripheral\dma/cy_dma.c **** * The descriptor type \ref cy_en_dma_descriptor_type_t.
 399:Generated_Source\PSoC6\pdl\drivers\peripheral\dma/cy_dma.c **** *
 400:Generated_Source\PSoC6\pdl\drivers\peripheral\dma/cy_dma.c **** * \funcusage 
 401:Generated_Source\PSoC6\pdl\drivers\peripheral\dma/cy_dma.c **** * \snippet dma\2.10\snippet\main.c snippet_Cy_DMA_Descriptor_SetterFunctions
 402:Generated_Source\PSoC6\pdl\drivers\peripheral\dma/cy_dma.c **** *
 403:Generated_Source\PSoC6\pdl\drivers\peripheral\dma/cy_dma.c **** *******************************************************************************/
 404:Generated_Source\PSoC6\pdl\drivers\peripheral\dma/cy_dma.c **** void Cy_DMA_Descriptor_SetDescriptorType(cy_stc_dma_descriptor_t * descriptor, cy_en_dma_descriptor
 405:Generated_Source\PSoC6\pdl\drivers\peripheral\dma/cy_dma.c **** {
 1448              		.loc 2 405 0
 1449              		.cfi_startproc
 1450              		@ args = 0, pretend = 0, frame = 16
 1451              		@ frame_needed = 1, uses_anonymous_args = 0
 1452 0000 80B5     		push	{r7, lr}
 1453              		.cfi_def_cfa_offset 8
 1454              		.cfi_offset 7, -8
 1455              		.cfi_offset 14, -4
 1456 0002 84B0     		sub	sp, sp, #16
 1457              		.cfi_def_cfa_offset 24
 1458 0004 00AF     		add	r7, sp, #0
 1459              		.cfi_def_cfa_register 7
 1460 0006 7860     		str	r0, [r7, #4]
 1461 0008 0B46     		mov	r3, r1
 1462 000a FB70     		strb	r3, [r7, #3]
 406:Generated_Source\PSoC6\pdl\drivers\peripheral\dma/cy_dma.c ****     CY_ASSERT_L3(CY_DMA_IS_TYPE_VALID(descriptorType));
 1463              		.loc 2 406 0
ARM GAS  C:\Users\stijn\AppData\Local\Temp\ccPWVksW.s 			page 61


 1464 000c FB78     		ldrb	r3, [r7, #3]	@ zero_extendqisi2
 1465 000e 002B     		cmp	r3, #0
 1466 0010 0DD0     		beq	.L98
 1467              		.loc 2 406 0 is_stmt 0 discriminator 1
 1468 0012 FB78     		ldrb	r3, [r7, #3]	@ zero_extendqisi2
 1469 0014 012B     		cmp	r3, #1
 1470 0016 0AD0     		beq	.L98
 1471              		.loc 2 406 0 discriminator 2
 1472 0018 FB78     		ldrb	r3, [r7, #3]	@ zero_extendqisi2
 1473 001a 022B     		cmp	r3, #2
 1474 001c 07D0     		beq	.L98
 1475              		.loc 2 406 0 discriminator 3
 1476 001e FB78     		ldrb	r3, [r7, #3]	@ zero_extendqisi2
 1477 0020 032B     		cmp	r3, #3
 1478 0022 04D0     		beq	.L98
 1479              		.loc 2 406 0 discriminator 4
 1480 0024 4FF4CB71 		mov	r1, #406
 1481 0028 1448     		ldr	r0, .L102
 1482 002a FFF7FEFF 		bl	Cy_SysLib_AssertFailed
 1483              	.L98:
 407:Generated_Source\PSoC6\pdl\drivers\peripheral\dma/cy_dma.c ****     
 408:Generated_Source\PSoC6\pdl\drivers\peripheral\dma/cy_dma.c ****     if ((CY_DMA_CRC_TRANSFER != descriptorType) || CY_DW_CRC)
 1484              		.loc 2 408 0 is_stmt 1
 1485 002e FB78     		ldrb	r3, [r7, #3]	@ zero_extendqisi2
 1486 0030 032B     		cmp	r3, #3
 1487 0032 05D1     		bne	.L99
 1488              		.loc 2 408 0 is_stmt 0 discriminator 1
 1489 0034 124B     		ldr	r3, .L102+4
 1490 0036 1B68     		ldr	r3, [r3]
 1491 0038 93F82A30 		ldrb	r3, [r3, #42]	@ zero_extendqisi2
 1492 003c 012B     		cmp	r3, #1
 1493 003e 18D9     		bls	.L101
 1494              	.L99:
 409:Generated_Source\PSoC6\pdl\drivers\peripheral\dma/cy_dma.c ****     {
 410:Generated_Source\PSoC6\pdl\drivers\peripheral\dma/cy_dma.c ****         if (descriptorType != Cy_DMA_Descriptor_GetDescriptorType(descriptor)) /* Do not perform if
 1495              		.loc 2 410 0 is_stmt 1
 1496 0040 7868     		ldr	r0, [r7, #4]
 1497 0042 FFF7FEFF 		bl	Cy_DMA_Descriptor_GetDescriptorType
 1498 0046 0346     		mov	r3, r0
 1499 0048 1A46     		mov	r2, r3
 1500 004a FB78     		ldrb	r3, [r7, #3]	@ zero_extendqisi2
 1501 004c 9342     		cmp	r3, r2
 1502 004e 10D0     		beq	.L101
 1503              	.LBB2:
 411:Generated_Source\PSoC6\pdl\drivers\peripheral\dma/cy_dma.c ****         {
 412:Generated_Source\PSoC6\pdl\drivers\peripheral\dma/cy_dma.c ****             /* Store the current nextDescriptor pointer. */
 413:Generated_Source\PSoC6\pdl\drivers\peripheral\dma/cy_dma.c ****             cy_stc_dma_descriptor_t * locNextDescriptor = Cy_DMA_Descriptor_GetNextDescriptor(descr
 1504              		.loc 2 413 0
 1505 0050 7868     		ldr	r0, [r7, #4]
 1506 0052 FFF7FEFF 		bl	Cy_DMA_Descriptor_GetNextDescriptor
 1507 0056 F860     		str	r0, [r7, #12]
 414:Generated_Source\PSoC6\pdl\drivers\peripheral\dma/cy_dma.c ****             /* Change the descriptor type. */
 415:Generated_Source\PSoC6\pdl\drivers\peripheral\dma/cy_dma.c ****             CY_REG32_CLR_SET(descriptor->ctl, CY_DMA_CTL_TYPE, descriptorType);
 1508              		.loc 2 415 0
 1509 0058 7B68     		ldr	r3, [r7, #4]
 1510 005a 1B68     		ldr	r3, [r3]
 1511 005c 23F04042 		bic	r2, r3, #-1073741824
ARM GAS  C:\Users\stijn\AppData\Local\Temp\ccPWVksW.s 			page 62


 1512 0060 FB78     		ldrb	r3, [r7, #3]	@ zero_extendqisi2
 1513 0062 9B07     		lsls	r3, r3, #30
 1514 0064 1A43     		orrs	r2, r2, r3
 1515 0066 7B68     		ldr	r3, [r7, #4]
 1516 0068 1A60     		str	r2, [r3]
 416:Generated_Source\PSoC6\pdl\drivers\peripheral\dma/cy_dma.c ****             /* Restore the nextDescriptor pointer into the proper place. */
 417:Generated_Source\PSoC6\pdl\drivers\peripheral\dma/cy_dma.c ****             Cy_DMA_Descriptor_SetNextDescriptor(descriptor, locNextDescriptor);
 1517              		.loc 2 417 0
 1518 006a F968     		ldr	r1, [r7, #12]
 1519 006c 7868     		ldr	r0, [r7, #4]
 1520 006e FFF7FEFF 		bl	Cy_DMA_Descriptor_SetNextDescriptor
 1521              	.L101:
 1522              	.LBE2:
 418:Generated_Source\PSoC6\pdl\drivers\peripheral\dma/cy_dma.c ****         }
 419:Generated_Source\PSoC6\pdl\drivers\peripheral\dma/cy_dma.c ****     }
 420:Generated_Source\PSoC6\pdl\drivers\peripheral\dma/cy_dma.c **** }
 1523              		.loc 2 420 0
 1524 0072 00BF     		nop
 1525 0074 1037     		adds	r7, r7, #16
 1526              		.cfi_def_cfa_offset 8
 1527 0076 BD46     		mov	sp, r7
 1528              		.cfi_def_cfa_register 13
 1529              		@ sp needed
 1530 0078 80BD     		pop	{r7, pc}
 1531              	.L103:
 1532 007a 00BF     		.align	2
 1533              	.L102:
 1534 007c 3C000000 		.word	.LC1
 1535 0080 00000000 		.word	cy_device
 1536              		.cfi_endproc
 1537              	.LFE190:
 1538              		.size	Cy_DMA_Descriptor_SetDescriptorType, .-Cy_DMA_Descriptor_SetDescriptorType
 1539              		.text
 1540              	.Letext0:
 1541              		.file 3 "c:\\program files (x86)\\cypress\\psoc creator\\4.2\\psoc creator\\import\\gnu\\arm\\5.4.
 1542              		.file 4 "c:\\program files (x86)\\cypress\\psoc creator\\4.2\\psoc creator\\import\\gnu\\arm\\5.4.
 1543              		.file 5 "Generated_Source\\PSoC6\\pdl\\devices/psoc6/include/ip/cyip_dw.h"
 1544              		.file 6 "Generated_Source\\PSoC6\\pdl\\devices/psoc6/include/ip/cyip_dw_v2.h"
 1545              		.file 7 "Generated_Source\\PSoC6\\pdl\\drivers/peripheral/device/cy_device.h"
 1546              		.file 8 "Generated_Source\\PSoC6\\pdl\\devices/psoc6/include/psoc6_01_config.h"
 1547              		.file 9 "Generated_Source\\PSoC6\\pdl\\drivers/peripheral/syslib/cy_syslib.h"
 1548              		.file 10 "Generated_Source\\PSoC6\\pdl\\cmsis/include/core_cm4.h"
 1549              		.section	.debug_info,"",%progbits
 1550              	.Ldebug_info0:
 1551 0000 F20F0000 		.4byte	0xff2
 1552 0004 0400     		.2byte	0x4
 1553 0006 00000000 		.4byte	.Ldebug_abbrev0
 1554 000a 04       		.byte	0x4
 1555 000b 01       		.uleb128 0x1
 1556 000c 15000000 		.4byte	.LASF241
 1557 0010 0C       		.byte	0xc
 1558 0011 2D0B0000 		.4byte	.LASF242
 1559 0015 EB040000 		.4byte	.LASF243
 1560 0019 00000000 		.4byte	.Ldebug_ranges0+0
 1561 001d 00000000 		.4byte	0
 1562 0021 00000000 		.4byte	.Ldebug_line0
 1563 0025 02       		.uleb128 0x2
ARM GAS  C:\Users\stijn\AppData\Local\Temp\ccPWVksW.s 			page 63


 1564 0026 01       		.byte	0x1
 1565 0027 06       		.byte	0x6
 1566 0028 FE020000 		.4byte	.LASF0
 1567 002c 03       		.uleb128 0x3
 1568 002d 86010000 		.4byte	.LASF2
 1569 0031 03       		.byte	0x3
 1570 0032 1D       		.byte	0x1d
 1571 0033 37000000 		.4byte	0x37
 1572 0037 02       		.uleb128 0x2
 1573 0038 01       		.byte	0x1
 1574 0039 08       		.byte	0x8
 1575 003a 870A0000 		.4byte	.LASF1
 1576 003e 03       		.uleb128 0x3
 1577 003f 4B050000 		.4byte	.LASF3
 1578 0043 03       		.byte	0x3
 1579 0044 29       		.byte	0x29
 1580 0045 49000000 		.4byte	0x49
 1581 0049 02       		.uleb128 0x2
 1582 004a 02       		.byte	0x2
 1583 004b 05       		.byte	0x5
 1584 004c 55070000 		.4byte	.LASF4
 1585 0050 03       		.uleb128 0x3
 1586 0051 540C0000 		.4byte	.LASF5
 1587 0055 03       		.byte	0x3
 1588 0056 2B       		.byte	0x2b
 1589 0057 5B000000 		.4byte	0x5b
 1590 005b 02       		.uleb128 0x2
 1591 005c 02       		.byte	0x2
 1592 005d 07       		.byte	0x7
 1593 005e 90040000 		.4byte	.LASF6
 1594 0062 03       		.uleb128 0x3
 1595 0063 980C0000 		.4byte	.LASF7
 1596 0067 03       		.byte	0x3
 1597 0068 3F       		.byte	0x3f
 1598 0069 6D000000 		.4byte	0x6d
 1599 006d 02       		.uleb128 0x2
 1600 006e 04       		.byte	0x4
 1601 006f 05       		.byte	0x5
 1602 0070 AF030000 		.4byte	.LASF8
 1603 0074 03       		.uleb128 0x3
 1604 0075 E0040000 		.4byte	.LASF9
 1605 0079 03       		.byte	0x3
 1606 007a 41       		.byte	0x41
 1607 007b 7F000000 		.4byte	0x7f
 1608 007f 02       		.uleb128 0x2
 1609 0080 04       		.byte	0x4
 1610 0081 07       		.byte	0x7
 1611 0082 4C060000 		.4byte	.LASF10
 1612 0086 02       		.uleb128 0x2
 1613 0087 08       		.byte	0x8
 1614 0088 05       		.byte	0x5
 1615 0089 F0020000 		.4byte	.LASF11
 1616 008d 02       		.uleb128 0x2
 1617 008e 08       		.byte	0x8
 1618 008f 07       		.byte	0x7
 1619 0090 0B020000 		.4byte	.LASF12
 1620 0094 04       		.uleb128 0x4
ARM GAS  C:\Users\stijn\AppData\Local\Temp\ccPWVksW.s 			page 64


 1621 0095 04       		.byte	0x4
 1622 0096 05       		.byte	0x5
 1623 0097 696E7400 		.ascii	"int\000"
 1624 009b 02       		.uleb128 0x2
 1625 009c 04       		.byte	0x4
 1626 009d 07       		.byte	0x7
 1627 009e CE030000 		.4byte	.LASF13
 1628 00a2 03       		.uleb128 0x3
 1629 00a3 3B0E0000 		.4byte	.LASF14
 1630 00a7 04       		.byte	0x4
 1631 00a8 18       		.byte	0x18
 1632 00a9 2C000000 		.4byte	0x2c
 1633 00ad 03       		.uleb128 0x3
 1634 00ae E8020000 		.4byte	.LASF15
 1635 00b2 04       		.byte	0x4
 1636 00b3 20       		.byte	0x20
 1637 00b4 3E000000 		.4byte	0x3e
 1638 00b8 03       		.uleb128 0x3
 1639 00b9 1A060000 		.4byte	.LASF16
 1640 00bd 04       		.byte	0x4
 1641 00be 24       		.byte	0x24
 1642 00bf 50000000 		.4byte	0x50
 1643 00c3 03       		.uleb128 0x3
 1644 00c4 73080000 		.4byte	.LASF17
 1645 00c8 04       		.byte	0x4
 1646 00c9 2C       		.byte	0x2c
 1647 00ca 62000000 		.4byte	0x62
 1648 00ce 03       		.uleb128 0x3
 1649 00cf EE0B0000 		.4byte	.LASF18
 1650 00d3 04       		.byte	0x4
 1651 00d4 30       		.byte	0x30
 1652 00d5 74000000 		.4byte	0x74
 1653 00d9 02       		.uleb128 0x2
 1654 00da 08       		.byte	0x8
 1655 00db 04       		.byte	0x4
 1656 00dc 140C0000 		.4byte	.LASF19
 1657 00e0 05       		.uleb128 0x5
 1658 00e1 CE000000 		.4byte	0xce
 1659 00e5 06       		.uleb128 0x6
 1660 00e6 E0000000 		.4byte	0xe0
 1661 00ea 07       		.uleb128 0x7
 1662 00eb E5000000 		.4byte	0xe5
 1663 00ef FA000000 		.4byte	0xfa
 1664 00f3 08       		.uleb128 0x8
 1665 00f4 FA000000 		.4byte	0xfa
 1666 00f8 02       		.byte	0x2
 1667 00f9 00       		.byte	0
 1668 00fa 02       		.uleb128 0x2
 1669 00fb 04       		.byte	0x4
 1670 00fc 07       		.byte	0x7
 1671 00fd 7B080000 		.4byte	.LASF20
 1672 0101 07       		.uleb128 0x7
 1673 0102 E5000000 		.4byte	0xe5
 1674 0106 11010000 		.4byte	0x111
 1675 010a 08       		.uleb128 0x8
 1676 010b FA000000 		.4byte	0xfa
 1677 010f 04       		.byte	0x4
ARM GAS  C:\Users\stijn\AppData\Local\Temp\ccPWVksW.s 			page 65


 1678 0110 00       		.byte	0
 1679 0111 07       		.uleb128 0x7
 1680 0112 E5000000 		.4byte	0xe5
 1681 0116 21010000 		.4byte	0x121
 1682 011a 08       		.uleb128 0x8
 1683 011b FA000000 		.4byte	0xfa
 1684 011f 1E       		.byte	0x1e
 1685 0120 00       		.byte	0
 1686 0121 07       		.uleb128 0x7
 1687 0122 E5000000 		.4byte	0xe5
 1688 0126 31010000 		.4byte	0x131
 1689 012a 08       		.uleb128 0x8
 1690 012b FA000000 		.4byte	0xfa
 1691 012f 0D       		.byte	0xd
 1692 0130 00       		.byte	0
 1693 0131 07       		.uleb128 0x7
 1694 0132 E5000000 		.4byte	0xe5
 1695 0136 41010000 		.4byte	0x141
 1696 013a 08       		.uleb128 0x8
 1697 013b FA000000 		.4byte	0xfa
 1698 013f 01       		.byte	0x1
 1699 0140 00       		.byte	0
 1700 0141 07       		.uleb128 0x7
 1701 0142 E5000000 		.4byte	0xe5
 1702 0146 51010000 		.4byte	0x151
 1703 014a 08       		.uleb128 0x8
 1704 014b FA000000 		.4byte	0xfa
 1705 014f 05       		.byte	0x5
 1706 0150 00       		.byte	0
 1707 0151 09       		.uleb128 0x9
 1708 0152 20       		.byte	0x20
 1709 0153 05       		.byte	0x5
 1710 0154 22       		.byte	0x22
 1711 0155 BA010000 		.4byte	0x1ba
 1712 0159 0A       		.uleb128 0xa
 1713 015a A20C0000 		.4byte	.LASF21
 1714 015e 05       		.byte	0x5
 1715 015f 23       		.byte	0x23
 1716 0160 E0000000 		.4byte	0xe0
 1717 0164 00       		.byte	0
 1718 0165 0A       		.uleb128 0xa
 1719 0166 DE050000 		.4byte	.LASF22
 1720 016a 05       		.byte	0x5
 1721 016b 24       		.byte	0x24
 1722 016c E5000000 		.4byte	0xe5
 1723 0170 04       		.byte	0x4
 1724 0171 0A       		.uleb128 0xa
 1725 0172 E10A0000 		.4byte	.LASF23
 1726 0176 05       		.byte	0x5
 1727 0177 25       		.byte	0x25
 1728 0178 E0000000 		.4byte	0xe0
 1729 017c 08       		.byte	0x8
 1730 017d 0A       		.uleb128 0xa
 1731 017e A1060000 		.4byte	.LASF24
 1732 0182 05       		.byte	0x5
 1733 0183 26       		.byte	0x26
 1734 0184 E0000000 		.4byte	0xe0
ARM GAS  C:\Users\stijn\AppData\Local\Temp\ccPWVksW.s 			page 66


 1735 0188 0C       		.byte	0xc
 1736 0189 0A       		.uleb128 0xa
 1737 018a 36090000 		.4byte	.LASF25
 1738 018e 05       		.byte	0x5
 1739 018f 27       		.byte	0x27
 1740 0190 E0000000 		.4byte	0xe0
 1741 0194 10       		.byte	0x10
 1742 0195 0A       		.uleb128 0xa
 1743 0196 06080000 		.4byte	.LASF26
 1744 019a 05       		.byte	0x5
 1745 019b 28       		.byte	0x28
 1746 019c E0000000 		.4byte	0xe0
 1747 01a0 14       		.byte	0x14
 1748 01a1 0A       		.uleb128 0xa
 1749 01a2 69060000 		.4byte	.LASF27
 1750 01a6 05       		.byte	0x5
 1751 01a7 29       		.byte	0x29
 1752 01a8 E0000000 		.4byte	0xe0
 1753 01ac 18       		.byte	0x18
 1754 01ad 0A       		.uleb128 0xa
 1755 01ae C9090000 		.4byte	.LASF28
 1756 01b2 05       		.byte	0x5
 1757 01b3 2A       		.byte	0x2a
 1758 01b4 E5000000 		.4byte	0xe5
 1759 01b8 1C       		.byte	0x1c
 1760 01b9 00       		.byte	0
 1761 01ba 03       		.uleb128 0x3
 1762 01bb 00000000 		.4byte	.LASF29
 1763 01bf 05       		.byte	0x5
 1764 01c0 2B       		.byte	0x2b
 1765 01c1 51010000 		.4byte	0x151
 1766 01c5 0B       		.uleb128 0xb
 1767 01c6 000C     		.2byte	0xc00
 1768 01c8 05       		.byte	0x5
 1769 01c9 30       		.byte	0x30
 1770 01ca B4020000 		.4byte	0x2b4
 1771 01ce 0C       		.uleb128 0xc
 1772 01cf 43544C00 		.ascii	"CTL\000"
 1773 01d3 05       		.byte	0x5
 1774 01d4 31       		.byte	0x31
 1775 01d5 E0000000 		.4byte	0xe0
 1776 01d9 00       		.byte	0
 1777 01da 0A       		.uleb128 0xa
 1778 01db A10D0000 		.4byte	.LASF30
 1779 01df 05       		.byte	0x5
 1780 01e0 32       		.byte	0x32
 1781 01e1 E5000000 		.4byte	0xe5
 1782 01e5 04       		.byte	0x4
 1783 01e6 0A       		.uleb128 0xa
 1784 01e7 3D0F0000 		.4byte	.LASF31
 1785 01eb 05       		.byte	0x5
 1786 01ec 33       		.byte	0x33
 1787 01ed E5000000 		.4byte	0xe5
 1788 01f1 08       		.byte	0x8
 1789 01f2 0A       		.uleb128 0xa
 1790 01f3 0E0B0000 		.4byte	.LASF32
 1791 01f7 05       		.byte	0x5
ARM GAS  C:\Users\stijn\AppData\Local\Temp\ccPWVksW.s 			page 67


 1792 01f8 34       		.byte	0x34
 1793 01f9 E5000000 		.4byte	0xe5
 1794 01fd 0C       		.byte	0xc
 1795 01fe 0A       		.uleb128 0xa
 1796 01ff 950D0000 		.4byte	.LASF33
 1797 0203 05       		.byte	0x5
 1798 0204 35       		.byte	0x35
 1799 0205 E5000000 		.4byte	0xe5
 1800 0209 10       		.byte	0x10
 1801 020a 0A       		.uleb128 0xa
 1802 020b C30C0000 		.4byte	.LASF34
 1803 020f 05       		.byte	0x5
 1804 0210 36       		.byte	0x36
 1805 0211 E5000000 		.4byte	0xe5
 1806 0215 14       		.byte	0x14
 1807 0216 0A       		.uleb128 0xa
 1808 0217 100A0000 		.4byte	.LASF35
 1809 021b 05       		.byte	0x5
 1810 021c 37       		.byte	0x37
 1811 021d B9020000 		.4byte	0x2b9
 1812 0221 18       		.byte	0x18
 1813 0222 0A       		.uleb128 0xa
 1814 0223 20040000 		.4byte	.LASF36
 1815 0227 05       		.byte	0x5
 1816 0228 38       		.byte	0x38
 1817 0229 E5000000 		.4byte	0xe5
 1818 022d 20       		.byte	0x20
 1819 022e 0A       		.uleb128 0xa
 1820 022f 2A060000 		.4byte	.LASF37
 1821 0233 05       		.byte	0x5
 1822 0234 39       		.byte	0x39
 1823 0235 E5000000 		.4byte	0xe5
 1824 0239 24       		.byte	0x24
 1825 023a 0A       		.uleb128 0xa
 1826 023b C6020000 		.4byte	.LASF38
 1827 023f 05       		.byte	0x5
 1828 0240 3A       		.byte	0x3a
 1829 0241 E5000000 		.4byte	0xe5
 1830 0245 28       		.byte	0x28
 1831 0246 0A       		.uleb128 0xa
 1832 0247 B10B0000 		.4byte	.LASF39
 1833 024b 05       		.byte	0x5
 1834 024c 3B       		.byte	0x3b
 1835 024d E5000000 		.4byte	0xe5
 1836 0251 2C       		.byte	0x2c
 1837 0252 0A       		.uleb128 0xa
 1838 0253 FE0A0000 		.4byte	.LASF40
 1839 0257 05       		.byte	0x5
 1840 0258 3C       		.byte	0x3c
 1841 0259 E5000000 		.4byte	0xe5
 1842 025d 30       		.byte	0x30
 1843 025e 0A       		.uleb128 0xa
 1844 025f 7D050000 		.4byte	.LASF41
 1845 0263 05       		.byte	0x5
 1846 0264 3D       		.byte	0x3d
 1847 0265 E5000000 		.4byte	0xe5
 1848 0269 34       		.byte	0x34
ARM GAS  C:\Users\stijn\AppData\Local\Temp\ccPWVksW.s 			page 68


 1849 026a 0A       		.uleb128 0xa
 1850 026b 9F080000 		.4byte	.LASF42
 1851 026f 05       		.byte	0x5
 1852 0270 3E       		.byte	0x3e
 1853 0271 E5000000 		.4byte	0xe5
 1854 0275 38       		.byte	0x38
 1855 0276 0A       		.uleb128 0xa
 1856 0277 240A0000 		.4byte	.LASF43
 1857 027b 05       		.byte	0x5
 1858 027c 3F       		.byte	0x3f
 1859 027d E5000000 		.4byte	0xe5
 1860 0281 3C       		.byte	0x3c
 1861 0282 0A       		.uleb128 0xa
 1862 0283 55040000 		.4byte	.LASF44
 1863 0287 05       		.byte	0x5
 1864 0288 40       		.byte	0x40
 1865 0289 E5000000 		.4byte	0xe5
 1866 028d 40       		.byte	0x40
 1867 028e 0A       		.uleb128 0xa
 1868 028f 99020000 		.4byte	.LASF45
 1869 0293 05       		.byte	0x5
 1870 0294 41       		.byte	0x41
 1871 0295 E5000000 		.4byte	0xe5
 1872 0299 44       		.byte	0x44
 1873 029a 0A       		.uleb128 0xa
 1874 029b C90B0000 		.4byte	.LASF46
 1875 029f 05       		.byte	0x5
 1876 02a0 42       		.byte	0x42
 1877 02a1 D4020000 		.4byte	0x2d4
 1878 02a5 48       		.byte	0x48
 1879 02a6 0D       		.uleb128 0xd
 1880 02a7 BC010000 		.4byte	.LASF47
 1881 02ab 05       		.byte	0x5
 1882 02ac 43       		.byte	0x43
 1883 02ad D9020000 		.4byte	0x2d9
 1884 02b1 0008     		.2byte	0x800
 1885 02b3 00       		.byte	0
 1886 02b4 05       		.uleb128 0x5
 1887 02b5 31010000 		.4byte	0x131
 1888 02b9 06       		.uleb128 0x6
 1889 02ba B4020000 		.4byte	0x2b4
 1890 02be 07       		.uleb128 0x7
 1891 02bf E5000000 		.4byte	0xe5
 1892 02c3 CF020000 		.4byte	0x2cf
 1893 02c7 0E       		.uleb128 0xe
 1894 02c8 FA000000 		.4byte	0xfa
 1895 02cc ED01     		.2byte	0x1ed
 1896 02ce 00       		.byte	0
 1897 02cf 05       		.uleb128 0x5
 1898 02d0 BE020000 		.4byte	0x2be
 1899 02d4 06       		.uleb128 0x6
 1900 02d5 CF020000 		.4byte	0x2cf
 1901 02d9 07       		.uleb128 0x7
 1902 02da BA010000 		.4byte	0x1ba
 1903 02de E9020000 		.4byte	0x2e9
 1904 02e2 08       		.uleb128 0x8
 1905 02e3 FA000000 		.4byte	0xfa
ARM GAS  C:\Users\stijn\AppData\Local\Temp\ccPWVksW.s 			page 69


 1906 02e7 1F       		.byte	0x1f
 1907 02e8 00       		.byte	0
 1908 02e9 03       		.uleb128 0x3
 1909 02ea 210F0000 		.4byte	.LASF48
 1910 02ee 05       		.byte	0x5
 1911 02ef 44       		.byte	0x44
 1912 02f0 C5010000 		.4byte	0x1c5
 1913 02f4 09       		.uleb128 0x9
 1914 02f5 40       		.byte	0x40
 1915 02f6 06       		.byte	0x6
 1916 02f7 22       		.byte	0x22
 1917 02f8 8D030000 		.4byte	0x38d
 1918 02fc 0A       		.uleb128 0xa
 1919 02fd A20C0000 		.4byte	.LASF21
 1920 0301 06       		.byte	0x6
 1921 0302 23       		.byte	0x23
 1922 0303 E0000000 		.4byte	0xe0
 1923 0307 00       		.byte	0
 1924 0308 0A       		.uleb128 0xa
 1925 0309 DE050000 		.4byte	.LASF22
 1926 030d 06       		.byte	0x6
 1927 030e 24       		.byte	0x24
 1928 030f E5000000 		.4byte	0xe5
 1929 0313 04       		.byte	0x4
 1930 0314 0A       		.uleb128 0xa
 1931 0315 E10A0000 		.4byte	.LASF23
 1932 0319 06       		.byte	0x6
 1933 031a 25       		.byte	0x25
 1934 031b E0000000 		.4byte	0xe0
 1935 031f 08       		.byte	0x8
 1936 0320 0A       		.uleb128 0xa
 1937 0321 A1060000 		.4byte	.LASF24
 1938 0325 06       		.byte	0x6
 1939 0326 26       		.byte	0x26
 1940 0327 E0000000 		.4byte	0xe0
 1941 032b 0C       		.byte	0xc
 1942 032c 0A       		.uleb128 0xa
 1943 032d 36090000 		.4byte	.LASF25
 1944 0331 06       		.byte	0x6
 1945 0332 27       		.byte	0x27
 1946 0333 E0000000 		.4byte	0xe0
 1947 0337 10       		.byte	0x10
 1948 0338 0A       		.uleb128 0xa
 1949 0339 06080000 		.4byte	.LASF26
 1950 033d 06       		.byte	0x6
 1951 033e 28       		.byte	0x28
 1952 033f E0000000 		.4byte	0xe0
 1953 0343 14       		.byte	0x14
 1954 0344 0A       		.uleb128 0xa
 1955 0345 69060000 		.4byte	.LASF27
 1956 0349 06       		.byte	0x6
 1957 034a 29       		.byte	0x29
 1958 034b E0000000 		.4byte	0xe0
 1959 034f 18       		.byte	0x18
 1960 0350 0A       		.uleb128 0xa
 1961 0351 C9090000 		.4byte	.LASF28
 1962 0355 06       		.byte	0x6
ARM GAS  C:\Users\stijn\AppData\Local\Temp\ccPWVksW.s 			page 70


 1963 0356 2A       		.byte	0x2a
 1964 0357 E5000000 		.4byte	0xe5
 1965 035b 1C       		.byte	0x1c
 1966 035c 0A       		.uleb128 0xa
 1967 035d B8030000 		.4byte	.LASF49
 1968 0361 06       		.byte	0x6
 1969 0362 2B       		.byte	0x2b
 1970 0363 E0000000 		.4byte	0xe0
 1971 0367 20       		.byte	0x20
 1972 0368 0A       		.uleb128 0xa
 1973 0369 C3030000 		.4byte	.LASF50
 1974 036d 06       		.byte	0x6
 1975 036e 2C       		.byte	0x2c
 1976 036f E0000000 		.4byte	0xe0
 1977 0373 24       		.byte	0x24
 1978 0374 0A       		.uleb128 0xa
 1979 0375 67070000 		.4byte	.LASF51
 1980 0379 06       		.byte	0x6
 1981 037a 2D       		.byte	0x2d
 1982 037b E0000000 		.4byte	0xe0
 1983 037f 28       		.byte	0x28
 1984 0380 0A       		.uleb128 0xa
 1985 0381 0E0B0000 		.4byte	.LASF32
 1986 0385 06       		.byte	0x6
 1987 0386 2E       		.byte	0x2e
 1988 0387 92030000 		.4byte	0x392
 1989 038b 2C       		.byte	0x2c
 1990 038c 00       		.byte	0
 1991 038d 05       		.uleb128 0x5
 1992 038e 01010000 		.4byte	0x101
 1993 0392 06       		.uleb128 0x6
 1994 0393 8D030000 		.4byte	0x38d
 1995 0397 03       		.uleb128 0x3
 1996 0398 A1020000 		.4byte	.LASF52
 1997 039c 06       		.byte	0x6
 1998 039d 2F       		.byte	0x2f
 1999 039e F4020000 		.4byte	0x2f4
 2000 03a2 0F       		.uleb128 0xf
 2001 03a3 00000100 		.4byte	0x10000
 2002 03a7 06       		.byte	0x6
 2003 03a8 34       		.byte	0x34
 2004 03a9 17050000 		.4byte	0x517
 2005 03ad 0C       		.uleb128 0xc
 2006 03ae 43544C00 		.ascii	"CTL\000"
 2007 03b2 06       		.byte	0x6
 2008 03b3 35       		.byte	0x35
 2009 03b4 E0000000 		.4byte	0xe0
 2010 03b8 00       		.byte	0
 2011 03b9 0A       		.uleb128 0xa
 2012 03ba A10D0000 		.4byte	.LASF30
 2013 03be 06       		.byte	0x6
 2014 03bf 36       		.byte	0x36
 2015 03c0 E5000000 		.4byte	0xe5
 2016 03c4 04       		.byte	0x4
 2017 03c5 0A       		.uleb128 0xa
 2018 03c6 0E0B0000 		.4byte	.LASF32
 2019 03ca 06       		.byte	0x6
ARM GAS  C:\Users\stijn\AppData\Local\Temp\ccPWVksW.s 			page 71


 2020 03cb 37       		.byte	0x37
 2021 03cc 1C050000 		.4byte	0x51c
 2022 03d0 08       		.byte	0x8
 2023 03d1 0A       		.uleb128 0xa
 2024 03d2 20040000 		.4byte	.LASF36
 2025 03d6 06       		.byte	0x6
 2026 03d7 38       		.byte	0x38
 2027 03d8 E5000000 		.4byte	0xe5
 2028 03dc 20       		.byte	0x20
 2029 03dd 0A       		.uleb128 0xa
 2030 03de 2A060000 		.4byte	.LASF37
 2031 03e2 06       		.byte	0x6
 2032 03e3 39       		.byte	0x39
 2033 03e4 E5000000 		.4byte	0xe5
 2034 03e8 24       		.byte	0x24
 2035 03e9 0A       		.uleb128 0xa
 2036 03ea C6020000 		.4byte	.LASF38
 2037 03ee 06       		.byte	0x6
 2038 03ef 3A       		.byte	0x3a
 2039 03f0 E5000000 		.4byte	0xe5
 2040 03f4 28       		.byte	0x28
 2041 03f5 0A       		.uleb128 0xa
 2042 03f6 100A0000 		.4byte	.LASF35
 2043 03fa 06       		.byte	0x6
 2044 03fb 3B       		.byte	0x3b
 2045 03fc E5000000 		.4byte	0xe5
 2046 0400 2C       		.byte	0x2c
 2047 0401 0A       		.uleb128 0xa
 2048 0402 FE0A0000 		.4byte	.LASF40
 2049 0406 06       		.byte	0x6
 2050 0407 3C       		.byte	0x3c
 2051 0408 E5000000 		.4byte	0xe5
 2052 040c 30       		.byte	0x30
 2053 040d 0A       		.uleb128 0xa
 2054 040e 7D050000 		.4byte	.LASF41
 2055 0412 06       		.byte	0x6
 2056 0413 3D       		.byte	0x3d
 2057 0414 E5000000 		.4byte	0xe5
 2058 0418 34       		.byte	0x34
 2059 0419 0A       		.uleb128 0xa
 2060 041a 9F080000 		.4byte	.LASF42
 2061 041e 06       		.byte	0x6
 2062 041f 3E       		.byte	0x3e
 2063 0420 E5000000 		.4byte	0xe5
 2064 0424 38       		.byte	0x38
 2065 0425 0A       		.uleb128 0xa
 2066 0426 B10B0000 		.4byte	.LASF39
 2067 042a 06       		.byte	0x6
 2068 042b 3F       		.byte	0x3f
 2069 042c E5000000 		.4byte	0xe5
 2070 0430 3C       		.byte	0x3c
 2071 0431 0A       		.uleb128 0xa
 2072 0432 55040000 		.4byte	.LASF44
 2073 0436 06       		.byte	0x6
 2074 0437 40       		.byte	0x40
 2075 0438 E5000000 		.4byte	0xe5
 2076 043c 40       		.byte	0x40
ARM GAS  C:\Users\stijn\AppData\Local\Temp\ccPWVksW.s 			page 72


 2077 043d 0A       		.uleb128 0xa
 2078 043e 99020000 		.4byte	.LASF45
 2079 0442 06       		.byte	0x6
 2080 0443 41       		.byte	0x41
 2081 0444 E5000000 		.4byte	0xe5
 2082 0448 44       		.byte	0x44
 2083 0449 0A       		.uleb128 0xa
 2084 044a 240A0000 		.4byte	.LASF43
 2085 044e 06       		.byte	0x6
 2086 044f 42       		.byte	0x42
 2087 0450 26050000 		.4byte	0x526
 2088 0454 48       		.byte	0x48
 2089 0455 0A       		.uleb128 0xa
 2090 0456 7E0C0000 		.4byte	.LASF53
 2091 045a 06       		.byte	0x6
 2092 045b 43       		.byte	0x43
 2093 045c E0000000 		.4byte	0xe0
 2094 0460 80       		.byte	0x80
 2095 0461 0A       		.uleb128 0xa
 2096 0462 C90B0000 		.4byte	.LASF46
 2097 0466 06       		.byte	0x6
 2098 0467 44       		.byte	0x44
 2099 0468 30050000 		.4byte	0x530
 2100 046c 84       		.byte	0x84
 2101 046d 0D       		.uleb128 0xd
 2102 046e 22020000 		.4byte	.LASF54
 2103 0472 06       		.byte	0x6
 2104 0473 45       		.byte	0x45
 2105 0474 E0000000 		.4byte	0xe0
 2106 0478 0001     		.2byte	0x100
 2107 047a 0D       		.uleb128 0xd
 2108 047b 3A0A0000 		.4byte	.LASF55
 2109 047f 06       		.byte	0x6
 2110 0480 46       		.byte	0x46
 2111 0481 3A050000 		.4byte	0x53a
 2112 0485 0401     		.2byte	0x104
 2113 0487 0D       		.uleb128 0xd
 2114 0488 A90C0000 		.4byte	.LASF56
 2115 048c 06       		.byte	0x6
 2116 048d 47       		.byte	0x47
 2117 048e E0000000 		.4byte	0xe0
 2118 0492 1001     		.2byte	0x110
 2119 0494 0D       		.uleb128 0xd
 2120 0495 440A0000 		.4byte	.LASF57
 2121 0499 06       		.byte	0x6
 2122 049a 48       		.byte	0x48
 2123 049b 44050000 		.4byte	0x544
 2124 049f 1401     		.2byte	0x114
 2125 04a1 0D       		.uleb128 0xd
 2126 04a2 E10E0000 		.4byte	.LASF58
 2127 04a6 06       		.byte	0x6
 2128 04a7 49       		.byte	0x49
 2129 04a8 E0000000 		.4byte	0xe0
 2130 04ac 2001     		.2byte	0x120
 2131 04ae 0D       		.uleb128 0xd
 2132 04af 4E0A0000 		.4byte	.LASF59
 2133 04b3 06       		.byte	0x6
ARM GAS  C:\Users\stijn\AppData\Local\Temp\ccPWVksW.s 			page 73


 2134 04b4 4A       		.byte	0x4a
 2135 04b5 4E050000 		.4byte	0x54e
 2136 04b9 2401     		.2byte	0x124
 2137 04bb 0D       		.uleb128 0xd
 2138 04bc 7A0A0000 		.4byte	.LASF60
 2139 04c0 06       		.byte	0x6
 2140 04c1 4B       		.byte	0x4b
 2141 04c2 E0000000 		.4byte	0xe0
 2142 04c6 3001     		.2byte	0x130
 2143 04c8 0D       		.uleb128 0xd
 2144 04c9 580A0000 		.4byte	.LASF61
 2145 04cd 06       		.byte	0x6
 2146 04ce 4C       		.byte	0x4c
 2147 04cf 58050000 		.4byte	0x558
 2148 04d3 3401     		.2byte	0x134
 2149 04d5 0D       		.uleb128 0xd
 2150 04d6 0D040000 		.4byte	.LASF62
 2151 04da 06       		.byte	0x6
 2152 04db 4D       		.byte	0x4d
 2153 04dc E0000000 		.4byte	0xe0
 2154 04e0 4001     		.2byte	0x140
 2155 04e2 0D       		.uleb128 0xd
 2156 04e3 620A0000 		.4byte	.LASF63
 2157 04e7 06       		.byte	0x6
 2158 04e8 4E       		.byte	0x4e
 2159 04e9 E5000000 		.4byte	0xe5
 2160 04ed 4401     		.2byte	0x144
 2161 04ef 0D       		.uleb128 0xd
 2162 04f0 48020000 		.4byte	.LASF64
 2163 04f4 06       		.byte	0x6
 2164 04f5 4F       		.byte	0x4f
 2165 04f6 E5000000 		.4byte	0xe5
 2166 04fa 4801     		.2byte	0x148
 2167 04fc 0D       		.uleb128 0xd
 2168 04fd 61030000 		.4byte	.LASF65
 2169 0501 06       		.byte	0x6
 2170 0502 50       		.byte	0x50
 2171 0503 73050000 		.4byte	0x573
 2172 0507 4C01     		.2byte	0x14c
 2173 0509 0D       		.uleb128 0xd
 2174 050a BC010000 		.4byte	.LASF47
 2175 050e 06       		.byte	0x6
 2176 050f 51       		.byte	0x51
 2177 0510 78050000 		.4byte	0x578
 2178 0514 0080     		.2byte	0x8000
 2179 0516 00       		.byte	0
 2180 0517 05       		.uleb128 0x5
 2181 0518 41010000 		.4byte	0x141
 2182 051c 06       		.uleb128 0x6
 2183 051d 17050000 		.4byte	0x517
 2184 0521 05       		.uleb128 0x5
 2185 0522 21010000 		.4byte	0x121
 2186 0526 06       		.uleb128 0x6
 2187 0527 21050000 		.4byte	0x521
 2188 052b 05       		.uleb128 0x5
 2189 052c 11010000 		.4byte	0x111
 2190 0530 06       		.uleb128 0x6
ARM GAS  C:\Users\stijn\AppData\Local\Temp\ccPWVksW.s 			page 74


 2191 0531 2B050000 		.4byte	0x52b
 2192 0535 05       		.uleb128 0x5
 2193 0536 EA000000 		.4byte	0xea
 2194 053a 06       		.uleb128 0x6
 2195 053b 35050000 		.4byte	0x535
 2196 053f 05       		.uleb128 0x5
 2197 0540 EA000000 		.4byte	0xea
 2198 0544 06       		.uleb128 0x6
 2199 0545 3F050000 		.4byte	0x53f
 2200 0549 05       		.uleb128 0x5
 2201 054a EA000000 		.4byte	0xea
 2202 054e 06       		.uleb128 0x6
 2203 054f 49050000 		.4byte	0x549
 2204 0553 05       		.uleb128 0x5
 2205 0554 EA000000 		.4byte	0xea
 2206 0558 06       		.uleb128 0x6
 2207 0559 53050000 		.4byte	0x553
 2208 055d 07       		.uleb128 0x7
 2209 055e E5000000 		.4byte	0xe5
 2210 0562 6E050000 		.4byte	0x56e
 2211 0566 0E       		.uleb128 0xe
 2212 0567 FA000000 		.4byte	0xfa
 2213 056b AC1F     		.2byte	0x1fac
 2214 056d 00       		.byte	0
 2215 056e 05       		.uleb128 0x5
 2216 056f 5D050000 		.4byte	0x55d
 2217 0573 06       		.uleb128 0x6
 2218 0574 6E050000 		.4byte	0x56e
 2219 0578 07       		.uleb128 0x7
 2220 0579 97030000 		.4byte	0x397
 2221 057d 89050000 		.4byte	0x589
 2222 0581 0E       		.uleb128 0xe
 2223 0582 FA000000 		.4byte	0xfa
 2224 0586 FF01     		.2byte	0x1ff
 2225 0588 00       		.byte	0
 2226 0589 03       		.uleb128 0x3
 2227 058a 96050000 		.4byte	.LASF66
 2228 058e 06       		.byte	0x6
 2229 058f 52       		.byte	0x52
 2230 0590 A2030000 		.4byte	0x3a2
 2231 0594 09       		.uleb128 0x9
 2232 0595 B8       		.byte	0xb8
 2233 0596 07       		.byte	0x7
 2234 0597 34       		.byte	0x34
 2235 0598 A5090000 		.4byte	0x9a5
 2236 059c 0A       		.uleb128 0xa
 2237 059d C6010000 		.4byte	.LASF67
 2238 05a1 07       		.byte	0x7
 2239 05a2 37       		.byte	0x37
 2240 05a3 CE000000 		.4byte	0xce
 2241 05a7 00       		.byte	0
 2242 05a8 0A       		.uleb128 0xa
 2243 05a9 2D030000 		.4byte	.LASF68
 2244 05ad 07       		.byte	0x7
 2245 05ae 38       		.byte	0x38
 2246 05af CE000000 		.4byte	0xce
 2247 05b3 04       		.byte	0x4
ARM GAS  C:\Users\stijn\AppData\Local\Temp\ccPWVksW.s 			page 75


 2248 05b4 0A       		.uleb128 0xa
 2249 05b5 E3030000 		.4byte	.LASF69
 2250 05b9 07       		.byte	0x7
 2251 05ba 39       		.byte	0x39
 2252 05bb CE000000 		.4byte	0xce
 2253 05bf 08       		.byte	0x8
 2254 05c0 0A       		.uleb128 0xa
 2255 05c1 6C0A0000 		.4byte	.LASF70
 2256 05c5 07       		.byte	0x7
 2257 05c6 3A       		.byte	0x3a
 2258 05c7 CE000000 		.4byte	0xce
 2259 05cb 0C       		.byte	0xc
 2260 05cc 0A       		.uleb128 0xa
 2261 05cd 38030000 		.4byte	.LASF71
 2262 05d1 07       		.byte	0x7
 2263 05d2 3B       		.byte	0x3b
 2264 05d3 CE000000 		.4byte	0xce
 2265 05d7 10       		.byte	0x10
 2266 05d8 0A       		.uleb128 0xa
 2267 05d9 6C030000 		.4byte	.LASF72
 2268 05dd 07       		.byte	0x7
 2269 05de 3C       		.byte	0x3c
 2270 05df CE000000 		.4byte	0xce
 2271 05e3 14       		.byte	0x14
 2272 05e4 0A       		.uleb128 0xa
 2273 05e5 73060000 		.4byte	.LASF73
 2274 05e9 07       		.byte	0x7
 2275 05ea 3D       		.byte	0x3d
 2276 05eb CE000000 		.4byte	0xce
 2277 05ef 18       		.byte	0x18
 2278 05f0 0A       		.uleb128 0xa
 2279 05f1 54010000 		.4byte	.LASF74
 2280 05f5 07       		.byte	0x7
 2281 05f6 3E       		.byte	0x3e
 2282 05f7 CE000000 		.4byte	0xce
 2283 05fb 1C       		.byte	0x1c
 2284 05fc 0A       		.uleb128 0xa
 2285 05fd D90E0000 		.4byte	.LASF75
 2286 0601 07       		.byte	0x7
 2287 0602 3F       		.byte	0x3f
 2288 0603 CE000000 		.4byte	0xce
 2289 0607 20       		.byte	0x20
 2290 0608 0A       		.uleb128 0xa
 2291 0609 71090000 		.4byte	.LASF76
 2292 060d 07       		.byte	0x7
 2293 060e 40       		.byte	0x40
 2294 060f CE000000 		.4byte	0xce
 2295 0613 24       		.byte	0x24
 2296 0614 0A       		.uleb128 0xa
 2297 0615 0F080000 		.4byte	.LASF77
 2298 0619 07       		.byte	0x7
 2299 061a 43       		.byte	0x43
 2300 061b A2000000 		.4byte	0xa2
 2301 061f 28       		.byte	0x28
 2302 0620 0A       		.uleb128 0xa
 2303 0621 23010000 		.4byte	.LASF78
 2304 0625 07       		.byte	0x7
ARM GAS  C:\Users\stijn\AppData\Local\Temp\ccPWVksW.s 			page 76


 2305 0626 44       		.byte	0x44
 2306 0627 A2000000 		.4byte	0xa2
 2307 062b 29       		.byte	0x29
 2308 062c 0A       		.uleb128 0xa
 2309 062d CF0E0000 		.4byte	.LASF79
 2310 0631 07       		.byte	0x7
 2311 0632 45       		.byte	0x45
 2312 0633 A2000000 		.4byte	0xa2
 2313 0637 2A       		.byte	0x2a
 2314 0638 0A       		.uleb128 0xa
 2315 0639 63090000 		.4byte	.LASF80
 2316 063d 07       		.byte	0x7
 2317 063e 46       		.byte	0x46
 2318 063f A2000000 		.4byte	0xa2
 2319 0643 2B       		.byte	0x2b
 2320 0644 0A       		.uleb128 0xa
 2321 0645 2B070000 		.4byte	.LASF81
 2322 0649 07       		.byte	0x7
 2323 064a 47       		.byte	0x47
 2324 064b A2000000 		.4byte	0xa2
 2325 064f 2C       		.byte	0x2c
 2326 0650 0A       		.uleb128 0xa
 2327 0651 B60C0000 		.4byte	.LASF82
 2328 0655 07       		.byte	0x7
 2329 0656 48       		.byte	0x48
 2330 0657 A2000000 		.4byte	0xa2
 2331 065b 2D       		.byte	0x2d
 2332 065c 0A       		.uleb128 0xa
 2333 065d 41030000 		.4byte	.LASF83
 2334 0661 07       		.byte	0x7
 2335 0662 49       		.byte	0x49
 2336 0663 A2000000 		.4byte	0xa2
 2337 0667 2E       		.byte	0x2e
 2338 0668 0A       		.uleb128 0xa
 2339 0669 21080000 		.4byte	.LASF84
 2340 066d 07       		.byte	0x7
 2341 066e 4A       		.byte	0x4a
 2342 066f A2000000 		.4byte	0xa2
 2343 0673 2F       		.byte	0x2f
 2344 0674 0A       		.uleb128 0xa
 2345 0675 250C0000 		.4byte	.LASF85
 2346 0679 07       		.byte	0x7
 2347 067a 4B       		.byte	0x4b
 2348 067b A2000000 		.4byte	0xa2
 2349 067f 30       		.byte	0x30
 2350 0680 0A       		.uleb128 0xa
 2351 0681 5E060000 		.4byte	.LASF86
 2352 0685 07       		.byte	0x7
 2353 0686 4E       		.byte	0x4e
 2354 0687 A2000000 		.4byte	0xa2
 2355 068b 31       		.byte	0x31
 2356 068c 0A       		.uleb128 0xa
 2357 068d 78010000 		.4byte	.LASF87
 2358 0691 07       		.byte	0x7
 2359 0692 4F       		.byte	0x4f
 2360 0693 A2000000 		.4byte	0xa2
 2361 0697 32       		.byte	0x32
ARM GAS  C:\Users\stijn\AppData\Local\Temp\ccPWVksW.s 			page 77


 2362 0698 0A       		.uleb128 0xa
 2363 0699 D2050000 		.4byte	.LASF88
 2364 069d 07       		.byte	0x7
 2365 069e 50       		.byte	0x50
 2366 069f A2000000 		.4byte	0xa2
 2367 06a3 33       		.byte	0x33
 2368 06a4 0A       		.uleb128 0xa
 2369 06a5 CC080000 		.4byte	.LASF89
 2370 06a9 07       		.byte	0x7
 2371 06aa 51       		.byte	0x51
 2372 06ab A2000000 		.4byte	0xa2
 2373 06af 34       		.byte	0x34
 2374 06b0 0A       		.uleb128 0xa
 2375 06b1 190D0000 		.4byte	.LASF90
 2376 06b5 07       		.byte	0x7
 2377 06b6 52       		.byte	0x52
 2378 06b7 AD000000 		.4byte	0xad
 2379 06bb 36       		.byte	0x36
 2380 06bc 0A       		.uleb128 0xa
 2381 06bd E30B0000 		.4byte	.LASF91
 2382 06c1 07       		.byte	0x7
 2383 06c2 53       		.byte	0x53
 2384 06c3 AD000000 		.4byte	0xad
 2385 06c7 38       		.byte	0x38
 2386 06c8 0A       		.uleb128 0xa
 2387 06c9 BB0D0000 		.4byte	.LASF92
 2388 06cd 07       		.byte	0x7
 2389 06ce 54       		.byte	0x54
 2390 06cf AD000000 		.4byte	0xad
 2391 06d3 3A       		.byte	0x3a
 2392 06d4 0A       		.uleb128 0xa
 2393 06d5 C00E0000 		.4byte	.LASF93
 2394 06d9 07       		.byte	0x7
 2395 06da 55       		.byte	0x55
 2396 06db A2000000 		.4byte	0xa2
 2397 06df 3C       		.byte	0x3c
 2398 06e0 0A       		.uleb128 0xa
 2399 06e1 4A040000 		.4byte	.LASF94
 2400 06e5 07       		.byte	0x7
 2401 06e6 56       		.byte	0x56
 2402 06e7 A2000000 		.4byte	0xa2
 2403 06eb 3D       		.byte	0x3d
 2404 06ec 0A       		.uleb128 0xa
 2405 06ed BB0B0000 		.4byte	.LASF95
 2406 06f1 07       		.byte	0x7
 2407 06f2 57       		.byte	0x57
 2408 06f3 A2000000 		.4byte	0xa2
 2409 06f7 3E       		.byte	0x3e
 2410 06f8 0A       		.uleb128 0xa
 2411 06f9 31010000 		.4byte	.LASF96
 2412 06fd 07       		.byte	0x7
 2413 06fe 58       		.byte	0x58
 2414 06ff A2000000 		.4byte	0xa2
 2415 0703 3F       		.byte	0x3f
 2416 0704 0A       		.uleb128 0xa
 2417 0705 7C090000 		.4byte	.LASF97
 2418 0709 07       		.byte	0x7
ARM GAS  C:\Users\stijn\AppData\Local\Temp\ccPWVksW.s 			page 78


 2419 070a 59       		.byte	0x59
 2420 070b A2000000 		.4byte	0xa2
 2421 070f 40       		.byte	0x40
 2422 0710 0A       		.uleb128 0xa
 2423 0711 3B050000 		.4byte	.LASF98
 2424 0715 07       		.byte	0x7
 2425 0716 5A       		.byte	0x5a
 2426 0717 A2000000 		.4byte	0xa2
 2427 071b 41       		.byte	0x41
 2428 071c 0A       		.uleb128 0xa
 2429 071d 6E070000 		.4byte	.LASF99
 2430 0721 07       		.byte	0x7
 2431 0722 5B       		.byte	0x5b
 2432 0723 A2000000 		.4byte	0xa2
 2433 0727 42       		.byte	0x42
 2434 0728 0A       		.uleb128 0xa
 2435 0729 58090000 		.4byte	.LASF100
 2436 072d 07       		.byte	0x7
 2437 072e 5C       		.byte	0x5c
 2438 072f A2000000 		.4byte	0xa2
 2439 0733 43       		.byte	0x43
 2440 0734 0A       		.uleb128 0xa
 2441 0735 FC030000 		.4byte	.LASF101
 2442 0739 07       		.byte	0x7
 2443 073a 5D       		.byte	0x5d
 2444 073b A2000000 		.4byte	0xa2
 2445 073f 44       		.byte	0x44
 2446 0740 0A       		.uleb128 0xa
 2447 0741 F70B0000 		.4byte	.LASF102
 2448 0745 07       		.byte	0x7
 2449 0746 5E       		.byte	0x5e
 2450 0747 CE000000 		.4byte	0xce
 2451 074b 48       		.byte	0x48
 2452 074c 0A       		.uleb128 0xa
 2453 074d 70040000 		.4byte	.LASF103
 2454 0751 07       		.byte	0x7
 2455 0752 5F       		.byte	0x5f
 2456 0753 CE000000 		.4byte	0xce
 2457 0757 4C       		.byte	0x4c
 2458 0758 0A       		.uleb128 0xa
 2459 0759 2C0F0000 		.4byte	.LASF104
 2460 075d 07       		.byte	0x7
 2461 075e 60       		.byte	0x60
 2462 075f A2000000 		.4byte	0xa2
 2463 0763 50       		.byte	0x50
 2464 0764 0A       		.uleb128 0xa
 2465 0765 430E0000 		.4byte	.LASF105
 2466 0769 07       		.byte	0x7
 2467 076a 61       		.byte	0x61
 2468 076b A2000000 		.4byte	0xa2
 2469 076f 51       		.byte	0x51
 2470 0770 0A       		.uleb128 0xa
 2471 0771 130E0000 		.4byte	.LASF106
 2472 0775 07       		.byte	0x7
 2473 0776 62       		.byte	0x62
 2474 0777 A2000000 		.4byte	0xa2
 2475 077b 52       		.byte	0x52
ARM GAS  C:\Users\stijn\AppData\Local\Temp\ccPWVksW.s 			page 79


 2476 077c 0A       		.uleb128 0xa
 2477 077d 030F0000 		.4byte	.LASF107
 2478 0781 07       		.byte	0x7
 2479 0782 63       		.byte	0x63
 2480 0783 A2000000 		.4byte	0xa2
 2481 0787 53       		.byte	0x53
 2482 0788 0A       		.uleb128 0xa
 2483 0789 D30B0000 		.4byte	.LASF108
 2484 078d 07       		.byte	0x7
 2485 078e 64       		.byte	0x64
 2486 078f A2000000 		.4byte	0xa2
 2487 0793 54       		.byte	0x54
 2488 0794 0A       		.uleb128 0xa
 2489 0795 D4020000 		.4byte	.LASF109
 2490 0799 07       		.byte	0x7
 2491 079a 65       		.byte	0x65
 2492 079b A2000000 		.4byte	0xa2
 2493 079f 55       		.byte	0x55
 2494 07a0 0A       		.uleb128 0xa
 2495 07a1 38060000 		.4byte	.LASF110
 2496 07a5 07       		.byte	0x7
 2497 07a6 66       		.byte	0x66
 2498 07a7 A2000000 		.4byte	0xa2
 2499 07ab 56       		.byte	0x56
 2500 07ac 0A       		.uleb128 0xa
 2501 07ad 8D060000 		.4byte	.LASF111
 2502 07b1 07       		.byte	0x7
 2503 07b2 67       		.byte	0x67
 2504 07b3 A2000000 		.4byte	0xa2
 2505 07b7 57       		.byte	0x57
 2506 07b8 0A       		.uleb128 0xa
 2507 07b9 E6000000 		.4byte	.LASF112
 2508 07bd 07       		.byte	0x7
 2509 07be 68       		.byte	0x68
 2510 07bf A2000000 		.4byte	0xa2
 2511 07c3 58       		.byte	0x58
 2512 07c4 0A       		.uleb128 0xa
 2513 07c5 A00A0000 		.4byte	.LASF113
 2514 07c9 07       		.byte	0x7
 2515 07ca 69       		.byte	0x69
 2516 07cb A2000000 		.4byte	0xa2
 2517 07cf 59       		.byte	0x59
 2518 07d0 0A       		.uleb128 0xa
 2519 07d1 84080000 		.4byte	.LASF114
 2520 07d5 07       		.byte	0x7
 2521 07d6 6E       		.byte	0x6e
 2522 07d7 B8000000 		.4byte	0xb8
 2523 07db 5A       		.byte	0x5a
 2524 07dc 0A       		.uleb128 0xa
 2525 07dd 020D0000 		.4byte	.LASF115
 2526 07e1 07       		.byte	0x7
 2527 07e2 6F       		.byte	0x6f
 2528 07e3 B8000000 		.4byte	0xb8
 2529 07e7 5C       		.byte	0x5c
 2530 07e8 0A       		.uleb128 0xa
 2531 07e9 E9010000 		.4byte	.LASF116
 2532 07ed 07       		.byte	0x7
ARM GAS  C:\Users\stijn\AppData\Local\Temp\ccPWVksW.s 			page 80


 2533 07ee 70       		.byte	0x70
 2534 07ef A2000000 		.4byte	0xa2
 2535 07f3 5E       		.byte	0x5e
 2536 07f4 0A       		.uleb128 0xa
 2537 07f5 B7040000 		.4byte	.LASF117
 2538 07f9 07       		.byte	0x7
 2539 07fa 71       		.byte	0x71
 2540 07fb A2000000 		.4byte	0xa2
 2541 07ff 5F       		.byte	0x5f
 2542 0800 0A       		.uleb128 0xa
 2543 0801 3B090000 		.4byte	.LASF118
 2544 0805 07       		.byte	0x7
 2545 0806 72       		.byte	0x72
 2546 0807 A2000000 		.4byte	0xa2
 2547 080b 60       		.byte	0x60
 2548 080c 0A       		.uleb128 0xa
 2549 080d DB090000 		.4byte	.LASF119
 2550 0811 07       		.byte	0x7
 2551 0812 73       		.byte	0x73
 2552 0813 CE000000 		.4byte	0xce
 2553 0817 64       		.byte	0x64
 2554 0818 0A       		.uleb128 0xa
 2555 0819 2A020000 		.4byte	.LASF120
 2556 081d 07       		.byte	0x7
 2557 081e 76       		.byte	0x76
 2558 081f B8000000 		.4byte	0xb8
 2559 0823 68       		.byte	0x68
 2560 0824 0A       		.uleb128 0xa
 2561 0825 860C0000 		.4byte	.LASF121
 2562 0829 07       		.byte	0x7
 2563 082a 77       		.byte	0x77
 2564 082b B8000000 		.4byte	0xb8
 2565 082f 6A       		.byte	0x6a
 2566 0830 0A       		.uleb128 0xa
 2567 0831 D2060000 		.4byte	.LASF122
 2568 0835 07       		.byte	0x7
 2569 0836 78       		.byte	0x78
 2570 0837 B8000000 		.4byte	0xb8
 2571 083b 6C       		.byte	0x6c
 2572 083c 0A       		.uleb128 0xa
 2573 083d 6B010000 		.4byte	.LASF123
 2574 0841 07       		.byte	0x7
 2575 0842 79       		.byte	0x79
 2576 0843 B8000000 		.4byte	0xb8
 2577 0847 6E       		.byte	0x6e
 2578 0848 0A       		.uleb128 0xa
 2579 0849 860B0000 		.4byte	.LASF124
 2580 084d 07       		.byte	0x7
 2581 084e 7B       		.byte	0x7b
 2582 084f A2000000 		.4byte	0xa2
 2583 0853 70       		.byte	0x70
 2584 0854 0A       		.uleb128 0xa
 2585 0855 0A030000 		.4byte	.LASF125
 2586 0859 07       		.byte	0x7
 2587 085a 7C       		.byte	0x7c
 2588 085b A2000000 		.4byte	0xa2
 2589 085f 71       		.byte	0x71
ARM GAS  C:\Users\stijn\AppData\Local\Temp\ccPWVksW.s 			page 81


 2590 0860 0A       		.uleb128 0xa
 2591 0861 ED0E0000 		.4byte	.LASF126
 2592 0865 07       		.byte	0x7
 2593 0866 7D       		.byte	0x7d
 2594 0867 A2000000 		.4byte	0xa2
 2595 086b 72       		.byte	0x72
 2596 086c 0A       		.uleb128 0xa
 2597 086d F0080000 		.4byte	.LASF127
 2598 0871 07       		.byte	0x7
 2599 0872 7E       		.byte	0x7e
 2600 0873 A2000000 		.4byte	0xa2
 2601 0877 73       		.byte	0x73
 2602 0878 0A       		.uleb128 0xa
 2603 0879 7E040000 		.4byte	.LASF128
 2604 087d 07       		.byte	0x7
 2605 087e 80       		.byte	0x80
 2606 087f B8000000 		.4byte	0xb8
 2607 0883 74       		.byte	0x74
 2608 0884 0A       		.uleb128 0xa
 2609 0885 6B0C0000 		.4byte	.LASF129
 2610 0889 07       		.byte	0x7
 2611 088a 81       		.byte	0x81
 2612 088b B8000000 		.4byte	0xb8
 2613 088f 76       		.byte	0x76
 2614 0890 0A       		.uleb128 0xa
 2615 0891 35040000 		.4byte	.LASF130
 2616 0895 07       		.byte	0x7
 2617 0896 82       		.byte	0x82
 2618 0897 B8000000 		.4byte	0xb8
 2619 089b 78       		.byte	0x78
 2620 089c 0A       		.uleb128 0xa
 2621 089d 90010000 		.4byte	.LASF131
 2622 08a1 07       		.byte	0x7
 2623 08a2 83       		.byte	0x83
 2624 08a3 B8000000 		.4byte	0xb8
 2625 08a7 7A       		.byte	0x7a
 2626 08a8 0A       		.uleb128 0xa
 2627 08a9 760E0000 		.4byte	.LASF132
 2628 08ad 07       		.byte	0x7
 2629 08ae 86       		.byte	0x86
 2630 08af A2000000 		.4byte	0xa2
 2631 08b3 7C       		.byte	0x7c
 2632 08b4 0A       		.uleb128 0xa
 2633 08b5 3D0D0000 		.4byte	.LASF133
 2634 08b9 07       		.byte	0x7
 2635 08ba 87       		.byte	0x87
 2636 08bb A2000000 		.4byte	0xa2
 2637 08bf 7D       		.byte	0x7d
 2638 08c0 0A       		.uleb128 0xa
 2639 08c1 A80D0000 		.4byte	.LASF134
 2640 08c5 07       		.byte	0x7
 2641 08c6 88       		.byte	0x88
 2642 08c7 A2000000 		.4byte	0xa2
 2643 08cb 7E       		.byte	0x7e
 2644 08cc 0A       		.uleb128 0xa
 2645 08cd A3040000 		.4byte	.LASF135
 2646 08d1 07       		.byte	0x7
ARM GAS  C:\Users\stijn\AppData\Local\Temp\ccPWVksW.s 			page 82


 2647 08d2 89       		.byte	0x89
 2648 08d3 A2000000 		.4byte	0xa2
 2649 08d7 7F       		.byte	0x7f
 2650 08d8 0A       		.uleb128 0xa
 2651 08d9 BE050000 		.4byte	.LASF136
 2652 08dd 07       		.byte	0x7
 2653 08de 8A       		.byte	0x8a
 2654 08df A2000000 		.4byte	0xa2
 2655 08e3 80       		.byte	0x80
 2656 08e4 0A       		.uleb128 0xa
 2657 08e5 260D0000 		.4byte	.LASF137
 2658 08e9 07       		.byte	0x7
 2659 08ea 8D       		.byte	0x8d
 2660 08eb CE000000 		.4byte	0xce
 2661 08ef 84       		.byte	0x84
 2662 08f0 0A       		.uleb128 0xa
 2663 08f1 A5010000 		.4byte	.LASF138
 2664 08f5 07       		.byte	0x7
 2665 08f6 8E       		.byte	0x8e
 2666 08f7 CE000000 		.4byte	0xce
 2667 08fb 88       		.byte	0x88
 2668 08fc 0A       		.uleb128 0xa
 2669 08fd 610E0000 		.4byte	.LASF139
 2670 0901 07       		.byte	0x7
 2671 0902 8F       		.byte	0x8f
 2672 0903 CE000000 		.4byte	0xce
 2673 0907 8C       		.byte	0x8c
 2674 0908 0A       		.uleb128 0xa
 2675 0909 B40A0000 		.4byte	.LASF140
 2676 090d 07       		.byte	0x7
 2677 090e 90       		.byte	0x90
 2678 090f CE000000 		.4byte	0xce
 2679 0913 90       		.byte	0x90
 2680 0914 0A       		.uleb128 0xa
 2681 0915 A1050000 		.4byte	.LASF141
 2682 0919 07       		.byte	0x7
 2683 091a 91       		.byte	0x91
 2684 091b CE000000 		.4byte	0xce
 2685 091f 94       		.byte	0x94
 2686 0920 0A       		.uleb128 0xa
 2687 0921 CD070000 		.4byte	.LASF142
 2688 0925 07       		.byte	0x7
 2689 0926 92       		.byte	0x92
 2690 0927 CE000000 		.4byte	0xce
 2691 092b 98       		.byte	0x98
 2692 092c 0A       		.uleb128 0xa
 2693 092d E80A0000 		.4byte	.LASF143
 2694 0931 07       		.byte	0x7
 2695 0932 93       		.byte	0x93
 2696 0933 CE000000 		.4byte	0xce
 2697 0937 9C       		.byte	0x9c
 2698 0938 0A       		.uleb128 0xa
 2699 0939 66020000 		.4byte	.LASF144
 2700 093d 07       		.byte	0x7
 2701 093e 94       		.byte	0x94
 2702 093f CE000000 		.4byte	0xce
 2703 0943 A0       		.byte	0xa0
ARM GAS  C:\Users\stijn\AppData\Local\Temp\ccPWVksW.s 			page 83


 2704 0944 0A       		.uleb128 0xa
 2705 0945 4C030000 		.4byte	.LASF145
 2706 0949 07       		.byte	0x7
 2707 094a 95       		.byte	0x95
 2708 094b B8000000 		.4byte	0xb8
 2709 094f A4       		.byte	0xa4
 2710 0950 0A       		.uleb128 0xa
 2711 0951 FA000000 		.4byte	.LASF146
 2712 0955 07       		.byte	0x7
 2713 0956 96       		.byte	0x96
 2714 0957 B8000000 		.4byte	0xb8
 2715 095b A6       		.byte	0xa6
 2716 095c 0A       		.uleb128 0xa
 2717 095d 2E0A0000 		.4byte	.LASF147
 2718 0961 07       		.byte	0x7
 2719 0962 97       		.byte	0x97
 2720 0963 B8000000 		.4byte	0xb8
 2721 0967 A8       		.byte	0xa8
 2722 0968 0A       		.uleb128 0xa
 2723 0969 310C0000 		.4byte	.LASF148
 2724 096d 07       		.byte	0x7
 2725 096e 98       		.byte	0x98
 2726 096f B8000000 		.4byte	0xb8
 2727 0973 AA       		.byte	0xaa
 2728 0974 0A       		.uleb128 0xa
 2729 0975 3A020000 		.4byte	.LASF149
 2730 0979 07       		.byte	0x7
 2731 097a 99       		.byte	0x99
 2732 097b B8000000 		.4byte	0xb8
 2733 097f AC       		.byte	0xac
 2734 0980 0A       		.uleb128 0xa
 2735 0981 28090000 		.4byte	.LASF150
 2736 0985 07       		.byte	0x7
 2737 0986 9A       		.byte	0x9a
 2738 0987 B8000000 		.4byte	0xb8
 2739 098b AE       		.byte	0xae
 2740 098c 0A       		.uleb128 0xa
 2741 098d 0B0D0000 		.4byte	.LASF151
 2742 0991 07       		.byte	0x7
 2743 0992 9D       		.byte	0x9d
 2744 0993 B8000000 		.4byte	0xb8
 2745 0997 B0       		.byte	0xb0
 2746 0998 0A       		.uleb128 0xa
 2747 0999 0F010000 		.4byte	.LASF152
 2748 099d 07       		.byte	0x7
 2749 099e 9E       		.byte	0x9e
 2750 099f CE000000 		.4byte	0xce
 2751 09a3 B4       		.byte	0xb4
 2752 09a4 00       		.byte	0
 2753 09a5 03       		.uleb128 0x3
 2754 09a6 8F080000 		.4byte	.LASF153
 2755 09aa 07       		.byte	0x7
 2756 09ab 9F       		.byte	0x9f
 2757 09ac 94050000 		.4byte	0x594
 2758 09b0 10       		.uleb128 0x10
 2759 09b1 B6050000 		.4byte	.LASF154
 2760 09b5 08       		.byte	0x8
ARM GAS  C:\Users\stijn\AppData\Local\Temp\ccPWVksW.s 			page 84


 2761 09b6 2B06     		.2byte	0x62b
 2762 09b8 E9020000 		.4byte	0x2e9
 2763 09bc 10       		.uleb128 0x10
 2764 09bd 23060000 		.4byte	.LASF155
 2765 09c1 09       		.byte	0x9
 2766 09c2 F601     		.2byte	0x1f6
 2767 09c4 C8090000 		.4byte	0x9c8
 2768 09c8 02       		.uleb128 0x2
 2769 09c9 01       		.byte	0x1
 2770 09ca 08       		.byte	0x8
 2771 09cb 200C0000 		.4byte	.LASF156
 2772 09cf 02       		.uleb128 0x2
 2773 09d0 04       		.byte	0x4
 2774 09d1 04       		.byte	0x4
 2775 09d2 D5090000 		.4byte	.LASF157
 2776 09d6 02       		.uleb128 0x2
 2777 09d7 08       		.byte	0x8
 2778 09d8 04       		.byte	0x4
 2779 09d9 2E040000 		.4byte	.LASF158
 2780 09dd 11       		.uleb128 0x11
 2781 09de 01       		.byte	0x1
 2782 09df 37000000 		.4byte	0x37
 2783 09e3 01       		.byte	0x1
 2784 09e4 F4       		.byte	0xf4
 2785 09e5 020A0000 		.4byte	0xa02
 2786 09e9 12       		.uleb128 0x12
 2787 09ea 0B070000 		.4byte	.LASF159
 2788 09ee 00       		.byte	0
 2789 09ef 12       		.uleb128 0x12
 2790 09f0 DD080000 		.4byte	.LASF160
 2791 09f4 01       		.byte	0x1
 2792 09f5 12       		.uleb128 0x12
 2793 09f6 CD040000 		.4byte	.LASF161
 2794 09fa 02       		.byte	0x2
 2795 09fb 12       		.uleb128 0x12
 2796 09fc DB0C0000 		.4byte	.LASF162
 2797 0a00 03       		.byte	0x3
 2798 0a01 00       		.byte	0
 2799 0a02 03       		.uleb128 0x3
 2800 0a03 89090000 		.4byte	.LASF163
 2801 0a07 01       		.byte	0x1
 2802 0a08 F9       		.byte	0xf9
 2803 0a09 DD090000 		.4byte	0x9dd
 2804 0a0d 11       		.uleb128 0x11
 2805 0a0e 01       		.byte	0x1
 2806 0a0f 37000000 		.4byte	0x37
 2807 0a13 01       		.byte	0x1
 2808 0a14 FD       		.byte	0xfd
 2809 0a15 320A0000 		.4byte	0xa32
 2810 0a19 12       		.uleb128 0x12
 2811 0a1a 6D050000 		.4byte	.LASF164
 2812 0a1e 00       		.byte	0
 2813 0a1f 12       		.uleb128 0x12
 2814 0a20 0C060000 		.4byte	.LASF165
 2815 0a24 01       		.byte	0x1
 2816 0a25 12       		.uleb128 0x12
 2817 0a26 F9070000 		.4byte	.LASF166
ARM GAS  C:\Users\stijn\AppData\Local\Temp\ccPWVksW.s 			page 85


 2818 0a2a 02       		.byte	0x2
 2819 0a2b 12       		.uleb128 0x12
 2820 0a2c F8010000 		.4byte	.LASF167
 2821 0a30 03       		.byte	0x3
 2822 0a31 00       		.byte	0
 2823 0a32 10       		.uleb128 0x10
 2824 0a33 D0010000 		.4byte	.LASF168
 2825 0a37 01       		.byte	0x1
 2826 0a38 0201     		.2byte	0x102
 2827 0a3a 0D0A0000 		.4byte	0xa0d
 2828 0a3e 13       		.uleb128 0x13
 2829 0a3f 01       		.byte	0x1
 2830 0a40 37000000 		.4byte	0x37
 2831 0a44 01       		.byte	0x1
 2832 0a45 0601     		.2byte	0x106
 2833 0a47 5E0A0000 		.4byte	0xa5e
 2834 0a4b 12       		.uleb128 0x12
 2835 0a4c 4C090000 		.4byte	.LASF169
 2836 0a50 00       		.byte	0
 2837 0a51 12       		.uleb128 0x12
 2838 0a52 7C020000 		.4byte	.LASF170
 2839 0a56 01       		.byte	0x1
 2840 0a57 12       		.uleb128 0x12
 2841 0a58 5F0C0000 		.4byte	.LASF171
 2842 0a5c 02       		.byte	0x2
 2843 0a5d 00       		.byte	0
 2844 0a5e 10       		.uleb128 0x10
 2845 0a5f 07090000 		.4byte	.LASF172
 2846 0a63 01       		.byte	0x1
 2847 0a64 0A01     		.2byte	0x10a
 2848 0a66 3E0A0000 		.4byte	0xa3e
 2849 0a6a 13       		.uleb128 0x13
 2850 0a6b 01       		.byte	0x1
 2851 0a6c 37000000 		.4byte	0x37
 2852 0a70 01       		.byte	0x1
 2853 0a71 0E01     		.2byte	0x10e
 2854 0a73 900A0000 		.4byte	0xa90
 2855 0a77 12       		.uleb128 0x12
 2856 0a78 7C060000 		.4byte	.LASF173
 2857 0a7c 00       		.byte	0
 2858 0a7d 12       		.uleb128 0x12
 2859 0a7e 5D040000 		.4byte	.LASF174
 2860 0a82 01       		.byte	0x1
 2861 0a83 12       		.uleb128 0x12
 2862 0a84 90030000 		.4byte	.LASF175
 2863 0a88 02       		.byte	0x2
 2864 0a89 12       		.uleb128 0x12
 2865 0a8a 170B0000 		.4byte	.LASF176
 2866 0a8e 03       		.byte	0x3
 2867 0a8f 00       		.byte	0
 2868 0a90 10       		.uleb128 0x10
 2869 0a91 B3090000 		.4byte	.LASF177
 2870 0a95 01       		.byte	0x1
 2871 0a96 1301     		.2byte	0x113
 2872 0a98 6A0A0000 		.4byte	0xa6a
 2873 0a9c 13       		.uleb128 0x13
 2874 0a9d 01       		.byte	0x1
ARM GAS  C:\Users\stijn\AppData\Local\Temp\ccPWVksW.s 			page 86


 2875 0a9e 37000000 		.4byte	0x37
 2876 0aa2 01       		.byte	0x1
 2877 0aa3 1701     		.2byte	0x117
 2878 0aa5 B60A0000 		.4byte	0xab6
 2879 0aa9 12       		.uleb128 0x12
 2880 0aaa E1060000 		.4byte	.LASF178
 2881 0aae 00       		.byte	0
 2882 0aaf 12       		.uleb128 0x12
 2883 0ab0 B2080000 		.4byte	.LASF179
 2884 0ab4 01       		.byte	0x1
 2885 0ab5 00       		.byte	0
 2886 0ab6 10       		.uleb128 0x10
 2887 0ab7 AD060000 		.4byte	.LASF180
 2888 0abb 01       		.byte	0x1
 2889 0abc 1A01     		.2byte	0x11a
 2890 0abe 9C0A0000 		.4byte	0xa9c
 2891 0ac2 13       		.uleb128 0x13
 2892 0ac3 01       		.byte	0x1
 2893 0ac4 37000000 		.4byte	0x37
 2894 0ac8 01       		.byte	0x1
 2895 0ac9 1E01     		.2byte	0x11e
 2896 0acb DC0A0000 		.4byte	0xadc
 2897 0acf 12       		.uleb128 0x12
 2898 0ad0 3D010000 		.4byte	.LASF181
 2899 0ad4 00       		.byte	0
 2900 0ad5 12       		.uleb128 0x12
 2901 0ad6 55050000 		.4byte	.LASF182
 2902 0ada 01       		.byte	0x1
 2903 0adb 00       		.byte	0
 2904 0adc 10       		.uleb128 0x10
 2905 0add 7B0D0000 		.4byte	.LASF183
 2906 0ae1 01       		.byte	0x1
 2907 0ae2 2101     		.2byte	0x121
 2908 0ae4 C20A0000 		.4byte	0xac2
 2909 0ae8 13       		.uleb128 0x13
 2910 0ae9 04       		.byte	0x4
 2911 0aea 9B000000 		.4byte	0x9b
 2912 0aee 01       		.byte	0x1
 2913 0aef 2501     		.2byte	0x125
 2914 0af1 050B0000 		.4byte	0xb05
 2915 0af5 12       		.uleb128 0x12
 2916 0af6 770B0000 		.4byte	.LASF184
 2917 0afa 00       		.byte	0
 2918 0afb 14       		.uleb128 0x14
 2919 0afc D00D0000 		.4byte	.LASF185
 2920 0b00 01004E00 		.4byte	0x4e0001
 2921 0b04 00       		.byte	0
 2922 0b05 10       		.uleb128 0x10
 2923 0b06 EF0C0000 		.4byte	.LASF186
 2924 0b0a 01       		.byte	0x1
 2925 0b0b 2801     		.2byte	0x128
 2926 0b0d E80A0000 		.4byte	0xae8
 2927 0b11 15       		.uleb128 0x15
 2928 0b12 18       		.byte	0x18
 2929 0b13 01       		.byte	0x1
 2930 0b14 7E01     		.2byte	0x17e
 2931 0b16 690B0000 		.4byte	0xb69
ARM GAS  C:\Users\stijn\AppData\Local\Temp\ccPWVksW.s 			page 87


 2932 0b1a 16       		.uleb128 0x16
 2933 0b1b 63746C00 		.ascii	"ctl\000"
 2934 0b1f 01       		.byte	0x1
 2935 0b20 8001     		.2byte	0x180
 2936 0b22 CE000000 		.4byte	0xce
 2937 0b26 00       		.byte	0
 2938 0b27 16       		.uleb128 0x16
 2939 0b28 73726300 		.ascii	"src\000"
 2940 0b2c 01       		.byte	0x1
 2941 0b2d 8101     		.2byte	0x181
 2942 0b2f CE000000 		.4byte	0xce
 2943 0b33 04       		.byte	0x4
 2944 0b34 16       		.uleb128 0x16
 2945 0b35 64737400 		.ascii	"dst\000"
 2946 0b39 01       		.byte	0x1
 2947 0b3a 8201     		.2byte	0x182
 2948 0b3c CE000000 		.4byte	0xce
 2949 0b40 08       		.byte	0x8
 2950 0b41 17       		.uleb128 0x17
 2951 0b42 8B0E0000 		.4byte	.LASF187
 2952 0b46 01       		.byte	0x1
 2953 0b47 8301     		.2byte	0x183
 2954 0b49 CE000000 		.4byte	0xce
 2955 0b4d 0C       		.byte	0xc
 2956 0b4e 17       		.uleb128 0x17
 2957 0b4f D60C0000 		.4byte	.LASF188
 2958 0b53 01       		.byte	0x1
 2959 0b54 8401     		.2byte	0x184
 2960 0b56 CE000000 		.4byte	0xce
 2961 0b5a 10       		.byte	0x10
 2962 0b5b 17       		.uleb128 0x17
 2963 0b5c DB030000 		.4byte	.LASF189
 2964 0b60 01       		.byte	0x1
 2965 0b61 8501     		.2byte	0x185
 2966 0b63 CE000000 		.4byte	0xce
 2967 0b67 14       		.byte	0x14
 2968 0b68 00       		.byte	0
 2969 0b69 10       		.uleb128 0x10
 2970 0b6a 230E0000 		.4byte	.LASF190
 2971 0b6e 01       		.byte	0x1
 2972 0b6f 8601     		.2byte	0x186
 2973 0b71 110B0000 		.4byte	0xb11
 2974 0b75 15       		.uleb128 0x15
 2975 0b76 30       		.byte	0x30
 2976 0b77 01       		.byte	0x1
 2977 0b78 9001     		.2byte	0x190
 2978 0b7a 690C0000 		.4byte	0xc69
 2979 0b7e 17       		.uleb128 0x17
 2980 0b7f 4B070000 		.4byte	.LASF191
 2981 0b83 01       		.byte	0x1
 2982 0b84 9201     		.2byte	0x192
 2983 0b86 900A0000 		.4byte	0xa90
 2984 0b8a 00       		.byte	0
 2985 0b8b 17       		.uleb128 0x17
 2986 0b8c 76030000 		.4byte	.LASF192
 2987 0b90 01       		.byte	0x1
 2988 0b91 9301     		.2byte	0x193
ARM GAS  C:\Users\stijn\AppData\Local\Temp\ccPWVksW.s 			page 88


 2989 0b93 320A0000 		.4byte	0xa32
 2990 0b97 01       		.byte	0x1
 2991 0b98 17       		.uleb128 0x17
 2992 0b99 57020000 		.4byte	.LASF193
 2993 0b9d 01       		.byte	0x1
 2994 0b9e 9401     		.2byte	0x194
 2995 0ba0 320A0000 		.4byte	0xa32
 2996 0ba4 02       		.byte	0x2
 2997 0ba5 17       		.uleb128 0x17
 2998 0ba6 900E0000 		.4byte	.LASF194
 2999 0baa 01       		.byte	0x1
 3000 0bab 9501     		.2byte	0x195
 3001 0bad DC0A0000 		.4byte	0xadc
 3002 0bb1 03       		.byte	0x3
 3003 0bb2 17       		.uleb128 0x17
 3004 0bb3 A5090000 		.4byte	.LASF195
 3005 0bb7 01       		.byte	0x1
 3006 0bb8 9601     		.2byte	0x196
 3007 0bba 320A0000 		.4byte	0xa32
 3008 0bbe 04       		.byte	0x4
 3009 0bbf 17       		.uleb128 0x17
 3010 0bc0 8D050000 		.4byte	.LASF196
 3011 0bc4 01       		.byte	0x1
 3012 0bc5 9701     		.2byte	0x197
 3013 0bc7 5E0A0000 		.4byte	0xa5e
 3014 0bcb 05       		.byte	0x5
 3015 0bcc 17       		.uleb128 0x17
 3016 0bcd EC030000 		.4byte	.LASF197
 3017 0bd1 01       		.byte	0x1
 3018 0bd2 9801     		.2byte	0x198
 3019 0bd4 B60A0000 		.4byte	0xab6
 3020 0bd8 06       		.byte	0x6
 3021 0bd9 17       		.uleb128 0x17
 3022 0bda 2D080000 		.4byte	.LASF198
 3023 0bde 01       		.byte	0x1
 3024 0bdf 9901     		.2byte	0x199
 3025 0be1 B60A0000 		.4byte	0xab6
 3026 0be5 07       		.byte	0x7
 3027 0be6 17       		.uleb128 0x17
 3028 0be7 680B0000 		.4byte	.LASF199
 3029 0beb 01       		.byte	0x1
 3030 0bec 9A01     		.2byte	0x19a
 3031 0bee 020A0000 		.4byte	0xa02
 3032 0bf2 08       		.byte	0x8
 3033 0bf3 17       		.uleb128 0x17
 3034 0bf4 1D090000 		.4byte	.LASF200
 3035 0bf8 01       		.byte	0x1
 3036 0bf9 9B01     		.2byte	0x19b
 3037 0bfb 690C0000 		.4byte	0xc69
 3038 0bff 0C       		.byte	0xc
 3039 0c00 17       		.uleb128 0x17
 3040 0c01 C7060000 		.4byte	.LASF201
 3041 0c05 01       		.byte	0x1
 3042 0c06 9C01     		.2byte	0x19c
 3043 0c08 690C0000 		.4byte	0xc69
 3044 0c0c 10       		.byte	0x10
 3045 0c0d 17       		.uleb128 0x17
ARM GAS  C:\Users\stijn\AppData\Local\Temp\ccPWVksW.s 			page 89


 3046 0c0e E10D0000 		.4byte	.LASF202
 3047 0c12 01       		.byte	0x1
 3048 0c13 A001     		.2byte	0x1a0
 3049 0c15 C3000000 		.4byte	0xc3
 3050 0c19 14       		.byte	0x14
 3051 0c1a 17       		.uleb128 0x17
 3052 0c1b 1F030000 		.4byte	.LASF203
 3053 0c1f 01       		.byte	0x1
 3054 0c20 A101     		.2byte	0x1a1
 3055 0c22 C3000000 		.4byte	0xc3
 3056 0c26 18       		.byte	0x18
 3057 0c27 17       		.uleb128 0x17
 3058 0c28 4D0C0000 		.4byte	.LASF204
 3059 0c2c 01       		.byte	0x1
 3060 0c2d A201     		.2byte	0x1a2
 3061 0c2f CE000000 		.4byte	0xce
 3062 0c33 1C       		.byte	0x1c
 3063 0c34 17       		.uleb128 0x17
 3064 0c35 5D010000 		.4byte	.LASF205
 3065 0c39 01       		.byte	0x1
 3066 0c3a A301     		.2byte	0x1a3
 3067 0c3c C3000000 		.4byte	0xc3
 3068 0c40 20       		.byte	0x20
 3069 0c41 17       		.uleb128 0x17
 3070 0c42 4E0D0000 		.4byte	.LASF206
 3071 0c46 01       		.byte	0x1
 3072 0c47 A401     		.2byte	0x1a4
 3073 0c49 C3000000 		.4byte	0xc3
 3074 0c4d 24       		.byte	0x24
 3075 0c4e 17       		.uleb128 0x17
 3076 0c4f 3F0C0000 		.4byte	.LASF207
 3077 0c53 01       		.byte	0x1
 3078 0c54 A501     		.2byte	0x1a5
 3079 0c56 CE000000 		.4byte	0xce
 3080 0c5a 28       		.byte	0x28
 3081 0c5b 17       		.uleb128 0x17
 3082 0c5c 9A0B0000 		.4byte	.LASF208
 3083 0c60 01       		.byte	0x1
 3084 0c61 A601     		.2byte	0x1a6
 3085 0c63 6B0C0000 		.4byte	0xc6b
 3086 0c67 2C       		.byte	0x2c
 3087 0c68 00       		.byte	0
 3088 0c69 18       		.uleb128 0x18
 3089 0c6a 04       		.byte	0x4
 3090 0c6b 19       		.uleb128 0x19
 3091 0c6c 04       		.byte	0x4
 3092 0c6d 690B0000 		.4byte	0xb69
 3093 0c71 10       		.uleb128 0x10
 3094 0c72 5C0D0000 		.4byte	.LASF209
 3095 0c76 01       		.byte	0x1
 3096 0c77 A701     		.2byte	0x1a7
 3097 0c79 750B0000 		.4byte	0xb75
 3098 0c7d 15       		.uleb128 0x15
 3099 0c7e 10       		.byte	0x10
 3100 0c7f 01       		.byte	0x1
 3101 0c80 AA01     		.2byte	0x1aa
 3102 0c82 C80C0000 		.4byte	0xcc8
ARM GAS  C:\Users\stijn\AppData\Local\Temp\ccPWVksW.s 			page 90


 3103 0c86 17       		.uleb128 0x17
 3104 0c87 090C0000 		.4byte	.LASF210
 3105 0c8b 01       		.byte	0x1
 3106 0c8c AC01     		.2byte	0x1ac
 3107 0c8e 6B0C0000 		.4byte	0xc6b
 3108 0c92 00       		.byte	0
 3109 0c93 17       		.uleb128 0x17
 3110 0c94 150F0000 		.4byte	.LASF211
 3111 0c98 01       		.byte	0x1
 3112 0c99 AD01     		.2byte	0x1ad
 3113 0c9b C80C0000 		.4byte	0xcc8
 3114 0c9f 04       		.byte	0x4
 3115 0ca0 17       		.uleb128 0x17
 3116 0ca1 22070000 		.4byte	.LASF212
 3117 0ca5 01       		.byte	0x1
 3118 0ca6 AE01     		.2byte	0x1ae
 3119 0ca8 CE000000 		.4byte	0xce
 3120 0cac 08       		.byte	0x8
 3121 0cad 17       		.uleb128 0x17
 3122 0cae 19040000 		.4byte	.LASF213
 3123 0cb2 01       		.byte	0x1
 3124 0cb3 AF01     		.2byte	0x1af
 3125 0cb5 C80C0000 		.4byte	0xcc8
 3126 0cb9 0C       		.byte	0xc
 3127 0cba 17       		.uleb128 0x17
 3128 0cbb 950A0000 		.4byte	.LASF214
 3129 0cbf 01       		.byte	0x1
 3130 0cc0 B001     		.2byte	0x1b0
 3131 0cc2 C80C0000 		.4byte	0xcc8
 3132 0cc6 0D       		.byte	0xd
 3133 0cc7 00       		.byte	0
 3134 0cc8 02       		.uleb128 0x2
 3135 0cc9 01       		.byte	0x1
 3136 0cca 02       		.byte	0x2
 3137 0ccb 740A0000 		.4byte	.LASF215
 3138 0ccf 10       		.uleb128 0x10
 3139 0cd0 49080000 		.4byte	.LASF216
 3140 0cd4 01       		.byte	0x1
 3141 0cd5 B201     		.2byte	0x1b2
 3142 0cd7 7D0C0000 		.4byte	0xc7d
 3143 0cdb 15       		.uleb128 0x15
 3144 0cdc 18       		.byte	0x18
 3145 0cdd 01       		.byte	0x1
 3146 0cde B601     		.2byte	0x1b6
 3147 0ce0 330D0000 		.4byte	0xd33
 3148 0ce4 17       		.uleb128 0x17
 3149 0ce5 84030000 		.4byte	.LASF217
 3150 0ce9 01       		.byte	0x1
 3151 0cea B801     		.2byte	0x1b8
 3152 0cec C80C0000 		.4byte	0xcc8
 3153 0cf0 00       		.byte	0
 3154 0cf1 17       		.uleb128 0x17
 3155 0cf2 5F070000 		.4byte	.LASF218
 3156 0cf6 01       		.byte	0x1
 3157 0cf7 BC01     		.2byte	0x1bc
 3158 0cf9 CE000000 		.4byte	0xce
 3159 0cfd 04       		.byte	0x4
ARM GAS  C:\Users\stijn\AppData\Local\Temp\ccPWVksW.s 			page 91


 3160 0cfe 17       		.uleb128 0x17
 3161 0cff B6020000 		.4byte	.LASF219
 3162 0d03 01       		.byte	0x1
 3163 0d04 BD01     		.2byte	0x1bd
 3164 0d06 C80C0000 		.4byte	0xcc8
 3165 0d0a 08       		.byte	0x8
 3166 0d0b 17       		.uleb128 0x17
 3167 0d0c 3D080000 		.4byte	.LASF220
 3168 0d10 01       		.byte	0x1
 3169 0d11 C101     		.2byte	0x1c1
 3170 0d13 CE000000 		.4byte	0xce
 3171 0d17 0C       		.byte	0xc
 3172 0d18 17       		.uleb128 0x17
 3173 0d19 A4030000 		.4byte	.LASF221
 3174 0d1d 01       		.byte	0x1
 3175 0d1e C501     		.2byte	0x1c5
 3176 0d20 CE000000 		.4byte	0xce
 3177 0d24 10       		.byte	0x10
 3178 0d25 17       		.uleb128 0x17
 3179 0d26 550E0000 		.4byte	.LASF222
 3180 0d2a 01       		.byte	0x1
 3181 0d2b CC01     		.2byte	0x1cc
 3182 0d2d CE000000 		.4byte	0xce
 3183 0d31 14       		.byte	0x14
 3184 0d32 00       		.byte	0
 3185 0d33 10       		.uleb128 0x10
 3186 0d34 C90A0000 		.4byte	.LASF223
 3187 0d38 01       		.byte	0x1
 3188 0d39 CD01     		.2byte	0x1cd
 3189 0d3b DB0C0000 		.4byte	0xcdb
 3190 0d3f 1A       		.uleb128 0x1a
 3191 0d40 EF0D0000 		.4byte	.LASF244
 3192 0d44 01       		.byte	0x1
 3193 0d45 5D04     		.2byte	0x45d
 3194 0d47 020A0000 		.4byte	0xa02
 3195 0d4b 00000000 		.4byte	.LFB155
 3196 0d4f 1C000000 		.4byte	.LFE155-.LFB155
 3197 0d53 01       		.uleb128 0x1
 3198 0d54 9C       		.byte	0x9c
 3199 0d55 690D0000 		.4byte	0xd69
 3200 0d59 1B       		.uleb128 0x1b
 3201 0d5a 090C0000 		.4byte	.LASF210
 3202 0d5e 01       		.byte	0x1
 3203 0d5f 5D04     		.2byte	0x45d
 3204 0d61 690D0000 		.4byte	0xd69
 3205 0d65 02       		.uleb128 0x2
 3206 0d66 91       		.byte	0x91
 3207 0d67 74       		.sleb128 -12
 3208 0d68 00       		.byte	0
 3209 0d69 19       		.uleb128 0x19
 3210 0d6a 04       		.byte	0x4
 3211 0d6b 6F0D0000 		.4byte	0xd6f
 3212 0d6f 06       		.uleb128 0x6
 3213 0d70 690B0000 		.4byte	0xb69
 3214 0d74 1C       		.uleb128 0x1c
 3215 0d75 9E070000 		.4byte	.LASF245
 3216 0d79 01       		.byte	0x1
ARM GAS  C:\Users\stijn\AppData\Local\Temp\ccPWVksW.s 			page 92


 3217 0d7a DF05     		.2byte	0x5df
 3218 0d7c 00000000 		.4byte	.LFB170
 3219 0d80 A8000000 		.4byte	.LFE170-.LFB170
 3220 0d84 01       		.uleb128 0x1
 3221 0d85 9C       		.byte	0x9c
 3222 0d86 B80D0000 		.4byte	0xdb8
 3223 0d8a 1B       		.uleb128 0x1b
 3224 0d8b 1C080000 		.4byte	.LASF224
 3225 0d8f 01       		.byte	0x1
 3226 0d90 DF05     		.2byte	0x5df
 3227 0d92 B80D0000 		.4byte	0xdb8
 3228 0d96 02       		.uleb128 0x2
 3229 0d97 91       		.byte	0x91
 3230 0d98 74       		.sleb128 -12
 3231 0d99 1B       		.uleb128 0x1b
 3232 0d9a A90B0000 		.4byte	.LASF225
 3233 0d9e 01       		.byte	0x1
 3234 0d9f DF05     		.2byte	0x5df
 3235 0da1 CE000000 		.4byte	0xce
 3236 0da5 02       		.uleb128 0x2
 3237 0da6 91       		.byte	0x91
 3238 0da7 70       		.sleb128 -16
 3239 0da8 1B       		.uleb128 0x1b
 3240 0da9 090C0000 		.4byte	.LASF210
 3241 0dad 01       		.byte	0x1
 3242 0dae DF05     		.2byte	0x5df
 3243 0db0 690D0000 		.4byte	0xd69
 3244 0db4 02       		.uleb128 0x2
 3245 0db5 91       		.byte	0x91
 3246 0db6 6C       		.sleb128 -20
 3247 0db7 00       		.byte	0
 3248 0db8 19       		.uleb128 0x19
 3249 0db9 04       		.byte	0x4
 3250 0dba B0090000 		.4byte	0x9b0
 3251 0dbe 1D       		.uleb128 0x1d
 3252 0dbf FB060000 		.4byte	.LASF227
 3253 0dc3 02       		.byte	0x2
 3254 0dc4 26       		.byte	0x26
 3255 0dc5 050B0000 		.4byte	0xb05
 3256 0dc9 00000000 		.4byte	.LFB183
 3257 0dcd 90000000 		.4byte	.LFE183-.LFB183
 3258 0dd1 01       		.uleb128 0x1
 3259 0dd2 9C       		.byte	0x9c
 3260 0dd3 020E0000 		.4byte	0xe02
 3261 0dd7 1E       		.uleb128 0x1e
 3262 0dd8 1C080000 		.4byte	.LASF224
 3263 0ddc 02       		.byte	0x2
 3264 0ddd 26       		.byte	0x26
 3265 0dde B80D0000 		.4byte	0xdb8
 3266 0de2 02       		.uleb128 0x2
 3267 0de3 91       		.byte	0x91
 3268 0de4 6C       		.sleb128 -20
 3269 0de5 1E       		.uleb128 0x1e
 3270 0de6 B60E0000 		.4byte	.LASF226
 3271 0dea 02       		.byte	0x2
 3272 0deb 26       		.byte	0x26
 3273 0dec 020E0000 		.4byte	0xe02
ARM GAS  C:\Users\stijn\AppData\Local\Temp\ccPWVksW.s 			page 93


 3274 0df0 02       		.uleb128 0x2
 3275 0df1 91       		.byte	0x91
 3276 0df2 68       		.sleb128 -24
 3277 0df3 1F       		.uleb128 0x1f
 3278 0df4 72657400 		.ascii	"ret\000"
 3279 0df8 02       		.byte	0x2
 3280 0df9 28       		.byte	0x28
 3281 0dfa 050B0000 		.4byte	0xb05
 3282 0dfe 02       		.uleb128 0x2
 3283 0dff 91       		.byte	0x91
 3284 0e00 74       		.sleb128 -12
 3285 0e01 00       		.byte	0
 3286 0e02 19       		.uleb128 0x19
 3287 0e03 04       		.byte	0x4
 3288 0e04 080E0000 		.4byte	0xe08
 3289 0e08 06       		.uleb128 0x6
 3290 0e09 330D0000 		.4byte	0xd33
 3291 0e0d 20       		.uleb128 0x20
 3292 0e0e CF000000 		.4byte	.LASF228
 3293 0e12 02       		.byte	0x2
 3294 0e13 51       		.byte	0x51
 3295 0e14 050B0000 		.4byte	0xb05
 3296 0e18 00000000 		.4byte	.LFB184
 3297 0e1c 04040000 		.4byte	.LFE184-.LFB184
 3298 0e20 01       		.uleb128 0x1
 3299 0e21 9C       		.byte	0x9c
 3300 0e22 510E0000 		.4byte	0xe51
 3301 0e26 1E       		.uleb128 0x1e
 3302 0e27 090C0000 		.4byte	.LASF210
 3303 0e2b 02       		.byte	0x2
 3304 0e2c 51       		.byte	0x51
 3305 0e2d 6B0C0000 		.4byte	0xc6b
 3306 0e31 02       		.uleb128 0x2
 3307 0e32 91       		.byte	0x91
 3308 0e33 6C       		.sleb128 -20
 3309 0e34 1E       		.uleb128 0x1e
 3310 0e35 460C0000 		.4byte	.LASF229
 3311 0e39 02       		.byte	0x2
 3312 0e3a 51       		.byte	0x51
 3313 0e3b 510E0000 		.4byte	0xe51
 3314 0e3f 02       		.uleb128 0x2
 3315 0e40 91       		.byte	0x91
 3316 0e41 68       		.sleb128 -24
 3317 0e42 1F       		.uleb128 0x1f
 3318 0e43 72657400 		.ascii	"ret\000"
 3319 0e47 02       		.byte	0x2
 3320 0e48 53       		.byte	0x53
 3321 0e49 050B0000 		.4byte	0xb05
 3322 0e4d 02       		.uleb128 0x2
 3323 0e4e 91       		.byte	0x91
 3324 0e4f 74       		.sleb128 -12
 3325 0e50 00       		.byte	0
 3326 0e51 19       		.uleb128 0x19
 3327 0e52 04       		.byte	0x4
 3328 0e53 570E0000 		.4byte	0xe57
 3329 0e57 06       		.uleb128 0x6
 3330 0e58 710C0000 		.4byte	0xc71
ARM GAS  C:\Users\stijn\AppData\Local\Temp\ccPWVksW.s 			page 94


 3331 0e5c 21       		.uleb128 0x21
 3332 0e5d 9D0E0000 		.4byte	.LASF232
 3333 0e61 02       		.byte	0x2
 3334 0e62 C4       		.byte	0xc4
 3335 0e63 00000000 		.4byte	.LFB185
 3336 0e67 38000000 		.4byte	.LFE185-.LFB185
 3337 0e6b 01       		.uleb128 0x1
 3338 0e6c 9C       		.byte	0x9c
 3339 0e6d 800E0000 		.4byte	0xe80
 3340 0e71 1E       		.uleb128 0x1e
 3341 0e72 090C0000 		.4byte	.LASF210
 3342 0e76 02       		.byte	0x2
 3343 0e77 C4       		.byte	0xc4
 3344 0e78 6B0C0000 		.4byte	0xc6b
 3345 0e7c 02       		.uleb128 0x2
 3346 0e7d 91       		.byte	0x91
 3347 0e7e 74       		.sleb128 -12
 3348 0e7f 00       		.byte	0
 3349 0e80 20       		.uleb128 0x20
 3350 0e81 37070000 		.4byte	.LASF230
 3351 0e85 02       		.byte	0x2
 3352 0e86 E6       		.byte	0xe6
 3353 0e87 050B0000 		.4byte	0xb05
 3354 0e8b 00000000 		.4byte	.LFB186
 3355 0e8f F0000000 		.4byte	.LFE186-.LFB186
 3356 0e93 01       		.uleb128 0x1
 3357 0e94 9C       		.byte	0x9c
 3358 0e95 D20E0000 		.4byte	0xed2
 3359 0e99 1E       		.uleb128 0x1e
 3360 0e9a 1C080000 		.4byte	.LASF224
 3361 0e9e 02       		.byte	0x2
 3362 0e9f E6       		.byte	0xe6
 3363 0ea0 B80D0000 		.4byte	0xdb8
 3364 0ea4 02       		.uleb128 0x2
 3365 0ea5 91       		.byte	0x91
 3366 0ea6 64       		.sleb128 -28
 3367 0ea7 1E       		.uleb128 0x1e
 3368 0ea8 A90B0000 		.4byte	.LASF225
 3369 0eac 02       		.byte	0x2
 3370 0ead E6       		.byte	0xe6
 3371 0eae CE000000 		.4byte	0xce
 3372 0eb2 02       		.uleb128 0x2
 3373 0eb3 91       		.byte	0x91
 3374 0eb4 60       		.sleb128 -32
 3375 0eb5 1E       		.uleb128 0x1e
 3376 0eb6 65080000 		.4byte	.LASF231
 3377 0eba 02       		.byte	0x2
 3378 0ebb E6       		.byte	0xe6
 3379 0ebc D20E0000 		.4byte	0xed2
 3380 0ec0 02       		.uleb128 0x2
 3381 0ec1 91       		.byte	0x91
 3382 0ec2 5C       		.sleb128 -36
 3383 0ec3 1F       		.uleb128 0x1f
 3384 0ec4 72657400 		.ascii	"ret\000"
 3385 0ec8 02       		.byte	0x2
 3386 0ec9 E8       		.byte	0xe8
 3387 0eca 050B0000 		.4byte	0xb05
ARM GAS  C:\Users\stijn\AppData\Local\Temp\ccPWVksW.s 			page 95


 3388 0ece 02       		.uleb128 0x2
 3389 0ecf 91       		.byte	0x91
 3390 0ed0 6C       		.sleb128 -20
 3391 0ed1 00       		.byte	0
 3392 0ed2 19       		.uleb128 0x19
 3393 0ed3 04       		.byte	0x4
 3394 0ed4 D80E0000 		.4byte	0xed8
 3395 0ed8 06       		.uleb128 0x6
 3396 0ed9 CF0C0000 		.4byte	0xccf
 3397 0edd 22       		.uleb128 0x22
 3398 0ede E3070000 		.4byte	.LASF233
 3399 0ee2 02       		.byte	0x2
 3400 0ee3 1101     		.2byte	0x111
 3401 0ee5 00000000 		.4byte	.LFB187
 3402 0ee9 CC000000 		.4byte	.LFE187-.LFB187
 3403 0eed 01       		.uleb128 0x1
 3404 0eee 9C       		.byte	0x9c
 3405 0eef 120F0000 		.4byte	0xf12
 3406 0ef3 1B       		.uleb128 0x1b
 3407 0ef4 1C080000 		.4byte	.LASF224
 3408 0ef8 02       		.byte	0x2
 3409 0ef9 1101     		.2byte	0x111
 3410 0efb B80D0000 		.4byte	0xdb8
 3411 0eff 02       		.uleb128 0x2
 3412 0f00 91       		.byte	0x91
 3413 0f01 74       		.sleb128 -12
 3414 0f02 1B       		.uleb128 0x1b
 3415 0f03 A90B0000 		.4byte	.LASF225
 3416 0f07 02       		.byte	0x2
 3417 0f08 1101     		.2byte	0x111
 3418 0f0a CE000000 		.4byte	0xce
 3419 0f0e 02       		.uleb128 0x2
 3420 0f0f 91       		.byte	0x91
 3421 0f10 70       		.sleb128 -16
 3422 0f11 00       		.byte	0
 3423 0f12 23       		.uleb128 0x23
 3424 0f13 7A070000 		.4byte	.LASF234
 3425 0f17 02       		.byte	0x2
 3426 0f18 3101     		.2byte	0x131
 3427 0f1a 00000000 		.4byte	.LFB188
 3428 0f1e 52000000 		.4byte	.LFE188-.LFB188
 3429 0f22 01       		.uleb128 0x1
 3430 0f23 9C       		.byte	0x9c
 3431 0f24 470F0000 		.4byte	0xf47
 3432 0f28 1B       		.uleb128 0x1b
 3433 0f29 090C0000 		.4byte	.LASF210
 3434 0f2d 02       		.byte	0x2
 3435 0f2e 3101     		.2byte	0x131
 3436 0f30 6B0C0000 		.4byte	0xc6b
 3437 0f34 02       		.uleb128 0x2
 3438 0f35 91       		.byte	0x91
 3439 0f36 74       		.sleb128 -12
 3440 0f37 1B       		.uleb128 0x1b
 3441 0f38 9A0B0000 		.4byte	.LASF208
 3442 0f3c 02       		.byte	0x2
 3443 0f3d 3101     		.2byte	0x131
 3444 0f3f 690D0000 		.4byte	0xd69
ARM GAS  C:\Users\stijn\AppData\Local\Temp\ccPWVksW.s 			page 96


 3445 0f43 02       		.uleb128 0x2
 3446 0f44 91       		.byte	0x91
 3447 0f45 70       		.sleb128 -16
 3448 0f46 00       		.byte	0
 3449 0f47 24       		.uleb128 0x24
 3450 0f48 EC090000 		.4byte	.LASF235
 3451 0f4c 02       		.byte	0x2
 3452 0f4d 5E01     		.2byte	0x15e
 3453 0f4f 6B0C0000 		.4byte	0xc6b
 3454 0f53 00000000 		.4byte	.LFB189
 3455 0f57 54000000 		.4byte	.LFE189-.LFB189
 3456 0f5b 01       		.uleb128 0x1
 3457 0f5c 9C       		.byte	0x9c
 3458 0f5d 800F0000 		.4byte	0xf80
 3459 0f61 1B       		.uleb128 0x1b
 3460 0f62 090C0000 		.4byte	.LASF210
 3461 0f66 02       		.byte	0x2
 3462 0f67 5E01     		.2byte	0x15e
 3463 0f69 690D0000 		.4byte	0xd69
 3464 0f6d 02       		.uleb128 0x2
 3465 0f6e 91       		.byte	0x91
 3466 0f6f 6C       		.sleb128 -20
 3467 0f70 25       		.uleb128 0x25
 3468 0f71 C8000000 		.4byte	.LASF236
 3469 0f75 02       		.byte	0x2
 3470 0f76 6001     		.2byte	0x160
 3471 0f78 6B0C0000 		.4byte	0xc6b
 3472 0f7c 02       		.uleb128 0x2
 3473 0f7d 91       		.byte	0x91
 3474 0f7e 74       		.sleb128 -12
 3475 0f7f 00       		.byte	0
 3476 0f80 22       		.uleb128 0x22
 3477 0f81 E8050000 		.4byte	.LASF237
 3478 0f85 02       		.byte	0x2
 3479 0f86 9401     		.2byte	0x194
 3480 0f88 00000000 		.4byte	.LFB190
 3481 0f8c 84000000 		.4byte	.LFE190-.LFB190
 3482 0f90 01       		.uleb128 0x1
 3483 0f91 9C       		.byte	0x9c
 3484 0f92 CE0F0000 		.4byte	0xfce
 3485 0f96 1B       		.uleb128 0x1b
 3486 0f97 090C0000 		.4byte	.LASF210
 3487 0f9b 02       		.byte	0x2
 3488 0f9c 9401     		.2byte	0x194
 3489 0f9e 6B0C0000 		.4byte	0xc6b
 3490 0fa2 02       		.uleb128 0x2
 3491 0fa3 91       		.byte	0x91
 3492 0fa4 6C       		.sleb128 -20
 3493 0fa5 1B       		.uleb128 0x1b
 3494 0fa6 680B0000 		.4byte	.LASF199
 3495 0faa 02       		.byte	0x2
 3496 0fab 9401     		.2byte	0x194
 3497 0fad 020A0000 		.4byte	0xa02
 3498 0fb1 02       		.uleb128 0x2
 3499 0fb2 91       		.byte	0x91
 3500 0fb3 6B       		.sleb128 -21
 3501 0fb4 26       		.uleb128 0x26
ARM GAS  C:\Users\stijn\AppData\Local\Temp\ccPWVksW.s 			page 97


 3502 0fb5 50000000 		.4byte	.LBB2
 3503 0fb9 22000000 		.4byte	.LBE2-.LBB2
 3504 0fbd 25       		.uleb128 0x25
 3505 0fbe BB070000 		.4byte	.LASF238
 3506 0fc2 02       		.byte	0x2
 3507 0fc3 9D01     		.2byte	0x19d
 3508 0fc5 6B0C0000 		.4byte	0xc6b
 3509 0fc9 02       		.uleb128 0x2
 3510 0fca 91       		.byte	0x91
 3511 0fcb 74       		.sleb128 -12
 3512 0fcc 00       		.byte	0
 3513 0fcd 00       		.byte	0
 3514 0fce 27       		.uleb128 0x27
 3515 0fcf 1A0A0000 		.4byte	.LASF239
 3516 0fd3 07       		.byte	0x7
 3517 0fd4 A7       		.byte	0xa7
 3518 0fd5 D90F0000 		.4byte	0xfd9
 3519 0fd9 19       		.uleb128 0x19
 3520 0fda 04       		.byte	0x4
 3521 0fdb DF0F0000 		.4byte	0xfdf
 3522 0fdf 06       		.uleb128 0x6
 3523 0fe0 A5090000 		.4byte	0x9a5
 3524 0fe4 28       		.uleb128 0x28
 3525 0fe5 8C020000 		.4byte	.LASF240
 3526 0fe9 0A       		.byte	0xa
 3527 0fea F907     		.2byte	0x7f9
 3528 0fec F00F0000 		.4byte	0xff0
 3529 0ff0 05       		.uleb128 0x5
 3530 0ff1 C3000000 		.4byte	0xc3
 3531 0ff5 00       		.byte	0
 3532              		.section	.debug_abbrev,"",%progbits
 3533              	.Ldebug_abbrev0:
 3534 0000 01       		.uleb128 0x1
 3535 0001 11       		.uleb128 0x11
 3536 0002 01       		.byte	0x1
 3537 0003 25       		.uleb128 0x25
 3538 0004 0E       		.uleb128 0xe
 3539 0005 13       		.uleb128 0x13
 3540 0006 0B       		.uleb128 0xb
 3541 0007 03       		.uleb128 0x3
 3542 0008 0E       		.uleb128 0xe
 3543 0009 1B       		.uleb128 0x1b
 3544 000a 0E       		.uleb128 0xe
 3545 000b 55       		.uleb128 0x55
 3546 000c 17       		.uleb128 0x17
 3547 000d 11       		.uleb128 0x11
 3548 000e 01       		.uleb128 0x1
 3549 000f 10       		.uleb128 0x10
 3550 0010 17       		.uleb128 0x17
 3551 0011 00       		.byte	0
 3552 0012 00       		.byte	0
 3553 0013 02       		.uleb128 0x2
 3554 0014 24       		.uleb128 0x24
 3555 0015 00       		.byte	0
 3556 0016 0B       		.uleb128 0xb
 3557 0017 0B       		.uleb128 0xb
 3558 0018 3E       		.uleb128 0x3e
ARM GAS  C:\Users\stijn\AppData\Local\Temp\ccPWVksW.s 			page 98


 3559 0019 0B       		.uleb128 0xb
 3560 001a 03       		.uleb128 0x3
 3561 001b 0E       		.uleb128 0xe
 3562 001c 00       		.byte	0
 3563 001d 00       		.byte	0
 3564 001e 03       		.uleb128 0x3
 3565 001f 16       		.uleb128 0x16
 3566 0020 00       		.byte	0
 3567 0021 03       		.uleb128 0x3
 3568 0022 0E       		.uleb128 0xe
 3569 0023 3A       		.uleb128 0x3a
 3570 0024 0B       		.uleb128 0xb
 3571 0025 3B       		.uleb128 0x3b
 3572 0026 0B       		.uleb128 0xb
 3573 0027 49       		.uleb128 0x49
 3574 0028 13       		.uleb128 0x13
 3575 0029 00       		.byte	0
 3576 002a 00       		.byte	0
 3577 002b 04       		.uleb128 0x4
 3578 002c 24       		.uleb128 0x24
 3579 002d 00       		.byte	0
 3580 002e 0B       		.uleb128 0xb
 3581 002f 0B       		.uleb128 0xb
 3582 0030 3E       		.uleb128 0x3e
 3583 0031 0B       		.uleb128 0xb
 3584 0032 03       		.uleb128 0x3
 3585 0033 08       		.uleb128 0x8
 3586 0034 00       		.byte	0
 3587 0035 00       		.byte	0
 3588 0036 05       		.uleb128 0x5
 3589 0037 35       		.uleb128 0x35
 3590 0038 00       		.byte	0
 3591 0039 49       		.uleb128 0x49
 3592 003a 13       		.uleb128 0x13
 3593 003b 00       		.byte	0
 3594 003c 00       		.byte	0
 3595 003d 06       		.uleb128 0x6
 3596 003e 26       		.uleb128 0x26
 3597 003f 00       		.byte	0
 3598 0040 49       		.uleb128 0x49
 3599 0041 13       		.uleb128 0x13
 3600 0042 00       		.byte	0
 3601 0043 00       		.byte	0
 3602 0044 07       		.uleb128 0x7
 3603 0045 01       		.uleb128 0x1
 3604 0046 01       		.byte	0x1
 3605 0047 49       		.uleb128 0x49
 3606 0048 13       		.uleb128 0x13
 3607 0049 01       		.uleb128 0x1
 3608 004a 13       		.uleb128 0x13
 3609 004b 00       		.byte	0
 3610 004c 00       		.byte	0
 3611 004d 08       		.uleb128 0x8
 3612 004e 21       		.uleb128 0x21
 3613 004f 00       		.byte	0
 3614 0050 49       		.uleb128 0x49
 3615 0051 13       		.uleb128 0x13
ARM GAS  C:\Users\stijn\AppData\Local\Temp\ccPWVksW.s 			page 99


 3616 0052 2F       		.uleb128 0x2f
 3617 0053 0B       		.uleb128 0xb
 3618 0054 00       		.byte	0
 3619 0055 00       		.byte	0
 3620 0056 09       		.uleb128 0x9
 3621 0057 13       		.uleb128 0x13
 3622 0058 01       		.byte	0x1
 3623 0059 0B       		.uleb128 0xb
 3624 005a 0B       		.uleb128 0xb
 3625 005b 3A       		.uleb128 0x3a
 3626 005c 0B       		.uleb128 0xb
 3627 005d 3B       		.uleb128 0x3b
 3628 005e 0B       		.uleb128 0xb
 3629 005f 01       		.uleb128 0x1
 3630 0060 13       		.uleb128 0x13
 3631 0061 00       		.byte	0
 3632 0062 00       		.byte	0
 3633 0063 0A       		.uleb128 0xa
 3634 0064 0D       		.uleb128 0xd
 3635 0065 00       		.byte	0
 3636 0066 03       		.uleb128 0x3
 3637 0067 0E       		.uleb128 0xe
 3638 0068 3A       		.uleb128 0x3a
 3639 0069 0B       		.uleb128 0xb
 3640 006a 3B       		.uleb128 0x3b
 3641 006b 0B       		.uleb128 0xb
 3642 006c 49       		.uleb128 0x49
 3643 006d 13       		.uleb128 0x13
 3644 006e 38       		.uleb128 0x38
 3645 006f 0B       		.uleb128 0xb
 3646 0070 00       		.byte	0
 3647 0071 00       		.byte	0
 3648 0072 0B       		.uleb128 0xb
 3649 0073 13       		.uleb128 0x13
 3650 0074 01       		.byte	0x1
 3651 0075 0B       		.uleb128 0xb
 3652 0076 05       		.uleb128 0x5
 3653 0077 3A       		.uleb128 0x3a
 3654 0078 0B       		.uleb128 0xb
 3655 0079 3B       		.uleb128 0x3b
 3656 007a 0B       		.uleb128 0xb
 3657 007b 01       		.uleb128 0x1
 3658 007c 13       		.uleb128 0x13
 3659 007d 00       		.byte	0
 3660 007e 00       		.byte	0
 3661 007f 0C       		.uleb128 0xc
 3662 0080 0D       		.uleb128 0xd
 3663 0081 00       		.byte	0
 3664 0082 03       		.uleb128 0x3
 3665 0083 08       		.uleb128 0x8
 3666 0084 3A       		.uleb128 0x3a
 3667 0085 0B       		.uleb128 0xb
 3668 0086 3B       		.uleb128 0x3b
 3669 0087 0B       		.uleb128 0xb
 3670 0088 49       		.uleb128 0x49
 3671 0089 13       		.uleb128 0x13
 3672 008a 38       		.uleb128 0x38
ARM GAS  C:\Users\stijn\AppData\Local\Temp\ccPWVksW.s 			page 100


 3673 008b 0B       		.uleb128 0xb
 3674 008c 00       		.byte	0
 3675 008d 00       		.byte	0
 3676 008e 0D       		.uleb128 0xd
 3677 008f 0D       		.uleb128 0xd
 3678 0090 00       		.byte	0
 3679 0091 03       		.uleb128 0x3
 3680 0092 0E       		.uleb128 0xe
 3681 0093 3A       		.uleb128 0x3a
 3682 0094 0B       		.uleb128 0xb
 3683 0095 3B       		.uleb128 0x3b
 3684 0096 0B       		.uleb128 0xb
 3685 0097 49       		.uleb128 0x49
 3686 0098 13       		.uleb128 0x13
 3687 0099 38       		.uleb128 0x38
 3688 009a 05       		.uleb128 0x5
 3689 009b 00       		.byte	0
 3690 009c 00       		.byte	0
 3691 009d 0E       		.uleb128 0xe
 3692 009e 21       		.uleb128 0x21
 3693 009f 00       		.byte	0
 3694 00a0 49       		.uleb128 0x49
 3695 00a1 13       		.uleb128 0x13
 3696 00a2 2F       		.uleb128 0x2f
 3697 00a3 05       		.uleb128 0x5
 3698 00a4 00       		.byte	0
 3699 00a5 00       		.byte	0
 3700 00a6 0F       		.uleb128 0xf
 3701 00a7 13       		.uleb128 0x13
 3702 00a8 01       		.byte	0x1
 3703 00a9 0B       		.uleb128 0xb
 3704 00aa 06       		.uleb128 0x6
 3705 00ab 3A       		.uleb128 0x3a
 3706 00ac 0B       		.uleb128 0xb
 3707 00ad 3B       		.uleb128 0x3b
 3708 00ae 0B       		.uleb128 0xb
 3709 00af 01       		.uleb128 0x1
 3710 00b0 13       		.uleb128 0x13
 3711 00b1 00       		.byte	0
 3712 00b2 00       		.byte	0
 3713 00b3 10       		.uleb128 0x10
 3714 00b4 16       		.uleb128 0x16
 3715 00b5 00       		.byte	0
 3716 00b6 03       		.uleb128 0x3
 3717 00b7 0E       		.uleb128 0xe
 3718 00b8 3A       		.uleb128 0x3a
 3719 00b9 0B       		.uleb128 0xb
 3720 00ba 3B       		.uleb128 0x3b
 3721 00bb 05       		.uleb128 0x5
 3722 00bc 49       		.uleb128 0x49
 3723 00bd 13       		.uleb128 0x13
 3724 00be 00       		.byte	0
 3725 00bf 00       		.byte	0
 3726 00c0 11       		.uleb128 0x11
 3727 00c1 04       		.uleb128 0x4
 3728 00c2 01       		.byte	0x1
 3729 00c3 0B       		.uleb128 0xb
ARM GAS  C:\Users\stijn\AppData\Local\Temp\ccPWVksW.s 			page 101


 3730 00c4 0B       		.uleb128 0xb
 3731 00c5 49       		.uleb128 0x49
 3732 00c6 13       		.uleb128 0x13
 3733 00c7 3A       		.uleb128 0x3a
 3734 00c8 0B       		.uleb128 0xb
 3735 00c9 3B       		.uleb128 0x3b
 3736 00ca 0B       		.uleb128 0xb
 3737 00cb 01       		.uleb128 0x1
 3738 00cc 13       		.uleb128 0x13
 3739 00cd 00       		.byte	0
 3740 00ce 00       		.byte	0
 3741 00cf 12       		.uleb128 0x12
 3742 00d0 28       		.uleb128 0x28
 3743 00d1 00       		.byte	0
 3744 00d2 03       		.uleb128 0x3
 3745 00d3 0E       		.uleb128 0xe
 3746 00d4 1C       		.uleb128 0x1c
 3747 00d5 0B       		.uleb128 0xb
 3748 00d6 00       		.byte	0
 3749 00d7 00       		.byte	0
 3750 00d8 13       		.uleb128 0x13
 3751 00d9 04       		.uleb128 0x4
 3752 00da 01       		.byte	0x1
 3753 00db 0B       		.uleb128 0xb
 3754 00dc 0B       		.uleb128 0xb
 3755 00dd 49       		.uleb128 0x49
 3756 00de 13       		.uleb128 0x13
 3757 00df 3A       		.uleb128 0x3a
 3758 00e0 0B       		.uleb128 0xb
 3759 00e1 3B       		.uleb128 0x3b
 3760 00e2 05       		.uleb128 0x5
 3761 00e3 01       		.uleb128 0x1
 3762 00e4 13       		.uleb128 0x13
 3763 00e5 00       		.byte	0
 3764 00e6 00       		.byte	0
 3765 00e7 14       		.uleb128 0x14
 3766 00e8 28       		.uleb128 0x28
 3767 00e9 00       		.byte	0
 3768 00ea 03       		.uleb128 0x3
 3769 00eb 0E       		.uleb128 0xe
 3770 00ec 1C       		.uleb128 0x1c
 3771 00ed 06       		.uleb128 0x6
 3772 00ee 00       		.byte	0
 3773 00ef 00       		.byte	0
 3774 00f0 15       		.uleb128 0x15
 3775 00f1 13       		.uleb128 0x13
 3776 00f2 01       		.byte	0x1
 3777 00f3 0B       		.uleb128 0xb
 3778 00f4 0B       		.uleb128 0xb
 3779 00f5 3A       		.uleb128 0x3a
 3780 00f6 0B       		.uleb128 0xb
 3781 00f7 3B       		.uleb128 0x3b
 3782 00f8 05       		.uleb128 0x5
 3783 00f9 01       		.uleb128 0x1
 3784 00fa 13       		.uleb128 0x13
 3785 00fb 00       		.byte	0
 3786 00fc 00       		.byte	0
ARM GAS  C:\Users\stijn\AppData\Local\Temp\ccPWVksW.s 			page 102


 3787 00fd 16       		.uleb128 0x16
 3788 00fe 0D       		.uleb128 0xd
 3789 00ff 00       		.byte	0
 3790 0100 03       		.uleb128 0x3
 3791 0101 08       		.uleb128 0x8
 3792 0102 3A       		.uleb128 0x3a
 3793 0103 0B       		.uleb128 0xb
 3794 0104 3B       		.uleb128 0x3b
 3795 0105 05       		.uleb128 0x5
 3796 0106 49       		.uleb128 0x49
 3797 0107 13       		.uleb128 0x13
 3798 0108 38       		.uleb128 0x38
 3799 0109 0B       		.uleb128 0xb
 3800 010a 00       		.byte	0
 3801 010b 00       		.byte	0
 3802 010c 17       		.uleb128 0x17
 3803 010d 0D       		.uleb128 0xd
 3804 010e 00       		.byte	0
 3805 010f 03       		.uleb128 0x3
 3806 0110 0E       		.uleb128 0xe
 3807 0111 3A       		.uleb128 0x3a
 3808 0112 0B       		.uleb128 0xb
 3809 0113 3B       		.uleb128 0x3b
 3810 0114 05       		.uleb128 0x5
 3811 0115 49       		.uleb128 0x49
 3812 0116 13       		.uleb128 0x13
 3813 0117 38       		.uleb128 0x38
 3814 0118 0B       		.uleb128 0xb
 3815 0119 00       		.byte	0
 3816 011a 00       		.byte	0
 3817 011b 18       		.uleb128 0x18
 3818 011c 0F       		.uleb128 0xf
 3819 011d 00       		.byte	0
 3820 011e 0B       		.uleb128 0xb
 3821 011f 0B       		.uleb128 0xb
 3822 0120 00       		.byte	0
 3823 0121 00       		.byte	0
 3824 0122 19       		.uleb128 0x19
 3825 0123 0F       		.uleb128 0xf
 3826 0124 00       		.byte	0
 3827 0125 0B       		.uleb128 0xb
 3828 0126 0B       		.uleb128 0xb
 3829 0127 49       		.uleb128 0x49
 3830 0128 13       		.uleb128 0x13
 3831 0129 00       		.byte	0
 3832 012a 00       		.byte	0
 3833 012b 1A       		.uleb128 0x1a
 3834 012c 2E       		.uleb128 0x2e
 3835 012d 01       		.byte	0x1
 3836 012e 03       		.uleb128 0x3
 3837 012f 0E       		.uleb128 0xe
 3838 0130 3A       		.uleb128 0x3a
 3839 0131 0B       		.uleb128 0xb
 3840 0132 3B       		.uleb128 0x3b
 3841 0133 05       		.uleb128 0x5
 3842 0134 27       		.uleb128 0x27
 3843 0135 19       		.uleb128 0x19
ARM GAS  C:\Users\stijn\AppData\Local\Temp\ccPWVksW.s 			page 103


 3844 0136 49       		.uleb128 0x49
 3845 0137 13       		.uleb128 0x13
 3846 0138 11       		.uleb128 0x11
 3847 0139 01       		.uleb128 0x1
 3848 013a 12       		.uleb128 0x12
 3849 013b 06       		.uleb128 0x6
 3850 013c 40       		.uleb128 0x40
 3851 013d 18       		.uleb128 0x18
 3852 013e 9742     		.uleb128 0x2117
 3853 0140 19       		.uleb128 0x19
 3854 0141 01       		.uleb128 0x1
 3855 0142 13       		.uleb128 0x13
 3856 0143 00       		.byte	0
 3857 0144 00       		.byte	0
 3858 0145 1B       		.uleb128 0x1b
 3859 0146 05       		.uleb128 0x5
 3860 0147 00       		.byte	0
 3861 0148 03       		.uleb128 0x3
 3862 0149 0E       		.uleb128 0xe
 3863 014a 3A       		.uleb128 0x3a
 3864 014b 0B       		.uleb128 0xb
 3865 014c 3B       		.uleb128 0x3b
 3866 014d 05       		.uleb128 0x5
 3867 014e 49       		.uleb128 0x49
 3868 014f 13       		.uleb128 0x13
 3869 0150 02       		.uleb128 0x2
 3870 0151 18       		.uleb128 0x18
 3871 0152 00       		.byte	0
 3872 0153 00       		.byte	0
 3873 0154 1C       		.uleb128 0x1c
 3874 0155 2E       		.uleb128 0x2e
 3875 0156 01       		.byte	0x1
 3876 0157 03       		.uleb128 0x3
 3877 0158 0E       		.uleb128 0xe
 3878 0159 3A       		.uleb128 0x3a
 3879 015a 0B       		.uleb128 0xb
 3880 015b 3B       		.uleb128 0x3b
 3881 015c 05       		.uleb128 0x5
 3882 015d 27       		.uleb128 0x27
 3883 015e 19       		.uleb128 0x19
 3884 015f 11       		.uleb128 0x11
 3885 0160 01       		.uleb128 0x1
 3886 0161 12       		.uleb128 0x12
 3887 0162 06       		.uleb128 0x6
 3888 0163 40       		.uleb128 0x40
 3889 0164 18       		.uleb128 0x18
 3890 0165 9642     		.uleb128 0x2116
 3891 0167 19       		.uleb128 0x19
 3892 0168 01       		.uleb128 0x1
 3893 0169 13       		.uleb128 0x13
 3894 016a 00       		.byte	0
 3895 016b 00       		.byte	0
 3896 016c 1D       		.uleb128 0x1d
 3897 016d 2E       		.uleb128 0x2e
 3898 016e 01       		.byte	0x1
 3899 016f 3F       		.uleb128 0x3f
 3900 0170 19       		.uleb128 0x19
ARM GAS  C:\Users\stijn\AppData\Local\Temp\ccPWVksW.s 			page 104


 3901 0171 03       		.uleb128 0x3
 3902 0172 0E       		.uleb128 0xe
 3903 0173 3A       		.uleb128 0x3a
 3904 0174 0B       		.uleb128 0xb
 3905 0175 3B       		.uleb128 0x3b
 3906 0176 0B       		.uleb128 0xb
 3907 0177 27       		.uleb128 0x27
 3908 0178 19       		.uleb128 0x19
 3909 0179 49       		.uleb128 0x49
 3910 017a 13       		.uleb128 0x13
 3911 017b 11       		.uleb128 0x11
 3912 017c 01       		.uleb128 0x1
 3913 017d 12       		.uleb128 0x12
 3914 017e 06       		.uleb128 0x6
 3915 017f 40       		.uleb128 0x40
 3916 0180 18       		.uleb128 0x18
 3917 0181 9742     		.uleb128 0x2117
 3918 0183 19       		.uleb128 0x19
 3919 0184 01       		.uleb128 0x1
 3920 0185 13       		.uleb128 0x13
 3921 0186 00       		.byte	0
 3922 0187 00       		.byte	0
 3923 0188 1E       		.uleb128 0x1e
 3924 0189 05       		.uleb128 0x5
 3925 018a 00       		.byte	0
 3926 018b 03       		.uleb128 0x3
 3927 018c 0E       		.uleb128 0xe
 3928 018d 3A       		.uleb128 0x3a
 3929 018e 0B       		.uleb128 0xb
 3930 018f 3B       		.uleb128 0x3b
 3931 0190 0B       		.uleb128 0xb
 3932 0191 49       		.uleb128 0x49
 3933 0192 13       		.uleb128 0x13
 3934 0193 02       		.uleb128 0x2
 3935 0194 18       		.uleb128 0x18
 3936 0195 00       		.byte	0
 3937 0196 00       		.byte	0
 3938 0197 1F       		.uleb128 0x1f
 3939 0198 34       		.uleb128 0x34
 3940 0199 00       		.byte	0
 3941 019a 03       		.uleb128 0x3
 3942 019b 08       		.uleb128 0x8
 3943 019c 3A       		.uleb128 0x3a
 3944 019d 0B       		.uleb128 0xb
 3945 019e 3B       		.uleb128 0x3b
 3946 019f 0B       		.uleb128 0xb
 3947 01a0 49       		.uleb128 0x49
 3948 01a1 13       		.uleb128 0x13
 3949 01a2 02       		.uleb128 0x2
 3950 01a3 18       		.uleb128 0x18
 3951 01a4 00       		.byte	0
 3952 01a5 00       		.byte	0
 3953 01a6 20       		.uleb128 0x20
 3954 01a7 2E       		.uleb128 0x2e
 3955 01a8 01       		.byte	0x1
 3956 01a9 3F       		.uleb128 0x3f
 3957 01aa 19       		.uleb128 0x19
ARM GAS  C:\Users\stijn\AppData\Local\Temp\ccPWVksW.s 			page 105


 3958 01ab 03       		.uleb128 0x3
 3959 01ac 0E       		.uleb128 0xe
 3960 01ad 3A       		.uleb128 0x3a
 3961 01ae 0B       		.uleb128 0xb
 3962 01af 3B       		.uleb128 0x3b
 3963 01b0 0B       		.uleb128 0xb
 3964 01b1 27       		.uleb128 0x27
 3965 01b2 19       		.uleb128 0x19
 3966 01b3 49       		.uleb128 0x49
 3967 01b4 13       		.uleb128 0x13
 3968 01b5 11       		.uleb128 0x11
 3969 01b6 01       		.uleb128 0x1
 3970 01b7 12       		.uleb128 0x12
 3971 01b8 06       		.uleb128 0x6
 3972 01b9 40       		.uleb128 0x40
 3973 01ba 18       		.uleb128 0x18
 3974 01bb 9642     		.uleb128 0x2116
 3975 01bd 19       		.uleb128 0x19
 3976 01be 01       		.uleb128 0x1
 3977 01bf 13       		.uleb128 0x13
 3978 01c0 00       		.byte	0
 3979 01c1 00       		.byte	0
 3980 01c2 21       		.uleb128 0x21
 3981 01c3 2E       		.uleb128 0x2e
 3982 01c4 01       		.byte	0x1
 3983 01c5 3F       		.uleb128 0x3f
 3984 01c6 19       		.uleb128 0x19
 3985 01c7 03       		.uleb128 0x3
 3986 01c8 0E       		.uleb128 0xe
 3987 01c9 3A       		.uleb128 0x3a
 3988 01ca 0B       		.uleb128 0xb
 3989 01cb 3B       		.uleb128 0x3b
 3990 01cc 0B       		.uleb128 0xb
 3991 01cd 27       		.uleb128 0x27
 3992 01ce 19       		.uleb128 0x19
 3993 01cf 11       		.uleb128 0x11
 3994 01d0 01       		.uleb128 0x1
 3995 01d1 12       		.uleb128 0x12
 3996 01d2 06       		.uleb128 0x6
 3997 01d3 40       		.uleb128 0x40
 3998 01d4 18       		.uleb128 0x18
 3999 01d5 9742     		.uleb128 0x2117
 4000 01d7 19       		.uleb128 0x19
 4001 01d8 01       		.uleb128 0x1
 4002 01d9 13       		.uleb128 0x13
 4003 01da 00       		.byte	0
 4004 01db 00       		.byte	0
 4005 01dc 22       		.uleb128 0x22
 4006 01dd 2E       		.uleb128 0x2e
 4007 01de 01       		.byte	0x1
 4008 01df 3F       		.uleb128 0x3f
 4009 01e0 19       		.uleb128 0x19
 4010 01e1 03       		.uleb128 0x3
 4011 01e2 0E       		.uleb128 0xe
 4012 01e3 3A       		.uleb128 0x3a
 4013 01e4 0B       		.uleb128 0xb
 4014 01e5 3B       		.uleb128 0x3b
ARM GAS  C:\Users\stijn\AppData\Local\Temp\ccPWVksW.s 			page 106


 4015 01e6 05       		.uleb128 0x5
 4016 01e7 27       		.uleb128 0x27
 4017 01e8 19       		.uleb128 0x19
 4018 01e9 11       		.uleb128 0x11
 4019 01ea 01       		.uleb128 0x1
 4020 01eb 12       		.uleb128 0x12
 4021 01ec 06       		.uleb128 0x6
 4022 01ed 40       		.uleb128 0x40
 4023 01ee 18       		.uleb128 0x18
 4024 01ef 9642     		.uleb128 0x2116
 4025 01f1 19       		.uleb128 0x19
 4026 01f2 01       		.uleb128 0x1
 4027 01f3 13       		.uleb128 0x13
 4028 01f4 00       		.byte	0
 4029 01f5 00       		.byte	0
 4030 01f6 23       		.uleb128 0x23
 4031 01f7 2E       		.uleb128 0x2e
 4032 01f8 01       		.byte	0x1
 4033 01f9 3F       		.uleb128 0x3f
 4034 01fa 19       		.uleb128 0x19
 4035 01fb 03       		.uleb128 0x3
 4036 01fc 0E       		.uleb128 0xe
 4037 01fd 3A       		.uleb128 0x3a
 4038 01fe 0B       		.uleb128 0xb
 4039 01ff 3B       		.uleb128 0x3b
 4040 0200 05       		.uleb128 0x5
 4041 0201 27       		.uleb128 0x27
 4042 0202 19       		.uleb128 0x19
 4043 0203 11       		.uleb128 0x11
 4044 0204 01       		.uleb128 0x1
 4045 0205 12       		.uleb128 0x12
 4046 0206 06       		.uleb128 0x6
 4047 0207 40       		.uleb128 0x40
 4048 0208 18       		.uleb128 0x18
 4049 0209 9742     		.uleb128 0x2117
 4050 020b 19       		.uleb128 0x19
 4051 020c 01       		.uleb128 0x1
 4052 020d 13       		.uleb128 0x13
 4053 020e 00       		.byte	0
 4054 020f 00       		.byte	0
 4055 0210 24       		.uleb128 0x24
 4056 0211 2E       		.uleb128 0x2e
 4057 0212 01       		.byte	0x1
 4058 0213 3F       		.uleb128 0x3f
 4059 0214 19       		.uleb128 0x19
 4060 0215 03       		.uleb128 0x3
 4061 0216 0E       		.uleb128 0xe
 4062 0217 3A       		.uleb128 0x3a
 4063 0218 0B       		.uleb128 0xb
 4064 0219 3B       		.uleb128 0x3b
 4065 021a 05       		.uleb128 0x5
 4066 021b 27       		.uleb128 0x27
 4067 021c 19       		.uleb128 0x19
 4068 021d 49       		.uleb128 0x49
 4069 021e 13       		.uleb128 0x13
 4070 021f 11       		.uleb128 0x11
 4071 0220 01       		.uleb128 0x1
ARM GAS  C:\Users\stijn\AppData\Local\Temp\ccPWVksW.s 			page 107


 4072 0221 12       		.uleb128 0x12
 4073 0222 06       		.uleb128 0x6
 4074 0223 40       		.uleb128 0x40
 4075 0224 18       		.uleb128 0x18
 4076 0225 9742     		.uleb128 0x2117
 4077 0227 19       		.uleb128 0x19
 4078 0228 01       		.uleb128 0x1
 4079 0229 13       		.uleb128 0x13
 4080 022a 00       		.byte	0
 4081 022b 00       		.byte	0
 4082 022c 25       		.uleb128 0x25
 4083 022d 34       		.uleb128 0x34
 4084 022e 00       		.byte	0
 4085 022f 03       		.uleb128 0x3
 4086 0230 0E       		.uleb128 0xe
 4087 0231 3A       		.uleb128 0x3a
 4088 0232 0B       		.uleb128 0xb
 4089 0233 3B       		.uleb128 0x3b
 4090 0234 05       		.uleb128 0x5
 4091 0235 49       		.uleb128 0x49
 4092 0236 13       		.uleb128 0x13
 4093 0237 02       		.uleb128 0x2
 4094 0238 18       		.uleb128 0x18
 4095 0239 00       		.byte	0
 4096 023a 00       		.byte	0
 4097 023b 26       		.uleb128 0x26
 4098 023c 0B       		.uleb128 0xb
 4099 023d 01       		.byte	0x1
 4100 023e 11       		.uleb128 0x11
 4101 023f 01       		.uleb128 0x1
 4102 0240 12       		.uleb128 0x12
 4103 0241 06       		.uleb128 0x6
 4104 0242 00       		.byte	0
 4105 0243 00       		.byte	0
 4106 0244 27       		.uleb128 0x27
 4107 0245 34       		.uleb128 0x34
 4108 0246 00       		.byte	0
 4109 0247 03       		.uleb128 0x3
 4110 0248 0E       		.uleb128 0xe
 4111 0249 3A       		.uleb128 0x3a
 4112 024a 0B       		.uleb128 0xb
 4113 024b 3B       		.uleb128 0x3b
 4114 024c 0B       		.uleb128 0xb
 4115 024d 49       		.uleb128 0x49
 4116 024e 13       		.uleb128 0x13
 4117 024f 3F       		.uleb128 0x3f
 4118 0250 19       		.uleb128 0x19
 4119 0251 3C       		.uleb128 0x3c
 4120 0252 19       		.uleb128 0x19
 4121 0253 00       		.byte	0
 4122 0254 00       		.byte	0
 4123 0255 28       		.uleb128 0x28
 4124 0256 34       		.uleb128 0x34
 4125 0257 00       		.byte	0
 4126 0258 03       		.uleb128 0x3
 4127 0259 0E       		.uleb128 0xe
 4128 025a 3A       		.uleb128 0x3a
ARM GAS  C:\Users\stijn\AppData\Local\Temp\ccPWVksW.s 			page 108


 4129 025b 0B       		.uleb128 0xb
 4130 025c 3B       		.uleb128 0x3b
 4131 025d 05       		.uleb128 0x5
 4132 025e 49       		.uleb128 0x49
 4133 025f 13       		.uleb128 0x13
 4134 0260 3F       		.uleb128 0x3f
 4135 0261 19       		.uleb128 0x19
 4136 0262 3C       		.uleb128 0x3c
 4137 0263 19       		.uleb128 0x19
 4138 0264 00       		.byte	0
 4139 0265 00       		.byte	0
 4140 0266 00       		.byte	0
 4141              		.section	.debug_aranges,"",%progbits
 4142 0000 64000000 		.4byte	0x64
 4143 0004 0200     		.2byte	0x2
 4144 0006 00000000 		.4byte	.Ldebug_info0
 4145 000a 04       		.byte	0x4
 4146 000b 00       		.byte	0
 4147 000c 0000     		.2byte	0
 4148 000e 0000     		.2byte	0
 4149 0010 00000000 		.4byte	.LFB155
 4150 0014 1C000000 		.4byte	.LFE155-.LFB155
 4151 0018 00000000 		.4byte	.LFB170
 4152 001c A8000000 		.4byte	.LFE170-.LFB170
 4153 0020 00000000 		.4byte	.LFB183
 4154 0024 90000000 		.4byte	.LFE183-.LFB183
 4155 0028 00000000 		.4byte	.LFB184
 4156 002c 04040000 		.4byte	.LFE184-.LFB184
 4157 0030 00000000 		.4byte	.LFB185
 4158 0034 38000000 		.4byte	.LFE185-.LFB185
 4159 0038 00000000 		.4byte	.LFB186
 4160 003c F0000000 		.4byte	.LFE186-.LFB186
 4161 0040 00000000 		.4byte	.LFB187
 4162 0044 CC000000 		.4byte	.LFE187-.LFB187
 4163 0048 00000000 		.4byte	.LFB188
 4164 004c 52000000 		.4byte	.LFE188-.LFB188
 4165 0050 00000000 		.4byte	.LFB189
 4166 0054 54000000 		.4byte	.LFE189-.LFB189
 4167 0058 00000000 		.4byte	.LFB190
 4168 005c 84000000 		.4byte	.LFE190-.LFB190
 4169 0060 00000000 		.4byte	0
 4170 0064 00000000 		.4byte	0
 4171              		.section	.debug_ranges,"",%progbits
 4172              	.Ldebug_ranges0:
 4173 0000 00000000 		.4byte	.LFB155
 4174 0004 1C000000 		.4byte	.LFE155
 4175 0008 00000000 		.4byte	.LFB170
 4176 000c A8000000 		.4byte	.LFE170
 4177 0010 00000000 		.4byte	.LFB183
 4178 0014 90000000 		.4byte	.LFE183
 4179 0018 00000000 		.4byte	.LFB184
 4180 001c 04040000 		.4byte	.LFE184
 4181 0020 00000000 		.4byte	.LFB185
 4182 0024 38000000 		.4byte	.LFE185
 4183 0028 00000000 		.4byte	.LFB186
 4184 002c F0000000 		.4byte	.LFE186
 4185 0030 00000000 		.4byte	.LFB187
ARM GAS  C:\Users\stijn\AppData\Local\Temp\ccPWVksW.s 			page 109


 4186 0034 CC000000 		.4byte	.LFE187
 4187 0038 00000000 		.4byte	.LFB188
 4188 003c 52000000 		.4byte	.LFE188
 4189 0040 00000000 		.4byte	.LFB189
 4190 0044 54000000 		.4byte	.LFE189
 4191 0048 00000000 		.4byte	.LFB190
 4192 004c 84000000 		.4byte	.LFE190
 4193 0050 00000000 		.4byte	0
 4194 0054 00000000 		.4byte	0
 4195              		.section	.debug_line,"",%progbits
 4196              	.Ldebug_line0:
 4197 0000 C1050000 		.section	.debug_str,"MS",%progbits,1
 4197      0200B002 
 4197      00000201 
 4197      FB0E0D00 
 4197      01010101 
 4198              	.LASF29:
 4199 0000 44575F43 		.ascii	"DW_CH_STRUCT_V1_Type\000"
 4199      485F5354 
 4199      52554354 
 4199      5F56315F 
 4199      54797065 
 4200              	.LASF241:
 4201 0015 474E5520 		.ascii	"GNU C11 5.4.1 20160609 (release) [ARM/embedded-5-br"
 4201      43313120 
 4201      352E342E 
 4201      31203230 
 4201      31363036 
 4202 0048 616E6368 		.ascii	"anch revision 237715] -mcpu=cortex-m4 -mfloat-abi=s"
 4202      20726576 
 4202      6973696F 
 4202      6E203233 
 4202      37373135 
 4203 007b 6F667466 		.ascii	"oftfp -mfpu=fpv4-sp-d16 -mthumb -g -O0 -ffunction-s"
 4203      70202D6D 
 4203      6670753D 
 4203      66707634 
 4203      2D73702D 
 4204 00ae 65637469 		.ascii	"ections -ffat-lto-objects\000"
 4204      6F6E7320 
 4204      2D666661 
 4204      742D6C74 
 4204      6F2D6F62 
 4205              	.LASF236:
 4206 00c8 72657456 		.ascii	"retVal\000"
 4206      616C00
 4207              	.LASF228:
 4208 00cf 43795F44 		.ascii	"Cy_DMA_Descriptor_Init\000"
 4208      4D415F44 
 4208      65736372 
 4208      6970746F 
 4208      725F496E 
 4209              	.LASF112:
 4210 00e6 666C6173 		.ascii	"flashCtlMainWs3Freq\000"
 4210      6843746C 
 4210      4D61696E 
 4210      57733346 
ARM GAS  C:\Users\stijn\AppData\Local\Temp\ccPWVksW.s 			page 110


 4210      72657100 
 4211              	.LASF146:
 4212 00fa 63707573 		.ascii	"cpussCm4NmiCtlOffset\000"
 4212      73436D34 
 4212      4E6D6943 
 4212      746C4F66 
 4212      66736574 
 4213              	.LASF152:
 4214 010f 6970634C 		.ascii	"ipcLockStatusOffset\000"
 4214      6F636B53 
 4214      74617475 
 4214      734F6666 
 4214      73657400 
 4215              	.LASF78:
 4216 0123 63727970 		.ascii	"cryptoVersion\000"
 4216      746F5665 
 4216      7273696F 
 4216      6E00
 4217              	.LASF96:
 4218 0131 70657269 		.ascii	"periClockNr\000"
 4218      436C6F63 
 4218      6B4E7200 
 4219              	.LASF181:
 4220 013d 43595F44 		.ascii	"CY_DMA_CHANNEL_ENABLED\000"
 4220      4D415F43 
 4220      48414E4E 
 4220      454C5F45 
 4220      4E41424C 
 4221              	.LASF74:
 4222 0154 70617373 		.ascii	"passBase\000"
 4222      42617365 
 4222      00
 4223              	.LASF205:
 4224 015d 73726359 		.ascii	"srcYincrement\000"
 4224      696E6372 
 4224      656D656E 
 4224      7400
 4225              	.LASF123:
 4226 016b 70657269 		.ascii	"periTrGrSize\000"
 4226      54724772 
 4226      53697A65 
 4226      00
 4227              	.LASF87:
 4228 0178 63707573 		.ascii	"cpussIpcIrqNr\000"
 4228      73497063 
 4228      4972714E 
 4228      7200
 4229              	.LASF2:
 4230 0186 5F5F7569 		.ascii	"__uint8_t\000"
 4230      6E74385F 
 4230      7400
 4231              	.LASF131:
 4232 0190 70657269 		.ascii	"periDiv24_5CtlOffset\000"
 4232      44697632 
 4232      345F3543 
 4232      746C4F66 
 4232      66736574 
ARM GAS  C:\Users\stijn\AppData\Local\Temp\ccPWVksW.s 			page 111


 4233              	.LASF138:
 4234 01a5 63707573 		.ascii	"cpussCm4ClockCtlOffset\000"
 4234      73436D34 
 4234      436C6F63 
 4234      6B43746C 
 4234      4F666673 
 4235              	.LASF47:
 4236 01bc 43485F53 		.ascii	"CH_STRUCT\000"
 4236      54525543 
 4236      5400
 4237              	.LASF67:
 4238 01c6 63707573 		.ascii	"cpussBase\000"
 4238      73426173 
 4238      6500
 4239              	.LASF168:
 4240 01d0 63795F65 		.ascii	"cy_en_dma_trigger_type_t\000"
 4240      6E5F646D 
 4240      615F7472 
 4240      69676765 
 4240      725F7479 
 4241              	.LASF116:
 4242 01e9 64774368 		.ascii	"dwChCtlPrioPos\000"
 4242      43746C50 
 4242      72696F50 
 4242      6F7300
 4243              	.LASF167:
 4244 01f8 43595F44 		.ascii	"CY_DMA_DESCR_CHAIN\000"
 4244      4D415F44 
 4244      45534352 
 4244      5F434841 
 4244      494E00
 4245              	.LASF12:
 4246 020b 6C6F6E67 		.ascii	"long long unsigned int\000"
 4246      206C6F6E 
 4246      6720756E 
 4246      7369676E 
 4246      65642069 
 4247              	.LASF54:
 4248 0222 4352435F 		.ascii	"CRC_CTL\000"
 4248      43544C00 
 4249              	.LASF120:
 4250 022a 70657269 		.ascii	"periTrCmdOffset\000"
 4250      5472436D 
 4250      644F6666 
 4250      73657400 
 4251              	.LASF149:
 4252 023a 63707573 		.ascii	"cpussRam1Ctl0\000"
 4252      7352616D 
 4252      3143746C 
 4252      3000
 4253              	.LASF64:
 4254 0248 4352435F 		.ascii	"CRC_REM_RESULT\000"
 4254      52454D5F 
 4254      52455355 
 4254      4C5400
 4255              	.LASF193:
 4256 0257 74726967 		.ascii	"triggerOutType\000"
ARM GAS  C:\Users\stijn\AppData\Local\Temp\ccPWVksW.s 			page 112


 4256      6765724F 
 4256      75745479 
 4256      706500
 4257              	.LASF144:
 4258 0266 63707573 		.ascii	"cpussSysTickCtlOffset\000"
 4258      73537973 
 4258      5469636B 
 4258      43746C4F 
 4258      66667365 
 4259              	.LASF170:
 4260 027c 43595F44 		.ascii	"CY_DMA_HALFWORD\000"
 4260      4D415F48 
 4260      414C4657 
 4260      4F524400 
 4261              	.LASF240:
 4262 028c 49544D5F 		.ascii	"ITM_RxBuffer\000"
 4262      52784275 
 4262      66666572 
 4262      00
 4263              	.LASF45:
 4264 0299 4143545F 		.ascii	"ACT_DST\000"
 4264      44535400 
 4265              	.LASF52:
 4266 02a1 44575F43 		.ascii	"DW_CH_STRUCT_V2_Type\000"
 4266      485F5354 
 4266      52554354 
 4266      5F56325F 
 4266      54797065 
 4267              	.LASF219:
 4268 02b6 72656D69 		.ascii	"reminderReverse\000"
 4268      6E646572 
 4268      52657665 
 4268      72736500 
 4269              	.LASF38:
 4270 02c6 4143545F 		.ascii	"ACT_DESCR_DST\000"
 4270      44455343 
 4270      525F4453 
 4270      5400
 4271              	.LASF109:
 4272 02d4 666C6173 		.ascii	"flashCtlMainWs0Freq\000"
 4272      6843746C 
 4272      4D61696E 
 4272      57733046 
 4272      72657100 
 4273              	.LASF15:
 4274 02e8 696E7431 		.ascii	"int16_t\000"
 4274      365F7400 
 4275              	.LASF11:
 4276 02f0 6C6F6E67 		.ascii	"long long int\000"
 4276      206C6F6E 
 4276      6720696E 
 4276      7400
 4277              	.LASF0:
 4278 02fe 7369676E 		.ascii	"signed char\000"
 4278      65642063 
 4278      68617200 
 4279              	.LASF125:
ARM GAS  C:\Users\stijn\AppData\Local\Temp\ccPWVksW.s 			page 113


 4280 030a 70657269 		.ascii	"periDivCmdTypeSelPos\000"
 4280      44697643 
 4280      6D645479 
 4280      70655365 
 4280      6C506F73 
 4281              	.LASF203:
 4282 031f 64737458 		.ascii	"dstXincrement\000"
 4282      696E6372 
 4282      656D656E 
 4282      7400
 4283              	.LASF68:
 4284 032d 666C6173 		.ascii	"flashcBase\000"
 4284      68634261 
 4284      736500
 4285              	.LASF71:
 4286 0338 70726F74 		.ascii	"protBase\000"
 4286      42617365 
 4286      00
 4287              	.LASF83:
 4288 0341 69706356 		.ascii	"ipcVersion\000"
 4288      65727369 
 4288      6F6E00
 4289              	.LASF145:
 4290 034c 63707573 		.ascii	"cpussCm0NmiCtlOffset\000"
 4290      73436D30 
 4290      4E6D6943 
 4290      746C4F66 
 4290      66736574 
 4291              	.LASF65:
 4292 0361 52455345 		.ascii	"RESERVED10\000"
 4292      52564544 
 4292      313000
 4293              	.LASF72:
 4294 036c 6873696F 		.ascii	"hsiomBase\000"
 4294      6D426173 
 4294      6500
 4295              	.LASF192:
 4296 0376 696E7465 		.ascii	"interruptType\000"
 4296      72727570 
 4296      74547970 
 4296      6500
 4297              	.LASF217:
 4298 0384 64617461 		.ascii	"dataReverse\000"
 4298      52657665 
 4298      72736500 
 4299              	.LASF175:
 4300 0390 43595F44 		.ascii	"CY_DMA_RETRIG_16CYC\000"
 4300      4D415F52 
 4300      45545249 
 4300      475F3136 
 4300      43594300 
 4301              	.LASF221:
 4302 03a4 706F6C79 		.ascii	"polynomial\000"
 4302      6E6F6D69 
 4302      616C00
 4303              	.LASF8:
 4304 03af 6C6F6E67 		.ascii	"long int\000"
ARM GAS  C:\Users\stijn\AppData\Local\Temp\ccPWVksW.s 			page 114


 4304      20696E74 
 4304      00
 4305              	.LASF49:
 4306 03b8 5352414D 		.ascii	"SRAM_DATA0\000"
 4306      5F444154 
 4306      413000
 4307              	.LASF50:
 4308 03c3 5352414D 		.ascii	"SRAM_DATA1\000"
 4308      5F444154 
 4308      413100
 4309              	.LASF13:
 4310 03ce 756E7369 		.ascii	"unsigned int\000"
 4310      676E6564 
 4310      20696E74 
 4310      00
 4311              	.LASF189:
 4312 03db 6E657874 		.ascii	"nextPtr\000"
 4312      50747200 
 4313              	.LASF69:
 4314 03e3 70657269 		.ascii	"periBase\000"
 4314      42617365 
 4314      00
 4315              	.LASF197:
 4316 03ec 73726354 		.ascii	"srcTransferSize\000"
 4316      72616E73 
 4316      66657253 
 4316      697A6500 
 4317              	.LASF101:
 4318 03fc 73797350 		.ascii	"sysPmSimoPresent\000"
 4318      6D53696D 
 4318      6F507265 
 4318      73656E74 
 4318      00
 4319              	.LASF62:
 4320 040d 4352435F 		.ascii	"CRC_REM_CTL\000"
 4320      52454D5F 
 4320      43544C00 
 4321              	.LASF213:
 4322 0419 656E6162 		.ascii	"enable\000"
 4322      6C6500
 4323              	.LASF36:
 4324 0420 4143545F 		.ascii	"ACT_DESCR_CTL\000"
 4324      44455343 
 4324      525F4354 
 4324      4C00
 4325              	.LASF158:
 4326 042e 646F7562 		.ascii	"double\000"
 4326      6C6500
 4327              	.LASF130:
 4328 0435 70657269 		.ascii	"periDiv16_5CtlOffset\000"
 4328      44697631 
 4328      365F3543 
 4328      746C4F66 
 4328      66736574 
 4329              	.LASF94:
 4330 044a 73727373 		.ascii	"srssNumPll\000"
 4330      4E756D50 
ARM GAS  C:\Users\stijn\AppData\Local\Temp\ccPWVksW.s 			page 115


 4330      6C6C00
 4331              	.LASF44:
 4332 0455 4143545F 		.ascii	"ACT_SRC\000"
 4332      53524300 
 4333              	.LASF174:
 4334 045d 43595F44 		.ascii	"CY_DMA_RETRIG_4CYC\000"
 4334      4D415F52 
 4334      45545249 
 4334      475F3443 
 4334      594300
 4335              	.LASF103:
 4336 0470 63727970 		.ascii	"cryptoMemSize\000"
 4336      746F4D65 
 4336      6D53697A 
 4336      6500
 4337              	.LASF128:
 4338 047e 70657269 		.ascii	"periDiv8CtlOffset\000"
 4338      44697638 
 4338      43746C4F 
 4338      66667365 
 4338      7400
 4339              	.LASF6:
 4340 0490 73686F72 		.ascii	"short unsigned int\000"
 4340      7420756E 
 4340      7369676E 
 4340      65642069 
 4340      6E7400
 4341              	.LASF135:
 4342 04a3 6770696F 		.ascii	"gpioPrtCfgOutOffset\000"
 4342      50727443 
 4342      66674F75 
 4342      744F6666 
 4342      73657400 
 4343              	.LASF117:
 4344 04b7 64774368 		.ascii	"dwChCtlPreemptablePos\000"
 4344      43746C50 
 4344      7265656D 
 4344      70746162 
 4344      6C65506F 
 4345              	.LASF161:
 4346 04cd 43595F44 		.ascii	"CY_DMA_2D_TRANSFER\000"
 4346      4D415F32 
 4346      445F5452 
 4346      414E5346 
 4346      455200
 4347              	.LASF9:
 4348 04e0 5F5F7569 		.ascii	"__uint32_t\000"
 4348      6E743332 
 4348      5F7400
 4349              	.LASF243:
 4350 04eb 433A5C55 		.ascii	"C:\\Users\\stijn\\OneDrive\\Documenten\\PSoC Creato"
 4350      73657273 
 4350      5C737469 
 4350      6A6E5C4F 
 4350      6E654472 
 4351 0519 725C4144 		.ascii	"r\\ADC Klodden\\RTOS_I2C_Test.cydsn\000"
 4351      43204B6C 
ARM GAS  C:\Users\stijn\AppData\Local\Temp\ccPWVksW.s 			page 116


 4351      6F646465 
 4351      6E5C5254 
 4351      4F535F49 
 4352              	.LASF98:
 4353 053b 70617373 		.ascii	"passSarChannels\000"
 4353      53617243 
 4353      68616E6E 
 4353      656C7300 
 4354              	.LASF3:
 4355 054b 5F5F696E 		.ascii	"__int16_t\000"
 4355      7431365F 
 4355      7400
 4356              	.LASF182:
 4357 0555 43595F44 		.ascii	"CY_DMA_CHANNEL_DISABLED\000"
 4357      4D415F43 
 4357      48414E4E 
 4357      454C5F44 
 4357      49534142 
 4358              	.LASF164:
 4359 056d 43595F44 		.ascii	"CY_DMA_1ELEMENT\000"
 4359      4D415F31 
 4359      454C454D 
 4359      454E5400 
 4360              	.LASF41:
 4361 057d 4143545F 		.ascii	"ACT_DESCR_Y_CTL\000"
 4361      44455343 
 4361      525F595F 
 4361      43544C00 
 4362              	.LASF196:
 4363 058d 64617461 		.ascii	"dataSize\000"
 4363      53697A65 
 4363      00
 4364              	.LASF66:
 4365 0596 44575F56 		.ascii	"DW_V2_Type\000"
 4365      325F5479 
 4365      706500
 4366              	.LASF141:
 4367 05a1 63707573 		.ascii	"cpussCm4PwrCtlOffset\000"
 4367      73436D34 
 4367      50777243 
 4367      746C4F66 
 4367      66736574 
 4368              	.LASF154:
 4369 05b6 44575F54 		.ascii	"DW_Type\000"
 4369      79706500 
 4370              	.LASF136:
 4371 05be 6770696F 		.ascii	"gpioPrtCfgSioOffset\000"
 4371      50727443 
 4371      66675369 
 4371      6F4F6666 
 4371      73657400 
 4372              	.LASF88:
 4373 05d2 63707573 		.ascii	"cpussDwChNr\000"
 4373      73447743 
 4373      684E7200 
 4374              	.LASF22:
 4375 05de 43485F53 		.ascii	"CH_STATUS\000"
ARM GAS  C:\Users\stijn\AppData\Local\Temp\ccPWVksW.s 			page 117


 4375      54415455 
 4375      5300
 4376              	.LASF237:
 4377 05e8 43795F44 		.ascii	"Cy_DMA_Descriptor_SetDescriptorType\000"
 4377      4D415F44 
 4377      65736372 
 4377      6970746F 
 4377      725F5365 
 4378              	.LASF165:
 4379 060c 43595F44 		.ascii	"CY_DMA_X_LOOP\000"
 4379      4D415F58 
 4379      5F4C4F4F 
 4379      5000
 4380              	.LASF16:
 4381 061a 75696E74 		.ascii	"uint16_t\000"
 4381      31365F74 
 4381      00
 4382              	.LASF155:
 4383 0623 63686172 		.ascii	"char_t\000"
 4383      5F7400
 4384              	.LASF37:
 4385 062a 4143545F 		.ascii	"ACT_DESCR_SRC\000"
 4385      44455343 
 4385      525F5352 
 4385      4300
 4386              	.LASF110:
 4387 0638 666C6173 		.ascii	"flashCtlMainWs1Freq\000"
 4387      6843746C 
 4387      4D61696E 
 4387      57733146 
 4387      72657100 
 4388              	.LASF10:
 4389 064c 6C6F6E67 		.ascii	"long unsigned int\000"
 4389      20756E73 
 4389      69676E65 
 4389      6420696E 
 4389      7400
 4390              	.LASF86:
 4391 065e 63707573 		.ascii	"cpussIpcNr\000"
 4391      73497063 
 4391      4E7200
 4392              	.LASF27:
 4393 0669 494E5452 		.ascii	"INTR_MASK\000"
 4393      5F4D4153 
 4393      4B00
 4394              	.LASF73:
 4395 0673 6770696F 		.ascii	"gpioBase\000"
 4395      42617365 
 4395      00
 4396              	.LASF173:
 4397 067c 43595F44 		.ascii	"CY_DMA_RETRIG_IM\000"
 4397      4D415F52 
 4397      45545249 
 4397      475F494D 
 4397      00
 4398              	.LASF111:
 4399 068d 666C6173 		.ascii	"flashCtlMainWs2Freq\000"
ARM GAS  C:\Users\stijn\AppData\Local\Temp\ccPWVksW.s 			page 118


 4399      6843746C 
 4399      4D61696E 
 4399      57733246 
 4399      72657100 
 4400              	.LASF24:
 4401 06a1 43485F43 		.ascii	"CH_CURR_PTR\000"
 4401      5552525F 
 4401      50545200 
 4402              	.LASF180:
 4403 06ad 63795F65 		.ascii	"cy_en_dma_transfer_size_t\000"
 4403      6E5F646D 
 4403      615F7472 
 4403      616E7366 
 4403      65725F73 
 4404              	.LASF201:
 4405 06c7 64737441 		.ascii	"dstAddress\000"
 4405      64647265 
 4405      737300
 4406              	.LASF122:
 4407 06d2 70657269 		.ascii	"periTrGrOffset\000"
 4407      54724772 
 4407      4F666673 
 4407      657400
 4408              	.LASF178:
 4409 06e1 43595F44 		.ascii	"CY_DMA_TRANSFER_SIZE_DATA\000"
 4409      4D415F54 
 4409      52414E53 
 4409      4645525F 
 4409      53495A45 
 4410              	.LASF227:
 4411 06fb 43795F44 		.ascii	"Cy_DMA_Crc_Init\000"
 4411      4D415F43 
 4411      72635F49 
 4411      6E697400 
 4412              	.LASF159:
 4413 070b 43595F44 		.ascii	"CY_DMA_SINGLE_TRANSFER\000"
 4413      4D415F53 
 4413      494E474C 
 4413      455F5452 
 4413      414E5346 
 4414              	.LASF212:
 4415 0722 7072696F 		.ascii	"priority\000"
 4415      72697479 
 4415      00
 4416              	.LASF81:
 4417 072b 6770696F 		.ascii	"gpioVersion\000"
 4417      56657273 
 4417      696F6E00 
 4418              	.LASF230:
 4419 0737 43795F44 		.ascii	"Cy_DMA_Channel_Init\000"
 4419      4D415F43 
 4419      68616E6E 
 4419      656C5F49 
 4419      6E697400 
 4420              	.LASF191:
 4421 074b 72657472 		.ascii	"retrigger\000"
 4421      69676765 
ARM GAS  C:\Users\stijn\AppData\Local\Temp\ccPWVksW.s 			page 119


 4421      7200
 4422              	.LASF4:
 4423 0755 73686F72 		.ascii	"short int\000"
 4423      7420696E 
 4423      7400
 4424              	.LASF218:
 4425 075f 64617461 		.ascii	"dataXor\000"
 4425      586F7200 
 4426              	.LASF51:
 4427 0767 54525F43 		.ascii	"TR_CMD\000"
 4427      4D4400
 4428              	.LASF99:
 4429 076e 65704D6F 		.ascii	"epMonitorNr\000"
 4429      6E69746F 
 4429      724E7200 
 4430              	.LASF234:
 4431 077a 43795F44 		.ascii	"Cy_DMA_Descriptor_SetNextDescriptor\000"
 4431      4D415F44 
 4431      65736372 
 4431      6970746F 
 4431      725F5365 
 4432              	.LASF245:
 4433 079e 43795F44 		.ascii	"Cy_DMA_Channel_SetDescriptor\000"
 4433      4D415F43 
 4433      68616E6E 
 4433      656C5F53 
 4433      65744465 
 4434              	.LASF238:
 4435 07bb 6C6F634E 		.ascii	"locNextDescriptor\000"
 4435      65787444 
 4435      65736372 
 4435      6970746F 
 4435      7200
 4436              	.LASF142:
 4437 07cd 63707573 		.ascii	"cpussTrimRamCtlOffset\000"
 4437      73547269 
 4437      6D52616D 
 4437      43746C4F 
 4437      66667365 
 4438              	.LASF233:
 4439 07e3 43795F44 		.ascii	"Cy_DMA_Channel_DeInit\000"
 4439      4D415F43 
 4439      68616E6E 
 4439      656C5F44 
 4439      65496E69 
 4440              	.LASF166:
 4441 07f9 43595F44 		.ascii	"CY_DMA_DESCR\000"
 4441      4D415F44 
 4441      45534352 
 4441      00
 4442              	.LASF26:
 4443 0806 494E5452 		.ascii	"INTR_SET\000"
 4443      5F534554 
 4443      00
 4444              	.LASF77:
 4445 080f 63707573 		.ascii	"cpussVersion\000"
 4445      73566572 
ARM GAS  C:\Users\stijn\AppData\Local\Temp\ccPWVksW.s 			page 120


 4445      73696F6E 
 4445      00
 4446              	.LASF224:
 4447 081c 62617365 		.ascii	"base\000"
 4447      00
 4448              	.LASF84:
 4449 0821 70657269 		.ascii	"periVersion\000"
 4449      56657273 
 4449      696F6E00 
 4450              	.LASF198:
 4451 082d 64737454 		.ascii	"dstTransferSize\000"
 4451      72616E73 
 4451      66657253 
 4451      697A6500 
 4452              	.LASF220:
 4453 083d 72656D69 		.ascii	"reminderXor\000"
 4453      6E646572 
 4453      586F7200 
 4454              	.LASF216:
 4455 0849 63795F73 		.ascii	"cy_stc_dma_channel_config_t\000"
 4455      74635F64 
 4455      6D615F63 
 4455      68616E6E 
 4455      656C5F63 
 4456              	.LASF231:
 4457 0865 6368616E 		.ascii	"channelConfig\000"
 4457      6E656C43 
 4457      6F6E6669 
 4457      6700
 4458              	.LASF17:
 4459 0873 696E7433 		.ascii	"int32_t\000"
 4459      325F7400 
 4460              	.LASF20:
 4461 087b 73697A65 		.ascii	"sizetype\000"
 4461      74797065 
 4461      00
 4462              	.LASF114:
 4463 0884 64774368 		.ascii	"dwChOffset\000"
 4463      4F666673 
 4463      657400
 4464              	.LASF153:
 4465 088f 63795F73 		.ascii	"cy_stc_device_t\000"
 4465      74635F64 
 4465      65766963 
 4465      655F7400 
 4466              	.LASF42:
 4467 089f 4143545F 		.ascii	"ACT_DESCR_NEXT_PTR\000"
 4467      44455343 
 4467      525F4E45 
 4467      58545F50 
 4467      545200
 4468              	.LASF179:
 4469 08b2 43595F44 		.ascii	"CY_DMA_TRANSFER_SIZE_WORD\000"
 4469      4D415F54 
 4469      52414E53 
 4469      4645525F 
 4469      53495A45 
ARM GAS  C:\Users\stijn\AppData\Local\Temp\ccPWVksW.s 			page 121


 4470              	.LASF89:
 4471 08cc 63707573 		.ascii	"cpussFlashPaSize\000"
 4471      73466C61 
 4471      73685061 
 4471      53697A65 
 4471      00
 4472              	.LASF160:
 4473 08dd 43595F44 		.ascii	"CY_DMA_1D_TRANSFER\000"
 4473      4D415F31 
 4473      445F5452 
 4473      414E5346 
 4473      455200
 4474              	.LASF127:
 4475 08f0 70657269 		.ascii	"periDivCmdPaTypeSelPos\000"
 4475      44697643 
 4475      6D645061 
 4475      54797065 
 4475      53656C50 
 4476              	.LASF172:
 4477 0907 63795F65 		.ascii	"cy_en_dma_data_size_t\000"
 4477      6E5F646D 
 4477      615F6461 
 4477      74615F73 
 4477      697A655F 
 4478              	.LASF200:
 4479 091d 73726341 		.ascii	"srcAddress\000"
 4479      64647265 
 4479      737300
 4480              	.LASF150:
 4481 0928 63707573 		.ascii	"cpussRam2Ctl0\000"
 4481      7352616D 
 4481      3243746C 
 4481      3000
 4482              	.LASF25:
 4483 0936 494E5452 		.ascii	"INTR\000"
 4483      00
 4484              	.LASF118:
 4485 093b 64775374 		.ascii	"dwStatusChIdxPos\000"
 4485      61747573 
 4485      43684964 
 4485      78506F73 
 4485      00
 4486              	.LASF169:
 4487 094c 43595F44 		.ascii	"CY_DMA_BYTE\000"
 4487      4D415F42 
 4487      59544500 
 4488              	.LASF100:
 4489 0958 75646250 		.ascii	"udbPresent\000"
 4489      72657365 
 4489      6E7400
 4490              	.LASF80:
 4491 0963 666C6173 		.ascii	"flashcVersion\000"
 4491      68635665 
 4491      7273696F 
 4491      6E00
 4492              	.LASF76:
 4493 0971 63727970 		.ascii	"cryptoBase\000"
ARM GAS  C:\Users\stijn\AppData\Local\Temp\ccPWVksW.s 			page 122


 4493      746F4261 
 4493      736500
 4494              	.LASF97:
 4495 097c 736D6966 		.ascii	"smifDeviceNr\000"
 4495      44657669 
 4495      63654E72 
 4495      00
 4496              	.LASF163:
 4497 0989 63795F65 		.ascii	"cy_en_dma_descriptor_type_t\000"
 4497      6E5F646D 
 4497      615F6465 
 4497      73637269 
 4497      70746F72 
 4498              	.LASF195:
 4499 09a5 74726967 		.ascii	"triggerInType\000"
 4499      67657249 
 4499      6E547970 
 4499      6500
 4500              	.LASF177:
 4501 09b3 63795F65 		.ascii	"cy_en_dma_retrigger_t\000"
 4501      6E5F646D 
 4501      615F7265 
 4501      74726967 
 4501      6765725F 
 4502              	.LASF28:
 4503 09c9 494E5452 		.ascii	"INTR_MASKED\000"
 4503      5F4D4153 
 4503      4B454400 
 4504              	.LASF157:
 4505 09d5 666C6F61 		.ascii	"float\000"
 4505      7400
 4506              	.LASF119:
 4507 09db 64775374 		.ascii	"dwStatusChIdxMsk\000"
 4507      61747573 
 4507      43684964 
 4507      784D736B 
 4507      00
 4508              	.LASF235:
 4509 09ec 43795F44 		.ascii	"Cy_DMA_Descriptor_GetNextDescriptor\000"
 4509      4D415F44 
 4509      65736372 
 4509      6970746F 
 4509      725F4765 
 4510              	.LASF35:
 4511 0a10 52455345 		.ascii	"RESERVED1\000"
 4511      52564544 
 4511      3100
 4512              	.LASF239:
 4513 0a1a 63795F64 		.ascii	"cy_device\000"
 4513      65766963 
 4513      6500
 4514              	.LASF43:
 4515 0a24 52455345 		.ascii	"RESERVED3\000"
 4515      52564544 
 4515      3300
 4516              	.LASF147:
 4517 0a2e 63707573 		.ascii	"cpussRomCtl\000"
ARM GAS  C:\Users\stijn\AppData\Local\Temp\ccPWVksW.s 			page 123


 4517      73526F6D 
 4517      43746C00 
 4518              	.LASF55:
 4519 0a3a 52455345 		.ascii	"RESERVED5\000"
 4519      52564544 
 4519      3500
 4520              	.LASF57:
 4521 0a44 52455345 		.ascii	"RESERVED6\000"
 4521      52564544 
 4521      3600
 4522              	.LASF59:
 4523 0a4e 52455345 		.ascii	"RESERVED7\000"
 4523      52564544 
 4523      3700
 4524              	.LASF61:
 4525 0a58 52455345 		.ascii	"RESERVED8\000"
 4525      52564544 
 4525      3800
 4526              	.LASF63:
 4527 0a62 52455345 		.ascii	"RESERVED9\000"
 4527      52564544 
 4527      3900
 4528              	.LASF70:
 4529 0a6c 75646242 		.ascii	"udbBase\000"
 4529      61736500 
 4530              	.LASF215:
 4531 0a74 5F426F6F 		.ascii	"_Bool\000"
 4531      6C00
 4532              	.LASF60:
 4533 0a7a 4352435F 		.ascii	"CRC_LFSR_CTL\000"
 4533      4C465352 
 4533      5F43544C 
 4533      00
 4534              	.LASF1:
 4535 0a87 756E7369 		.ascii	"unsigned char\000"
 4535      676E6564 
 4535      20636861 
 4535      7200
 4536              	.LASF214:
 4537 0a95 62756666 		.ascii	"bufferable\000"
 4537      65726162 
 4537      6C6500
 4538              	.LASF113:
 4539 0aa0 666C6173 		.ascii	"flashCtlMainWs4Freq\000"
 4539      6843746C 
 4539      4D61696E 
 4539      57733446 
 4539      72657100 
 4540              	.LASF140:
 4541 0ab4 63707573 		.ascii	"cpussCm0StatusOffset\000"
 4541      73436D30 
 4541      53746174 
 4541      75734F66 
 4541      66736574 
 4542              	.LASF223:
 4543 0ac9 63795F73 		.ascii	"cy_stc_dma_crc_config_t\000"
 4543      74635F64 
ARM GAS  C:\Users\stijn\AppData\Local\Temp\ccPWVksW.s 			page 124


 4543      6D615F63 
 4543      72635F63 
 4543      6F6E6669 
 4544              	.LASF23:
 4545 0ae1 43485F49 		.ascii	"CH_IDX\000"
 4545      445800
 4546              	.LASF143:
 4547 0ae8 63707573 		.ascii	"cpussTrimRomCtlOffset\000"
 4547      73547269 
 4547      6D526F6D 
 4547      43746C4F 
 4547      66667365 
 4548              	.LASF40:
 4549 0afe 4143545F 		.ascii	"ACT_DESCR_X_CTL\000"
 4549      44455343 
 4549      525F585F 
 4549      43544C00 
 4550              	.LASF32:
 4551 0b0e 52455345 		.ascii	"RESERVED\000"
 4551      52564544 
 4551      00
 4552              	.LASF176:
 4553 0b17 43595F44 		.ascii	"CY_DMA_WAIT_FOR_REACT\000"
 4553      4D415F57 
 4553      4149545F 
 4553      464F525F 
 4553      52454143 
 4554              	.LASF242:
 4555 0b2d 47656E65 		.ascii	"Generated_Source\\PSoC6\\pdl\\drivers\\peripheral\\"
 4555      72617465 
 4555      645F536F 
 4555      75726365 
 4555      5C50536F 
 4556 0b5b 646D615C 		.ascii	"dma\\cy_dma.c\000"
 4556      63795F64 
 4556      6D612E63 
 4556      00
 4557              	.LASF199:
 4558 0b68 64657363 		.ascii	"descriptorType\000"
 4558      72697074 
 4558      6F725479 
 4558      706500
 4559              	.LASF184:
 4560 0b77 43595F44 		.ascii	"CY_DMA_SUCCESS\000"
 4560      4D415F53 
 4560      55434345 
 4560      535300
 4561              	.LASF124:
 4562 0b86 70657269 		.ascii	"periDivCmdDivSelMsk\000"
 4562      44697643 
 4562      6D644469 
 4562      7653656C 
 4562      4D736B00 
 4563              	.LASF208:
 4564 0b9a 6E657874 		.ascii	"nextDescriptor\000"
 4564      44657363 
 4564      72697074 
ARM GAS  C:\Users\stijn\AppData\Local\Temp\ccPWVksW.s 			page 125


 4564      6F7200
 4565              	.LASF225:
 4566 0ba9 6368616E 		.ascii	"channel\000"
 4566      6E656C00 
 4567              	.LASF39:
 4568 0bb1 52455345 		.ascii	"RESERVED2\000"
 4568      52564544 
 4568      3200
 4569              	.LASF95:
 4570 0bbb 73727373 		.ascii	"srssNumHfroot\000"
 4570      4E756D48 
 4570      66726F6F 
 4570      7400
 4571              	.LASF46:
 4572 0bc9 52455345 		.ascii	"RESERVED4\000"
 4572      52564544 
 4572      3400
 4573              	.LASF108:
 4574 0bd3 666C6173 		.ascii	"flashEraseDelay\000"
 4574      68457261 
 4574      73654465 
 4574      6C617900 
 4575              	.LASF91:
 4576 0be3 63707573 		.ascii	"cpussFmIrq\000"
 4576      73466D49 
 4576      727100
 4577              	.LASF18:
 4578 0bee 75696E74 		.ascii	"uint32_t\000"
 4578      33325F74 
 4578      00
 4579              	.LASF102:
 4580 0bf7 70726F74 		.ascii	"protBusMasterMask\000"
 4580      4275734D 
 4580      61737465 
 4580      724D6173 
 4580      6B00
 4581              	.LASF210:
 4582 0c09 64657363 		.ascii	"descriptor\000"
 4582      72697074 
 4582      6F7200
 4583              	.LASF19:
 4584 0c14 6C6F6E67 		.ascii	"long double\000"
 4584      20646F75 
 4584      626C6500 
 4585              	.LASF156:
 4586 0c20 63686172 		.ascii	"char\000"
 4586      00
 4587              	.LASF85:
 4588 0c25 70726F74 		.ascii	"protVersion\000"
 4588      56657273 
 4588      696F6E00 
 4589              	.LASF148:
 4590 0c31 63707573 		.ascii	"cpussRam0Ctl0\000"
 4590      7352616D 
 4590      3043746C 
 4590      3000
 4591              	.LASF207:
ARM GAS  C:\Users\stijn\AppData\Local\Temp\ccPWVksW.s 			page 126


 4592 0c3f 79436F75 		.ascii	"yCount\000"
 4592      6E7400
 4593              	.LASF229:
 4594 0c46 636F6E66 		.ascii	"config\000"
 4594      696700
 4595              	.LASF204:
 4596 0c4d 78436F75 		.ascii	"xCount\000"
 4596      6E7400
 4597              	.LASF5:
 4598 0c54 5F5F7569 		.ascii	"__uint16_t\000"
 4598      6E743136 
 4598      5F7400
 4599              	.LASF171:
 4600 0c5f 43595F44 		.ascii	"CY_DMA_WORD\000"
 4600      4D415F57 
 4600      4F524400 
 4601              	.LASF129:
 4602 0c6b 70657269 		.ascii	"periDiv16CtlOffset\000"
 4602      44697631 
 4602      3643746C 
 4602      4F666673 
 4602      657400
 4603              	.LASF53:
 4604 0c7e 4543435F 		.ascii	"ECC_CTL\000"
 4604      43544C00 
 4605              	.LASF121:
 4606 0c86 70657269 		.ascii	"periTrCmdGrSelMsk\000"
 4606      5472436D 
 4606      64477253 
 4606      656C4D73 
 4606      6B00
 4607              	.LASF7:
 4608 0c98 5F5F696E 		.ascii	"__int32_t\000"
 4608      7433325F 
 4608      7400
 4609              	.LASF21:
 4610 0ca2 43485F43 		.ascii	"CH_CTL\000"
 4610      544C00
 4611              	.LASF56:
 4612 0ca9 4352435F 		.ascii	"CRC_DATA_CTL\000"
 4612      44415441 
 4612      5F43544C 
 4612      00
 4613              	.LASF82:
 4614 0cb6 6873696F 		.ascii	"hsiomVersion\000"
 4614      6D566572 
 4614      73696F6E 
 4614      00
 4615              	.LASF34:
 4616 0cc3 53544154 		.ascii	"STATUS_INTR_MASKED\000"
 4616      55535F49 
 4616      4E54525F 
 4616      4D41534B 
 4616      454400
 4617              	.LASF188:
 4618 0cd6 7943746C 		.ascii	"yCtl\000"
 4618      00
ARM GAS  C:\Users\stijn\AppData\Local\Temp\ccPWVksW.s 			page 127


 4619              	.LASF162:
 4620 0cdb 43595F44 		.ascii	"CY_DMA_CRC_TRANSFER\000"
 4620      4D415F43 
 4620      52435F54 
 4620      52414E53 
 4620      46455200 
 4621              	.LASF186:
 4622 0cef 63795F65 		.ascii	"cy_en_dma_status_t\000"
 4622      6E5F646D 
 4622      615F7374 
 4622      61747573 
 4622      5F7400
 4623              	.LASF115:
 4624 0d02 64774368 		.ascii	"dwChSize\000"
 4624      53697A65 
 4624      00
 4625              	.LASF151:
 4626 0d0b 69706353 		.ascii	"ipcStructSize\000"
 4626      74727563 
 4626      7453697A 
 4626      6500
 4627              	.LASF90:
 4628 0d19 63707573 		.ascii	"cpussIpc0Irq\000"
 4628      73497063 
 4628      30497271 
 4628      00
 4629              	.LASF137:
 4630 0d26 63707573 		.ascii	"cpussCm0ClockCtlOffset\000"
 4630      73436D30 
 4630      436C6F63 
 4630      6B43746C 
 4630      4F666673 
 4631              	.LASF133:
 4632 0d3d 6770696F 		.ascii	"gpioPrtCfgOffset\000"
 4632      50727443 
 4632      66674F66 
 4632      66736574 
 4632      00
 4633              	.LASF206:
 4634 0d4e 64737459 		.ascii	"dstYincrement\000"
 4634      696E6372 
 4634      656D656E 
 4634      7400
 4635              	.LASF209:
 4636 0d5c 63795F73 		.ascii	"cy_stc_dma_descriptor_config_t\000"
 4636      74635F64 
 4636      6D615F64 
 4636      65736372 
 4636      6970746F 
 4637              	.LASF183:
 4638 0d7b 63795F65 		.ascii	"cy_en_dma_channel_state_t\000"
 4638      6E5F646D 
 4638      615F6368 
 4638      616E6E65 
 4638      6C5F7374 
 4639              	.LASF33:
 4640 0d95 53544154 		.ascii	"STATUS_INTR\000"
ARM GAS  C:\Users\stijn\AppData\Local\Temp\ccPWVksW.s 			page 128


 4640      55535F49 
 4640      4E545200 
 4641              	.LASF30:
 4642 0da1 53544154 		.ascii	"STATUS\000"
 4642      555300
 4643              	.LASF134:
 4644 0da8 6770696F 		.ascii	"gpioPrtCfgInOffset\000"
 4644      50727443 
 4644      6667496E 
 4644      4F666673 
 4644      657400
 4645              	.LASF92:
 4646 0dbb 63707573 		.ascii	"cpussNotConnectedIrq\000"
 4646      734E6F74 
 4646      436F6E6E 
 4646      65637465 
 4646      64497271 
 4647              	.LASF185:
 4648 0dd0 43595F44 		.ascii	"CY_DMA_BAD_PARAM\000"
 4648      4D415F42 
 4648      41445F50 
 4648      4152414D 
 4648      00
 4649              	.LASF202:
 4650 0de1 73726358 		.ascii	"srcXincrement\000"
 4650      696E6372 
 4650      656D656E 
 4650      7400
 4651              	.LASF244:
 4652 0def 43795F44 		.ascii	"Cy_DMA_Descriptor_GetDescriptorType\000"
 4652      4D415F44 
 4652      65736372 
 4652      6970746F 
 4652      725F4765 
 4653              	.LASF106:
 4654 0e13 666C6173 		.ascii	"flashWriteDelay\000"
 4654      68577269 
 4654      74654465 
 4654      6C617900 
 4655              	.LASF190:
 4656 0e23 63795F73 		.ascii	"cy_stc_dma_descriptor_t\000"
 4656      74635F64 
 4656      6D615F64 
 4656      65736372 
 4656      6970746F 
 4657              	.LASF14:
 4658 0e3b 75696E74 		.ascii	"uint8_t\000"
 4658      385F7400 
 4659              	.LASF105:
 4660 0e43 666C6173 		.ascii	"flashPipeRequired\000"
 4660      68506970 
 4660      65526571 
 4660      75697265 
 4660      6400
 4661              	.LASF222:
 4662 0e55 6C667372 		.ascii	"lfsrInitVal\000"
 4662      496E6974 
ARM GAS  C:\Users\stijn\AppData\Local\Temp\ccPWVksW.s 			page 129


 4662      56616C00 
 4663              	.LASF139:
 4664 0e61 63707573 		.ascii	"cpussCm4StatusOffset\000"
 4664      73436D34 
 4664      53746174 
 4664      75734F66 
 4664      66736574 
 4665              	.LASF132:
 4666 0e76 6770696F 		.ascii	"gpioPrtIntrCfgOffset\000"
 4666      50727449 
 4666      6E747243 
 4666      66674F66 
 4666      66736574 
 4667              	.LASF187:
 4668 0e8b 7843746C 		.ascii	"xCtl\000"
 4668      00
 4669              	.LASF194:
 4670 0e90 6368616E 		.ascii	"channelState\000"
 4670      6E656C53 
 4670      74617465 
 4670      00
 4671              	.LASF232:
 4672 0e9d 43795F44 		.ascii	"Cy_DMA_Descriptor_DeInit\000"
 4672      4D415F44 
 4672      65736372 
 4672      6970746F 
 4672      725F4465 
 4673              	.LASF226:
 4674 0eb6 63726343 		.ascii	"crcConfig\000"
 4674      6F6E6669 
 4674      6700
 4675              	.LASF93:
 4676 0ec0 73727373 		.ascii	"srssNumClkpath\000"
 4676      4E756D43 
 4676      6C6B7061 
 4676      746800
 4677              	.LASF79:
 4678 0ecf 64775665 		.ascii	"dwVersion\000"
 4678      7273696F 
 4678      6E00
 4679              	.LASF75:
 4680 0ed9 69706342 		.ascii	"ipcBase\000"
 4680      61736500 
 4681              	.LASF58:
 4682 0ee1 4352435F 		.ascii	"CRC_POL_CTL\000"
 4682      504F4C5F 
 4682      43544C00 
 4683              	.LASF126:
 4684 0eed 70657269 		.ascii	"periDivCmdPaDivSelPos\000"
 4684      44697643 
 4684      6D645061 
 4684      44697653 
 4684      656C506F 
 4685              	.LASF107:
 4686 0f03 666C6173 		.ascii	"flashProgramDelay\000"
 4686      6850726F 
 4686      6772616D 
ARM GAS  C:\Users\stijn\AppData\Local\Temp\ccPWVksW.s 			page 130


 4686      44656C61 
 4686      7900
 4687              	.LASF211:
 4688 0f15 70726565 		.ascii	"preemptable\000"
 4688      6D707461 
 4688      626C6500 
 4689              	.LASF48:
 4690 0f21 44575F56 		.ascii	"DW_V1_Type\000"
 4690      315F5479 
 4690      706500
 4691              	.LASF104:
 4692 0f2c 666C6173 		.ascii	"flashRwwRequired\000"
 4692      68527777 
 4692      52657175 
 4692      69726564 
 4692      00
 4693              	.LASF31:
 4694 0f3d 50454E44 		.ascii	"PENDING\000"
 4694      494E4700 
 4695              		.ident	"GCC: (GNU Tools for ARM Embedded Processors) 5.4.1 20160609 (release) [ARM/embedded-5-bran
