ARM GAS  C:\Users\stijn\AppData\Local\Temp\ccD3lQ9e.s 			page 1


   1              		.syntax unified
   2              		.cpu cortex-m4
   3              		.eabi_attribute 27, 1
   4              		.fpu fpv4-sp-d16
   5              		.eabi_attribute 20, 1
   6              		.eabi_attribute 21, 1
   7              		.eabi_attribute 23, 3
   8              		.eabi_attribute 24, 1
   9              		.eabi_attribute 25, 1
  10              		.eabi_attribute 26, 1
  11              		.eabi_attribute 30, 6
  12              		.eabi_attribute 34, 1
  13              		.eabi_attribute 18, 4
  14              		.thumb
  15              		.syntax unified
  16              		.file	"cy_gpio.c"
  17              		.text
  18              	.Ltext0:
  19              		.cfi_sections	.debug_frame
  20              		.section	.rodata
  21              		.align	2
  22              	.LC0:
  23 0000 47656E65 		.ascii	"Generated_Source\\PSoC6\\pdl\\drivers\\peripheral\\"
  23      72617465 
  23      645F536F 
  23      75726365 
  23      5C50536F 
  24 002e 6770696F 		.ascii	"gpio\\cy_gpio.h\000"
  24      5C63795F 
  24      6770696F 
  24      2E6800
  25              		.section	.text.Cy_GPIO_SetHSIOM,"ax",%progbits
  26              		.align	2
  27              		.thumb
  28              		.thumb_func
  29              		.type	Cy_GPIO_SetHSIOM, %function
  30              	Cy_GPIO_SetHSIOM:
  31              	.LFB132:
  32              		.file 1 "Generated_Source\\PSoC6\\pdl\\drivers\\peripheral\\gpio\\cy_gpio.h"
   1:Generated_Source\PSoC6\pdl\drivers\peripheral\gpio/cy_gpio.h **** /***************************************************************************//**
   2:Generated_Source\PSoC6\pdl\drivers\peripheral\gpio/cy_gpio.h **** * \file cy_gpio.h
   3:Generated_Source\PSoC6\pdl\drivers\peripheral\gpio/cy_gpio.h **** * \version 1.20
   4:Generated_Source\PSoC6\pdl\drivers\peripheral\gpio/cy_gpio.h **** *
   5:Generated_Source\PSoC6\pdl\drivers\peripheral\gpio/cy_gpio.h **** * Provides an API declaration of the GPIO driver
   6:Generated_Source\PSoC6\pdl\drivers\peripheral\gpio/cy_gpio.h **** *
   7:Generated_Source\PSoC6\pdl\drivers\peripheral\gpio/cy_gpio.h **** ********************************************************************************
   8:Generated_Source\PSoC6\pdl\drivers\peripheral\gpio/cy_gpio.h **** * \copyright
   9:Generated_Source\PSoC6\pdl\drivers\peripheral\gpio/cy_gpio.h **** * Copyright 2016-2018, Cypress Semiconductor Corporation. All rights reserved.
  10:Generated_Source\PSoC6\pdl\drivers\peripheral\gpio/cy_gpio.h **** * You may use this file only in accordance with the license, terms, conditions,
  11:Generated_Source\PSoC6\pdl\drivers\peripheral\gpio/cy_gpio.h **** * disclaimers, and limitations in the end user license agreement accompanying
  12:Generated_Source\PSoC6\pdl\drivers\peripheral\gpio/cy_gpio.h **** * the software package with which this file was provided.
  13:Generated_Source\PSoC6\pdl\drivers\peripheral\gpio/cy_gpio.h **** *******************************************************************************/
  14:Generated_Source\PSoC6\pdl\drivers\peripheral\gpio/cy_gpio.h **** 
  15:Generated_Source\PSoC6\pdl\drivers\peripheral\gpio/cy_gpio.h **** /**
  16:Generated_Source\PSoC6\pdl\drivers\peripheral\gpio/cy_gpio.h **** * \addtogroup group_gpio
  17:Generated_Source\PSoC6\pdl\drivers\peripheral\gpio/cy_gpio.h **** * \{
  18:Generated_Source\PSoC6\pdl\drivers\peripheral\gpio/cy_gpio.h **** * The GPIO driver provides an API to configure and access device Input/Output pins.
ARM GAS  C:\Users\stijn\AppData\Local\Temp\ccD3lQ9e.s 			page 2


  19:Generated_Source\PSoC6\pdl\drivers\peripheral\gpio/cy_gpio.h **** *
  20:Generated_Source\PSoC6\pdl\drivers\peripheral\gpio/cy_gpio.h **** * The functions and other declarations used in this driver are in cy_gpio.h. 
  21:Generated_Source\PSoC6\pdl\drivers\peripheral\gpio/cy_gpio.h **** * You can include cy_pdl.h (ModusToolbox only) to get access to all functions 
  22:Generated_Source\PSoC6\pdl\drivers\peripheral\gpio/cy_gpio.h **** * and declarations in the PDL.
  23:Generated_Source\PSoC6\pdl\drivers\peripheral\gpio/cy_gpio.h **** *
  24:Generated_Source\PSoC6\pdl\drivers\peripheral\gpio/cy_gpio.h **** * IO pins include all general purpose types such as GPIO, SIO, HSIO, AUXIO, and
  25:Generated_Source\PSoC6\pdl\drivers\peripheral\gpio/cy_gpio.h **** * their variants.
  26:Generated_Source\PSoC6\pdl\drivers\peripheral\gpio/cy_gpio.h **** *
  27:Generated_Source\PSoC6\pdl\drivers\peripheral\gpio/cy_gpio.h **** * Initialization can be performed either at the port level or by configuring the
  28:Generated_Source\PSoC6\pdl\drivers\peripheral\gpio/cy_gpio.h **** * individual pins. For efficient use of code space, port
  29:Generated_Source\PSoC6\pdl\drivers\peripheral\gpio/cy_gpio.h **** * configuration should be used in the field. Refer to the product device header files 
  30:Generated_Source\PSoC6\pdl\drivers\peripheral\gpio/cy_gpio.h **** * for the list of supported ports and pins.
  31:Generated_Source\PSoC6\pdl\drivers\peripheral\gpio/cy_gpio.h **** * 
  32:Generated_Source\PSoC6\pdl\drivers\peripheral\gpio/cy_gpio.h **** * - Single pin configuration is performed by using \ref Cy_GPIO_Pin_FastInit 
  33:Generated_Source\PSoC6\pdl\drivers\peripheral\gpio/cy_gpio.h **** *   (provide specific values) or \ref Cy_GPIO_Pin_Init (provide a filled
  34:Generated_Source\PSoC6\pdl\drivers\peripheral\gpio/cy_gpio.h **** *   cy_stc_gpio_pin_config_t structure).
  35:Generated_Source\PSoC6\pdl\drivers\peripheral\gpio/cy_gpio.h **** * - An entire port can be configured using \ref Cy_GPIO_Port_Init. Provide a filled 
  36:Generated_Source\PSoC6\pdl\drivers\peripheral\gpio/cy_gpio.h **** *   cy_stc_gpio_prt_config_t structure. The values in the structure are 
  37:Generated_Source\PSoC6\pdl\drivers\peripheral\gpio/cy_gpio.h **** *   bitfields representing the desired value for each pin in the port.
  38:Generated_Source\PSoC6\pdl\drivers\peripheral\gpio/cy_gpio.h **** * - Pin configuration and management is based on the port address and pin number.
  39:Generated_Source\PSoC6\pdl\drivers\peripheral\gpio/cy_gpio.h **** *   \ref Cy_GPIO_PortToAddr function can optionally be used to calculate the port
  40:Generated_Source\PSoC6\pdl\drivers\peripheral\gpio/cy_gpio.h **** *   address from the port number at run-time.
  41:Generated_Source\PSoC6\pdl\drivers\peripheral\gpio/cy_gpio.h **** *
  42:Generated_Source\PSoC6\pdl\drivers\peripheral\gpio/cy_gpio.h **** * Once the pin/port initialization is complete, each pin can be accessed by 
  43:Generated_Source\PSoC6\pdl\drivers\peripheral\gpio/cy_gpio.h **** * specifying the port (GPIO_PRT_Type) and the pin (0-7) in the provided API 
  44:Generated_Source\PSoC6\pdl\drivers\peripheral\gpio/cy_gpio.h **** * functions.
  45:Generated_Source\PSoC6\pdl\drivers\peripheral\gpio/cy_gpio.h **** *
  46:Generated_Source\PSoC6\pdl\drivers\peripheral\gpio/cy_gpio.h **** * \section group_gpio_configuration Configuration Considerations
  47:Generated_Source\PSoC6\pdl\drivers\peripheral\gpio/cy_gpio.h **** *
  48:Generated_Source\PSoC6\pdl\drivers\peripheral\gpio/cy_gpio.h **** * 1. Pin multiplexing is controlled through the High-Speed IO Matrix (HSIOM) selection.
  49:Generated_Source\PSoC6\pdl\drivers\peripheral\gpio/cy_gpio.h **** *    This allows the pin to connect to signal sources/sinks throughout the device,
  50:Generated_Source\PSoC6\pdl\drivers\peripheral\gpio/cy_gpio.h **** *    as defined by the pin HSIOM selection options (en_hsiom_sel_t).
  51:Generated_Source\PSoC6\pdl\drivers\peripheral\gpio/cy_gpio.h **** * 2. All pins are initialized to High-Z drive mode with HSIOM connected to CPU (SW
  52:Generated_Source\PSoC6\pdl\drivers\peripheral\gpio/cy_gpio.h **** *    control digital pin only) at Power-On-Reset(POR).
  53:Generated_Source\PSoC6\pdl\drivers\peripheral\gpio/cy_gpio.h **** * 3. Some API functions perform read-modify-write operations on shared port
  54:Generated_Source\PSoC6\pdl\drivers\peripheral\gpio/cy_gpio.h **** *    registers. These functions are not thread safe and care must be taken when
  55:Generated_Source\PSoC6\pdl\drivers\peripheral\gpio/cy_gpio.h **** *    called by the application.
  56:Generated_Source\PSoC6\pdl\drivers\peripheral\gpio/cy_gpio.h **** * 4. Digital input buffer provides a high-impedance buffer for the external 
  57:Generated_Source\PSoC6\pdl\drivers\peripheral\gpio/cy_gpio.h **** *    digital input. The input buffer is connected to the HSIOM for routing to 
  58:Generated_Source\PSoC6\pdl\drivers\peripheral\gpio/cy_gpio.h **** *    the CPU port registers and selected peripheral. Enabling the input 
  59:Generated_Source\PSoC6\pdl\drivers\peripheral\gpio/cy_gpio.h **** *    buffer provides possibility to read the pin state via the CPU.
  60:Generated_Source\PSoC6\pdl\drivers\peripheral\gpio/cy_gpio.h **** *    If pin is connected to an analog signal, the input buffer should be 
  61:Generated_Source\PSoC6\pdl\drivers\peripheral\gpio/cy_gpio.h **** *    disabled to avoid crowbar currents. For more information refer to device 
  62:Generated_Source\PSoC6\pdl\drivers\peripheral\gpio/cy_gpio.h **** *    TRM and the device datasheet.
  63:Generated_Source\PSoC6\pdl\drivers\peripheral\gpio/cy_gpio.h **** *
  64:Generated_Source\PSoC6\pdl\drivers\peripheral\gpio/cy_gpio.h **** * Multiple pins on a port can be updated using direct port register writes with an
  65:Generated_Source\PSoC6\pdl\drivers\peripheral\gpio/cy_gpio.h **** * appropriate port mask. An example is shown below, highlighting the different ways of 
  66:Generated_Source\PSoC6\pdl\drivers\peripheral\gpio/cy_gpio.h **** * configuring Port 1 pins using:
  67:Generated_Source\PSoC6\pdl\drivers\peripheral\gpio/cy_gpio.h **** * 
  68:Generated_Source\PSoC6\pdl\drivers\peripheral\gpio/cy_gpio.h **** * - Port output data register
  69:Generated_Source\PSoC6\pdl\drivers\peripheral\gpio/cy_gpio.h **** * - Port output data set register
  70:Generated_Source\PSoC6\pdl\drivers\peripheral\gpio/cy_gpio.h **** * - Port output data clear register
  71:Generated_Source\PSoC6\pdl\drivers\peripheral\gpio/cy_gpio.h **** *
  72:Generated_Source\PSoC6\pdl\drivers\peripheral\gpio/cy_gpio.h **** * \snippet gpio/gpio_v1_10_sut_01.cydsn/main_cm4.c Cy_GPIO_Snippet
  73:Generated_Source\PSoC6\pdl\drivers\peripheral\gpio/cy_gpio.h **** *
  74:Generated_Source\PSoC6\pdl\drivers\peripheral\gpio/cy_gpio.h **** * \section group_gpio_more_information More Information
  75:Generated_Source\PSoC6\pdl\drivers\peripheral\gpio/cy_gpio.h **** *
ARM GAS  C:\Users\stijn\AppData\Local\Temp\ccD3lQ9e.s 			page 3


  76:Generated_Source\PSoC6\pdl\drivers\peripheral\gpio/cy_gpio.h **** * Refer to the technical reference manual (TRM) and the device datasheet.
  77:Generated_Source\PSoC6\pdl\drivers\peripheral\gpio/cy_gpio.h **** *
  78:Generated_Source\PSoC6\pdl\drivers\peripheral\gpio/cy_gpio.h **** * \section group_gpio_MISRA MISRA-C Compliance
  79:Generated_Source\PSoC6\pdl\drivers\peripheral\gpio/cy_gpio.h **** * The GPIO driver has the following specific deviations:
  80:Generated_Source\PSoC6\pdl\drivers\peripheral\gpio/cy_gpio.h **** *
  81:Generated_Source\PSoC6\pdl\drivers\peripheral\gpio/cy_gpio.h **** * <table class="doxtable">
  82:Generated_Source\PSoC6\pdl\drivers\peripheral\gpio/cy_gpio.h **** *   <tr>
  83:Generated_Source\PSoC6\pdl\drivers\peripheral\gpio/cy_gpio.h **** *     <th>MISRA Rule</th>
  84:Generated_Source\PSoC6\pdl\drivers\peripheral\gpio/cy_gpio.h **** *     <th>Rule Class (Required/Advisory)</th>
  85:Generated_Source\PSoC6\pdl\drivers\peripheral\gpio/cy_gpio.h **** *     <th>Rule Description</th>
  86:Generated_Source\PSoC6\pdl\drivers\peripheral\gpio/cy_gpio.h **** *     <th>Description of Deviation(s)</th>
  87:Generated_Source\PSoC6\pdl\drivers\peripheral\gpio/cy_gpio.h **** *   </tr>
  88:Generated_Source\PSoC6\pdl\drivers\peripheral\gpio/cy_gpio.h **** *   <tr>
  89:Generated_Source\PSoC6\pdl\drivers\peripheral\gpio/cy_gpio.h **** *     <td>11.4</td>
  90:Generated_Source\PSoC6\pdl\drivers\peripheral\gpio/cy_gpio.h **** *     <td>A</td>
  91:Generated_Source\PSoC6\pdl\drivers\peripheral\gpio/cy_gpio.h **** *     <td>A cast should not be performed between a pointer to object type and
  92:Generated_Source\PSoC6\pdl\drivers\peripheral\gpio/cy_gpio.h **** *         a different pointer to object type.</td>
  93:Generated_Source\PSoC6\pdl\drivers\peripheral\gpio/cy_gpio.h **** *     <td> This code is safe because the elements of both GPIO_PRT_V1_Type and GPIO_PRT_V2_Type 
  94:Generated_Source\PSoC6\pdl\drivers\peripheral\gpio/cy_gpio.h **** *          types have identical alignment.</td>
  95:Generated_Source\PSoC6\pdl\drivers\peripheral\gpio/cy_gpio.h **** *   </tr>
  96:Generated_Source\PSoC6\pdl\drivers\peripheral\gpio/cy_gpio.h **** *   <tr>
  97:Generated_Source\PSoC6\pdl\drivers\peripheral\gpio/cy_gpio.h **** *     <td>16.7</td>
  98:Generated_Source\PSoC6\pdl\drivers\peripheral\gpio/cy_gpio.h **** *     <td>A</td>
  99:Generated_Source\PSoC6\pdl\drivers\peripheral\gpio/cy_gpio.h **** *     <td>A pointer parameter in a function prototype should be declared as pointer 
 100:Generated_Source\PSoC6\pdl\drivers\peripheral\gpio/cy_gpio.h **** *         to const if the pointer is not used to modify the addressed object.</td>
 101:Generated_Source\PSoC6\pdl\drivers\peripheral\gpio/cy_gpio.h **** *     <td>The objects pointed to by the base addresses of the GPIO port are not always modified.
 102:Generated_Source\PSoC6\pdl\drivers\peripheral\gpio/cy_gpio.h **** *         While a const qualifier can be used in select scenarios, it brings little benefit
 103:Generated_Source\PSoC6\pdl\drivers\peripheral\gpio/cy_gpio.h **** *         in adding this to the affected functions. </td>
 104:Generated_Source\PSoC6\pdl\drivers\peripheral\gpio/cy_gpio.h **** *   </tr>
 105:Generated_Source\PSoC6\pdl\drivers\peripheral\gpio/cy_gpio.h **** * </table>
 106:Generated_Source\PSoC6\pdl\drivers\peripheral\gpio/cy_gpio.h **** *
 107:Generated_Source\PSoC6\pdl\drivers\peripheral\gpio/cy_gpio.h **** * \section group_gpio_changelog Changelog
 108:Generated_Source\PSoC6\pdl\drivers\peripheral\gpio/cy_gpio.h **** * <table class="doxtable">
 109:Generated_Source\PSoC6\pdl\drivers\peripheral\gpio/cy_gpio.h **** *   <tr><th>Version</th><th>Changes</th><th>Reason for Change</th></tr>
 110:Generated_Source\PSoC6\pdl\drivers\peripheral\gpio/cy_gpio.h **** *   <tr>
 111:Generated_Source\PSoC6\pdl\drivers\peripheral\gpio/cy_gpio.h **** *     <td rowspan="3">1.20</td>
 112:Generated_Source\PSoC6\pdl\drivers\peripheral\gpio/cy_gpio.h **** *     <td>Flattened the organization of the driver source code into the single source directory and
 113:Generated_Source\PSoC6\pdl\drivers\peripheral\gpio/cy_gpio.h **** *     <td>Driver library directory-structure simplification.</td>
 114:Generated_Source\PSoC6\pdl\drivers\peripheral\gpio/cy_gpio.h **** *   </tr>
 115:Generated_Source\PSoC6\pdl\drivers\peripheral\gpio/cy_gpio.h **** *   <tr>
 116:Generated_Source\PSoC6\pdl\drivers\peripheral\gpio/cy_gpio.h **** *     <td>Added the functions for configuring the AMux bus splitter switch cells:
 117:Generated_Source\PSoC6\pdl\drivers\peripheral\gpio/cy_gpio.h **** *     - \ref Cy_GPIO_SetAmuxSplit
 118:Generated_Source\PSoC6\pdl\drivers\peripheral\gpio/cy_gpio.h **** *     - \ref Cy_GPIO_GetAmuxSplit
 119:Generated_Source\PSoC6\pdl\drivers\peripheral\gpio/cy_gpio.h **** *     </td>
 120:Generated_Source\PSoC6\pdl\drivers\peripheral\gpio/cy_gpio.h **** *     <td>Added a new functionality related to AMux bus.</td>
 121:Generated_Source\PSoC6\pdl\drivers\peripheral\gpio/cy_gpio.h **** *   </tr>
 122:Generated_Source\PSoC6\pdl\drivers\peripheral\gpio/cy_gpio.h **** *   <tr>
 123:Generated_Source\PSoC6\pdl\drivers\peripheral\gpio/cy_gpio.h **** *     <td>Added register access layer. Use register access macros instead
 124:Generated_Source\PSoC6\pdl\drivers\peripheral\gpio/cy_gpio.h **** *         of direct register access using dereferenced pointers.</td>
 125:Generated_Source\PSoC6\pdl\drivers\peripheral\gpio/cy_gpio.h **** *     <td>Makes register access device-independent, so that the PDL does 
 126:Generated_Source\PSoC6\pdl\drivers\peripheral\gpio/cy_gpio.h **** *         not need to be recompiled for each supported part number.</td>
 127:Generated_Source\PSoC6\pdl\drivers\peripheral\gpio/cy_gpio.h **** *   </tr>
 128:Generated_Source\PSoC6\pdl\drivers\peripheral\gpio/cy_gpio.h **** *   <tr>
 129:Generated_Source\PSoC6\pdl\drivers\peripheral\gpio/cy_gpio.h **** *     <td>1.10.1</td>
 130:Generated_Source\PSoC6\pdl\drivers\peripheral\gpio/cy_gpio.h **** *     <td>Updated description for the functions: \ref Cy_GPIO_GetInterruptStatus, 
 131:Generated_Source\PSoC6\pdl\drivers\peripheral\gpio/cy_gpio.h **** *         \ref Cy_GPIO_GetInterruptMask, \ref Cy_GPIO_GetInterruptStatusMasked.
 132:Generated_Source\PSoC6\pdl\drivers\peripheral\gpio/cy_gpio.h **** *
ARM GAS  C:\Users\stijn\AppData\Local\Temp\ccD3lQ9e.s 			page 4


 133:Generated_Source\PSoC6\pdl\drivers\peripheral\gpio/cy_gpio.h **** *         Minor documentation edits.
 134:Generated_Source\PSoC6\pdl\drivers\peripheral\gpio/cy_gpio.h **** *     </td>
 135:Generated_Source\PSoC6\pdl\drivers\peripheral\gpio/cy_gpio.h **** *     <td>Documentation update and clarification</td>
 136:Generated_Source\PSoC6\pdl\drivers\peripheral\gpio/cy_gpio.h **** *   </tr>
 137:Generated_Source\PSoC6\pdl\drivers\peripheral\gpio/cy_gpio.h **** *   <tr>
 138:Generated_Source\PSoC6\pdl\drivers\peripheral\gpio/cy_gpio.h **** *     <td>1.10</td>
 139:Generated_Source\PSoC6\pdl\drivers\peripheral\gpio/cy_gpio.h **** *     <td>Added input parameter validation to the API functions</td>
 140:Generated_Source\PSoC6\pdl\drivers\peripheral\gpio/cy_gpio.h **** *     <td></td>
 141:Generated_Source\PSoC6\pdl\drivers\peripheral\gpio/cy_gpio.h **** *   </tr>
 142:Generated_Source\PSoC6\pdl\drivers\peripheral\gpio/cy_gpio.h **** *   <tr>
 143:Generated_Source\PSoC6\pdl\drivers\peripheral\gpio/cy_gpio.h **** *     <td>1.0</td>
 144:Generated_Source\PSoC6\pdl\drivers\peripheral\gpio/cy_gpio.h **** *     <td>Initial version</td>
 145:Generated_Source\PSoC6\pdl\drivers\peripheral\gpio/cy_gpio.h **** *     <td></td>
 146:Generated_Source\PSoC6\pdl\drivers\peripheral\gpio/cy_gpio.h **** *   </tr>
 147:Generated_Source\PSoC6\pdl\drivers\peripheral\gpio/cy_gpio.h **** * </table>
 148:Generated_Source\PSoC6\pdl\drivers\peripheral\gpio/cy_gpio.h **** *
 149:Generated_Source\PSoC6\pdl\drivers\peripheral\gpio/cy_gpio.h **** * \defgroup group_gpio_macros Macros
 150:Generated_Source\PSoC6\pdl\drivers\peripheral\gpio/cy_gpio.h **** * \defgroup group_gpio_functions Functions
 151:Generated_Source\PSoC6\pdl\drivers\peripheral\gpio/cy_gpio.h **** * \{
 152:Generated_Source\PSoC6\pdl\drivers\peripheral\gpio/cy_gpio.h **** *   \defgroup group_gpio_functions_init       Initialization Functions
 153:Generated_Source\PSoC6\pdl\drivers\peripheral\gpio/cy_gpio.h **** *   \defgroup group_gpio_functions_gpio       GPIO Functions
 154:Generated_Source\PSoC6\pdl\drivers\peripheral\gpio/cy_gpio.h **** *   \defgroup group_gpio_functions_sio        SIO Functions
 155:Generated_Source\PSoC6\pdl\drivers\peripheral\gpio/cy_gpio.h **** *   \defgroup group_gpio_functions_interrupt  Port Interrupt Functions
 156:Generated_Source\PSoC6\pdl\drivers\peripheral\gpio/cy_gpio.h **** * \}
 157:Generated_Source\PSoC6\pdl\drivers\peripheral\gpio/cy_gpio.h **** * \defgroup group_gpio_data_structures Data Structures
 158:Generated_Source\PSoC6\pdl\drivers\peripheral\gpio/cy_gpio.h **** * \defgroup group_gpio_enums Enumerated Types
 159:Generated_Source\PSoC6\pdl\drivers\peripheral\gpio/cy_gpio.h **** */
 160:Generated_Source\PSoC6\pdl\drivers\peripheral\gpio/cy_gpio.h **** 
 161:Generated_Source\PSoC6\pdl\drivers\peripheral\gpio/cy_gpio.h **** #if !defined(CY_GPIO_H)
 162:Generated_Source\PSoC6\pdl\drivers\peripheral\gpio/cy_gpio.h **** #define CY_GPIO_H
 163:Generated_Source\PSoC6\pdl\drivers\peripheral\gpio/cy_gpio.h **** 
 164:Generated_Source\PSoC6\pdl\drivers\peripheral\gpio/cy_gpio.h **** #include <stddef.h>
 165:Generated_Source\PSoC6\pdl\drivers\peripheral\gpio/cy_gpio.h **** #include "cy_device.h"
 166:Generated_Source\PSoC6\pdl\drivers\peripheral\gpio/cy_gpio.h **** #include "cy_device_headers.h"
 167:Generated_Source\PSoC6\pdl\drivers\peripheral\gpio/cy_gpio.h **** #include "cy_syslib.h"
 168:Generated_Source\PSoC6\pdl\drivers\peripheral\gpio/cy_gpio.h **** 
 169:Generated_Source\PSoC6\pdl\drivers\peripheral\gpio/cy_gpio.h **** #if defined(__cplusplus)
 170:Generated_Source\PSoC6\pdl\drivers\peripheral\gpio/cy_gpio.h **** extern "C" {
 171:Generated_Source\PSoC6\pdl\drivers\peripheral\gpio/cy_gpio.h **** #endif
 172:Generated_Source\PSoC6\pdl\drivers\peripheral\gpio/cy_gpio.h **** 
 173:Generated_Source\PSoC6\pdl\drivers\peripheral\gpio/cy_gpio.h **** /** \addtogroup group_gpio_macros
 174:Generated_Source\PSoC6\pdl\drivers\peripheral\gpio/cy_gpio.h **** * \{
 175:Generated_Source\PSoC6\pdl\drivers\peripheral\gpio/cy_gpio.h **** */
 176:Generated_Source\PSoC6\pdl\drivers\peripheral\gpio/cy_gpio.h **** 
 177:Generated_Source\PSoC6\pdl\drivers\peripheral\gpio/cy_gpio.h **** /** Driver major version */
 178:Generated_Source\PSoC6\pdl\drivers\peripheral\gpio/cy_gpio.h **** #define CY_GPIO_DRV_VERSION_MAJOR       1
 179:Generated_Source\PSoC6\pdl\drivers\peripheral\gpio/cy_gpio.h **** 
 180:Generated_Source\PSoC6\pdl\drivers\peripheral\gpio/cy_gpio.h **** /** Driver minor version */
 181:Generated_Source\PSoC6\pdl\drivers\peripheral\gpio/cy_gpio.h **** #define CY_GPIO_DRV_VERSION_MINOR       20
 182:Generated_Source\PSoC6\pdl\drivers\peripheral\gpio/cy_gpio.h **** 
 183:Generated_Source\PSoC6\pdl\drivers\peripheral\gpio/cy_gpio.h **** /** GPIO driver ID */
 184:Generated_Source\PSoC6\pdl\drivers\peripheral\gpio/cy_gpio.h **** #define CY_GPIO_ID CY_PDL_DRV_ID(0x16U)
 185:Generated_Source\PSoC6\pdl\drivers\peripheral\gpio/cy_gpio.h **** 
 186:Generated_Source\PSoC6\pdl\drivers\peripheral\gpio/cy_gpio.h **** /** \} group_gpio_macros */
 187:Generated_Source\PSoC6\pdl\drivers\peripheral\gpio/cy_gpio.h **** 
 188:Generated_Source\PSoC6\pdl\drivers\peripheral\gpio/cy_gpio.h **** 
 189:Generated_Source\PSoC6\pdl\drivers\peripheral\gpio/cy_gpio.h **** /***************************************
ARM GAS  C:\Users\stijn\AppData\Local\Temp\ccD3lQ9e.s 			page 5


 190:Generated_Source\PSoC6\pdl\drivers\peripheral\gpio/cy_gpio.h **** *       Enumerations
 191:Generated_Source\PSoC6\pdl\drivers\peripheral\gpio/cy_gpio.h **** ***************************************/
 192:Generated_Source\PSoC6\pdl\drivers\peripheral\gpio/cy_gpio.h **** /**
 193:Generated_Source\PSoC6\pdl\drivers\peripheral\gpio/cy_gpio.h **** * \addtogroup group_gpio_enums
 194:Generated_Source\PSoC6\pdl\drivers\peripheral\gpio/cy_gpio.h **** * \{
 195:Generated_Source\PSoC6\pdl\drivers\peripheral\gpio/cy_gpio.h **** */
 196:Generated_Source\PSoC6\pdl\drivers\peripheral\gpio/cy_gpio.h **** 
 197:Generated_Source\PSoC6\pdl\drivers\peripheral\gpio/cy_gpio.h **** /** GPIO Driver error codes */
 198:Generated_Source\PSoC6\pdl\drivers\peripheral\gpio/cy_gpio.h **** typedef enum 
 199:Generated_Source\PSoC6\pdl\drivers\peripheral\gpio/cy_gpio.h **** {
 200:Generated_Source\PSoC6\pdl\drivers\peripheral\gpio/cy_gpio.h ****     CY_GPIO_SUCCESS   = 0x00U,                                    /**< Returned successful */
 201:Generated_Source\PSoC6\pdl\drivers\peripheral\gpio/cy_gpio.h ****     CY_GPIO_BAD_PARAM = CY_GPIO_ID | CY_PDL_STATUS_ERROR | 0x01U, /**< Bad parameter was passed */
 202:Generated_Source\PSoC6\pdl\drivers\peripheral\gpio/cy_gpio.h **** } cy_en_gpio_status_t;
 203:Generated_Source\PSoC6\pdl\drivers\peripheral\gpio/cy_gpio.h **** 
 204:Generated_Source\PSoC6\pdl\drivers\peripheral\gpio/cy_gpio.h **** /** AMux switch open/close config */
 205:Generated_Source\PSoC6\pdl\drivers\peripheral\gpio/cy_gpio.h **** typedef enum
 206:Generated_Source\PSoC6\pdl\drivers\peripheral\gpio/cy_gpio.h **** {
 207:Generated_Source\PSoC6\pdl\drivers\peripheral\gpio/cy_gpio.h ****     CY_GPIO_AMUX_OPENALL,   /**< Open ground switch. Open right switch. Open left switch */
 208:Generated_Source\PSoC6\pdl\drivers\peripheral\gpio/cy_gpio.h ****     CY_GPIO_AMUX_L,         /**< Open ground switch. Open right switch. Close left switch */
 209:Generated_Source\PSoC6\pdl\drivers\peripheral\gpio/cy_gpio.h ****     CY_GPIO_AMUX_R,         /**< Open ground switch. Close right switch. Open left switch */
 210:Generated_Source\PSoC6\pdl\drivers\peripheral\gpio/cy_gpio.h ****     CY_GPIO_AMUX_LR,        /**< Open ground switch. Close right switch. Close left switch */
 211:Generated_Source\PSoC6\pdl\drivers\peripheral\gpio/cy_gpio.h ****     CY_GPIO_AMUX_G,         /**< Close ground switch. Open right switch. Open left switch */
 212:Generated_Source\PSoC6\pdl\drivers\peripheral\gpio/cy_gpio.h ****     CY_GPIO_AMUX_GL,        /**< Close ground switch. Open right switch. Close left switch */
 213:Generated_Source\PSoC6\pdl\drivers\peripheral\gpio/cy_gpio.h ****     CY_GPIO_AMUX_GR,        /**< Close ground switch. Close right switch. Open left switch */
 214:Generated_Source\PSoC6\pdl\drivers\peripheral\gpio/cy_gpio.h ****     CY_GPIO_AMUX_GLR,       /**< Close ground switch. Close right switch. Close left switch */
 215:Generated_Source\PSoC6\pdl\drivers\peripheral\gpio/cy_gpio.h **** }cy_en_gpio_amuxconnect_t;
 216:Generated_Source\PSoC6\pdl\drivers\peripheral\gpio/cy_gpio.h **** 
 217:Generated_Source\PSoC6\pdl\drivers\peripheral\gpio/cy_gpio.h **** /**
 218:Generated_Source\PSoC6\pdl\drivers\peripheral\gpio/cy_gpio.h **** * AMux Bus selection
 219:Generated_Source\PSoC6\pdl\drivers\peripheral\gpio/cy_gpio.h **** */
 220:Generated_Source\PSoC6\pdl\drivers\peripheral\gpio/cy_gpio.h **** typedef enum
 221:Generated_Source\PSoC6\pdl\drivers\peripheral\gpio/cy_gpio.h **** {
 222:Generated_Source\PSoC6\pdl\drivers\peripheral\gpio/cy_gpio.h ****     CY_GPIO_AMUXBUSA,       /**< AMuxBus A */
 223:Generated_Source\PSoC6\pdl\drivers\peripheral\gpio/cy_gpio.h ****     CY_GPIO_AMUXBUSB        /**< AMuxBus B */
 224:Generated_Source\PSoC6\pdl\drivers\peripheral\gpio/cy_gpio.h **** }cy_en_gpio_amuxselect_t;
 225:Generated_Source\PSoC6\pdl\drivers\peripheral\gpio/cy_gpio.h **** 
 226:Generated_Source\PSoC6\pdl\drivers\peripheral\gpio/cy_gpio.h **** /** \} group_gpio_enums */
 227:Generated_Source\PSoC6\pdl\drivers\peripheral\gpio/cy_gpio.h **** 
 228:Generated_Source\PSoC6\pdl\drivers\peripheral\gpio/cy_gpio.h **** 
 229:Generated_Source\PSoC6\pdl\drivers\peripheral\gpio/cy_gpio.h **** /***************************************
 230:Generated_Source\PSoC6\pdl\drivers\peripheral\gpio/cy_gpio.h **** *       Configuration Structures
 231:Generated_Source\PSoC6\pdl\drivers\peripheral\gpio/cy_gpio.h **** ***************************************/
 232:Generated_Source\PSoC6\pdl\drivers\peripheral\gpio/cy_gpio.h **** 
 233:Generated_Source\PSoC6\pdl\drivers\peripheral\gpio/cy_gpio.h **** /**
 234:Generated_Source\PSoC6\pdl\drivers\peripheral\gpio/cy_gpio.h **** * \addtogroup group_gpio_data_structures
 235:Generated_Source\PSoC6\pdl\drivers\peripheral\gpio/cy_gpio.h **** * \{
 236:Generated_Source\PSoC6\pdl\drivers\peripheral\gpio/cy_gpio.h **** */
 237:Generated_Source\PSoC6\pdl\drivers\peripheral\gpio/cy_gpio.h **** 
 238:Generated_Source\PSoC6\pdl\drivers\peripheral\gpio/cy_gpio.h **** /** This structure is used to initialize a port of GPIO pins */
 239:Generated_Source\PSoC6\pdl\drivers\peripheral\gpio/cy_gpio.h **** typedef struct 
 240:Generated_Source\PSoC6\pdl\drivers\peripheral\gpio/cy_gpio.h **** {
 241:Generated_Source\PSoC6\pdl\drivers\peripheral\gpio/cy_gpio.h ****     uint32_t out;           /**< Initial output data for the IO pins in the port */
 242:Generated_Source\PSoC6\pdl\drivers\peripheral\gpio/cy_gpio.h ****     uint32_t intrMask;      /**< Interrupt enable mask for the port interrupt */
 243:Generated_Source\PSoC6\pdl\drivers\peripheral\gpio/cy_gpio.h ****     uint32_t intrCfg;       /**< Port pin interrupt edge detection configuration */
 244:Generated_Source\PSoC6\pdl\drivers\peripheral\gpio/cy_gpio.h ****     uint32_t cfg;           /**< Port pin drive modes and input buffer enable configuration */
 245:Generated_Source\PSoC6\pdl\drivers\peripheral\gpio/cy_gpio.h ****     uint32_t cfgIn;         /**< Port pin input buffer configuration */
 246:Generated_Source\PSoC6\pdl\drivers\peripheral\gpio/cy_gpio.h ****     uint32_t cfgOut;        /**< Port pin output buffer configuration */
ARM GAS  C:\Users\stijn\AppData\Local\Temp\ccD3lQ9e.s 			page 6


 247:Generated_Source\PSoC6\pdl\drivers\peripheral\gpio/cy_gpio.h ****     uint32_t cfgSIO;        /**< Port SIO pins configuration */
 248:Generated_Source\PSoC6\pdl\drivers\peripheral\gpio/cy_gpio.h ****     uint32_t sel0Active;    /**< HSIOM selection for port pins 0,1,2,3 */
 249:Generated_Source\PSoC6\pdl\drivers\peripheral\gpio/cy_gpio.h ****     uint32_t sel1Active;    /**< HSIOM selection for port pins 4,5,6,7 */
 250:Generated_Source\PSoC6\pdl\drivers\peripheral\gpio/cy_gpio.h **** } cy_stc_gpio_prt_config_t;
 251:Generated_Source\PSoC6\pdl\drivers\peripheral\gpio/cy_gpio.h **** 
 252:Generated_Source\PSoC6\pdl\drivers\peripheral\gpio/cy_gpio.h **** /** This structure is used to initialize a single GPIO pin */
 253:Generated_Source\PSoC6\pdl\drivers\peripheral\gpio/cy_gpio.h **** typedef struct
 254:Generated_Source\PSoC6\pdl\drivers\peripheral\gpio/cy_gpio.h **** {
 255:Generated_Source\PSoC6\pdl\drivers\peripheral\gpio/cy_gpio.h ****     uint32_t outVal;         /**< Pin output state */
 256:Generated_Source\PSoC6\pdl\drivers\peripheral\gpio/cy_gpio.h ****     uint32_t driveMode;      /**< Drive mode */
 257:Generated_Source\PSoC6\pdl\drivers\peripheral\gpio/cy_gpio.h ****     en_hsiom_sel_t hsiom;    /**< HSIOM selection */
 258:Generated_Source\PSoC6\pdl\drivers\peripheral\gpio/cy_gpio.h ****     uint32_t intEdge;        /**< Interrupt Edge type */
 259:Generated_Source\PSoC6\pdl\drivers\peripheral\gpio/cy_gpio.h ****     uint32_t intMask;        /**< Interrupt enable mask */
 260:Generated_Source\PSoC6\pdl\drivers\peripheral\gpio/cy_gpio.h ****     uint32_t vtrip;          /**< Input buffer voltage trip type */
 261:Generated_Source\PSoC6\pdl\drivers\peripheral\gpio/cy_gpio.h ****     uint32_t slewRate;       /**< Output buffer slew rate */
 262:Generated_Source\PSoC6\pdl\drivers\peripheral\gpio/cy_gpio.h ****     uint32_t driveSel;       /**< Drive strength */
 263:Generated_Source\PSoC6\pdl\drivers\peripheral\gpio/cy_gpio.h ****     uint32_t vregEn;         /**< SIO pair output buffer mode */
 264:Generated_Source\PSoC6\pdl\drivers\peripheral\gpio/cy_gpio.h ****     uint32_t ibufMode;       /**< SIO pair input buffer mode */
 265:Generated_Source\PSoC6\pdl\drivers\peripheral\gpio/cy_gpio.h ****     uint32_t vtripSel;       /**< SIO pair input buffer trip point */
 266:Generated_Source\PSoC6\pdl\drivers\peripheral\gpio/cy_gpio.h ****     uint32_t vrefSel;        /**< SIO pair reference voltage for input buffer trip point */
 267:Generated_Source\PSoC6\pdl\drivers\peripheral\gpio/cy_gpio.h ****     uint32_t vohSel;         /**< SIO pair regulated voltage output level */
 268:Generated_Source\PSoC6\pdl\drivers\peripheral\gpio/cy_gpio.h **** } cy_stc_gpio_pin_config_t;
 269:Generated_Source\PSoC6\pdl\drivers\peripheral\gpio/cy_gpio.h **** 
 270:Generated_Source\PSoC6\pdl\drivers\peripheral\gpio/cy_gpio.h **** /** \} group_gpio_data_structures */
 271:Generated_Source\PSoC6\pdl\drivers\peripheral\gpio/cy_gpio.h **** 
 272:Generated_Source\PSoC6\pdl\drivers\peripheral\gpio/cy_gpio.h **** /***************************************
 273:Generated_Source\PSoC6\pdl\drivers\peripheral\gpio/cy_gpio.h **** *        Constants
 274:Generated_Source\PSoC6\pdl\drivers\peripheral\gpio/cy_gpio.h **** ***************************************/
 275:Generated_Source\PSoC6\pdl\drivers\peripheral\gpio/cy_gpio.h **** 
 276:Generated_Source\PSoC6\pdl\drivers\peripheral\gpio/cy_gpio.h **** /** \cond INTERNAL */
 277:Generated_Source\PSoC6\pdl\drivers\peripheral\gpio/cy_gpio.h **** 
 278:Generated_Source\PSoC6\pdl\drivers\peripheral\gpio/cy_gpio.h **** /* General Constants */
 279:Generated_Source\PSoC6\pdl\drivers\peripheral\gpio/cy_gpio.h **** #define CY_GPIO_PRT_HALF                       (4UL)      /**< Half-way point of a GPIO port */
 280:Generated_Source\PSoC6\pdl\drivers\peripheral\gpio/cy_gpio.h **** #define CY_GPIO_PRT_DEINIT                     (0UL)      /**< De-init value for port registers */
 281:Generated_Source\PSoC6\pdl\drivers\peripheral\gpio/cy_gpio.h **** 
 282:Generated_Source\PSoC6\pdl\drivers\peripheral\gpio/cy_gpio.h **** /* GPIO Masks */
 283:Generated_Source\PSoC6\pdl\drivers\peripheral\gpio/cy_gpio.h **** #define CY_GPIO_HSIOM_MASK                     (0x1FUL)   /**< HSIOM selection mask */
 284:Generated_Source\PSoC6\pdl\drivers\peripheral\gpio/cy_gpio.h **** #define CY_GPIO_OUT_MASK                       (0x01UL)   /**< Single pin mask for OUT register */
 285:Generated_Source\PSoC6\pdl\drivers\peripheral\gpio/cy_gpio.h **** #define CY_GPIO_IN_MASK                        (0x01UL)   /**< Single pin mask for IN register */
 286:Generated_Source\PSoC6\pdl\drivers\peripheral\gpio/cy_gpio.h **** #define CY_GPIO_CFG_DM_MASK                    (0x0FUL)   /**< Single pin mask for drive mode in CF
 287:Generated_Source\PSoC6\pdl\drivers\peripheral\gpio/cy_gpio.h **** #define CY_GPIO_CFG_IN_VTRIP_SEL_MASK          (0x01UL)   /**< Single pin mask for VTRIP selection 
 288:Generated_Source\PSoC6\pdl\drivers\peripheral\gpio/cy_gpio.h **** #define CY_GPIO_CFG_OUT_SLOW_MASK              (0x01UL)   /**< Single pin mask for slew rate in CFG
 289:Generated_Source\PSoC6\pdl\drivers\peripheral\gpio/cy_gpio.h **** #define CY_GPIO_CFG_OUT_DRIVE_SEL_MASK         (0x03UL)   /**< Single pin mask for drive strength i
 290:Generated_Source\PSoC6\pdl\drivers\peripheral\gpio/cy_gpio.h **** #define CY_GPIO_INTR_STATUS_MASK               (0x01UL)   /**< Single pin mask for interrupt status
 291:Generated_Source\PSoC6\pdl\drivers\peripheral\gpio/cy_gpio.h **** #define CY_GPIO_INTR_EN_MASK                   (0x01UL)   /**< Single pin mask for interrupt status
 292:Generated_Source\PSoC6\pdl\drivers\peripheral\gpio/cy_gpio.h **** #define CY_GPIO_INTR_MASKED_MASK               (0x01UL)   /**< Single pin mask for masked interrupt
 293:Generated_Source\PSoC6\pdl\drivers\peripheral\gpio/cy_gpio.h **** #define CY_GPIO_INTR_SET_MASK                  (0x01UL)   /**< Single pin mask for setting the inte
 294:Generated_Source\PSoC6\pdl\drivers\peripheral\gpio/cy_gpio.h **** #define CY_GPIO_INTR_EDGE_MASK                 (0x03UL)   /**< Single pin mask for interrupt edge t
 295:Generated_Source\PSoC6\pdl\drivers\peripheral\gpio/cy_gpio.h **** #define CY_GPIO_INTR_FLT_EDGE_MASK             (0x07UL)   /**< Single pin mask for setting filtered
 296:Generated_Source\PSoC6\pdl\drivers\peripheral\gpio/cy_gpio.h **** 
 297:Generated_Source\PSoC6\pdl\drivers\peripheral\gpio/cy_gpio.h **** /* SIO Masks */
 298:Generated_Source\PSoC6\pdl\drivers\peripheral\gpio/cy_gpio.h **** #define CY_GPIO_VREG_EN_MASK                   (0x01UL)   /**< Single SIO pin mask for voltage regu
 299:Generated_Source\PSoC6\pdl\drivers\peripheral\gpio/cy_gpio.h **** #define CY_GPIO_IBUF_MASK                      (0x01UL)   /**< Single SIO pin mask for input buffer
 300:Generated_Source\PSoC6\pdl\drivers\peripheral\gpio/cy_gpio.h **** #define CY_GPIO_IBUF_SHIFT                     (0x01UL)   /**< Single SIO pin shift for input buffe
 301:Generated_Source\PSoC6\pdl\drivers\peripheral\gpio/cy_gpio.h **** #define CY_GPIO_VTRIP_SEL_MASK                 (0x01UL)   /**< Single SIO pin mask for the input bu
 302:Generated_Source\PSoC6\pdl\drivers\peripheral\gpio/cy_gpio.h **** #define CY_GPIO_VTRIP_SEL_SHIFT                (0x02UL)   /**< Single SIO pin shift for the input b
 303:Generated_Source\PSoC6\pdl\drivers\peripheral\gpio/cy_gpio.h **** #define CY_GPIO_VREF_SEL_MASK                  (0x03UL)   /**< Single SIO pin mask for voltage refe
ARM GAS  C:\Users\stijn\AppData\Local\Temp\ccD3lQ9e.s 			page 7


 304:Generated_Source\PSoC6\pdl\drivers\peripheral\gpio/cy_gpio.h **** #define CY_GPIO_VREF_SEL_SHIFT                 (0x03UL)   /**< Single SIO pin shift for voltage ref
 305:Generated_Source\PSoC6\pdl\drivers\peripheral\gpio/cy_gpio.h **** #define CY_GPIO_VOH_SEL_MASK                   (0x07UL)   /**< Single SIO pin mask for VOH */
 306:Generated_Source\PSoC6\pdl\drivers\peripheral\gpio/cy_gpio.h **** #define CY_GPIO_VOH_SEL_SHIFT                  (0x05UL)   /**< Single SIO pin shift for VOH */
 307:Generated_Source\PSoC6\pdl\drivers\peripheral\gpio/cy_gpio.h **** 
 308:Generated_Source\PSoC6\pdl\drivers\peripheral\gpio/cy_gpio.h **** /* Special mask for SIO pin pair setting */
 309:Generated_Source\PSoC6\pdl\drivers\peripheral\gpio/cy_gpio.h **** #define CY_GPIO_SIO_ODD_PIN_MASK               (0x00FEUL) /**< SIO pin pair selection mask */
 310:Generated_Source\PSoC6\pdl\drivers\peripheral\gpio/cy_gpio.h **** #define CY_GPIO_SIO_PIN_MASK                   (0x00FFUL) /**< SIO pin pair mask */
 311:Generated_Source\PSoC6\pdl\drivers\peripheral\gpio/cy_gpio.h **** 
 312:Generated_Source\PSoC6\pdl\drivers\peripheral\gpio/cy_gpio.h **** /* Offsets */
 313:Generated_Source\PSoC6\pdl\drivers\peripheral\gpio/cy_gpio.h **** #define CY_GPIO_HSIOM_OFFSET                   (3UL)      /**< Offset for HSIOM */
 314:Generated_Source\PSoC6\pdl\drivers\peripheral\gpio/cy_gpio.h **** #define CY_GPIO_DRIVE_MODE_OFFSET              (2UL)      /**< Offset for Drive mode */
 315:Generated_Source\PSoC6\pdl\drivers\peripheral\gpio/cy_gpio.h **** #define CY_GPIO_INBUF_OFFSET                   (3UL)      /**< Offset for input buffer */
 316:Generated_Source\PSoC6\pdl\drivers\peripheral\gpio/cy_gpio.h **** #define CY_GPIO_CFG_OUT_DRIVE_OFFSET           (16UL)     /**< Offset for drive strength */
 317:Generated_Source\PSoC6\pdl\drivers\peripheral\gpio/cy_gpio.h **** #define CY_GPIO_INTR_CFG_OFFSET                (1UL)      /**< Offset for interrupt config */
 318:Generated_Source\PSoC6\pdl\drivers\peripheral\gpio/cy_gpio.h **** #define CY_GPIO_INTR_FILT_OFFSET               (18UL)     /**< Offset for filtered interrupt config
 319:Generated_Source\PSoC6\pdl\drivers\peripheral\gpio/cy_gpio.h **** #define CY_GPIO_CFG_SIO_OFFSET                 (2UL)      /**< Offset for SIO config */
 320:Generated_Source\PSoC6\pdl\drivers\peripheral\gpio/cy_gpio.h **** 
 321:Generated_Source\PSoC6\pdl\drivers\peripheral\gpio/cy_gpio.h **** /* Parameter validation constants */
 322:Generated_Source\PSoC6\pdl\drivers\peripheral\gpio/cy_gpio.h **** #define CY_GPIO_PINS_MAX                       (8UL)      /**< Number of pins in the port */
 323:Generated_Source\PSoC6\pdl\drivers\peripheral\gpio/cy_gpio.h **** #define CY_GPIO_PRT_PINS_MASK                  (0x0000000FFUL)
 324:Generated_Source\PSoC6\pdl\drivers\peripheral\gpio/cy_gpio.h **** #define CY_GPIO_PRT_INTR_CFG_EDGE_SEL_MASK     (GPIO_PRT_INTR_CFG_EDGE0_SEL_Msk | \
 325:Generated_Source\PSoC6\pdl\drivers\peripheral\gpio/cy_gpio.h ****                                                 GPIO_PRT_INTR_CFG_EDGE1_SEL_Msk | \
 326:Generated_Source\PSoC6\pdl\drivers\peripheral\gpio/cy_gpio.h ****                                                 GPIO_PRT_INTR_CFG_EDGE2_SEL_Msk | \
 327:Generated_Source\PSoC6\pdl\drivers\peripheral\gpio/cy_gpio.h ****                                                 GPIO_PRT_INTR_CFG_EDGE3_SEL_Msk | \
 328:Generated_Source\PSoC6\pdl\drivers\peripheral\gpio/cy_gpio.h ****                                                 GPIO_PRT_INTR_CFG_EDGE4_SEL_Msk | \
 329:Generated_Source\PSoC6\pdl\drivers\peripheral\gpio/cy_gpio.h ****                                                 GPIO_PRT_INTR_CFG_EDGE5_SEL_Msk | \
 330:Generated_Source\PSoC6\pdl\drivers\peripheral\gpio/cy_gpio.h ****                                                 GPIO_PRT_INTR_CFG_EDGE6_SEL_Msk | \
 331:Generated_Source\PSoC6\pdl\drivers\peripheral\gpio/cy_gpio.h ****                                                 GPIO_PRT_INTR_CFG_EDGE7_SEL_Msk)
 332:Generated_Source\PSoC6\pdl\drivers\peripheral\gpio/cy_gpio.h **** #define CY_GPIO_PRT_INTR_CFG_RANGE_MASK        (CY_GPIO_PRT_INTR_CFG_EDGE_SEL_MASK | \
 333:Generated_Source\PSoC6\pdl\drivers\peripheral\gpio/cy_gpio.h ****                                                 GPIO_PRT_INTR_CFG_FLT_EDGE_SEL_Msk | \
 334:Generated_Source\PSoC6\pdl\drivers\peripheral\gpio/cy_gpio.h ****                                                 GPIO_PRT_INTR_CFG_FLT_SEL_Msk)
 335:Generated_Source\PSoC6\pdl\drivers\peripheral\gpio/cy_gpio.h **** #define CY_GPIO_PRT_INT_MASK_MASK              (0x0000001FFUL)
 336:Generated_Source\PSoC6\pdl\drivers\peripheral\gpio/cy_gpio.h **** #define CY_GPIO_PRT_SEL_ACTIVE_MASK            (0x1FFFFFFFUL)
 337:Generated_Source\PSoC6\pdl\drivers\peripheral\gpio/cy_gpio.h **** 
 338:Generated_Source\PSoC6\pdl\drivers\peripheral\gpio/cy_gpio.h **** #define GPIO_MAX_SPLIT_CELL_SEGMENTS           (9U)
 339:Generated_Source\PSoC6\pdl\drivers\peripheral\gpio/cy_gpio.h **** 
 340:Generated_Source\PSoC6\pdl\drivers\peripheral\gpio/cy_gpio.h **** /* Parameter validation macros */
 341:Generated_Source\PSoC6\pdl\drivers\peripheral\gpio/cy_gpio.h **** #define CY_GPIO_IS_PIN_VALID(pinNum)           (CY_GPIO_PINS_MAX > (pinNum))
 342:Generated_Source\PSoC6\pdl\drivers\peripheral\gpio/cy_gpio.h **** #define CY_GPIO_IS_FILTER_PIN_VALID(pinNum)    (CY_GPIO_PINS_MAX >= (pinNum))
 343:Generated_Source\PSoC6\pdl\drivers\peripheral\gpio/cy_gpio.h **** #define CY_GPIO_IS_VALUE_VALID(outVal)         (1UL >= (outVal))
 344:Generated_Source\PSoC6\pdl\drivers\peripheral\gpio/cy_gpio.h **** #define CY_GPIO_IS_DM_VALID(driveMode)         (0U == ((driveMode) & (uint32_t)~CY_GPIO_CFG_DM_MASK
 345:Generated_Source\PSoC6\pdl\drivers\peripheral\gpio/cy_gpio.h **** 
 346:Generated_Source\PSoC6\pdl\drivers\peripheral\gpio/cy_gpio.h **** #define CY_GPIO_IS_HSIOM_VALID(hsiom)          (0U == ((hsiom) & (uint32_t)~CY_GPIO_HSIOM_MASK))
 347:Generated_Source\PSoC6\pdl\drivers\peripheral\gpio/cy_gpio.h **** 
 348:Generated_Source\PSoC6\pdl\drivers\peripheral\gpio/cy_gpio.h **** #define CY_GPIO_IS_INT_EDGE_VALID(intEdge)     ((CY_GPIO_INTR_DISABLE  == (intEdge)) || \
 349:Generated_Source\PSoC6\pdl\drivers\peripheral\gpio/cy_gpio.h ****                                                 (CY_GPIO_INTR_RISING   == (intEdge)) || \
 350:Generated_Source\PSoC6\pdl\drivers\peripheral\gpio/cy_gpio.h ****                                                 (CY_GPIO_INTR_FALLING  == (intEdge)) || \
 351:Generated_Source\PSoC6\pdl\drivers\peripheral\gpio/cy_gpio.h ****                                                 (CY_GPIO_INTR_BOTH     == (intEdge)))
 352:Generated_Source\PSoC6\pdl\drivers\peripheral\gpio/cy_gpio.h **** 
 353:Generated_Source\PSoC6\pdl\drivers\peripheral\gpio/cy_gpio.h **** #define CY_GPIO_IS_DRIVE_SEL_VALID(driveSel)   ((CY_GPIO_DRIVE_FULL    == (driveSel)) || \
 354:Generated_Source\PSoC6\pdl\drivers\peripheral\gpio/cy_gpio.h ****                                                 (CY_GPIO_DRIVE_1_2     == (driveSel)) || \
 355:Generated_Source\PSoC6\pdl\drivers\peripheral\gpio/cy_gpio.h ****                                                 (CY_GPIO_DRIVE_1_4     == (driveSel)) || \
 356:Generated_Source\PSoC6\pdl\drivers\peripheral\gpio/cy_gpio.h ****                                                 (CY_GPIO_DRIVE_1_8     == (driveSel)))
 357:Generated_Source\PSoC6\pdl\drivers\peripheral\gpio/cy_gpio.h **** 
 358:Generated_Source\PSoC6\pdl\drivers\peripheral\gpio/cy_gpio.h **** #define CY_GPIO_IS_VREF_SEL_VALID(vrefSel)     ((CY_SIO_VREF_PINREF    == (vrefSel)) || \
 359:Generated_Source\PSoC6\pdl\drivers\peripheral\gpio/cy_gpio.h ****                                                 (CY_SIO_VREF_1_2V      == (vrefSel)) || \
 360:Generated_Source\PSoC6\pdl\drivers\peripheral\gpio/cy_gpio.h ****                                                 (CY_SIO_VREF_AMUX_A    == (vrefSel)) || \
ARM GAS  C:\Users\stijn\AppData\Local\Temp\ccD3lQ9e.s 			page 8


 361:Generated_Source\PSoC6\pdl\drivers\peripheral\gpio/cy_gpio.h ****                                                 (CY_SIO_VREF_AMUX_B    == (vrefSel)))
 362:Generated_Source\PSoC6\pdl\drivers\peripheral\gpio/cy_gpio.h **** 
 363:Generated_Source\PSoC6\pdl\drivers\peripheral\gpio/cy_gpio.h **** #define CY_GPIO_IS_VOH_SEL_VALID(vrefSel)      ((CY_SIO_VOH_1_00       == (vrefSel)) || \
 364:Generated_Source\PSoC6\pdl\drivers\peripheral\gpio/cy_gpio.h ****                                                 (CY_SIO_VOH_1_25       == (vrefSel)) || \
 365:Generated_Source\PSoC6\pdl\drivers\peripheral\gpio/cy_gpio.h ****                                                 (CY_SIO_VOH_1_49       == (vrefSel)) || \
 366:Generated_Source\PSoC6\pdl\drivers\peripheral\gpio/cy_gpio.h ****                                                 (CY_SIO_VOH_1_67       == (vrefSel)) || \
 367:Generated_Source\PSoC6\pdl\drivers\peripheral\gpio/cy_gpio.h ****                                                 (CY_SIO_VOH_2_08       == (vrefSel)) || \
 368:Generated_Source\PSoC6\pdl\drivers\peripheral\gpio/cy_gpio.h ****                                                 (CY_SIO_VOH_2_50       == (vrefSel)) || \
 369:Generated_Source\PSoC6\pdl\drivers\peripheral\gpio/cy_gpio.h ****                                                 (CY_SIO_VOH_2_78       == (vrefSel)) || \
 370:Generated_Source\PSoC6\pdl\drivers\peripheral\gpio/cy_gpio.h ****                                                 (CY_SIO_VOH_4_16       == (vrefSel)))
 371:Generated_Source\PSoC6\pdl\drivers\peripheral\gpio/cy_gpio.h ****                    
 372:Generated_Source\PSoC6\pdl\drivers\peripheral\gpio/cy_gpio.h **** #define CY_GPIO_IS_PIN_BIT_VALID(pinBit)       (0U == ((pinBit) & (uint32_t)~CY_GPIO_PRT_PINS_MASK)
 373:Generated_Source\PSoC6\pdl\drivers\peripheral\gpio/cy_gpio.h **** #define CY_GPIO_IS_INTR_CFG_VALID(intrCfg)     (0U == ((intrCfg) & (uint32_t)~CY_GPIO_PRT_INTR_CFG_
 374:Generated_Source\PSoC6\pdl\drivers\peripheral\gpio/cy_gpio.h **** #define CY_GPIO_IS_INTR_MASK_VALID(intrMask)   (0U == ((intrMask) & (uint32_t)~CY_GPIO_PRT_INT_MASK
 375:Generated_Source\PSoC6\pdl\drivers\peripheral\gpio/cy_gpio.h **** #define CY_GPIO_IS_SEL_ACT_VALID(selActive)    (0U == ((selActive) & (uint32_t)~CY_GPIO_PRT_SEL_ACT
 376:Generated_Source\PSoC6\pdl\drivers\peripheral\gpio/cy_gpio.h **** 
 377:Generated_Source\PSoC6\pdl\drivers\peripheral\gpio/cy_gpio.h **** #define CY_GPIO_IS_AMUX_SPLIT_VALID(switchCtrl)       (((uint32_t) (switchCtrl)) < GPIO_MAX_SPLIT_C
 378:Generated_Source\PSoC6\pdl\drivers\peripheral\gpio/cy_gpio.h **** 
 379:Generated_Source\PSoC6\pdl\drivers\peripheral\gpio/cy_gpio.h **** #define CY_GPIO_IS_AMUX_CONNECT_VALID(amuxConnect)    ((CY_GPIO_AMUX_OPENALL == (amuxConnect)) || \
 380:Generated_Source\PSoC6\pdl\drivers\peripheral\gpio/cy_gpio.h ****                                                        (CY_GPIO_AMUX_L       == (amuxConnect)) || \
 381:Generated_Source\PSoC6\pdl\drivers\peripheral\gpio/cy_gpio.h ****                                                        (CY_GPIO_AMUX_R       == (amuxConnect)) || \
 382:Generated_Source\PSoC6\pdl\drivers\peripheral\gpio/cy_gpio.h ****                                                        (CY_GPIO_AMUX_LR      == (amuxConnect)) || \
 383:Generated_Source\PSoC6\pdl\drivers\peripheral\gpio/cy_gpio.h ****                                                        (CY_GPIO_AMUX_G       == (amuxConnect)) || \
 384:Generated_Source\PSoC6\pdl\drivers\peripheral\gpio/cy_gpio.h ****                                                        (CY_GPIO_AMUX_GL      == (amuxConnect)) || \
 385:Generated_Source\PSoC6\pdl\drivers\peripheral\gpio/cy_gpio.h ****                                                        (CY_GPIO_AMUX_GR      == (amuxConnect)) || \
 386:Generated_Source\PSoC6\pdl\drivers\peripheral\gpio/cy_gpio.h ****                                                        (CY_GPIO_AMUX_GLR     == (amuxConnect)))
 387:Generated_Source\PSoC6\pdl\drivers\peripheral\gpio/cy_gpio.h **** 
 388:Generated_Source\PSoC6\pdl\drivers\peripheral\gpio/cy_gpio.h **** #define CY_GPIO_IS_AMUX_SELECT_VALID(amuxBus)       ((CY_GPIO_AMUXBUSA       == (amuxBus)) || \
 389:Generated_Source\PSoC6\pdl\drivers\peripheral\gpio/cy_gpio.h ****                                                      (CY_GPIO_AMUXBUSB       == (amuxBus)))
 390:Generated_Source\PSoC6\pdl\drivers\peripheral\gpio/cy_gpio.h **** /** \endcond */
 391:Generated_Source\PSoC6\pdl\drivers\peripheral\gpio/cy_gpio.h **** 
 392:Generated_Source\PSoC6\pdl\drivers\peripheral\gpio/cy_gpio.h **** 
 393:Generated_Source\PSoC6\pdl\drivers\peripheral\gpio/cy_gpio.h **** /***************************************
 394:Generated_Source\PSoC6\pdl\drivers\peripheral\gpio/cy_gpio.h **** *        Function Constants
 395:Generated_Source\PSoC6\pdl\drivers\peripheral\gpio/cy_gpio.h **** ***************************************/
 396:Generated_Source\PSoC6\pdl\drivers\peripheral\gpio/cy_gpio.h **** 
 397:Generated_Source\PSoC6\pdl\drivers\peripheral\gpio/cy_gpio.h **** /**
 398:Generated_Source\PSoC6\pdl\drivers\peripheral\gpio/cy_gpio.h **** * \addtogroup group_gpio_macros
 399:Generated_Source\PSoC6\pdl\drivers\peripheral\gpio/cy_gpio.h **** * \{
 400:Generated_Source\PSoC6\pdl\drivers\peripheral\gpio/cy_gpio.h **** */
 401:Generated_Source\PSoC6\pdl\drivers\peripheral\gpio/cy_gpio.h **** 
 402:Generated_Source\PSoC6\pdl\drivers\peripheral\gpio/cy_gpio.h **** /**
 403:Generated_Source\PSoC6\pdl\drivers\peripheral\gpio/cy_gpio.h **** * \defgroup group_gpio_driveModes Pin drive mode
 404:Generated_Source\PSoC6\pdl\drivers\peripheral\gpio/cy_gpio.h **** * \{
 405:Generated_Source\PSoC6\pdl\drivers\peripheral\gpio/cy_gpio.h **** * Constants to be used for setting the drive mode of the pin.
 406:Generated_Source\PSoC6\pdl\drivers\peripheral\gpio/cy_gpio.h **** */
 407:Generated_Source\PSoC6\pdl\drivers\peripheral\gpio/cy_gpio.h **** #define CY_GPIO_DM_ANALOG                      (0x00UL) /**< Analog High-Z. Input buffer off */
 408:Generated_Source\PSoC6\pdl\drivers\peripheral\gpio/cy_gpio.h **** #define CY_GPIO_DM_PULLUP_IN_OFF               (0x02UL) /**< Resistive Pull-Up. Input buffer off */
 409:Generated_Source\PSoC6\pdl\drivers\peripheral\gpio/cy_gpio.h **** #define CY_GPIO_DM_PULLDOWN_IN_OFF             (0x03UL) /**< Resistive Pull-Down. Input buffer off 
 410:Generated_Source\PSoC6\pdl\drivers\peripheral\gpio/cy_gpio.h **** #define CY_GPIO_DM_OD_DRIVESLOW_IN_OFF         (0x04UL) /**< Open Drain, Drives Low. Input buffer o
 411:Generated_Source\PSoC6\pdl\drivers\peripheral\gpio/cy_gpio.h **** #define CY_GPIO_DM_OD_DRIVESHIGH_IN_OFF        (0x05UL) /**< Open Drain, Drives High. Input buffer 
 412:Generated_Source\PSoC6\pdl\drivers\peripheral\gpio/cy_gpio.h **** #define CY_GPIO_DM_STRONG_IN_OFF               (0x06UL) /**< Strong Drive. Input buffer off */
 413:Generated_Source\PSoC6\pdl\drivers\peripheral\gpio/cy_gpio.h **** #define CY_GPIO_DM_PULLUP_DOWN_IN_OFF          (0x07UL) /**< Resistive Pull-Up/Down. Input buffer o
 414:Generated_Source\PSoC6\pdl\drivers\peripheral\gpio/cy_gpio.h **** #define CY_GPIO_DM_HIGHZ                       (0x08UL) /**< Digital High-Z. Input buffer on */
 415:Generated_Source\PSoC6\pdl\drivers\peripheral\gpio/cy_gpio.h **** #define CY_GPIO_DM_PULLUP                      (0x0AUL) /**< Resistive Pull-Up. Input buffer on */
 416:Generated_Source\PSoC6\pdl\drivers\peripheral\gpio/cy_gpio.h **** #define CY_GPIO_DM_PULLDOWN                    (0x0BUL) /**< Resistive Pull-Down. Input buffer on *
 417:Generated_Source\PSoC6\pdl\drivers\peripheral\gpio/cy_gpio.h **** #define CY_GPIO_DM_OD_DRIVESLOW                (0x0CUL) /**< Open Drain, Drives Low. Input buffer o
ARM GAS  C:\Users\stijn\AppData\Local\Temp\ccD3lQ9e.s 			page 9


 418:Generated_Source\PSoC6\pdl\drivers\peripheral\gpio/cy_gpio.h **** #define CY_GPIO_DM_OD_DRIVESHIGH               (0x0DUL) /**< Open Drain, Drives High. Input buffer 
 419:Generated_Source\PSoC6\pdl\drivers\peripheral\gpio/cy_gpio.h **** #define CY_GPIO_DM_STRONG                      (0x0EUL) /**< Strong Drive. Input buffer on */
 420:Generated_Source\PSoC6\pdl\drivers\peripheral\gpio/cy_gpio.h **** #define CY_GPIO_DM_PULLUP_DOWN                 (0x0FUL) /**< Resistive Pull-Up/Down. Input buffer o
 421:Generated_Source\PSoC6\pdl\drivers\peripheral\gpio/cy_gpio.h **** /** \} */
 422:Generated_Source\PSoC6\pdl\drivers\peripheral\gpio/cy_gpio.h **** 
 423:Generated_Source\PSoC6\pdl\drivers\peripheral\gpio/cy_gpio.h **** /**
 424:Generated_Source\PSoC6\pdl\drivers\peripheral\gpio/cy_gpio.h **** * \defgroup group_gpio_vtrip Voltage trip mode
 425:Generated_Source\PSoC6\pdl\drivers\peripheral\gpio/cy_gpio.h **** * \{
 426:Generated_Source\PSoC6\pdl\drivers\peripheral\gpio/cy_gpio.h **** * Constants to be used for setting the voltage trip type on the pin.
 427:Generated_Source\PSoC6\pdl\drivers\peripheral\gpio/cy_gpio.h **** */
 428:Generated_Source\PSoC6\pdl\drivers\peripheral\gpio/cy_gpio.h **** #define CY_GPIO_VTRIP_CMOS                     (0x00UL) /**< Input buffer compatible with CMOS and 
 429:Generated_Source\PSoC6\pdl\drivers\peripheral\gpio/cy_gpio.h **** #define CY_GPIO_VTRIP_TTL                      (0x01UL) /**< Input buffer compatible with TTL and M
 430:Generated_Source\PSoC6\pdl\drivers\peripheral\gpio/cy_gpio.h **** /** \} */
 431:Generated_Source\PSoC6\pdl\drivers\peripheral\gpio/cy_gpio.h **** 
 432:Generated_Source\PSoC6\pdl\drivers\peripheral\gpio/cy_gpio.h **** /**
 433:Generated_Source\PSoC6\pdl\drivers\peripheral\gpio/cy_gpio.h **** * \defgroup group_gpio_slewRate Slew Rate Mode
 434:Generated_Source\PSoC6\pdl\drivers\peripheral\gpio/cy_gpio.h **** * \{
 435:Generated_Source\PSoC6\pdl\drivers\peripheral\gpio/cy_gpio.h **** * Constants to be used for setting the slew rate of the pin.
 436:Generated_Source\PSoC6\pdl\drivers\peripheral\gpio/cy_gpio.h **** */
 437:Generated_Source\PSoC6\pdl\drivers\peripheral\gpio/cy_gpio.h **** #define CY_GPIO_SLEW_FAST                      (0x00UL) /**< Fast slew rate */
 438:Generated_Source\PSoC6\pdl\drivers\peripheral\gpio/cy_gpio.h **** #define CY_GPIO_SLEW_SLOW                      (0x01UL) /**< Slow slew rate */
 439:Generated_Source\PSoC6\pdl\drivers\peripheral\gpio/cy_gpio.h **** /** \} */
 440:Generated_Source\PSoC6\pdl\drivers\peripheral\gpio/cy_gpio.h **** 
 441:Generated_Source\PSoC6\pdl\drivers\peripheral\gpio/cy_gpio.h **** /**
 442:Generated_Source\PSoC6\pdl\drivers\peripheral\gpio/cy_gpio.h **** * \defgroup group_gpio_driveStrength Pin drive strength
 443:Generated_Source\PSoC6\pdl\drivers\peripheral\gpio/cy_gpio.h **** * \{
 444:Generated_Source\PSoC6\pdl\drivers\peripheral\gpio/cy_gpio.h **** * Constants to be used for setting the drive strength of the pin.
 445:Generated_Source\PSoC6\pdl\drivers\peripheral\gpio/cy_gpio.h **** */
 446:Generated_Source\PSoC6\pdl\drivers\peripheral\gpio/cy_gpio.h **** #define CY_GPIO_DRIVE_FULL                     (0x00UL) /**< Full drive strength: Max drive current
 447:Generated_Source\PSoC6\pdl\drivers\peripheral\gpio/cy_gpio.h **** #define CY_GPIO_DRIVE_1_2                      (0x01UL) /**< 1/2 drive strength: 1/2 drive current 
 448:Generated_Source\PSoC6\pdl\drivers\peripheral\gpio/cy_gpio.h **** #define CY_GPIO_DRIVE_1_4                      (0x02UL) /**< 1/4 drive strength: 1/4 drive current 
 449:Generated_Source\PSoC6\pdl\drivers\peripheral\gpio/cy_gpio.h **** #define CY_GPIO_DRIVE_1_8                      (0x03UL) /**< 1/8 drive strength: 1/8 drive current 
 450:Generated_Source\PSoC6\pdl\drivers\peripheral\gpio/cy_gpio.h **** /** \} */
 451:Generated_Source\PSoC6\pdl\drivers\peripheral\gpio/cy_gpio.h **** 
 452:Generated_Source\PSoC6\pdl\drivers\peripheral\gpio/cy_gpio.h **** /**
 453:Generated_Source\PSoC6\pdl\drivers\peripheral\gpio/cy_gpio.h **** * \defgroup group_gpio_interruptTrigger Interrupt trigger type
 454:Generated_Source\PSoC6\pdl\drivers\peripheral\gpio/cy_gpio.h **** * \{
 455:Generated_Source\PSoC6\pdl\drivers\peripheral\gpio/cy_gpio.h **** * Constants to be used for setting the interrupt trigger type on the pin.
 456:Generated_Source\PSoC6\pdl\drivers\peripheral\gpio/cy_gpio.h **** */
 457:Generated_Source\PSoC6\pdl\drivers\peripheral\gpio/cy_gpio.h **** #define CY_GPIO_INTR_DISABLE                   (0x00UL) /**< Disable the pin interrupt generation *
 458:Generated_Source\PSoC6\pdl\drivers\peripheral\gpio/cy_gpio.h **** #define CY_GPIO_INTR_RISING                    (0x01UL) /**< Rising-Edge interrupt */
 459:Generated_Source\PSoC6\pdl\drivers\peripheral\gpio/cy_gpio.h **** #define CY_GPIO_INTR_FALLING                   (0x02UL) /**< Falling-Edge interrupt */
 460:Generated_Source\PSoC6\pdl\drivers\peripheral\gpio/cy_gpio.h **** #define CY_GPIO_INTR_BOTH                      (0x03UL) /**< Both-Edge interrupt */
 461:Generated_Source\PSoC6\pdl\drivers\peripheral\gpio/cy_gpio.h **** /** \} */
 462:Generated_Source\PSoC6\pdl\drivers\peripheral\gpio/cy_gpio.h **** 
 463:Generated_Source\PSoC6\pdl\drivers\peripheral\gpio/cy_gpio.h **** /**
 464:Generated_Source\PSoC6\pdl\drivers\peripheral\gpio/cy_gpio.h **** * \defgroup group_gpio_sioVreg SIO output buffer mode
 465:Generated_Source\PSoC6\pdl\drivers\peripheral\gpio/cy_gpio.h **** * \{
 466:Generated_Source\PSoC6\pdl\drivers\peripheral\gpio/cy_gpio.h **** * Constants to be used for setting the SIO output buffer mode on the pin.
 467:Generated_Source\PSoC6\pdl\drivers\peripheral\gpio/cy_gpio.h **** */
 468:Generated_Source\PSoC6\pdl\drivers\peripheral\gpio/cy_gpio.h **** #define CY_SIO_VREG_UNREGULATED                (0x00UL) /**< Unregulated output buffer */
 469:Generated_Source\PSoC6\pdl\drivers\peripheral\gpio/cy_gpio.h **** #define CY_SIO_VREG_REGULATED                  (0x01UL) /**< Regulated output buffer */
 470:Generated_Source\PSoC6\pdl\drivers\peripheral\gpio/cy_gpio.h **** /** \} */
 471:Generated_Source\PSoC6\pdl\drivers\peripheral\gpio/cy_gpio.h **** 
 472:Generated_Source\PSoC6\pdl\drivers\peripheral\gpio/cy_gpio.h **** /**
 473:Generated_Source\PSoC6\pdl\drivers\peripheral\gpio/cy_gpio.h **** * \defgroup group_gpio_sioIbuf SIO input buffer mode
 474:Generated_Source\PSoC6\pdl\drivers\peripheral\gpio/cy_gpio.h **** * \{
ARM GAS  C:\Users\stijn\AppData\Local\Temp\ccD3lQ9e.s 			page 10


 475:Generated_Source\PSoC6\pdl\drivers\peripheral\gpio/cy_gpio.h **** * Constants to be used for setting the SIO input buffer mode on the pin.
 476:Generated_Source\PSoC6\pdl\drivers\peripheral\gpio/cy_gpio.h **** */
 477:Generated_Source\PSoC6\pdl\drivers\peripheral\gpio/cy_gpio.h **** #define CY_SIO_IBUF_SINGLEENDED                (0x00UL) /**< Single ended input buffer */
 478:Generated_Source\PSoC6\pdl\drivers\peripheral\gpio/cy_gpio.h **** #define CY_SIO_IBUF_DIFFERENTIAL               (0x01UL) /**< Differential input buffer */
 479:Generated_Source\PSoC6\pdl\drivers\peripheral\gpio/cy_gpio.h **** /** \} */
 480:Generated_Source\PSoC6\pdl\drivers\peripheral\gpio/cy_gpio.h **** 
 481:Generated_Source\PSoC6\pdl\drivers\peripheral\gpio/cy_gpio.h **** /**
 482:Generated_Source\PSoC6\pdl\drivers\peripheral\gpio/cy_gpio.h **** * \defgroup group_gpio_sioVtrip SIO input buffer trip-point
 483:Generated_Source\PSoC6\pdl\drivers\peripheral\gpio/cy_gpio.h **** * \{
 484:Generated_Source\PSoC6\pdl\drivers\peripheral\gpio/cy_gpio.h **** * Constants to be used for setting the SIO input buffer trip-point of the pin.
 485:Generated_Source\PSoC6\pdl\drivers\peripheral\gpio/cy_gpio.h **** */
 486:Generated_Source\PSoC6\pdl\drivers\peripheral\gpio/cy_gpio.h **** #define CY_SIO_VTRIP_CMOS                      (0x00UL) /**< CMOS input buffer (single-ended) */
 487:Generated_Source\PSoC6\pdl\drivers\peripheral\gpio/cy_gpio.h **** #define CY_SIO_VTRIP_TTL                       (0x01UL) /**< TTL input buffer (single-ended) */
 488:Generated_Source\PSoC6\pdl\drivers\peripheral\gpio/cy_gpio.h **** #define CY_SIO_VTRIP_0_5VDDIO_0_5VOH           (0x00UL) /**< 0.5xVddio or 0.5xVoh (differential) */
 489:Generated_Source\PSoC6\pdl\drivers\peripheral\gpio/cy_gpio.h **** #define CY_SIO_VTRIP_0_4VDDIO_1_0VREF          (0x01UL) /**< 0.4xVddio or 0.4xVoh (differential) */
 490:Generated_Source\PSoC6\pdl\drivers\peripheral\gpio/cy_gpio.h **** /** \} */
 491:Generated_Source\PSoC6\pdl\drivers\peripheral\gpio/cy_gpio.h **** 
 492:Generated_Source\PSoC6\pdl\drivers\peripheral\gpio/cy_gpio.h **** /**
 493:Generated_Source\PSoC6\pdl\drivers\peripheral\gpio/cy_gpio.h **** * \defgroup group_gpio_sioVref SIO reference voltage for input buffer trip-point
 494:Generated_Source\PSoC6\pdl\drivers\peripheral\gpio/cy_gpio.h **** * \{
 495:Generated_Source\PSoC6\pdl\drivers\peripheral\gpio/cy_gpio.h **** * Constants to be used for setting the reference voltage of SIO input buffer trip-point.
 496:Generated_Source\PSoC6\pdl\drivers\peripheral\gpio/cy_gpio.h **** */
 497:Generated_Source\PSoC6\pdl\drivers\peripheral\gpio/cy_gpio.h **** #define CY_SIO_VREF_PINREF                     (0x00UL) /**< Vref from analog pin */
 498:Generated_Source\PSoC6\pdl\drivers\peripheral\gpio/cy_gpio.h **** #define CY_SIO_VREF_1_2V                       (0x01UL) /**< Vref from internal 1.2V reference */
 499:Generated_Source\PSoC6\pdl\drivers\peripheral\gpio/cy_gpio.h **** #define CY_SIO_VREF_AMUX_A                     (0x02UL) /**< Vref from AMUXBUS_A */
 500:Generated_Source\PSoC6\pdl\drivers\peripheral\gpio/cy_gpio.h **** #define CY_SIO_VREF_AMUX_B                     (0x03UL) /**< Vref from AMUXBUS_B */
 501:Generated_Source\PSoC6\pdl\drivers\peripheral\gpio/cy_gpio.h **** /** \} */
 502:Generated_Source\PSoC6\pdl\drivers\peripheral\gpio/cy_gpio.h **** 
 503:Generated_Source\PSoC6\pdl\drivers\peripheral\gpio/cy_gpio.h **** /**
 504:Generated_Source\PSoC6\pdl\drivers\peripheral\gpio/cy_gpio.h **** * \defgroup group_gpio_sioVoh Regulated output voltage level (Voh) and input buffer trip-point of a
 505:Generated_Source\PSoC6\pdl\drivers\peripheral\gpio/cy_gpio.h **** * \{
 506:Generated_Source\PSoC6\pdl\drivers\peripheral\gpio/cy_gpio.h **** * Constants to be used for setting the Voh and input buffer trip-point of an SIO pair
 507:Generated_Source\PSoC6\pdl\drivers\peripheral\gpio/cy_gpio.h **** */
 508:Generated_Source\PSoC6\pdl\drivers\peripheral\gpio/cy_gpio.h **** #define CY_SIO_VOH_1_00                        (0x00UL) /**< Voh = 1 x Reference */
 509:Generated_Source\PSoC6\pdl\drivers\peripheral\gpio/cy_gpio.h **** #define CY_SIO_VOH_1_25                        (0x01UL) /**< Voh = 1.25 x Reference */
 510:Generated_Source\PSoC6\pdl\drivers\peripheral\gpio/cy_gpio.h **** #define CY_SIO_VOH_1_49                        (0x02UL) /**< Voh = 1.49 x Reference */
 511:Generated_Source\PSoC6\pdl\drivers\peripheral\gpio/cy_gpio.h **** #define CY_SIO_VOH_1_67                        (0x03UL) /**< Voh = 1.67 x Reference */
 512:Generated_Source\PSoC6\pdl\drivers\peripheral\gpio/cy_gpio.h **** #define CY_SIO_VOH_2_08                        (0x04UL) /**< Voh = 2.08 x Reference */
 513:Generated_Source\PSoC6\pdl\drivers\peripheral\gpio/cy_gpio.h **** #define CY_SIO_VOH_2_50                        (0x05UL) /**< Voh = 2.50 x Reference */
 514:Generated_Source\PSoC6\pdl\drivers\peripheral\gpio/cy_gpio.h **** #define CY_SIO_VOH_2_78                        (0x06UL) /**< Voh = 2.78 x Reference */
 515:Generated_Source\PSoC6\pdl\drivers\peripheral\gpio/cy_gpio.h **** #define CY_SIO_VOH_4_16                        (0x07UL) /**< Voh = 4.16 x Reference */
 516:Generated_Source\PSoC6\pdl\drivers\peripheral\gpio/cy_gpio.h **** /** \} */
 517:Generated_Source\PSoC6\pdl\drivers\peripheral\gpio/cy_gpio.h **** 
 518:Generated_Source\PSoC6\pdl\drivers\peripheral\gpio/cy_gpio.h **** /** \} group_gpio_macros */
 519:Generated_Source\PSoC6\pdl\drivers\peripheral\gpio/cy_gpio.h **** 
 520:Generated_Source\PSoC6\pdl\drivers\peripheral\gpio/cy_gpio.h **** /***************************************
 521:Generated_Source\PSoC6\pdl\drivers\peripheral\gpio/cy_gpio.h **** *        Function Prototypes
 522:Generated_Source\PSoC6\pdl\drivers\peripheral\gpio/cy_gpio.h **** ***************************************/
 523:Generated_Source\PSoC6\pdl\drivers\peripheral\gpio/cy_gpio.h **** 
 524:Generated_Source\PSoC6\pdl\drivers\peripheral\gpio/cy_gpio.h **** /**
 525:Generated_Source\PSoC6\pdl\drivers\peripheral\gpio/cy_gpio.h **** * \addtogroup group_gpio_functions
 526:Generated_Source\PSoC6\pdl\drivers\peripheral\gpio/cy_gpio.h **** * \{
 527:Generated_Source\PSoC6\pdl\drivers\peripheral\gpio/cy_gpio.h **** */
 528:Generated_Source\PSoC6\pdl\drivers\peripheral\gpio/cy_gpio.h **** 
 529:Generated_Source\PSoC6\pdl\drivers\peripheral\gpio/cy_gpio.h **** /**
 530:Generated_Source\PSoC6\pdl\drivers\peripheral\gpio/cy_gpio.h **** * \addtogroup group_gpio_functions_init
 531:Generated_Source\PSoC6\pdl\drivers\peripheral\gpio/cy_gpio.h **** * \{
ARM GAS  C:\Users\stijn\AppData\Local\Temp\ccD3lQ9e.s 			page 11


 532:Generated_Source\PSoC6\pdl\drivers\peripheral\gpio/cy_gpio.h **** */
 533:Generated_Source\PSoC6\pdl\drivers\peripheral\gpio/cy_gpio.h **** 
 534:Generated_Source\PSoC6\pdl\drivers\peripheral\gpio/cy_gpio.h **** cy_en_gpio_status_t Cy_GPIO_Pin_Init(GPIO_PRT_Type* base, uint32_t pinNum, const cy_stc_gpio_pin_co
 535:Generated_Source\PSoC6\pdl\drivers\peripheral\gpio/cy_gpio.h **** cy_en_gpio_status_t Cy_GPIO_Port_Init(GPIO_PRT_Type* base, const cy_stc_gpio_prt_config_t *config);
 536:Generated_Source\PSoC6\pdl\drivers\peripheral\gpio/cy_gpio.h **** void Cy_GPIO_Pin_FastInit(GPIO_PRT_Type* base, uint32_t pinNum, uint32_t driveMode, uint32_t outVal
 537:Generated_Source\PSoC6\pdl\drivers\peripheral\gpio/cy_gpio.h **** void Cy_GPIO_Port_Deinit(GPIO_PRT_Type* base);
 538:Generated_Source\PSoC6\pdl\drivers\peripheral\gpio/cy_gpio.h **** __STATIC_INLINE void Cy_GPIO_SetHSIOM(GPIO_PRT_Type* base, uint32_t pinNum, en_hsiom_sel_t value);
 539:Generated_Source\PSoC6\pdl\drivers\peripheral\gpio/cy_gpio.h **** __STATIC_INLINE en_hsiom_sel_t Cy_GPIO_GetHSIOM(GPIO_PRT_Type* base, uint32_t pinNum);
 540:Generated_Source\PSoC6\pdl\drivers\peripheral\gpio/cy_gpio.h **** __STATIC_INLINE GPIO_PRT_Type* Cy_GPIO_PortToAddr(uint32_t portNum);
 541:Generated_Source\PSoC6\pdl\drivers\peripheral\gpio/cy_gpio.h **** 
 542:Generated_Source\PSoC6\pdl\drivers\peripheral\gpio/cy_gpio.h **** /** \} group_gpio_functions_init */
 543:Generated_Source\PSoC6\pdl\drivers\peripheral\gpio/cy_gpio.h **** 
 544:Generated_Source\PSoC6\pdl\drivers\peripheral\gpio/cy_gpio.h **** /**
 545:Generated_Source\PSoC6\pdl\drivers\peripheral\gpio/cy_gpio.h **** * \addtogroup group_gpio_functions_gpio
 546:Generated_Source\PSoC6\pdl\drivers\peripheral\gpio/cy_gpio.h **** * \{
 547:Generated_Source\PSoC6\pdl\drivers\peripheral\gpio/cy_gpio.h **** */
 548:Generated_Source\PSoC6\pdl\drivers\peripheral\gpio/cy_gpio.h **** 
 549:Generated_Source\PSoC6\pdl\drivers\peripheral\gpio/cy_gpio.h **** void Cy_GPIO_SetAmuxSplit(cy_en_amux_split_t switchCtrl, cy_en_gpio_amuxconnect_t amuxConnect, cy_e
 550:Generated_Source\PSoC6\pdl\drivers\peripheral\gpio/cy_gpio.h **** cy_en_gpio_amuxconnect_t Cy_GPIO_GetAmuxSplit(cy_en_amux_split_t switchCtrl, cy_en_gpio_amuxselect_
 551:Generated_Source\PSoC6\pdl\drivers\peripheral\gpio/cy_gpio.h **** 
 552:Generated_Source\PSoC6\pdl\drivers\peripheral\gpio/cy_gpio.h **** __STATIC_INLINE uint32_t Cy_GPIO_Read(GPIO_PRT_Type* base, uint32_t pinNum);
 553:Generated_Source\PSoC6\pdl\drivers\peripheral\gpio/cy_gpio.h **** __STATIC_INLINE void Cy_GPIO_Write(GPIO_PRT_Type* base, uint32_t pinNum, uint32_t value);
 554:Generated_Source\PSoC6\pdl\drivers\peripheral\gpio/cy_gpio.h **** __STATIC_INLINE uint32_t Cy_GPIO_ReadOut(GPIO_PRT_Type* base, uint32_t pinNum);
 555:Generated_Source\PSoC6\pdl\drivers\peripheral\gpio/cy_gpio.h **** __STATIC_INLINE void Cy_GPIO_Set(GPIO_PRT_Type* base, uint32_t pinNum);
 556:Generated_Source\PSoC6\pdl\drivers\peripheral\gpio/cy_gpio.h **** __STATIC_INLINE void Cy_GPIO_Clr(GPIO_PRT_Type* base, uint32_t pinNum);
 557:Generated_Source\PSoC6\pdl\drivers\peripheral\gpio/cy_gpio.h **** __STATIC_INLINE void Cy_GPIO_Inv(GPIO_PRT_Type* base, uint32_t pinNum);
 558:Generated_Source\PSoC6\pdl\drivers\peripheral\gpio/cy_gpio.h **** __STATIC_INLINE void Cy_GPIO_SetDrivemode(GPIO_PRT_Type* base, uint32_t pinNum, uint32_t value);
 559:Generated_Source\PSoC6\pdl\drivers\peripheral\gpio/cy_gpio.h **** __STATIC_INLINE uint32_t Cy_GPIO_GetDrivemode(GPIO_PRT_Type* base, uint32_t pinNum);
 560:Generated_Source\PSoC6\pdl\drivers\peripheral\gpio/cy_gpio.h **** __STATIC_INLINE void Cy_GPIO_SetVtrip(GPIO_PRT_Type* base, uint32_t pinNum, uint32_t value);
 561:Generated_Source\PSoC6\pdl\drivers\peripheral\gpio/cy_gpio.h **** __STATIC_INLINE uint32_t Cy_GPIO_GetVtrip(GPIO_PRT_Type* base, uint32_t pinNum);
 562:Generated_Source\PSoC6\pdl\drivers\peripheral\gpio/cy_gpio.h **** __STATIC_INLINE void Cy_GPIO_SetSlewRate(GPIO_PRT_Type* base, uint32_t pinNum, uint32_t value);
 563:Generated_Source\PSoC6\pdl\drivers\peripheral\gpio/cy_gpio.h **** __STATIC_INLINE uint32_t Cy_GPIO_GetSlewRate(GPIO_PRT_Type* base, uint32_t pinNum);
 564:Generated_Source\PSoC6\pdl\drivers\peripheral\gpio/cy_gpio.h **** __STATIC_INLINE void Cy_GPIO_SetDriveSel(GPIO_PRT_Type* base, uint32_t pinNum, uint32_t value);
 565:Generated_Source\PSoC6\pdl\drivers\peripheral\gpio/cy_gpio.h **** __STATIC_INLINE uint32_t Cy_GPIO_GetDriveSel(GPIO_PRT_Type* base, uint32_t pinNum);
 566:Generated_Source\PSoC6\pdl\drivers\peripheral\gpio/cy_gpio.h **** 
 567:Generated_Source\PSoC6\pdl\drivers\peripheral\gpio/cy_gpio.h **** /** \} group_gpio_functions_gpio */
 568:Generated_Source\PSoC6\pdl\drivers\peripheral\gpio/cy_gpio.h **** 
 569:Generated_Source\PSoC6\pdl\drivers\peripheral\gpio/cy_gpio.h **** /**
 570:Generated_Source\PSoC6\pdl\drivers\peripheral\gpio/cy_gpio.h **** * \addtogroup group_gpio_functions_sio
 571:Generated_Source\PSoC6\pdl\drivers\peripheral\gpio/cy_gpio.h **** * \{
 572:Generated_Source\PSoC6\pdl\drivers\peripheral\gpio/cy_gpio.h **** */
 573:Generated_Source\PSoC6\pdl\drivers\peripheral\gpio/cy_gpio.h **** 
 574:Generated_Source\PSoC6\pdl\drivers\peripheral\gpio/cy_gpio.h **** __STATIC_INLINE void Cy_GPIO_SetVregEn(GPIO_PRT_Type* base, uint32_t pinNum, uint32_t value);
 575:Generated_Source\PSoC6\pdl\drivers\peripheral\gpio/cy_gpio.h **** __STATIC_INLINE uint32_t Cy_GPIO_GetVregEn(GPIO_PRT_Type* base, uint32_t pinNum);
 576:Generated_Source\PSoC6\pdl\drivers\peripheral\gpio/cy_gpio.h **** __STATIC_INLINE void Cy_GPIO_SetIbufMode(GPIO_PRT_Type* base, uint32_t pinNum, uint32_t value);
 577:Generated_Source\PSoC6\pdl\drivers\peripheral\gpio/cy_gpio.h **** __STATIC_INLINE uint32_t Cy_GPIO_GetIbufMode(GPIO_PRT_Type* base, uint32_t pinNum);
 578:Generated_Source\PSoC6\pdl\drivers\peripheral\gpio/cy_gpio.h **** __STATIC_INLINE void Cy_GPIO_SetVtripSel(GPIO_PRT_Type* base, uint32_t pinNum, uint32_t value);
 579:Generated_Source\PSoC6\pdl\drivers\peripheral\gpio/cy_gpio.h **** __STATIC_INLINE uint32_t Cy_GPIO_GetVtripSel(GPIO_PRT_Type* base, uint32_t pinNum);
 580:Generated_Source\PSoC6\pdl\drivers\peripheral\gpio/cy_gpio.h **** __STATIC_INLINE void Cy_GPIO_SetVrefSel(GPIO_PRT_Type* base, uint32_t pinNum, uint32_t value);
 581:Generated_Source\PSoC6\pdl\drivers\peripheral\gpio/cy_gpio.h **** __STATIC_INLINE uint32_t Cy_GPIO_GetVrefSel(GPIO_PRT_Type* base, uint32_t pinNum);
 582:Generated_Source\PSoC6\pdl\drivers\peripheral\gpio/cy_gpio.h **** __STATIC_INLINE void Cy_GPIO_SetVohSel(GPIO_PRT_Type* base, uint32_t pinNum, uint32_t value);
 583:Generated_Source\PSoC6\pdl\drivers\peripheral\gpio/cy_gpio.h **** __STATIC_INLINE uint32_t Cy_GPIO_GetVohSel(GPIO_PRT_Type* base, uint32_t pinNum);
 584:Generated_Source\PSoC6\pdl\drivers\peripheral\gpio/cy_gpio.h **** 
 585:Generated_Source\PSoC6\pdl\drivers\peripheral\gpio/cy_gpio.h **** /** \} group_gpio_functions_sio */
 586:Generated_Source\PSoC6\pdl\drivers\peripheral\gpio/cy_gpio.h **** 
 587:Generated_Source\PSoC6\pdl\drivers\peripheral\gpio/cy_gpio.h **** /**
 588:Generated_Source\PSoC6\pdl\drivers\peripheral\gpio/cy_gpio.h **** * \addtogroup group_gpio_functions_interrupt
ARM GAS  C:\Users\stijn\AppData\Local\Temp\ccD3lQ9e.s 			page 12


 589:Generated_Source\PSoC6\pdl\drivers\peripheral\gpio/cy_gpio.h **** * \{
 590:Generated_Source\PSoC6\pdl\drivers\peripheral\gpio/cy_gpio.h **** */
 591:Generated_Source\PSoC6\pdl\drivers\peripheral\gpio/cy_gpio.h **** 
 592:Generated_Source\PSoC6\pdl\drivers\peripheral\gpio/cy_gpio.h **** __STATIC_INLINE uint32_t Cy_GPIO_GetInterruptStatus(GPIO_PRT_Type* base, uint32_t pinNum);
 593:Generated_Source\PSoC6\pdl\drivers\peripheral\gpio/cy_gpio.h **** __STATIC_INLINE void Cy_GPIO_ClearInterrupt(GPIO_PRT_Type* base, uint32_t pinNum);
 594:Generated_Source\PSoC6\pdl\drivers\peripheral\gpio/cy_gpio.h **** __STATIC_INLINE void Cy_GPIO_SetInterruptMask(GPIO_PRT_Type* base, uint32_t pinNum, uint32_t value)
 595:Generated_Source\PSoC6\pdl\drivers\peripheral\gpio/cy_gpio.h **** __STATIC_INLINE uint32_t Cy_GPIO_GetInterruptMask(GPIO_PRT_Type* base, uint32_t pinNum);
 596:Generated_Source\PSoC6\pdl\drivers\peripheral\gpio/cy_gpio.h **** __STATIC_INLINE uint32_t Cy_GPIO_GetInterruptStatusMasked(GPIO_PRT_Type* base, uint32_t pinNum);
 597:Generated_Source\PSoC6\pdl\drivers\peripheral\gpio/cy_gpio.h **** __STATIC_INLINE void Cy_GPIO_SetSwInterrupt(GPIO_PRT_Type* base, uint32_t pinNum);
 598:Generated_Source\PSoC6\pdl\drivers\peripheral\gpio/cy_gpio.h **** __STATIC_INLINE void Cy_GPIO_SetInterruptEdge(GPIO_PRT_Type* base, uint32_t pinNum, uint32_t value)
 599:Generated_Source\PSoC6\pdl\drivers\peripheral\gpio/cy_gpio.h **** __STATIC_INLINE uint32_t Cy_GPIO_GetInterruptEdge(GPIO_PRT_Type* base, uint32_t pinNum);
 600:Generated_Source\PSoC6\pdl\drivers\peripheral\gpio/cy_gpio.h **** __STATIC_INLINE void Cy_GPIO_SetFilter(GPIO_PRT_Type* base, uint32_t value);
 601:Generated_Source\PSoC6\pdl\drivers\peripheral\gpio/cy_gpio.h **** __STATIC_INLINE uint32_t Cy_GPIO_GetFilter(GPIO_PRT_Type* base);
 602:Generated_Source\PSoC6\pdl\drivers\peripheral\gpio/cy_gpio.h **** 
 603:Generated_Source\PSoC6\pdl\drivers\peripheral\gpio/cy_gpio.h **** __STATIC_INLINE uint32_t Cy_GPIO_GetInterruptCause0(void);
 604:Generated_Source\PSoC6\pdl\drivers\peripheral\gpio/cy_gpio.h **** __STATIC_INLINE uint32_t Cy_GPIO_GetInterruptCause1(void);
 605:Generated_Source\PSoC6\pdl\drivers\peripheral\gpio/cy_gpio.h **** __STATIC_INLINE uint32_t Cy_GPIO_GetInterruptCause2(void);
 606:Generated_Source\PSoC6\pdl\drivers\peripheral\gpio/cy_gpio.h **** __STATIC_INLINE uint32_t Cy_GPIO_GetInterruptCause3(void);
 607:Generated_Source\PSoC6\pdl\drivers\peripheral\gpio/cy_gpio.h **** 
 608:Generated_Source\PSoC6\pdl\drivers\peripheral\gpio/cy_gpio.h **** /** \} group_gpio_functions_interrupt */
 609:Generated_Source\PSoC6\pdl\drivers\peripheral\gpio/cy_gpio.h **** 
 610:Generated_Source\PSoC6\pdl\drivers\peripheral\gpio/cy_gpio.h **** 
 611:Generated_Source\PSoC6\pdl\drivers\peripheral\gpio/cy_gpio.h **** /**
 612:Generated_Source\PSoC6\pdl\drivers\peripheral\gpio/cy_gpio.h **** * \addtogroup group_gpio_functions_init
 613:Generated_Source\PSoC6\pdl\drivers\peripheral\gpio/cy_gpio.h **** * \{
 614:Generated_Source\PSoC6\pdl\drivers\peripheral\gpio/cy_gpio.h **** */
 615:Generated_Source\PSoC6\pdl\drivers\peripheral\gpio/cy_gpio.h **** 
 616:Generated_Source\PSoC6\pdl\drivers\peripheral\gpio/cy_gpio.h **** /*******************************************************************************
 617:Generated_Source\PSoC6\pdl\drivers\peripheral\gpio/cy_gpio.h **** * Function Name: Cy_GPIO_SetHSIOM
 618:Generated_Source\PSoC6\pdl\drivers\peripheral\gpio/cy_gpio.h **** ****************************************************************************//**
 619:Generated_Source\PSoC6\pdl\drivers\peripheral\gpio/cy_gpio.h **** *
 620:Generated_Source\PSoC6\pdl\drivers\peripheral\gpio/cy_gpio.h **** * Configures the HSIOM connection to the pin.
 621:Generated_Source\PSoC6\pdl\drivers\peripheral\gpio/cy_gpio.h **** *
 622:Generated_Source\PSoC6\pdl\drivers\peripheral\gpio/cy_gpio.h **** * Connects the specified High-Speed Input Output Multiplexer (HSIOM) selection
 623:Generated_Source\PSoC6\pdl\drivers\peripheral\gpio/cy_gpio.h **** * to the pin.
 624:Generated_Source\PSoC6\pdl\drivers\peripheral\gpio/cy_gpio.h **** *
 625:Generated_Source\PSoC6\pdl\drivers\peripheral\gpio/cy_gpio.h **** * \param base
 626:Generated_Source\PSoC6\pdl\drivers\peripheral\gpio/cy_gpio.h **** * Pointer to the pin's port register base address
 627:Generated_Source\PSoC6\pdl\drivers\peripheral\gpio/cy_gpio.h **** *
 628:Generated_Source\PSoC6\pdl\drivers\peripheral\gpio/cy_gpio.h **** * \param pinNum
 629:Generated_Source\PSoC6\pdl\drivers\peripheral\gpio/cy_gpio.h **** * Position of the pin bit-field within the port register
 630:Generated_Source\PSoC6\pdl\drivers\peripheral\gpio/cy_gpio.h **** *
 631:Generated_Source\PSoC6\pdl\drivers\peripheral\gpio/cy_gpio.h **** * \param value
 632:Generated_Source\PSoC6\pdl\drivers\peripheral\gpio/cy_gpio.h **** * HSIOM input selection
 633:Generated_Source\PSoC6\pdl\drivers\peripheral\gpio/cy_gpio.h **** *
 634:Generated_Source\PSoC6\pdl\drivers\peripheral\gpio/cy_gpio.h **** * \note 
 635:Generated_Source\PSoC6\pdl\drivers\peripheral\gpio/cy_gpio.h **** * This function modifies a port register in a read-modify-write operation. It is
 636:Generated_Source\PSoC6\pdl\drivers\peripheral\gpio/cy_gpio.h **** * not thread safe as the resource is shared among multiple pins on a port.
 637:Generated_Source\PSoC6\pdl\drivers\peripheral\gpio/cy_gpio.h **** *
 638:Generated_Source\PSoC6\pdl\drivers\peripheral\gpio/cy_gpio.h **** * \funcusage
 639:Generated_Source\PSoC6\pdl\drivers\peripheral\gpio/cy_gpio.h **** * \snippet gpio/gpio_v1_10_sut_01.cydsn/main_cm4.c snippet_Cy_GPIO_SetHSIOM
 640:Generated_Source\PSoC6\pdl\drivers\peripheral\gpio/cy_gpio.h **** *
 641:Generated_Source\PSoC6\pdl\drivers\peripheral\gpio/cy_gpio.h **** *******************************************************************************/
 642:Generated_Source\PSoC6\pdl\drivers\peripheral\gpio/cy_gpio.h **** __STATIC_INLINE void Cy_GPIO_SetHSIOM(GPIO_PRT_Type* base, uint32_t pinNum, en_hsiom_sel_t value)
 643:Generated_Source\PSoC6\pdl\drivers\peripheral\gpio/cy_gpio.h **** {
  33              		.loc 1 643 0
  34              		.cfi_startproc
ARM GAS  C:\Users\stijn\AppData\Local\Temp\ccD3lQ9e.s 			page 13


  35              		@ args = 0, pretend = 0, frame = 32
  36              		@ frame_needed = 1, uses_anonymous_args = 0
  37 0000 80B5     		push	{r7, lr}
  38              		.cfi_def_cfa_offset 8
  39              		.cfi_offset 7, -8
  40              		.cfi_offset 14, -4
  41 0002 88B0     		sub	sp, sp, #32
  42              		.cfi_def_cfa_offset 40
  43 0004 00AF     		add	r7, sp, #0
  44              		.cfi_def_cfa_register 7
  45 0006 F860     		str	r0, [r7, #12]
  46 0008 B960     		str	r1, [r7, #8]
  47 000a 1346     		mov	r3, r2
  48 000c FB71     		strb	r3, [r7, #7]
 644:Generated_Source\PSoC6\pdl\drivers\peripheral\gpio/cy_gpio.h ****     uint32_t portNum;
 645:Generated_Source\PSoC6\pdl\drivers\peripheral\gpio/cy_gpio.h ****     uint32_t tempReg;
 646:Generated_Source\PSoC6\pdl\drivers\peripheral\gpio/cy_gpio.h ****     HSIOM_PRT_V1_Type* portAddrHSIOM;
 647:Generated_Source\PSoC6\pdl\drivers\peripheral\gpio/cy_gpio.h **** 
 648:Generated_Source\PSoC6\pdl\drivers\peripheral\gpio/cy_gpio.h ****     CY_ASSERT_L2(CY_GPIO_IS_PIN_VALID(pinNum));
  49              		.loc 1 648 0
  50 000e BB68     		ldr	r3, [r7, #8]
  51 0010 072B     		cmp	r3, #7
  52 0012 04D9     		bls	.L2
  53              		.loc 1 648 0 is_stmt 0 discriminator 1
  54 0014 4FF42271 		mov	r1, #648
  55 0018 2648     		ldr	r0, .L7
  56 001a FFF7FEFF 		bl	Cy_SysLib_AssertFailed
  57              	.L2:
 649:Generated_Source\PSoC6\pdl\drivers\peripheral\gpio/cy_gpio.h ****     CY_ASSERT_L2(CY_GPIO_IS_HSIOM_VALID(value));
  58              		.loc 1 649 0 is_stmt 1
  59 001e FB79     		ldrb	r3, [r7, #7]	@ zero_extendqisi2
  60 0020 23F01F03 		bic	r3, r3, #31
  61 0024 002B     		cmp	r3, #0
  62 0026 04D0     		beq	.L3
  63              		.loc 1 649 0 is_stmt 0 discriminator 1
  64 0028 40F28921 		movw	r1, #649
  65 002c 2148     		ldr	r0, .L7
  66 002e FFF7FEFF 		bl	Cy_SysLib_AssertFailed
  67              	.L3:
 650:Generated_Source\PSoC6\pdl\drivers\peripheral\gpio/cy_gpio.h **** 
 651:Generated_Source\PSoC6\pdl\drivers\peripheral\gpio/cy_gpio.h ****     portNum = ((uint32_t)(base) - CY_GPIO_BASE) / GPIO_PRT_SECTION_SIZE;
  68              		.loc 1 651 0 is_stmt 1
  69 0032 FA68     		ldr	r2, [r7, #12]
  70 0034 204B     		ldr	r3, .L7+4
  71 0036 1B68     		ldr	r3, [r3]
  72 0038 9B69     		ldr	r3, [r3, #24]
  73 003a D31A     		subs	r3, r2, r3
  74 003c DB09     		lsrs	r3, r3, #7
  75 003e FB61     		str	r3, [r7, #28]
 652:Generated_Source\PSoC6\pdl\drivers\peripheral\gpio/cy_gpio.h ****     portAddrHSIOM = (HSIOM_PRT_V1_Type*)(CY_HSIOM_BASE + (HSIOM_PRT_SECTION_SIZE * portNum));
  76              		.loc 1 652 0
  77 0040 1D4B     		ldr	r3, .L7+4
  78 0042 1B68     		ldr	r3, [r3]
  79 0044 5A69     		ldr	r2, [r3, #20]
  80 0046 FB69     		ldr	r3, [r7, #28]
  81 0048 1B01     		lsls	r3, r3, #4
  82 004a 1344     		add	r3, r3, r2
ARM GAS  C:\Users\stijn\AppData\Local\Temp\ccD3lQ9e.s 			page 14


  83 004c BB61     		str	r3, [r7, #24]
 653:Generated_Source\PSoC6\pdl\drivers\peripheral\gpio/cy_gpio.h **** 
 654:Generated_Source\PSoC6\pdl\drivers\peripheral\gpio/cy_gpio.h ****     if(pinNum < CY_GPIO_PRT_HALF)
  84              		.loc 1 654 0
  85 004e BB68     		ldr	r3, [r7, #8]
  86 0050 032B     		cmp	r3, #3
  87 0052 14D8     		bhi	.L4
 655:Generated_Source\PSoC6\pdl\drivers\peripheral\gpio/cy_gpio.h ****     {
 656:Generated_Source\PSoC6\pdl\drivers\peripheral\gpio/cy_gpio.h ****         tempReg = HSIOM_PRT_PORT_SEL0(portAddrHSIOM) & ~(CY_GPIO_HSIOM_MASK << (pinNum << CY_GPIO_H
  88              		.loc 1 656 0
  89 0054 BB69     		ldr	r3, [r7, #24]
  90 0056 1A68     		ldr	r2, [r3]
  91 0058 BB68     		ldr	r3, [r7, #8]
  92 005a DB00     		lsls	r3, r3, #3
  93 005c 1F21     		movs	r1, #31
  94 005e 01FA03F3 		lsl	r3, r1, r3
  95 0062 DB43     		mvns	r3, r3
  96 0064 1340     		ands	r3, r3, r2
  97 0066 7B61     		str	r3, [r7, #20]
 657:Generated_Source\PSoC6\pdl\drivers\peripheral\gpio/cy_gpio.h ****         HSIOM_PRT_PORT_SEL0(portAddrHSIOM) = tempReg | ((value & CY_GPIO_HSIOM_MASK) << (pinNum << 
  98              		.loc 1 657 0
  99 0068 FB79     		ldrb	r3, [r7, #7]	@ zero_extendqisi2
 100 006a 03F01F02 		and	r2, r3, #31
 101 006e BB68     		ldr	r3, [r7, #8]
 102 0070 DB00     		lsls	r3, r3, #3
 103 0072 9A40     		lsls	r2, r2, r3
 104 0074 7B69     		ldr	r3, [r7, #20]
 105 0076 1A43     		orrs	r2, r2, r3
 106 0078 BB69     		ldr	r3, [r7, #24]
 107 007a 1A60     		str	r2, [r3]
 658:Generated_Source\PSoC6\pdl\drivers\peripheral\gpio/cy_gpio.h ****     }
 659:Generated_Source\PSoC6\pdl\drivers\peripheral\gpio/cy_gpio.h ****     else
 660:Generated_Source\PSoC6\pdl\drivers\peripheral\gpio/cy_gpio.h ****     {
 661:Generated_Source\PSoC6\pdl\drivers\peripheral\gpio/cy_gpio.h ****         pinNum -= CY_GPIO_PRT_HALF;
 662:Generated_Source\PSoC6\pdl\drivers\peripheral\gpio/cy_gpio.h ****         tempReg = HSIOM_PRT_PORT_SEL1(portAddrHSIOM) & ~(CY_GPIO_HSIOM_MASK << (pinNum << CY_GPIO_H
 663:Generated_Source\PSoC6\pdl\drivers\peripheral\gpio/cy_gpio.h ****         HSIOM_PRT_PORT_SEL1(portAddrHSIOM) = tempReg | ((value & CY_GPIO_HSIOM_MASK) << (pinNum << 
 664:Generated_Source\PSoC6\pdl\drivers\peripheral\gpio/cy_gpio.h ****     }
 665:Generated_Source\PSoC6\pdl\drivers\peripheral\gpio/cy_gpio.h **** }
 108              		.loc 1 665 0
 109 007c 16E0     		b	.L6
 110              	.L4:
 661:Generated_Source\PSoC6\pdl\drivers\peripheral\gpio/cy_gpio.h ****         tempReg = HSIOM_PRT_PORT_SEL1(portAddrHSIOM) & ~(CY_GPIO_HSIOM_MASK << (pinNum << CY_GPIO_H
 111              		.loc 1 661 0
 112 007e BB68     		ldr	r3, [r7, #8]
 113 0080 043B     		subs	r3, r3, #4
 114 0082 BB60     		str	r3, [r7, #8]
 662:Generated_Source\PSoC6\pdl\drivers\peripheral\gpio/cy_gpio.h ****         HSIOM_PRT_PORT_SEL1(portAddrHSIOM) = tempReg | ((value & CY_GPIO_HSIOM_MASK) << (pinNum << 
 115              		.loc 1 662 0
 116 0084 BB69     		ldr	r3, [r7, #24]
 117 0086 5A68     		ldr	r2, [r3, #4]
 118 0088 BB68     		ldr	r3, [r7, #8]
 119 008a DB00     		lsls	r3, r3, #3
 120 008c 1F21     		movs	r1, #31
 121 008e 01FA03F3 		lsl	r3, r1, r3
 122 0092 DB43     		mvns	r3, r3
 123 0094 1340     		ands	r3, r3, r2
 124 0096 7B61     		str	r3, [r7, #20]
ARM GAS  C:\Users\stijn\AppData\Local\Temp\ccD3lQ9e.s 			page 15


 663:Generated_Source\PSoC6\pdl\drivers\peripheral\gpio/cy_gpio.h ****     }
 125              		.loc 1 663 0
 126 0098 FB79     		ldrb	r3, [r7, #7]	@ zero_extendqisi2
 127 009a 03F01F02 		and	r2, r3, #31
 128 009e BB68     		ldr	r3, [r7, #8]
 129 00a0 DB00     		lsls	r3, r3, #3
 130 00a2 9A40     		lsls	r2, r2, r3
 131 00a4 7B69     		ldr	r3, [r7, #20]
 132 00a6 1A43     		orrs	r2, r2, r3
 133 00a8 BB69     		ldr	r3, [r7, #24]
 134 00aa 5A60     		str	r2, [r3, #4]
 135              	.L6:
 136              		.loc 1 665 0
 137 00ac 00BF     		nop
 138 00ae 2037     		adds	r7, r7, #32
 139              		.cfi_def_cfa_offset 8
 140 00b0 BD46     		mov	sp, r7
 141              		.cfi_def_cfa_register 13
 142              		@ sp needed
 143 00b2 80BD     		pop	{r7, pc}
 144              	.L8:
 145              		.align	2
 146              	.L7:
 147 00b4 00000000 		.word	.LC0
 148 00b8 00000000 		.word	cy_device
 149              		.cfi_endproc
 150              	.LFE132:
 151              		.size	Cy_GPIO_SetHSIOM, .-Cy_GPIO_SetHSIOM
 152              		.section	.text.Cy_GPIO_Write,"ax",%progbits
 153              		.align	2
 154              		.thumb
 155              		.thumb_func
 156              		.type	Cy_GPIO_Write, %function
 157              	Cy_GPIO_Write:
 158              	.LFB136:
 666:Generated_Source\PSoC6\pdl\drivers\peripheral\gpio/cy_gpio.h **** 
 667:Generated_Source\PSoC6\pdl\drivers\peripheral\gpio/cy_gpio.h **** 
 668:Generated_Source\PSoC6\pdl\drivers\peripheral\gpio/cy_gpio.h **** /*******************************************************************************
 669:Generated_Source\PSoC6\pdl\drivers\peripheral\gpio/cy_gpio.h **** * Function Name: Cy_GPIO_GetHSIOM
 670:Generated_Source\PSoC6\pdl\drivers\peripheral\gpio/cy_gpio.h **** ****************************************************************************//**
 671:Generated_Source\PSoC6\pdl\drivers\peripheral\gpio/cy_gpio.h **** *
 672:Generated_Source\PSoC6\pdl\drivers\peripheral\gpio/cy_gpio.h **** * Returns the current HSIOM multiplexer connection to the pin.
 673:Generated_Source\PSoC6\pdl\drivers\peripheral\gpio/cy_gpio.h **** *
 674:Generated_Source\PSoC6\pdl\drivers\peripheral\gpio/cy_gpio.h **** * \param base
 675:Generated_Source\PSoC6\pdl\drivers\peripheral\gpio/cy_gpio.h **** * Pointer to the pin's port register base address
 676:Generated_Source\PSoC6\pdl\drivers\peripheral\gpio/cy_gpio.h **** *
 677:Generated_Source\PSoC6\pdl\drivers\peripheral\gpio/cy_gpio.h **** * \param pinNum
 678:Generated_Source\PSoC6\pdl\drivers\peripheral\gpio/cy_gpio.h **** * Position of the pin bit-field within the port register
 679:Generated_Source\PSoC6\pdl\drivers\peripheral\gpio/cy_gpio.h **** *
 680:Generated_Source\PSoC6\pdl\drivers\peripheral\gpio/cy_gpio.h **** * \return
 681:Generated_Source\PSoC6\pdl\drivers\peripheral\gpio/cy_gpio.h **** * HSIOM input selection
 682:Generated_Source\PSoC6\pdl\drivers\peripheral\gpio/cy_gpio.h **** *
 683:Generated_Source\PSoC6\pdl\drivers\peripheral\gpio/cy_gpio.h **** * \funcusage
 684:Generated_Source\PSoC6\pdl\drivers\peripheral\gpio/cy_gpio.h **** * \snippet gpio/gpio_v1_10_sut_01.cydsn/main_cm4.c snippet_Cy_GPIO_SetHSIOM
 685:Generated_Source\PSoC6\pdl\drivers\peripheral\gpio/cy_gpio.h **** *
 686:Generated_Source\PSoC6\pdl\drivers\peripheral\gpio/cy_gpio.h **** *******************************************************************************/
 687:Generated_Source\PSoC6\pdl\drivers\peripheral\gpio/cy_gpio.h **** __STATIC_INLINE en_hsiom_sel_t Cy_GPIO_GetHSIOM(GPIO_PRT_Type* base, uint32_t pinNum)
ARM GAS  C:\Users\stijn\AppData\Local\Temp\ccD3lQ9e.s 			page 16


 688:Generated_Source\PSoC6\pdl\drivers\peripheral\gpio/cy_gpio.h **** {
 689:Generated_Source\PSoC6\pdl\drivers\peripheral\gpio/cy_gpio.h ****     uint32_t returnValue;
 690:Generated_Source\PSoC6\pdl\drivers\peripheral\gpio/cy_gpio.h ****     uint32_t portNum;
 691:Generated_Source\PSoC6\pdl\drivers\peripheral\gpio/cy_gpio.h ****     HSIOM_PRT_V1_Type* portAddrHSIOM;
 692:Generated_Source\PSoC6\pdl\drivers\peripheral\gpio/cy_gpio.h ****     
 693:Generated_Source\PSoC6\pdl\drivers\peripheral\gpio/cy_gpio.h ****     CY_ASSERT_L2(CY_GPIO_IS_PIN_VALID(pinNum));
 694:Generated_Source\PSoC6\pdl\drivers\peripheral\gpio/cy_gpio.h **** 
 695:Generated_Source\PSoC6\pdl\drivers\peripheral\gpio/cy_gpio.h ****     portNum = ((uint32_t)(base) - CY_GPIO_BASE) / GPIO_PRT_SECTION_SIZE;
 696:Generated_Source\PSoC6\pdl\drivers\peripheral\gpio/cy_gpio.h ****     portAddrHSIOM = (HSIOM_PRT_V1_Type*)(CY_HSIOM_BASE + (HSIOM_PRT_SECTION_SIZE * portNum));
 697:Generated_Source\PSoC6\pdl\drivers\peripheral\gpio/cy_gpio.h **** 
 698:Generated_Source\PSoC6\pdl\drivers\peripheral\gpio/cy_gpio.h ****     if(pinNum < CY_GPIO_PRT_HALF)
 699:Generated_Source\PSoC6\pdl\drivers\peripheral\gpio/cy_gpio.h ****     {
 700:Generated_Source\PSoC6\pdl\drivers\peripheral\gpio/cy_gpio.h ****         returnValue = (HSIOM_PRT_PORT_SEL0(portAddrHSIOM) >> (pinNum << CY_GPIO_HSIOM_OFFSET)) & CY
 701:Generated_Source\PSoC6\pdl\drivers\peripheral\gpio/cy_gpio.h ****     }
 702:Generated_Source\PSoC6\pdl\drivers\peripheral\gpio/cy_gpio.h ****     else
 703:Generated_Source\PSoC6\pdl\drivers\peripheral\gpio/cy_gpio.h ****     {
 704:Generated_Source\PSoC6\pdl\drivers\peripheral\gpio/cy_gpio.h ****         pinNum -= CY_GPIO_PRT_HALF;
 705:Generated_Source\PSoC6\pdl\drivers\peripheral\gpio/cy_gpio.h ****         returnValue = (HSIOM_PRT_PORT_SEL1(portAddrHSIOM) >> (pinNum << CY_GPIO_HSIOM_OFFSET)) & CY
 706:Generated_Source\PSoC6\pdl\drivers\peripheral\gpio/cy_gpio.h ****     }
 707:Generated_Source\PSoC6\pdl\drivers\peripheral\gpio/cy_gpio.h **** 
 708:Generated_Source\PSoC6\pdl\drivers\peripheral\gpio/cy_gpio.h ****     return (en_hsiom_sel_t)returnValue;
 709:Generated_Source\PSoC6\pdl\drivers\peripheral\gpio/cy_gpio.h **** }
 710:Generated_Source\PSoC6\pdl\drivers\peripheral\gpio/cy_gpio.h **** 
 711:Generated_Source\PSoC6\pdl\drivers\peripheral\gpio/cy_gpio.h **** 
 712:Generated_Source\PSoC6\pdl\drivers\peripheral\gpio/cy_gpio.h **** /*******************************************************************************
 713:Generated_Source\PSoC6\pdl\drivers\peripheral\gpio/cy_gpio.h **** * Function Name: Cy_GPIO_PortToAddr
 714:Generated_Source\PSoC6\pdl\drivers\peripheral\gpio/cy_gpio.h **** ****************************************************************************//**
 715:Generated_Source\PSoC6\pdl\drivers\peripheral\gpio/cy_gpio.h **** *
 716:Generated_Source\PSoC6\pdl\drivers\peripheral\gpio/cy_gpio.h **** * Retrieves the port address based on the given port number.
 717:Generated_Source\PSoC6\pdl\drivers\peripheral\gpio/cy_gpio.h **** *
 718:Generated_Source\PSoC6\pdl\drivers\peripheral\gpio/cy_gpio.h **** * This is a helper function to calculate the port base address when given a port
 719:Generated_Source\PSoC6\pdl\drivers\peripheral\gpio/cy_gpio.h **** * number. It is to be used when pin access needs to be calculated at runtime.
 720:Generated_Source\PSoC6\pdl\drivers\peripheral\gpio/cy_gpio.h **** *
 721:Generated_Source\PSoC6\pdl\drivers\peripheral\gpio/cy_gpio.h **** * \param portNum
 722:Generated_Source\PSoC6\pdl\drivers\peripheral\gpio/cy_gpio.h **** * Port number
 723:Generated_Source\PSoC6\pdl\drivers\peripheral\gpio/cy_gpio.h **** *
 724:Generated_Source\PSoC6\pdl\drivers\peripheral\gpio/cy_gpio.h **** * \return
 725:Generated_Source\PSoC6\pdl\drivers\peripheral\gpio/cy_gpio.h **** * Base address of the port register structure
 726:Generated_Source\PSoC6\pdl\drivers\peripheral\gpio/cy_gpio.h **** *
 727:Generated_Source\PSoC6\pdl\drivers\peripheral\gpio/cy_gpio.h **** * \funcusage
 728:Generated_Source\PSoC6\pdl\drivers\peripheral\gpio/cy_gpio.h **** * \snippet gpio/gpio_v1_10_sut_01.cydsn/main_cm4.c snippet_Cy_GPIO_PortToAddr
 729:Generated_Source\PSoC6\pdl\drivers\peripheral\gpio/cy_gpio.h **** *
 730:Generated_Source\PSoC6\pdl\drivers\peripheral\gpio/cy_gpio.h **** *******************************************************************************/
 731:Generated_Source\PSoC6\pdl\drivers\peripheral\gpio/cy_gpio.h **** __STATIC_INLINE GPIO_PRT_Type* Cy_GPIO_PortToAddr(uint32_t portNum)
 732:Generated_Source\PSoC6\pdl\drivers\peripheral\gpio/cy_gpio.h **** {
 733:Generated_Source\PSoC6\pdl\drivers\peripheral\gpio/cy_gpio.h ****     GPIO_PRT_Type* portBase;
 734:Generated_Source\PSoC6\pdl\drivers\peripheral\gpio/cy_gpio.h ****     
 735:Generated_Source\PSoC6\pdl\drivers\peripheral\gpio/cy_gpio.h ****     if(portNum < (uint32_t)IOSS_GPIO_GPIO_PORT_NR)
 736:Generated_Source\PSoC6\pdl\drivers\peripheral\gpio/cy_gpio.h ****     {
 737:Generated_Source\PSoC6\pdl\drivers\peripheral\gpio/cy_gpio.h ****         portBase = (GPIO_PRT_Type *)(CY_GPIO_BASE + (GPIO_PRT_SECTION_SIZE * portNum));
 738:Generated_Source\PSoC6\pdl\drivers\peripheral\gpio/cy_gpio.h ****     }
 739:Generated_Source\PSoC6\pdl\drivers\peripheral\gpio/cy_gpio.h ****     else
 740:Generated_Source\PSoC6\pdl\drivers\peripheral\gpio/cy_gpio.h ****     {
 741:Generated_Source\PSoC6\pdl\drivers\peripheral\gpio/cy_gpio.h ****         /* Error: Return default base address */
 742:Generated_Source\PSoC6\pdl\drivers\peripheral\gpio/cy_gpio.h ****         portBase = (GPIO_PRT_Type *)(CY_GPIO_BASE);
 743:Generated_Source\PSoC6\pdl\drivers\peripheral\gpio/cy_gpio.h ****     }
 744:Generated_Source\PSoC6\pdl\drivers\peripheral\gpio/cy_gpio.h **** 
ARM GAS  C:\Users\stijn\AppData\Local\Temp\ccD3lQ9e.s 			page 17


 745:Generated_Source\PSoC6\pdl\drivers\peripheral\gpio/cy_gpio.h ****     return (portBase);
 746:Generated_Source\PSoC6\pdl\drivers\peripheral\gpio/cy_gpio.h **** }
 747:Generated_Source\PSoC6\pdl\drivers\peripheral\gpio/cy_gpio.h **** 
 748:Generated_Source\PSoC6\pdl\drivers\peripheral\gpio/cy_gpio.h **** /** \} group_gpio_functions_init */
 749:Generated_Source\PSoC6\pdl\drivers\peripheral\gpio/cy_gpio.h **** 
 750:Generated_Source\PSoC6\pdl\drivers\peripheral\gpio/cy_gpio.h **** /**
 751:Generated_Source\PSoC6\pdl\drivers\peripheral\gpio/cy_gpio.h **** * \addtogroup group_gpio_functions_gpio
 752:Generated_Source\PSoC6\pdl\drivers\peripheral\gpio/cy_gpio.h **** * \{
 753:Generated_Source\PSoC6\pdl\drivers\peripheral\gpio/cy_gpio.h **** */
 754:Generated_Source\PSoC6\pdl\drivers\peripheral\gpio/cy_gpio.h **** 
 755:Generated_Source\PSoC6\pdl\drivers\peripheral\gpio/cy_gpio.h **** /*******************************************************************************
 756:Generated_Source\PSoC6\pdl\drivers\peripheral\gpio/cy_gpio.h **** * Function Name: Cy_GPIO_Read
 757:Generated_Source\PSoC6\pdl\drivers\peripheral\gpio/cy_gpio.h **** ****************************************************************************//**
 758:Generated_Source\PSoC6\pdl\drivers\peripheral\gpio/cy_gpio.h **** *
 759:Generated_Source\PSoC6\pdl\drivers\peripheral\gpio/cy_gpio.h **** * Reads the current logic level on the input buffer of the pin.
 760:Generated_Source\PSoC6\pdl\drivers\peripheral\gpio/cy_gpio.h **** *
 761:Generated_Source\PSoC6\pdl\drivers\peripheral\gpio/cy_gpio.h **** * \param base
 762:Generated_Source\PSoC6\pdl\drivers\peripheral\gpio/cy_gpio.h **** * Pointer to the pin's port register base address
 763:Generated_Source\PSoC6\pdl\drivers\peripheral\gpio/cy_gpio.h **** *
 764:Generated_Source\PSoC6\pdl\drivers\peripheral\gpio/cy_gpio.h **** * \param pinNum
 765:Generated_Source\PSoC6\pdl\drivers\peripheral\gpio/cy_gpio.h **** * Position of the pin bit-field within the port register.
 766:Generated_Source\PSoC6\pdl\drivers\peripheral\gpio/cy_gpio.h **** * Bit position 8 is the routed pin through the port glitch filter.
 767:Generated_Source\PSoC6\pdl\drivers\peripheral\gpio/cy_gpio.h **** *
 768:Generated_Source\PSoC6\pdl\drivers\peripheral\gpio/cy_gpio.h **** * \return
 769:Generated_Source\PSoC6\pdl\drivers\peripheral\gpio/cy_gpio.h **** * Logic level present on the pin
 770:Generated_Source\PSoC6\pdl\drivers\peripheral\gpio/cy_gpio.h **** *
 771:Generated_Source\PSoC6\pdl\drivers\peripheral\gpio/cy_gpio.h **** * \funcusage
 772:Generated_Source\PSoC6\pdl\drivers\peripheral\gpio/cy_gpio.h **** * \snippet gpio/gpio_v1_10_sut_01.cydsn/main_cm4.c snippet_Cy_GPIO_Read
 773:Generated_Source\PSoC6\pdl\drivers\peripheral\gpio/cy_gpio.h **** *
 774:Generated_Source\PSoC6\pdl\drivers\peripheral\gpio/cy_gpio.h **** *******************************************************************************/
 775:Generated_Source\PSoC6\pdl\drivers\peripheral\gpio/cy_gpio.h **** __STATIC_INLINE uint32_t Cy_GPIO_Read(GPIO_PRT_Type* base, uint32_t pinNum)
 776:Generated_Source\PSoC6\pdl\drivers\peripheral\gpio/cy_gpio.h **** {
 777:Generated_Source\PSoC6\pdl\drivers\peripheral\gpio/cy_gpio.h ****     CY_ASSERT_L2(CY_GPIO_IS_FILTER_PIN_VALID(pinNum));
 778:Generated_Source\PSoC6\pdl\drivers\peripheral\gpio/cy_gpio.h ****     
 779:Generated_Source\PSoC6\pdl\drivers\peripheral\gpio/cy_gpio.h ****     return (GPIO_PRT_IN(base) >> (pinNum)) & CY_GPIO_IN_MASK;
 780:Generated_Source\PSoC6\pdl\drivers\peripheral\gpio/cy_gpio.h **** }
 781:Generated_Source\PSoC6\pdl\drivers\peripheral\gpio/cy_gpio.h **** 
 782:Generated_Source\PSoC6\pdl\drivers\peripheral\gpio/cy_gpio.h **** 
 783:Generated_Source\PSoC6\pdl\drivers\peripheral\gpio/cy_gpio.h **** /*******************************************************************************
 784:Generated_Source\PSoC6\pdl\drivers\peripheral\gpio/cy_gpio.h **** * Function Name: Cy_GPIO_Write
 785:Generated_Source\PSoC6\pdl\drivers\peripheral\gpio/cy_gpio.h **** ****************************************************************************//**
 786:Generated_Source\PSoC6\pdl\drivers\peripheral\gpio/cy_gpio.h **** *
 787:Generated_Source\PSoC6\pdl\drivers\peripheral\gpio/cy_gpio.h **** * Write a logic 0 or logic 1 state to the output driver.
 788:Generated_Source\PSoC6\pdl\drivers\peripheral\gpio/cy_gpio.h **** *
 789:Generated_Source\PSoC6\pdl\drivers\peripheral\gpio/cy_gpio.h **** * This function should be used only for software driven pins. It does not have
 790:Generated_Source\PSoC6\pdl\drivers\peripheral\gpio/cy_gpio.h **** * any effect on peripheral driven pins.
 791:Generated_Source\PSoC6\pdl\drivers\peripheral\gpio/cy_gpio.h **** *
 792:Generated_Source\PSoC6\pdl\drivers\peripheral\gpio/cy_gpio.h **** * \param base
 793:Generated_Source\PSoC6\pdl\drivers\peripheral\gpio/cy_gpio.h **** * Pointer to the pin's port register base address
 794:Generated_Source\PSoC6\pdl\drivers\peripheral\gpio/cy_gpio.h **** *
 795:Generated_Source\PSoC6\pdl\drivers\peripheral\gpio/cy_gpio.h **** * \param pinNum
 796:Generated_Source\PSoC6\pdl\drivers\peripheral\gpio/cy_gpio.h **** * Position of the pin bit-field within the port register
 797:Generated_Source\PSoC6\pdl\drivers\peripheral\gpio/cy_gpio.h **** *
 798:Generated_Source\PSoC6\pdl\drivers\peripheral\gpio/cy_gpio.h **** * \param value
 799:Generated_Source\PSoC6\pdl\drivers\peripheral\gpio/cy_gpio.h **** * Logic level to drive out on the pin
 800:Generated_Source\PSoC6\pdl\drivers\peripheral\gpio/cy_gpio.h **** *
 801:Generated_Source\PSoC6\pdl\drivers\peripheral\gpio/cy_gpio.h **** * \funcusage
ARM GAS  C:\Users\stijn\AppData\Local\Temp\ccD3lQ9e.s 			page 18


 802:Generated_Source\PSoC6\pdl\drivers\peripheral\gpio/cy_gpio.h **** * \snippet gpio/gpio_v1_10_sut_01.cydsn/main_cm4.c snippet_Cy_GPIO_Write
 803:Generated_Source\PSoC6\pdl\drivers\peripheral\gpio/cy_gpio.h **** *
 804:Generated_Source\PSoC6\pdl\drivers\peripheral\gpio/cy_gpio.h **** *******************************************************************************/
 805:Generated_Source\PSoC6\pdl\drivers\peripheral\gpio/cy_gpio.h **** __STATIC_INLINE void Cy_GPIO_Write(GPIO_PRT_Type* base, uint32_t pinNum, uint32_t value)
 806:Generated_Source\PSoC6\pdl\drivers\peripheral\gpio/cy_gpio.h **** {
 159              		.loc 1 806 0
 160              		.cfi_startproc
 161              		@ args = 0, pretend = 0, frame = 16
 162              		@ frame_needed = 1, uses_anonymous_args = 0
 163 0000 80B5     		push	{r7, lr}
 164              		.cfi_def_cfa_offset 8
 165              		.cfi_offset 7, -8
 166              		.cfi_offset 14, -4
 167 0002 84B0     		sub	sp, sp, #16
 168              		.cfi_def_cfa_offset 24
 169 0004 00AF     		add	r7, sp, #0
 170              		.cfi_def_cfa_register 7
 171 0006 F860     		str	r0, [r7, #12]
 172 0008 B960     		str	r1, [r7, #8]
 173 000a 7A60     		str	r2, [r7, #4]
 807:Generated_Source\PSoC6\pdl\drivers\peripheral\gpio/cy_gpio.h ****     CY_ASSERT_L2(CY_GPIO_IS_PIN_VALID(pinNum));
 174              		.loc 1 807 0
 175 000c BB68     		ldr	r3, [r7, #8]
 176 000e 072B     		cmp	r3, #7
 177 0010 04D9     		bls	.L10
 178              		.loc 1 807 0 is_stmt 0 discriminator 1
 179 0012 40F22731 		movw	r1, #807
 180 0016 0E48     		ldr	r0, .L15
 181 0018 FFF7FEFF 		bl	Cy_SysLib_AssertFailed
 182              	.L10:
 808:Generated_Source\PSoC6\pdl\drivers\peripheral\gpio/cy_gpio.h ****     CY_ASSERT_L2(CY_GPIO_IS_VALUE_VALID(value));
 183              		.loc 1 808 0 is_stmt 1
 184 001c 7B68     		ldr	r3, [r7, #4]
 185 001e 012B     		cmp	r3, #1
 186 0020 04D9     		bls	.L11
 187              		.loc 1 808 0 is_stmt 0 discriminator 1
 188 0022 4FF44A71 		mov	r1, #808
 189 0026 0A48     		ldr	r0, .L15
 190 0028 FFF7FEFF 		bl	Cy_SysLib_AssertFailed
 191              	.L11:
 809:Generated_Source\PSoC6\pdl\drivers\peripheral\gpio/cy_gpio.h **** 
 810:Generated_Source\PSoC6\pdl\drivers\peripheral\gpio/cy_gpio.h ****     /* Thread-safe: Directly access the pin registers instead of base->OUT */
 811:Generated_Source\PSoC6\pdl\drivers\peripheral\gpio/cy_gpio.h ****     if(0UL == value)
 192              		.loc 1 811 0 is_stmt 1
 193 002c 7B68     		ldr	r3, [r7, #4]
 194 002e 002B     		cmp	r3, #0
 195 0030 05D1     		bne	.L12
 812:Generated_Source\PSoC6\pdl\drivers\peripheral\gpio/cy_gpio.h ****     {
 813:Generated_Source\PSoC6\pdl\drivers\peripheral\gpio/cy_gpio.h ****         GPIO_PRT_OUT_CLR(base) = CY_GPIO_OUT_MASK << pinNum;
 196              		.loc 1 813 0
 197 0032 0122     		movs	r2, #1
 198 0034 BB68     		ldr	r3, [r7, #8]
 199 0036 9A40     		lsls	r2, r2, r3
 200 0038 FB68     		ldr	r3, [r7, #12]
 201 003a 5A60     		str	r2, [r3, #4]
 814:Generated_Source\PSoC6\pdl\drivers\peripheral\gpio/cy_gpio.h ****     }
 815:Generated_Source\PSoC6\pdl\drivers\peripheral\gpio/cy_gpio.h ****     else
ARM GAS  C:\Users\stijn\AppData\Local\Temp\ccD3lQ9e.s 			page 19


 816:Generated_Source\PSoC6\pdl\drivers\peripheral\gpio/cy_gpio.h ****     {
 817:Generated_Source\PSoC6\pdl\drivers\peripheral\gpio/cy_gpio.h ****         GPIO_PRT_OUT_SET(base) = CY_GPIO_OUT_MASK << pinNum;
 818:Generated_Source\PSoC6\pdl\drivers\peripheral\gpio/cy_gpio.h ****     }
 819:Generated_Source\PSoC6\pdl\drivers\peripheral\gpio/cy_gpio.h **** }
 202              		.loc 1 819 0
 203 003c 04E0     		b	.L14
 204              	.L12:
 817:Generated_Source\PSoC6\pdl\drivers\peripheral\gpio/cy_gpio.h ****     }
 205              		.loc 1 817 0
 206 003e 0122     		movs	r2, #1
 207 0040 BB68     		ldr	r3, [r7, #8]
 208 0042 9A40     		lsls	r2, r2, r3
 209 0044 FB68     		ldr	r3, [r7, #12]
 210 0046 9A60     		str	r2, [r3, #8]
 211              	.L14:
 212              		.loc 1 819 0
 213 0048 00BF     		nop
 214 004a 1037     		adds	r7, r7, #16
 215              		.cfi_def_cfa_offset 8
 216 004c BD46     		mov	sp, r7
 217              		.cfi_def_cfa_register 13
 218              		@ sp needed
 219 004e 80BD     		pop	{r7, pc}
 220              	.L16:
 221              		.align	2
 222              	.L15:
 223 0050 00000000 		.word	.LC0
 224              		.cfi_endproc
 225              	.LFE136:
 226              		.size	Cy_GPIO_Write, .-Cy_GPIO_Write
 227              		.section	.text.Cy_GPIO_SetDrivemode,"ax",%progbits
 228              		.align	2
 229              		.thumb
 230              		.thumb_func
 231              		.type	Cy_GPIO_SetDrivemode, %function
 232              	Cy_GPIO_SetDrivemode:
 233              	.LFB141:
 820:Generated_Source\PSoC6\pdl\drivers\peripheral\gpio/cy_gpio.h **** 
 821:Generated_Source\PSoC6\pdl\drivers\peripheral\gpio/cy_gpio.h **** 
 822:Generated_Source\PSoC6\pdl\drivers\peripheral\gpio/cy_gpio.h **** /*******************************************************************************
 823:Generated_Source\PSoC6\pdl\drivers\peripheral\gpio/cy_gpio.h **** * Function Name: Cy_GPIO_ReadOut
 824:Generated_Source\PSoC6\pdl\drivers\peripheral\gpio/cy_gpio.h **** ****************************************************************************//**
 825:Generated_Source\PSoC6\pdl\drivers\peripheral\gpio/cy_gpio.h **** *
 826:Generated_Source\PSoC6\pdl\drivers\peripheral\gpio/cy_gpio.h **** * Reads the current logic level on the pin output driver.
 827:Generated_Source\PSoC6\pdl\drivers\peripheral\gpio/cy_gpio.h **** *
 828:Generated_Source\PSoC6\pdl\drivers\peripheral\gpio/cy_gpio.h **** * \param base
 829:Generated_Source\PSoC6\pdl\drivers\peripheral\gpio/cy_gpio.h **** * Pointer to the pin's port register base address
 830:Generated_Source\PSoC6\pdl\drivers\peripheral\gpio/cy_gpio.h **** *
 831:Generated_Source\PSoC6\pdl\drivers\peripheral\gpio/cy_gpio.h **** * \param pinNum
 832:Generated_Source\PSoC6\pdl\drivers\peripheral\gpio/cy_gpio.h **** * Position of the pin bit-field within the port register
 833:Generated_Source\PSoC6\pdl\drivers\peripheral\gpio/cy_gpio.h **** *
 834:Generated_Source\PSoC6\pdl\drivers\peripheral\gpio/cy_gpio.h **** * \return
 835:Generated_Source\PSoC6\pdl\drivers\peripheral\gpio/cy_gpio.h **** * Logic level on the pin output driver
 836:Generated_Source\PSoC6\pdl\drivers\peripheral\gpio/cy_gpio.h **** *
 837:Generated_Source\PSoC6\pdl\drivers\peripheral\gpio/cy_gpio.h **** * \funcusage
 838:Generated_Source\PSoC6\pdl\drivers\peripheral\gpio/cy_gpio.h **** * \snippet gpio/gpio_v1_10_sut_01.cydsn/main_cm4.c snippet_Cy_GPIO_ReadOut
 839:Generated_Source\PSoC6\pdl\drivers\peripheral\gpio/cy_gpio.h **** *
ARM GAS  C:\Users\stijn\AppData\Local\Temp\ccD3lQ9e.s 			page 20


 840:Generated_Source\PSoC6\pdl\drivers\peripheral\gpio/cy_gpio.h **** *******************************************************************************/
 841:Generated_Source\PSoC6\pdl\drivers\peripheral\gpio/cy_gpio.h **** __STATIC_INLINE uint32_t Cy_GPIO_ReadOut(GPIO_PRT_Type* base, uint32_t pinNum)
 842:Generated_Source\PSoC6\pdl\drivers\peripheral\gpio/cy_gpio.h **** {
 843:Generated_Source\PSoC6\pdl\drivers\peripheral\gpio/cy_gpio.h ****     CY_ASSERT_L2(CY_GPIO_IS_PIN_VALID(pinNum));
 844:Generated_Source\PSoC6\pdl\drivers\peripheral\gpio/cy_gpio.h **** 
 845:Generated_Source\PSoC6\pdl\drivers\peripheral\gpio/cy_gpio.h ****     return (GPIO_PRT_OUT(base) >> pinNum) & CY_GPIO_OUT_MASK;
 846:Generated_Source\PSoC6\pdl\drivers\peripheral\gpio/cy_gpio.h **** }
 847:Generated_Source\PSoC6\pdl\drivers\peripheral\gpio/cy_gpio.h **** 
 848:Generated_Source\PSoC6\pdl\drivers\peripheral\gpio/cy_gpio.h **** 
 849:Generated_Source\PSoC6\pdl\drivers\peripheral\gpio/cy_gpio.h **** /*******************************************************************************
 850:Generated_Source\PSoC6\pdl\drivers\peripheral\gpio/cy_gpio.h **** * Function Name: Cy_GPIO_Set
 851:Generated_Source\PSoC6\pdl\drivers\peripheral\gpio/cy_gpio.h **** ****************************************************************************//**
 852:Generated_Source\PSoC6\pdl\drivers\peripheral\gpio/cy_gpio.h **** *
 853:Generated_Source\PSoC6\pdl\drivers\peripheral\gpio/cy_gpio.h **** * Set a pin output to logic state high.
 854:Generated_Source\PSoC6\pdl\drivers\peripheral\gpio/cy_gpio.h **** *
 855:Generated_Source\PSoC6\pdl\drivers\peripheral\gpio/cy_gpio.h **** * This function should be used only for software driven pins. It does not have
 856:Generated_Source\PSoC6\pdl\drivers\peripheral\gpio/cy_gpio.h **** * any effect on peripheral driven pins.
 857:Generated_Source\PSoC6\pdl\drivers\peripheral\gpio/cy_gpio.h **** *
 858:Generated_Source\PSoC6\pdl\drivers\peripheral\gpio/cy_gpio.h **** * \param base
 859:Generated_Source\PSoC6\pdl\drivers\peripheral\gpio/cy_gpio.h **** * Pointer to the pin's port register base address
 860:Generated_Source\PSoC6\pdl\drivers\peripheral\gpio/cy_gpio.h **** *
 861:Generated_Source\PSoC6\pdl\drivers\peripheral\gpio/cy_gpio.h **** * \param pinNum
 862:Generated_Source\PSoC6\pdl\drivers\peripheral\gpio/cy_gpio.h **** * Position of the pin bit-field within the port register
 863:Generated_Source\PSoC6\pdl\drivers\peripheral\gpio/cy_gpio.h **** *
 864:Generated_Source\PSoC6\pdl\drivers\peripheral\gpio/cy_gpio.h **** * \funcusage
 865:Generated_Source\PSoC6\pdl\drivers\peripheral\gpio/cy_gpio.h **** * \snippet gpio/gpio_v1_10_sut_01.cydsn/main_cm4.c snippet_Cy_GPIO_Set
 866:Generated_Source\PSoC6\pdl\drivers\peripheral\gpio/cy_gpio.h **** *
 867:Generated_Source\PSoC6\pdl\drivers\peripheral\gpio/cy_gpio.h **** *******************************************************************************/
 868:Generated_Source\PSoC6\pdl\drivers\peripheral\gpio/cy_gpio.h **** __STATIC_INLINE void Cy_GPIO_Set(GPIO_PRT_Type* base, uint32_t pinNum)
 869:Generated_Source\PSoC6\pdl\drivers\peripheral\gpio/cy_gpio.h **** {
 870:Generated_Source\PSoC6\pdl\drivers\peripheral\gpio/cy_gpio.h ****     CY_ASSERT_L2(CY_GPIO_IS_PIN_VALID(pinNum));
 871:Generated_Source\PSoC6\pdl\drivers\peripheral\gpio/cy_gpio.h ****     
 872:Generated_Source\PSoC6\pdl\drivers\peripheral\gpio/cy_gpio.h ****     GPIO_PRT_OUT_SET(base) = CY_GPIO_OUT_MASK << pinNum;
 873:Generated_Source\PSoC6\pdl\drivers\peripheral\gpio/cy_gpio.h **** }
 874:Generated_Source\PSoC6\pdl\drivers\peripheral\gpio/cy_gpio.h **** 
 875:Generated_Source\PSoC6\pdl\drivers\peripheral\gpio/cy_gpio.h **** 
 876:Generated_Source\PSoC6\pdl\drivers\peripheral\gpio/cy_gpio.h **** /*******************************************************************************
 877:Generated_Source\PSoC6\pdl\drivers\peripheral\gpio/cy_gpio.h **** * Function Name: Cy_GPIO_Clr
 878:Generated_Source\PSoC6\pdl\drivers\peripheral\gpio/cy_gpio.h **** ****************************************************************************//**
 879:Generated_Source\PSoC6\pdl\drivers\peripheral\gpio/cy_gpio.h **** *
 880:Generated_Source\PSoC6\pdl\drivers\peripheral\gpio/cy_gpio.h **** * Set a pin output to logic state Low.
 881:Generated_Source\PSoC6\pdl\drivers\peripheral\gpio/cy_gpio.h **** *
 882:Generated_Source\PSoC6\pdl\drivers\peripheral\gpio/cy_gpio.h **** * This function should be used only for software driven pins. It does not have
 883:Generated_Source\PSoC6\pdl\drivers\peripheral\gpio/cy_gpio.h **** * any effect on peripheral driven pins.
 884:Generated_Source\PSoC6\pdl\drivers\peripheral\gpio/cy_gpio.h **** *
 885:Generated_Source\PSoC6\pdl\drivers\peripheral\gpio/cy_gpio.h **** * \param base
 886:Generated_Source\PSoC6\pdl\drivers\peripheral\gpio/cy_gpio.h **** * Pointer to the pin's port register base address
 887:Generated_Source\PSoC6\pdl\drivers\peripheral\gpio/cy_gpio.h **** *
 888:Generated_Source\PSoC6\pdl\drivers\peripheral\gpio/cy_gpio.h **** * \param pinNum
 889:Generated_Source\PSoC6\pdl\drivers\peripheral\gpio/cy_gpio.h **** * Position of the pin bit-field within the port register
 890:Generated_Source\PSoC6\pdl\drivers\peripheral\gpio/cy_gpio.h **** *
 891:Generated_Source\PSoC6\pdl\drivers\peripheral\gpio/cy_gpio.h **** * \funcusage
 892:Generated_Source\PSoC6\pdl\drivers\peripheral\gpio/cy_gpio.h **** * \snippet gpio/gpio_v1_10_sut_01.cydsn/main_cm4.c snippet_Cy_GPIO_Clr
 893:Generated_Source\PSoC6\pdl\drivers\peripheral\gpio/cy_gpio.h **** *
 894:Generated_Source\PSoC6\pdl\drivers\peripheral\gpio/cy_gpio.h **** *******************************************************************************/
 895:Generated_Source\PSoC6\pdl\drivers\peripheral\gpio/cy_gpio.h **** __STATIC_INLINE void Cy_GPIO_Clr(GPIO_PRT_Type* base, uint32_t pinNum)
 896:Generated_Source\PSoC6\pdl\drivers\peripheral\gpio/cy_gpio.h **** {
ARM GAS  C:\Users\stijn\AppData\Local\Temp\ccD3lQ9e.s 			page 21


 897:Generated_Source\PSoC6\pdl\drivers\peripheral\gpio/cy_gpio.h ****     CY_ASSERT_L2(CY_GPIO_IS_PIN_VALID(pinNum));
 898:Generated_Source\PSoC6\pdl\drivers\peripheral\gpio/cy_gpio.h ****     
 899:Generated_Source\PSoC6\pdl\drivers\peripheral\gpio/cy_gpio.h ****     GPIO_PRT_OUT_CLR(base) = CY_GPIO_OUT_MASK << pinNum;
 900:Generated_Source\PSoC6\pdl\drivers\peripheral\gpio/cy_gpio.h **** }
 901:Generated_Source\PSoC6\pdl\drivers\peripheral\gpio/cy_gpio.h **** 
 902:Generated_Source\PSoC6\pdl\drivers\peripheral\gpio/cy_gpio.h **** 
 903:Generated_Source\PSoC6\pdl\drivers\peripheral\gpio/cy_gpio.h **** /*******************************************************************************
 904:Generated_Source\PSoC6\pdl\drivers\peripheral\gpio/cy_gpio.h **** * Function Name: Cy_GPIO_Inv
 905:Generated_Source\PSoC6\pdl\drivers\peripheral\gpio/cy_gpio.h **** ****************************************************************************//**
 906:Generated_Source\PSoC6\pdl\drivers\peripheral\gpio/cy_gpio.h **** *
 907:Generated_Source\PSoC6\pdl\drivers\peripheral\gpio/cy_gpio.h **** * Set a pin output logic state to the inverse of the current output
 908:Generated_Source\PSoC6\pdl\drivers\peripheral\gpio/cy_gpio.h **** * logic state.
 909:Generated_Source\PSoC6\pdl\drivers\peripheral\gpio/cy_gpio.h **** *
 910:Generated_Source\PSoC6\pdl\drivers\peripheral\gpio/cy_gpio.h **** * This function should be used only for software driven pins. It does not have
 911:Generated_Source\PSoC6\pdl\drivers\peripheral\gpio/cy_gpio.h **** * any effect on peripheral driven pins.
 912:Generated_Source\PSoC6\pdl\drivers\peripheral\gpio/cy_gpio.h **** *
 913:Generated_Source\PSoC6\pdl\drivers\peripheral\gpio/cy_gpio.h **** * \param base
 914:Generated_Source\PSoC6\pdl\drivers\peripheral\gpio/cy_gpio.h **** * Pointer to the pin's port register base address
 915:Generated_Source\PSoC6\pdl\drivers\peripheral\gpio/cy_gpio.h **** *
 916:Generated_Source\PSoC6\pdl\drivers\peripheral\gpio/cy_gpio.h **** * \param pinNum
 917:Generated_Source\PSoC6\pdl\drivers\peripheral\gpio/cy_gpio.h **** * Position of the pin bit-field within the port register
 918:Generated_Source\PSoC6\pdl\drivers\peripheral\gpio/cy_gpio.h **** *
 919:Generated_Source\PSoC6\pdl\drivers\peripheral\gpio/cy_gpio.h **** * \funcusage
 920:Generated_Source\PSoC6\pdl\drivers\peripheral\gpio/cy_gpio.h **** * \snippet gpio/gpio_v1_10_sut_01.cydsn/main_cm4.c snippet_Cy_GPIO_Inv
 921:Generated_Source\PSoC6\pdl\drivers\peripheral\gpio/cy_gpio.h **** *
 922:Generated_Source\PSoC6\pdl\drivers\peripheral\gpio/cy_gpio.h **** *******************************************************************************/
 923:Generated_Source\PSoC6\pdl\drivers\peripheral\gpio/cy_gpio.h **** __STATIC_INLINE void Cy_GPIO_Inv(GPIO_PRT_Type* base, uint32_t pinNum)
 924:Generated_Source\PSoC6\pdl\drivers\peripheral\gpio/cy_gpio.h **** {
 925:Generated_Source\PSoC6\pdl\drivers\peripheral\gpio/cy_gpio.h ****     CY_ASSERT_L2(CY_GPIO_IS_PIN_VALID(pinNum));
 926:Generated_Source\PSoC6\pdl\drivers\peripheral\gpio/cy_gpio.h ****     
 927:Generated_Source\PSoC6\pdl\drivers\peripheral\gpio/cy_gpio.h ****     GPIO_PRT_OUT_INV(base) = CY_GPIO_OUT_MASK << pinNum;
 928:Generated_Source\PSoC6\pdl\drivers\peripheral\gpio/cy_gpio.h **** }
 929:Generated_Source\PSoC6\pdl\drivers\peripheral\gpio/cy_gpio.h **** 
 930:Generated_Source\PSoC6\pdl\drivers\peripheral\gpio/cy_gpio.h **** 
 931:Generated_Source\PSoC6\pdl\drivers\peripheral\gpio/cy_gpio.h **** /*******************************************************************************
 932:Generated_Source\PSoC6\pdl\drivers\peripheral\gpio/cy_gpio.h **** * Function Name: Cy_GPIO_SetDrivemode
 933:Generated_Source\PSoC6\pdl\drivers\peripheral\gpio/cy_gpio.h **** ****************************************************************************//**
 934:Generated_Source\PSoC6\pdl\drivers\peripheral\gpio/cy_gpio.h **** *
 935:Generated_Source\PSoC6\pdl\drivers\peripheral\gpio/cy_gpio.h **** * Configures the pin output buffer drive mode and input buffer enable.
 936:Generated_Source\PSoC6\pdl\drivers\peripheral\gpio/cy_gpio.h **** *
 937:Generated_Source\PSoC6\pdl\drivers\peripheral\gpio/cy_gpio.h **** * The output buffer drive mode and input buffer enable are combined into a single
 938:Generated_Source\PSoC6\pdl\drivers\peripheral\gpio/cy_gpio.h **** * parameter. The drive mode controls the behavior of the pin in general.
 939:Generated_Source\PSoC6\pdl\drivers\peripheral\gpio/cy_gpio.h **** * Enabling the input buffer allows the digital pin state to be read but also
 940:Generated_Source\PSoC6\pdl\drivers\peripheral\gpio/cy_gpio.h **** * contributes to extra current consumption.
 941:Generated_Source\PSoC6\pdl\drivers\peripheral\gpio/cy_gpio.h **** *
 942:Generated_Source\PSoC6\pdl\drivers\peripheral\gpio/cy_gpio.h **** * \param base
 943:Generated_Source\PSoC6\pdl\drivers\peripheral\gpio/cy_gpio.h **** * Pointer to the pin's port register base address
 944:Generated_Source\PSoC6\pdl\drivers\peripheral\gpio/cy_gpio.h **** *
 945:Generated_Source\PSoC6\pdl\drivers\peripheral\gpio/cy_gpio.h **** * \param pinNum
 946:Generated_Source\PSoC6\pdl\drivers\peripheral\gpio/cy_gpio.h **** * Position of the pin bit-field within the port register
 947:Generated_Source\PSoC6\pdl\drivers\peripheral\gpio/cy_gpio.h **** *
 948:Generated_Source\PSoC6\pdl\drivers\peripheral\gpio/cy_gpio.h **** * \param value
 949:Generated_Source\PSoC6\pdl\drivers\peripheral\gpio/cy_gpio.h **** * Pin drive mode. Options are detailed in \ref group_gpio_driveModes macros
 950:Generated_Source\PSoC6\pdl\drivers\peripheral\gpio/cy_gpio.h **** *
 951:Generated_Source\PSoC6\pdl\drivers\peripheral\gpio/cy_gpio.h **** * \note 
 952:Generated_Source\PSoC6\pdl\drivers\peripheral\gpio/cy_gpio.h **** * This function modifies a port register in a read-modify-write operation. It is
 953:Generated_Source\PSoC6\pdl\drivers\peripheral\gpio/cy_gpio.h **** * not thread safe as the resource is shared among multiple pins on a port.
ARM GAS  C:\Users\stijn\AppData\Local\Temp\ccD3lQ9e.s 			page 22


 954:Generated_Source\PSoC6\pdl\drivers\peripheral\gpio/cy_gpio.h **** *
 955:Generated_Source\PSoC6\pdl\drivers\peripheral\gpio/cy_gpio.h **** * \funcusage
 956:Generated_Source\PSoC6\pdl\drivers\peripheral\gpio/cy_gpio.h **** * \snippet gpio/gpio_v1_10_sut_01.cydsn/main_cm4.c snippet_Cy_GPIO_SetDrivemode
 957:Generated_Source\PSoC6\pdl\drivers\peripheral\gpio/cy_gpio.h **** *
 958:Generated_Source\PSoC6\pdl\drivers\peripheral\gpio/cy_gpio.h **** *******************************************************************************/
 959:Generated_Source\PSoC6\pdl\drivers\peripheral\gpio/cy_gpio.h **** __STATIC_INLINE void Cy_GPIO_SetDrivemode(GPIO_PRT_Type* base, uint32_t pinNum, uint32_t value)
 960:Generated_Source\PSoC6\pdl\drivers\peripheral\gpio/cy_gpio.h **** {
 234              		.loc 1 960 0
 235              		.cfi_startproc
 236              		@ args = 0, pretend = 0, frame = 24
 237              		@ frame_needed = 1, uses_anonymous_args = 0
 238 0000 80B5     		push	{r7, lr}
 239              		.cfi_def_cfa_offset 8
 240              		.cfi_offset 7, -8
 241              		.cfi_offset 14, -4
 242 0002 86B0     		sub	sp, sp, #24
 243              		.cfi_def_cfa_offset 32
 244 0004 00AF     		add	r7, sp, #0
 245              		.cfi_def_cfa_register 7
 246 0006 F860     		str	r0, [r7, #12]
 247 0008 B960     		str	r1, [r7, #8]
 248 000a 7A60     		str	r2, [r7, #4]
 961:Generated_Source\PSoC6\pdl\drivers\peripheral\gpio/cy_gpio.h ****     uint32_t tempReg;
 962:Generated_Source\PSoC6\pdl\drivers\peripheral\gpio/cy_gpio.h ****     uint32_t pinLoc;
 963:Generated_Source\PSoC6\pdl\drivers\peripheral\gpio/cy_gpio.h **** 
 964:Generated_Source\PSoC6\pdl\drivers\peripheral\gpio/cy_gpio.h ****     CY_ASSERT_L2(CY_GPIO_IS_PIN_VALID(pinNum));
 249              		.loc 1 964 0
 250 000c BB68     		ldr	r3, [r7, #8]
 251 000e 072B     		cmp	r3, #7
 252 0010 04D9     		bls	.L18
 253              		.loc 1 964 0 is_stmt 0 discriminator 1
 254 0012 4FF47171 		mov	r1, #964
 255 0016 1948     		ldr	r0, .L20
 256 0018 FFF7FEFF 		bl	Cy_SysLib_AssertFailed
 257              	.L18:
 965:Generated_Source\PSoC6\pdl\drivers\peripheral\gpio/cy_gpio.h ****     CY_ASSERT_L2(CY_GPIO_IS_DM_VALID(value));
 258              		.loc 1 965 0 is_stmt 1
 259 001c 7B68     		ldr	r3, [r7, #4]
 260 001e 23F00F03 		bic	r3, r3, #15
 261 0022 002B     		cmp	r3, #0
 262 0024 04D0     		beq	.L19
 263              		.loc 1 965 0 is_stmt 0 discriminator 1
 264 0026 40F2C531 		movw	r1, #965
 265 002a 1448     		ldr	r0, .L20
 266 002c FFF7FEFF 		bl	Cy_SysLib_AssertFailed
 267              	.L19:
 966:Generated_Source\PSoC6\pdl\drivers\peripheral\gpio/cy_gpio.h **** 
 967:Generated_Source\PSoC6\pdl\drivers\peripheral\gpio/cy_gpio.h ****     pinLoc = pinNum << CY_GPIO_DRIVE_MODE_OFFSET;
 268              		.loc 1 967 0 is_stmt 1
 269 0030 BB68     		ldr	r3, [r7, #8]
 270 0032 9B00     		lsls	r3, r3, #2
 271 0034 7B61     		str	r3, [r7, #20]
 968:Generated_Source\PSoC6\pdl\drivers\peripheral\gpio/cy_gpio.h ****     tempReg = (GPIO_PRT_CFG(base) & ~(CY_GPIO_CFG_DM_MASK << pinLoc));
 272              		.loc 1 968 0
 273 0036 124B     		ldr	r3, .L20+4
 274 0038 1B68     		ldr	r3, [r3]
 275 003a 93F87D30 		ldrb	r3, [r3, #125]	@ zero_extendqisi2
ARM GAS  C:\Users\stijn\AppData\Local\Temp\ccD3lQ9e.s 			page 23


 276 003e 1A46     		mov	r2, r3
 277 0040 FB68     		ldr	r3, [r7, #12]
 278 0042 1344     		add	r3, r3, r2
 279 0044 1A68     		ldr	r2, [r3]
 280 0046 0F21     		movs	r1, #15
 281 0048 7B69     		ldr	r3, [r7, #20]
 282 004a 01FA03F3 		lsl	r3, r1, r3
 283 004e DB43     		mvns	r3, r3
 284 0050 1340     		ands	r3, r3, r2
 285 0052 3B61     		str	r3, [r7, #16]
 969:Generated_Source\PSoC6\pdl\drivers\peripheral\gpio/cy_gpio.h ****     GPIO_PRT_CFG(base) = tempReg | ((value & CY_GPIO_CFG_DM_MASK) << pinLoc);
 286              		.loc 1 969 0
 287 0054 0A4B     		ldr	r3, .L20+4
 288 0056 1B68     		ldr	r3, [r3]
 289 0058 93F87D30 		ldrb	r3, [r3, #125]	@ zero_extendqisi2
 290 005c 1A46     		mov	r2, r3
 291 005e FB68     		ldr	r3, [r7, #12]
 292 0060 1344     		add	r3, r3, r2
 293 0062 1946     		mov	r1, r3
 294 0064 7B68     		ldr	r3, [r7, #4]
 295 0066 03F00F02 		and	r2, r3, #15
 296 006a 7B69     		ldr	r3, [r7, #20]
 297 006c 9A40     		lsls	r2, r2, r3
 298 006e 3B69     		ldr	r3, [r7, #16]
 299 0070 1343     		orrs	r3, r3, r2
 300 0072 0B60     		str	r3, [r1]
 970:Generated_Source\PSoC6\pdl\drivers\peripheral\gpio/cy_gpio.h **** }
 301              		.loc 1 970 0
 302 0074 00BF     		nop
 303 0076 1837     		adds	r7, r7, #24
 304              		.cfi_def_cfa_offset 8
 305 0078 BD46     		mov	sp, r7
 306              		.cfi_def_cfa_register 13
 307              		@ sp needed
 308 007a 80BD     		pop	{r7, pc}
 309              	.L21:
 310              		.align	2
 311              	.L20:
 312 007c 00000000 		.word	.LC0
 313 0080 00000000 		.word	cy_device
 314              		.cfi_endproc
 315              	.LFE141:
 316              		.size	Cy_GPIO_SetDrivemode, .-Cy_GPIO_SetDrivemode
 317              		.section	.text.Cy_GPIO_SetVtrip,"ax",%progbits
 318              		.align	2
 319              		.thumb
 320              		.thumb_func
 321              		.type	Cy_GPIO_SetVtrip, %function
 322              	Cy_GPIO_SetVtrip:
 323              	.LFB143:
 971:Generated_Source\PSoC6\pdl\drivers\peripheral\gpio/cy_gpio.h **** 
 972:Generated_Source\PSoC6\pdl\drivers\peripheral\gpio/cy_gpio.h **** 
 973:Generated_Source\PSoC6\pdl\drivers\peripheral\gpio/cy_gpio.h **** /*******************************************************************************
 974:Generated_Source\PSoC6\pdl\drivers\peripheral\gpio/cy_gpio.h **** * Function Name: Cy_GPIO_GetDrivemode
 975:Generated_Source\PSoC6\pdl\drivers\peripheral\gpio/cy_gpio.h **** ****************************************************************************//**
 976:Generated_Source\PSoC6\pdl\drivers\peripheral\gpio/cy_gpio.h **** *
 977:Generated_Source\PSoC6\pdl\drivers\peripheral\gpio/cy_gpio.h **** * Returns the pin output buffer drive mode and input buffer enable state.
ARM GAS  C:\Users\stijn\AppData\Local\Temp\ccD3lQ9e.s 			page 24


 978:Generated_Source\PSoC6\pdl\drivers\peripheral\gpio/cy_gpio.h **** *
 979:Generated_Source\PSoC6\pdl\drivers\peripheral\gpio/cy_gpio.h **** * \param base
 980:Generated_Source\PSoC6\pdl\drivers\peripheral\gpio/cy_gpio.h **** * Pointer to the pin's port register base address
 981:Generated_Source\PSoC6\pdl\drivers\peripheral\gpio/cy_gpio.h **** *
 982:Generated_Source\PSoC6\pdl\drivers\peripheral\gpio/cy_gpio.h **** * \param pinNum
 983:Generated_Source\PSoC6\pdl\drivers\peripheral\gpio/cy_gpio.h **** * Position of the pin bit-field within the port register
 984:Generated_Source\PSoC6\pdl\drivers\peripheral\gpio/cy_gpio.h **** *
 985:Generated_Source\PSoC6\pdl\drivers\peripheral\gpio/cy_gpio.h **** * \return
 986:Generated_Source\PSoC6\pdl\drivers\peripheral\gpio/cy_gpio.h **** * Pin drive mode. Options are detailed in \ref group_gpio_driveModes macros
 987:Generated_Source\PSoC6\pdl\drivers\peripheral\gpio/cy_gpio.h **** *
 988:Generated_Source\PSoC6\pdl\drivers\peripheral\gpio/cy_gpio.h **** * \funcusage
 989:Generated_Source\PSoC6\pdl\drivers\peripheral\gpio/cy_gpio.h **** * \snippet gpio/gpio_v1_10_sut_01.cydsn/main_cm4.c snippet_Cy_GPIO_SetDrivemode
 990:Generated_Source\PSoC6\pdl\drivers\peripheral\gpio/cy_gpio.h **** *
 991:Generated_Source\PSoC6\pdl\drivers\peripheral\gpio/cy_gpio.h **** *******************************************************************************/
 992:Generated_Source\PSoC6\pdl\drivers\peripheral\gpio/cy_gpio.h **** __STATIC_INLINE uint32_t Cy_GPIO_GetDrivemode(GPIO_PRT_Type* base, uint32_t pinNum)
 993:Generated_Source\PSoC6\pdl\drivers\peripheral\gpio/cy_gpio.h **** {
 994:Generated_Source\PSoC6\pdl\drivers\peripheral\gpio/cy_gpio.h ****     CY_ASSERT_L2(CY_GPIO_IS_PIN_VALID(pinNum));
 995:Generated_Source\PSoC6\pdl\drivers\peripheral\gpio/cy_gpio.h ****     
 996:Generated_Source\PSoC6\pdl\drivers\peripheral\gpio/cy_gpio.h ****     return (GPIO_PRT_CFG(base) >> (pinNum << CY_GPIO_DRIVE_MODE_OFFSET)) & CY_GPIO_CFG_DM_MASK;
 997:Generated_Source\PSoC6\pdl\drivers\peripheral\gpio/cy_gpio.h **** }
 998:Generated_Source\PSoC6\pdl\drivers\peripheral\gpio/cy_gpio.h **** 
 999:Generated_Source\PSoC6\pdl\drivers\peripheral\gpio/cy_gpio.h **** 
1000:Generated_Source\PSoC6\pdl\drivers\peripheral\gpio/cy_gpio.h **** /*******************************************************************************
1001:Generated_Source\PSoC6\pdl\drivers\peripheral\gpio/cy_gpio.h **** * Function Name: Cy_GPIO_SetVtrip
1002:Generated_Source\PSoC6\pdl\drivers\peripheral\gpio/cy_gpio.h **** ****************************************************************************//**
1003:Generated_Source\PSoC6\pdl\drivers\peripheral\gpio/cy_gpio.h **** *
1004:Generated_Source\PSoC6\pdl\drivers\peripheral\gpio/cy_gpio.h **** * Configures the GPIO pin input buffer voltage threshold mode.
1005:Generated_Source\PSoC6\pdl\drivers\peripheral\gpio/cy_gpio.h **** *
1006:Generated_Source\PSoC6\pdl\drivers\peripheral\gpio/cy_gpio.h **** * \param base
1007:Generated_Source\PSoC6\pdl\drivers\peripheral\gpio/cy_gpio.h **** * Pointer to the pin's port register base address
1008:Generated_Source\PSoC6\pdl\drivers\peripheral\gpio/cy_gpio.h **** *
1009:Generated_Source\PSoC6\pdl\drivers\peripheral\gpio/cy_gpio.h **** * \param pinNum
1010:Generated_Source\PSoC6\pdl\drivers\peripheral\gpio/cy_gpio.h **** * Position of the pin bit-field within the port register
1011:Generated_Source\PSoC6\pdl\drivers\peripheral\gpio/cy_gpio.h **** *
1012:Generated_Source\PSoC6\pdl\drivers\peripheral\gpio/cy_gpio.h **** * \param value
1013:Generated_Source\PSoC6\pdl\drivers\peripheral\gpio/cy_gpio.h **** * Pin voltage threshold mode. Options are detailed in \ref group_gpio_vtrip macros
1014:Generated_Source\PSoC6\pdl\drivers\peripheral\gpio/cy_gpio.h **** *
1015:Generated_Source\PSoC6\pdl\drivers\peripheral\gpio/cy_gpio.h **** * \note 
1016:Generated_Source\PSoC6\pdl\drivers\peripheral\gpio/cy_gpio.h **** * This function modifies a port register in a read-modify-write operation. It is
1017:Generated_Source\PSoC6\pdl\drivers\peripheral\gpio/cy_gpio.h **** * not thread safe as the resource is shared among multiple pins on a port.
1018:Generated_Source\PSoC6\pdl\drivers\peripheral\gpio/cy_gpio.h **** *
1019:Generated_Source\PSoC6\pdl\drivers\peripheral\gpio/cy_gpio.h **** * \funcusage
1020:Generated_Source\PSoC6\pdl\drivers\peripheral\gpio/cy_gpio.h **** * \snippet gpio/gpio_v1_10_sut_01.cydsn/main_cm4.c snippet_Cy_GPIO_SetVtrip
1021:Generated_Source\PSoC6\pdl\drivers\peripheral\gpio/cy_gpio.h **** *
1022:Generated_Source\PSoC6\pdl\drivers\peripheral\gpio/cy_gpio.h **** *******************************************************************************/
1023:Generated_Source\PSoC6\pdl\drivers\peripheral\gpio/cy_gpio.h **** __STATIC_INLINE void Cy_GPIO_SetVtrip(GPIO_PRT_Type* base, uint32_t pinNum, uint32_t value)
1024:Generated_Source\PSoC6\pdl\drivers\peripheral\gpio/cy_gpio.h **** {
 324              		.loc 1 1024 0
 325              		.cfi_startproc
 326              		@ args = 0, pretend = 0, frame = 24
 327              		@ frame_needed = 1, uses_anonymous_args = 0
 328 0000 80B5     		push	{r7, lr}
 329              		.cfi_def_cfa_offset 8
 330              		.cfi_offset 7, -8
 331              		.cfi_offset 14, -4
 332 0002 86B0     		sub	sp, sp, #24
 333              		.cfi_def_cfa_offset 32
ARM GAS  C:\Users\stijn\AppData\Local\Temp\ccD3lQ9e.s 			page 25


 334 0004 00AF     		add	r7, sp, #0
 335              		.cfi_def_cfa_register 7
 336 0006 F860     		str	r0, [r7, #12]
 337 0008 B960     		str	r1, [r7, #8]
 338 000a 7A60     		str	r2, [r7, #4]
1025:Generated_Source\PSoC6\pdl\drivers\peripheral\gpio/cy_gpio.h ****     uint32_t tempReg;
1026:Generated_Source\PSoC6\pdl\drivers\peripheral\gpio/cy_gpio.h **** 
1027:Generated_Source\PSoC6\pdl\drivers\peripheral\gpio/cy_gpio.h ****     CY_ASSERT_L2(CY_GPIO_IS_PIN_VALID(pinNum));
 339              		.loc 1 1027 0
 340 000c BB68     		ldr	r3, [r7, #8]
 341 000e 072B     		cmp	r3, #7
 342 0010 04D9     		bls	.L23
 343              		.loc 1 1027 0 is_stmt 0 discriminator 1
 344 0012 40F20341 		movw	r1, #1027
 345 0016 1748     		ldr	r0, .L25
 346 0018 FFF7FEFF 		bl	Cy_SysLib_AssertFailed
 347              	.L23:
1028:Generated_Source\PSoC6\pdl\drivers\peripheral\gpio/cy_gpio.h ****     CY_ASSERT_L2(CY_GPIO_IS_VALUE_VALID(value));
 348              		.loc 1 1028 0 is_stmt 1
 349 001c 7B68     		ldr	r3, [r7, #4]
 350 001e 012B     		cmp	r3, #1
 351 0020 04D9     		bls	.L24
 352              		.loc 1 1028 0 is_stmt 0 discriminator 1
 353 0022 40F20441 		movw	r1, #1028
 354 0026 1348     		ldr	r0, .L25
 355 0028 FFF7FEFF 		bl	Cy_SysLib_AssertFailed
 356              	.L24:
1029:Generated_Source\PSoC6\pdl\drivers\peripheral\gpio/cy_gpio.h **** 
1030:Generated_Source\PSoC6\pdl\drivers\peripheral\gpio/cy_gpio.h ****     tempReg = GPIO_PRT_CFG_IN(base) & ~(CY_GPIO_CFG_IN_VTRIP_SEL_MASK << pinNum);
 357              		.loc 1 1030 0 is_stmt 1
 358 002c 124B     		ldr	r3, .L25+4
 359 002e 1B68     		ldr	r3, [r3]
 360 0030 93F87E30 		ldrb	r3, [r3, #126]	@ zero_extendqisi2
 361 0034 1A46     		mov	r2, r3
 362 0036 FB68     		ldr	r3, [r7, #12]
 363 0038 1344     		add	r3, r3, r2
 364 003a 1A68     		ldr	r2, [r3]
 365 003c 0121     		movs	r1, #1
 366 003e BB68     		ldr	r3, [r7, #8]
 367 0040 01FA03F3 		lsl	r3, r1, r3
 368 0044 DB43     		mvns	r3, r3
 369 0046 1340     		ands	r3, r3, r2
 370 0048 7B61     		str	r3, [r7, #20]
1031:Generated_Source\PSoC6\pdl\drivers\peripheral\gpio/cy_gpio.h ****     GPIO_PRT_CFG_IN(base) = tempReg | ((value & CY_GPIO_CFG_IN_VTRIP_SEL_MASK) << pinNum);
 371              		.loc 1 1031 0
 372 004a 0B4B     		ldr	r3, .L25+4
 373 004c 1B68     		ldr	r3, [r3]
 374 004e 93F87E30 		ldrb	r3, [r3, #126]	@ zero_extendqisi2
 375 0052 1A46     		mov	r2, r3
 376 0054 FB68     		ldr	r3, [r7, #12]
 377 0056 1344     		add	r3, r3, r2
 378 0058 1946     		mov	r1, r3
 379 005a 7B68     		ldr	r3, [r7, #4]
 380 005c 03F00102 		and	r2, r3, #1
 381 0060 BB68     		ldr	r3, [r7, #8]
 382 0062 9A40     		lsls	r2, r2, r3
 383 0064 7B69     		ldr	r3, [r7, #20]
ARM GAS  C:\Users\stijn\AppData\Local\Temp\ccD3lQ9e.s 			page 26


 384 0066 1343     		orrs	r3, r3, r2
 385 0068 0B60     		str	r3, [r1]
1032:Generated_Source\PSoC6\pdl\drivers\peripheral\gpio/cy_gpio.h **** }
 386              		.loc 1 1032 0
 387 006a 00BF     		nop
 388 006c 1837     		adds	r7, r7, #24
 389              		.cfi_def_cfa_offset 8
 390 006e BD46     		mov	sp, r7
 391              		.cfi_def_cfa_register 13
 392              		@ sp needed
 393 0070 80BD     		pop	{r7, pc}
 394              	.L26:
 395 0072 00BF     		.align	2
 396              	.L25:
 397 0074 00000000 		.word	.LC0
 398 0078 00000000 		.word	cy_device
 399              		.cfi_endproc
 400              	.LFE143:
 401              		.size	Cy_GPIO_SetVtrip, .-Cy_GPIO_SetVtrip
 402              		.section	.text.Cy_GPIO_SetInterruptMask,"ax",%progbits
 403              		.align	2
 404              		.thumb
 405              		.thumb_func
 406              		.type	Cy_GPIO_SetInterruptMask, %function
 407              	Cy_GPIO_SetInterruptMask:
 408              	.LFB161:
1033:Generated_Source\PSoC6\pdl\drivers\peripheral\gpio/cy_gpio.h **** 
1034:Generated_Source\PSoC6\pdl\drivers\peripheral\gpio/cy_gpio.h **** 
1035:Generated_Source\PSoC6\pdl\drivers\peripheral\gpio/cy_gpio.h **** /*******************************************************************************
1036:Generated_Source\PSoC6\pdl\drivers\peripheral\gpio/cy_gpio.h **** * Function Name: Cy_GPIO_GetVtrip
1037:Generated_Source\PSoC6\pdl\drivers\peripheral\gpio/cy_gpio.h **** ****************************************************************************//**
1038:Generated_Source\PSoC6\pdl\drivers\peripheral\gpio/cy_gpio.h **** *
1039:Generated_Source\PSoC6\pdl\drivers\peripheral\gpio/cy_gpio.h **** * Returns the pin input buffer voltage threshold mode.
1040:Generated_Source\PSoC6\pdl\drivers\peripheral\gpio/cy_gpio.h **** *
1041:Generated_Source\PSoC6\pdl\drivers\peripheral\gpio/cy_gpio.h **** * \param base
1042:Generated_Source\PSoC6\pdl\drivers\peripheral\gpio/cy_gpio.h **** * Pointer to the pin's port register base address
1043:Generated_Source\PSoC6\pdl\drivers\peripheral\gpio/cy_gpio.h **** *
1044:Generated_Source\PSoC6\pdl\drivers\peripheral\gpio/cy_gpio.h **** * \param pinNum
1045:Generated_Source\PSoC6\pdl\drivers\peripheral\gpio/cy_gpio.h **** * Position of the pin bit-field within the port register
1046:Generated_Source\PSoC6\pdl\drivers\peripheral\gpio/cy_gpio.h **** *
1047:Generated_Source\PSoC6\pdl\drivers\peripheral\gpio/cy_gpio.h **** * \return
1048:Generated_Source\PSoC6\pdl\drivers\peripheral\gpio/cy_gpio.h **** * Pin voltage threshold mode. Options are detailed in \ref group_gpio_vtrip macros
1049:Generated_Source\PSoC6\pdl\drivers\peripheral\gpio/cy_gpio.h **** *
1050:Generated_Source\PSoC6\pdl\drivers\peripheral\gpio/cy_gpio.h **** * \funcusage
1051:Generated_Source\PSoC6\pdl\drivers\peripheral\gpio/cy_gpio.h **** * \snippet gpio/gpio_v1_10_sut_01.cydsn/main_cm4.c snippet_Cy_GPIO_SetVtrip
1052:Generated_Source\PSoC6\pdl\drivers\peripheral\gpio/cy_gpio.h **** *
1053:Generated_Source\PSoC6\pdl\drivers\peripheral\gpio/cy_gpio.h **** *******************************************************************************/
1054:Generated_Source\PSoC6\pdl\drivers\peripheral\gpio/cy_gpio.h **** __STATIC_INLINE uint32_t Cy_GPIO_GetVtrip(GPIO_PRT_Type* base, uint32_t pinNum)
1055:Generated_Source\PSoC6\pdl\drivers\peripheral\gpio/cy_gpio.h **** {
1056:Generated_Source\PSoC6\pdl\drivers\peripheral\gpio/cy_gpio.h ****     CY_ASSERT_L2(CY_GPIO_IS_PIN_VALID(pinNum));
1057:Generated_Source\PSoC6\pdl\drivers\peripheral\gpio/cy_gpio.h ****     
1058:Generated_Source\PSoC6\pdl\drivers\peripheral\gpio/cy_gpio.h ****     return (GPIO_PRT_CFG_IN(base) >> pinNum) & CY_GPIO_CFG_IN_VTRIP_SEL_MASK;
1059:Generated_Source\PSoC6\pdl\drivers\peripheral\gpio/cy_gpio.h **** }
1060:Generated_Source\PSoC6\pdl\drivers\peripheral\gpio/cy_gpio.h **** 
1061:Generated_Source\PSoC6\pdl\drivers\peripheral\gpio/cy_gpio.h **** 
1062:Generated_Source\PSoC6\pdl\drivers\peripheral\gpio/cy_gpio.h **** /*******************************************************************************
1063:Generated_Source\PSoC6\pdl\drivers\peripheral\gpio/cy_gpio.h **** * Function Name: Cy_GPIO_SetSlewRate
ARM GAS  C:\Users\stijn\AppData\Local\Temp\ccD3lQ9e.s 			page 27


1064:Generated_Source\PSoC6\pdl\drivers\peripheral\gpio/cy_gpio.h **** ****************************************************************************//**
1065:Generated_Source\PSoC6\pdl\drivers\peripheral\gpio/cy_gpio.h **** *
1066:Generated_Source\PSoC6\pdl\drivers\peripheral\gpio/cy_gpio.h **** * Configures the pin output buffer slew rate.
1067:Generated_Source\PSoC6\pdl\drivers\peripheral\gpio/cy_gpio.h **** *
1068:Generated_Source\PSoC6\pdl\drivers\peripheral\gpio/cy_gpio.h **** * \note 
1069:Generated_Source\PSoC6\pdl\drivers\peripheral\gpio/cy_gpio.h **** * This function has no effect for the GPIO ports, where the slew rate
1070:Generated_Source\PSoC6\pdl\drivers\peripheral\gpio/cy_gpio.h **** * configuration is not available. Refer to device datasheet for details.
1071:Generated_Source\PSoC6\pdl\drivers\peripheral\gpio/cy_gpio.h **** *
1072:Generated_Source\PSoC6\pdl\drivers\peripheral\gpio/cy_gpio.h **** * \param base
1073:Generated_Source\PSoC6\pdl\drivers\peripheral\gpio/cy_gpio.h **** * Pointer to the pin's port register base address
1074:Generated_Source\PSoC6\pdl\drivers\peripheral\gpio/cy_gpio.h **** *
1075:Generated_Source\PSoC6\pdl\drivers\peripheral\gpio/cy_gpio.h **** * \param pinNum
1076:Generated_Source\PSoC6\pdl\drivers\peripheral\gpio/cy_gpio.h **** * Position of the pin bit-field within the port register
1077:Generated_Source\PSoC6\pdl\drivers\peripheral\gpio/cy_gpio.h **** *
1078:Generated_Source\PSoC6\pdl\drivers\peripheral\gpio/cy_gpio.h **** * \param value
1079:Generated_Source\PSoC6\pdl\drivers\peripheral\gpio/cy_gpio.h **** * Pin slew rate. Options are detailed in \ref group_gpio_slewRate macros
1080:Generated_Source\PSoC6\pdl\drivers\peripheral\gpio/cy_gpio.h **** *
1081:Generated_Source\PSoC6\pdl\drivers\peripheral\gpio/cy_gpio.h **** * \note 
1082:Generated_Source\PSoC6\pdl\drivers\peripheral\gpio/cy_gpio.h **** * This function modifies a port register in a read-modify-write operation. It is
1083:Generated_Source\PSoC6\pdl\drivers\peripheral\gpio/cy_gpio.h **** * not thread safe as the resource is shared among multiple pins on a port.
1084:Generated_Source\PSoC6\pdl\drivers\peripheral\gpio/cy_gpio.h **** *
1085:Generated_Source\PSoC6\pdl\drivers\peripheral\gpio/cy_gpio.h **** * \funcusage
1086:Generated_Source\PSoC6\pdl\drivers\peripheral\gpio/cy_gpio.h **** * \snippet gpio/gpio_v1_10_sut_01.cydsn/main_cm4.c snippet_Cy_GPIO_SetSlewRate
1087:Generated_Source\PSoC6\pdl\drivers\peripheral\gpio/cy_gpio.h **** *
1088:Generated_Source\PSoC6\pdl\drivers\peripheral\gpio/cy_gpio.h **** *******************************************************************************/
1089:Generated_Source\PSoC6\pdl\drivers\peripheral\gpio/cy_gpio.h **** __STATIC_INLINE void Cy_GPIO_SetSlewRate(GPIO_PRT_Type* base, uint32_t pinNum, uint32_t value)
1090:Generated_Source\PSoC6\pdl\drivers\peripheral\gpio/cy_gpio.h **** {
1091:Generated_Source\PSoC6\pdl\drivers\peripheral\gpio/cy_gpio.h ****     uint32_t tempReg;
1092:Generated_Source\PSoC6\pdl\drivers\peripheral\gpio/cy_gpio.h **** 
1093:Generated_Source\PSoC6\pdl\drivers\peripheral\gpio/cy_gpio.h ****     CY_ASSERT_L2(CY_GPIO_IS_PIN_VALID(pinNum));
1094:Generated_Source\PSoC6\pdl\drivers\peripheral\gpio/cy_gpio.h ****     CY_ASSERT_L2(CY_GPIO_IS_VALUE_VALID(value));
1095:Generated_Source\PSoC6\pdl\drivers\peripheral\gpio/cy_gpio.h **** 
1096:Generated_Source\PSoC6\pdl\drivers\peripheral\gpio/cy_gpio.h ****     tempReg = GPIO_PRT_CFG_OUT(base) & ~(CY_GPIO_CFG_OUT_SLOW_MASK << pinNum);
1097:Generated_Source\PSoC6\pdl\drivers\peripheral\gpio/cy_gpio.h ****     GPIO_PRT_CFG_OUT(base) = tempReg | ((value & CY_GPIO_CFG_OUT_SLOW_MASK) << pinNum);
1098:Generated_Source\PSoC6\pdl\drivers\peripheral\gpio/cy_gpio.h **** }
1099:Generated_Source\PSoC6\pdl\drivers\peripheral\gpio/cy_gpio.h **** 
1100:Generated_Source\PSoC6\pdl\drivers\peripheral\gpio/cy_gpio.h **** 
1101:Generated_Source\PSoC6\pdl\drivers\peripheral\gpio/cy_gpio.h **** /*******************************************************************************
1102:Generated_Source\PSoC6\pdl\drivers\peripheral\gpio/cy_gpio.h **** * Function Name: Cy_GPIO_GetSlewRate
1103:Generated_Source\PSoC6\pdl\drivers\peripheral\gpio/cy_gpio.h **** ****************************************************************************//**
1104:Generated_Source\PSoC6\pdl\drivers\peripheral\gpio/cy_gpio.h **** *
1105:Generated_Source\PSoC6\pdl\drivers\peripheral\gpio/cy_gpio.h **** * Returns the pin output buffer slew rate.
1106:Generated_Source\PSoC6\pdl\drivers\peripheral\gpio/cy_gpio.h **** *
1107:Generated_Source\PSoC6\pdl\drivers\peripheral\gpio/cy_gpio.h **** * \param base
1108:Generated_Source\PSoC6\pdl\drivers\peripheral\gpio/cy_gpio.h **** * Pointer to the pin's port register base address
1109:Generated_Source\PSoC6\pdl\drivers\peripheral\gpio/cy_gpio.h **** *
1110:Generated_Source\PSoC6\pdl\drivers\peripheral\gpio/cy_gpio.h **** * \param pinNum
1111:Generated_Source\PSoC6\pdl\drivers\peripheral\gpio/cy_gpio.h **** * Position of the pin bit-field within the port register
1112:Generated_Source\PSoC6\pdl\drivers\peripheral\gpio/cy_gpio.h **** *
1113:Generated_Source\PSoC6\pdl\drivers\peripheral\gpio/cy_gpio.h **** * \return
1114:Generated_Source\PSoC6\pdl\drivers\peripheral\gpio/cy_gpio.h **** * Pin slew rate. Options are detailed in \ref group_gpio_slewRate macros
1115:Generated_Source\PSoC6\pdl\drivers\peripheral\gpio/cy_gpio.h **** *
1116:Generated_Source\PSoC6\pdl\drivers\peripheral\gpio/cy_gpio.h **** * \funcusage
1117:Generated_Source\PSoC6\pdl\drivers\peripheral\gpio/cy_gpio.h **** * \snippet gpio/gpio_v1_10_sut_01.cydsn/main_cm4.c snippet_Cy_GPIO_SetSlewRate
1118:Generated_Source\PSoC6\pdl\drivers\peripheral\gpio/cy_gpio.h **** *
1119:Generated_Source\PSoC6\pdl\drivers\peripheral\gpio/cy_gpio.h **** *******************************************************************************/
1120:Generated_Source\PSoC6\pdl\drivers\peripheral\gpio/cy_gpio.h **** __STATIC_INLINE uint32_t Cy_GPIO_GetSlewRate(GPIO_PRT_Type* base, uint32_t pinNum)
ARM GAS  C:\Users\stijn\AppData\Local\Temp\ccD3lQ9e.s 			page 28


1121:Generated_Source\PSoC6\pdl\drivers\peripheral\gpio/cy_gpio.h **** {
1122:Generated_Source\PSoC6\pdl\drivers\peripheral\gpio/cy_gpio.h ****     CY_ASSERT_L2(CY_GPIO_IS_PIN_VALID(pinNum));
1123:Generated_Source\PSoC6\pdl\drivers\peripheral\gpio/cy_gpio.h **** 
1124:Generated_Source\PSoC6\pdl\drivers\peripheral\gpio/cy_gpio.h ****     return (GPIO_PRT_CFG_OUT(base) >> pinNum) & CY_GPIO_CFG_OUT_SLOW_MASK;
1125:Generated_Source\PSoC6\pdl\drivers\peripheral\gpio/cy_gpio.h **** }
1126:Generated_Source\PSoC6\pdl\drivers\peripheral\gpio/cy_gpio.h **** 
1127:Generated_Source\PSoC6\pdl\drivers\peripheral\gpio/cy_gpio.h **** 
1128:Generated_Source\PSoC6\pdl\drivers\peripheral\gpio/cy_gpio.h **** /*******************************************************************************
1129:Generated_Source\PSoC6\pdl\drivers\peripheral\gpio/cy_gpio.h **** * Function Name: Cy_GPIO_SetDriveSel
1130:Generated_Source\PSoC6\pdl\drivers\peripheral\gpio/cy_gpio.h **** ****************************************************************************//**
1131:Generated_Source\PSoC6\pdl\drivers\peripheral\gpio/cy_gpio.h **** *
1132:Generated_Source\PSoC6\pdl\drivers\peripheral\gpio/cy_gpio.h **** * Configures the pin output buffer drive strength.
1133:Generated_Source\PSoC6\pdl\drivers\peripheral\gpio/cy_gpio.h **** *
1134:Generated_Source\PSoC6\pdl\drivers\peripheral\gpio/cy_gpio.h **** * \param base
1135:Generated_Source\PSoC6\pdl\drivers\peripheral\gpio/cy_gpio.h **** * Pointer to the pin's port register base address
1136:Generated_Source\PSoC6\pdl\drivers\peripheral\gpio/cy_gpio.h **** *
1137:Generated_Source\PSoC6\pdl\drivers\peripheral\gpio/cy_gpio.h **** * \param pinNum
1138:Generated_Source\PSoC6\pdl\drivers\peripheral\gpio/cy_gpio.h **** * Position of the pin bit-field within the port register
1139:Generated_Source\PSoC6\pdl\drivers\peripheral\gpio/cy_gpio.h **** *
1140:Generated_Source\PSoC6\pdl\drivers\peripheral\gpio/cy_gpio.h **** * \param value
1141:Generated_Source\PSoC6\pdl\drivers\peripheral\gpio/cy_gpio.h **** * Pin drive strength. Options are detailed in \ref group_gpio_driveStrength macros
1142:Generated_Source\PSoC6\pdl\drivers\peripheral\gpio/cy_gpio.h **** *
1143:Generated_Source\PSoC6\pdl\drivers\peripheral\gpio/cy_gpio.h **** * \note 
1144:Generated_Source\PSoC6\pdl\drivers\peripheral\gpio/cy_gpio.h **** * This function modifies a port register in a read-modify-write operation. It is
1145:Generated_Source\PSoC6\pdl\drivers\peripheral\gpio/cy_gpio.h **** * not thread safe as the resource is shared among multiple pins on a port.
1146:Generated_Source\PSoC6\pdl\drivers\peripheral\gpio/cy_gpio.h **** *
1147:Generated_Source\PSoC6\pdl\drivers\peripheral\gpio/cy_gpio.h **** * \funcusage
1148:Generated_Source\PSoC6\pdl\drivers\peripheral\gpio/cy_gpio.h **** * \snippet gpio/gpio_v1_10_sut_01.cydsn/main_cm4.c snippet_Cy_GPIO_SetDriveSel
1149:Generated_Source\PSoC6\pdl\drivers\peripheral\gpio/cy_gpio.h **** *
1150:Generated_Source\PSoC6\pdl\drivers\peripheral\gpio/cy_gpio.h **** *******************************************************************************/
1151:Generated_Source\PSoC6\pdl\drivers\peripheral\gpio/cy_gpio.h **** __STATIC_INLINE void Cy_GPIO_SetDriveSel(GPIO_PRT_Type* base, uint32_t pinNum, uint32_t value)
1152:Generated_Source\PSoC6\pdl\drivers\peripheral\gpio/cy_gpio.h **** {
1153:Generated_Source\PSoC6\pdl\drivers\peripheral\gpio/cy_gpio.h ****     uint32_t tempReg;
1154:Generated_Source\PSoC6\pdl\drivers\peripheral\gpio/cy_gpio.h ****     uint32_t pinLoc;
1155:Generated_Source\PSoC6\pdl\drivers\peripheral\gpio/cy_gpio.h **** 
1156:Generated_Source\PSoC6\pdl\drivers\peripheral\gpio/cy_gpio.h ****     CY_ASSERT_L2(CY_GPIO_IS_PIN_VALID(pinNum));
1157:Generated_Source\PSoC6\pdl\drivers\peripheral\gpio/cy_gpio.h ****     CY_ASSERT_L2(CY_GPIO_IS_DRIVE_SEL_VALID(value));
1158:Generated_Source\PSoC6\pdl\drivers\peripheral\gpio/cy_gpio.h ****     
1159:Generated_Source\PSoC6\pdl\drivers\peripheral\gpio/cy_gpio.h ****     pinLoc = (uint32_t)(pinNum << 1u) + CY_GPIO_CFG_OUT_DRIVE_OFFSET;
1160:Generated_Source\PSoC6\pdl\drivers\peripheral\gpio/cy_gpio.h ****     tempReg = GPIO_PRT_CFG_OUT(base) & ~(CY_GPIO_CFG_OUT_DRIVE_SEL_MASK << pinLoc);
1161:Generated_Source\PSoC6\pdl\drivers\peripheral\gpio/cy_gpio.h ****     GPIO_PRT_CFG_OUT(base) = tempReg | ((value & CY_GPIO_CFG_OUT_DRIVE_SEL_MASK) << pinLoc);
1162:Generated_Source\PSoC6\pdl\drivers\peripheral\gpio/cy_gpio.h **** }
1163:Generated_Source\PSoC6\pdl\drivers\peripheral\gpio/cy_gpio.h **** 
1164:Generated_Source\PSoC6\pdl\drivers\peripheral\gpio/cy_gpio.h **** 
1165:Generated_Source\PSoC6\pdl\drivers\peripheral\gpio/cy_gpio.h **** /*******************************************************************************
1166:Generated_Source\PSoC6\pdl\drivers\peripheral\gpio/cy_gpio.h **** * Function Name: Cy_GPIO_GetDriveSel
1167:Generated_Source\PSoC6\pdl\drivers\peripheral\gpio/cy_gpio.h **** ****************************************************************************//**
1168:Generated_Source\PSoC6\pdl\drivers\peripheral\gpio/cy_gpio.h **** *
1169:Generated_Source\PSoC6\pdl\drivers\peripheral\gpio/cy_gpio.h **** * Returns the pin output buffer drive strength.
1170:Generated_Source\PSoC6\pdl\drivers\peripheral\gpio/cy_gpio.h **** *
1171:Generated_Source\PSoC6\pdl\drivers\peripheral\gpio/cy_gpio.h **** * \param base
1172:Generated_Source\PSoC6\pdl\drivers\peripheral\gpio/cy_gpio.h **** * Pointer to the pin's port register base address
1173:Generated_Source\PSoC6\pdl\drivers\peripheral\gpio/cy_gpio.h **** *
1174:Generated_Source\PSoC6\pdl\drivers\peripheral\gpio/cy_gpio.h **** * \param pinNum
1175:Generated_Source\PSoC6\pdl\drivers\peripheral\gpio/cy_gpio.h **** * Position of the pin bit-field within the port register
1176:Generated_Source\PSoC6\pdl\drivers\peripheral\gpio/cy_gpio.h **** *
1177:Generated_Source\PSoC6\pdl\drivers\peripheral\gpio/cy_gpio.h **** * \return
ARM GAS  C:\Users\stijn\AppData\Local\Temp\ccD3lQ9e.s 			page 29


1178:Generated_Source\PSoC6\pdl\drivers\peripheral\gpio/cy_gpio.h **** * Pin drive strength. Options are detailed in \ref group_gpio_driveStrength macros
1179:Generated_Source\PSoC6\pdl\drivers\peripheral\gpio/cy_gpio.h **** *
1180:Generated_Source\PSoC6\pdl\drivers\peripheral\gpio/cy_gpio.h **** * \funcusage
1181:Generated_Source\PSoC6\pdl\drivers\peripheral\gpio/cy_gpio.h **** * \snippet gpio/gpio_v1_10_sut_01.cydsn/main_cm4.c snippet_Cy_GPIO_SetDriveSel
1182:Generated_Source\PSoC6\pdl\drivers\peripheral\gpio/cy_gpio.h **** *
1183:Generated_Source\PSoC6\pdl\drivers\peripheral\gpio/cy_gpio.h **** *******************************************************************************/
1184:Generated_Source\PSoC6\pdl\drivers\peripheral\gpio/cy_gpio.h **** __STATIC_INLINE uint32_t Cy_GPIO_GetDriveSel(GPIO_PRT_Type* base, uint32_t pinNum)
1185:Generated_Source\PSoC6\pdl\drivers\peripheral\gpio/cy_gpio.h **** {
1186:Generated_Source\PSoC6\pdl\drivers\peripheral\gpio/cy_gpio.h ****     CY_ASSERT_L2(CY_GPIO_IS_PIN_VALID(pinNum));
1187:Generated_Source\PSoC6\pdl\drivers\peripheral\gpio/cy_gpio.h **** 
1188:Generated_Source\PSoC6\pdl\drivers\peripheral\gpio/cy_gpio.h ****     return ((GPIO_PRT_CFG_OUT(base) >> ((uint32_t)(pinNum << 1u) + CY_GPIO_CFG_OUT_DRIVE_OFFSET)) 
1189:Generated_Source\PSoC6\pdl\drivers\peripheral\gpio/cy_gpio.h ****             & CY_GPIO_CFG_OUT_DRIVE_SEL_MASK);
1190:Generated_Source\PSoC6\pdl\drivers\peripheral\gpio/cy_gpio.h **** }
1191:Generated_Source\PSoC6\pdl\drivers\peripheral\gpio/cy_gpio.h **** 
1192:Generated_Source\PSoC6\pdl\drivers\peripheral\gpio/cy_gpio.h **** /** \} group_gpio_functions_gpio */
1193:Generated_Source\PSoC6\pdl\drivers\peripheral\gpio/cy_gpio.h **** 
1194:Generated_Source\PSoC6\pdl\drivers\peripheral\gpio/cy_gpio.h **** /**
1195:Generated_Source\PSoC6\pdl\drivers\peripheral\gpio/cy_gpio.h **** * \addtogroup group_gpio_functions_sio
1196:Generated_Source\PSoC6\pdl\drivers\peripheral\gpio/cy_gpio.h **** * \{
1197:Generated_Source\PSoC6\pdl\drivers\peripheral\gpio/cy_gpio.h **** */
1198:Generated_Source\PSoC6\pdl\drivers\peripheral\gpio/cy_gpio.h **** 
1199:Generated_Source\PSoC6\pdl\drivers\peripheral\gpio/cy_gpio.h **** /*******************************************************************************
1200:Generated_Source\PSoC6\pdl\drivers\peripheral\gpio/cy_gpio.h **** * Function Name: Cy_GPIO_SetVregEn
1201:Generated_Source\PSoC6\pdl\drivers\peripheral\gpio/cy_gpio.h **** ****************************************************************************//**
1202:Generated_Source\PSoC6\pdl\drivers\peripheral\gpio/cy_gpio.h **** *
1203:Generated_Source\PSoC6\pdl\drivers\peripheral\gpio/cy_gpio.h **** * Configures the SIO pin pair output buffer regulation mode.
1204:Generated_Source\PSoC6\pdl\drivers\peripheral\gpio/cy_gpio.h **** *
1205:Generated_Source\PSoC6\pdl\drivers\peripheral\gpio/cy_gpio.h **** * Note that this function has no effect on non-SIO pins.
1206:Generated_Source\PSoC6\pdl\drivers\peripheral\gpio/cy_gpio.h **** *
1207:Generated_Source\PSoC6\pdl\drivers\peripheral\gpio/cy_gpio.h **** * \param base
1208:Generated_Source\PSoC6\pdl\drivers\peripheral\gpio/cy_gpio.h **** * Pointer to the pin's port register base address
1209:Generated_Source\PSoC6\pdl\drivers\peripheral\gpio/cy_gpio.h **** *
1210:Generated_Source\PSoC6\pdl\drivers\peripheral\gpio/cy_gpio.h **** * \param pinNum
1211:Generated_Source\PSoC6\pdl\drivers\peripheral\gpio/cy_gpio.h **** * Position of the pin bit-field within the port register
1212:Generated_Source\PSoC6\pdl\drivers\peripheral\gpio/cy_gpio.h **** *
1213:Generated_Source\PSoC6\pdl\drivers\peripheral\gpio/cy_gpio.h **** * \param value
1214:Generated_Source\PSoC6\pdl\drivers\peripheral\gpio/cy_gpio.h **** * SIO pair output buffer regulator mode. Options are detailed in \ref group_gpio_sioVreg macros
1215:Generated_Source\PSoC6\pdl\drivers\peripheral\gpio/cy_gpio.h **** *
1216:Generated_Source\PSoC6\pdl\drivers\peripheral\gpio/cy_gpio.h **** * \note 
1217:Generated_Source\PSoC6\pdl\drivers\peripheral\gpio/cy_gpio.h **** * This function modifies a port register in a read-modify-write operation. It is
1218:Generated_Source\PSoC6\pdl\drivers\peripheral\gpio/cy_gpio.h **** * not thread safe as the resource is shared among multiple pins on a port.
1219:Generated_Source\PSoC6\pdl\drivers\peripheral\gpio/cy_gpio.h **** *
1220:Generated_Source\PSoC6\pdl\drivers\peripheral\gpio/cy_gpio.h **** * \funcusage
1221:Generated_Source\PSoC6\pdl\drivers\peripheral\gpio/cy_gpio.h **** * \snippet gpio/gpio_v1_10_sut_01.cydsn/main_cm4.c snippet_Cy_GPIO_SetVregEn
1222:Generated_Source\PSoC6\pdl\drivers\peripheral\gpio/cy_gpio.h **** *
1223:Generated_Source\PSoC6\pdl\drivers\peripheral\gpio/cy_gpio.h **** *******************************************************************************/
1224:Generated_Source\PSoC6\pdl\drivers\peripheral\gpio/cy_gpio.h **** __STATIC_INLINE void Cy_GPIO_SetVregEn(GPIO_PRT_Type* base, uint32_t pinNum, uint32_t value)
1225:Generated_Source\PSoC6\pdl\drivers\peripheral\gpio/cy_gpio.h **** {
1226:Generated_Source\PSoC6\pdl\drivers\peripheral\gpio/cy_gpio.h ****     uint32_t tempReg;
1227:Generated_Source\PSoC6\pdl\drivers\peripheral\gpio/cy_gpio.h ****     uint32_t pinLoc;
1228:Generated_Source\PSoC6\pdl\drivers\peripheral\gpio/cy_gpio.h **** 
1229:Generated_Source\PSoC6\pdl\drivers\peripheral\gpio/cy_gpio.h ****     CY_ASSERT_L2(CY_GPIO_IS_PIN_VALID(pinNum));
1230:Generated_Source\PSoC6\pdl\drivers\peripheral\gpio/cy_gpio.h ****     CY_ASSERT_L2(CY_GPIO_IS_VALUE_VALID(value));
1231:Generated_Source\PSoC6\pdl\drivers\peripheral\gpio/cy_gpio.h **** 
1232:Generated_Source\PSoC6\pdl\drivers\peripheral\gpio/cy_gpio.h ****     pinLoc = (pinNum & CY_GPIO_SIO_ODD_PIN_MASK) << CY_GPIO_CFG_SIO_OFFSET;
1233:Generated_Source\PSoC6\pdl\drivers\peripheral\gpio/cy_gpio.h ****     tempReg = GPIO_PRT_CFG_SIO(base) & ~(CY_GPIO_VREG_EN_MASK << pinLoc);
1234:Generated_Source\PSoC6\pdl\drivers\peripheral\gpio/cy_gpio.h ****     GPIO_PRT_CFG_SIO(base) = tempReg | ((value & CY_GPIO_VREG_EN_MASK) << pinLoc);
ARM GAS  C:\Users\stijn\AppData\Local\Temp\ccD3lQ9e.s 			page 30


1235:Generated_Source\PSoC6\pdl\drivers\peripheral\gpio/cy_gpio.h **** }
1236:Generated_Source\PSoC6\pdl\drivers\peripheral\gpio/cy_gpio.h **** 
1237:Generated_Source\PSoC6\pdl\drivers\peripheral\gpio/cy_gpio.h **** 
1238:Generated_Source\PSoC6\pdl\drivers\peripheral\gpio/cy_gpio.h **** /*******************************************************************************
1239:Generated_Source\PSoC6\pdl\drivers\peripheral\gpio/cy_gpio.h **** * Function Name: Cy_GPIO_GetVregEn
1240:Generated_Source\PSoC6\pdl\drivers\peripheral\gpio/cy_gpio.h **** ****************************************************************************//**
1241:Generated_Source\PSoC6\pdl\drivers\peripheral\gpio/cy_gpio.h **** *
1242:Generated_Source\PSoC6\pdl\drivers\peripheral\gpio/cy_gpio.h **** * Returns the SIO pin pair output buffer regulation mode.
1243:Generated_Source\PSoC6\pdl\drivers\peripheral\gpio/cy_gpio.h **** *
1244:Generated_Source\PSoC6\pdl\drivers\peripheral\gpio/cy_gpio.h **** * Note that this function has no effect on non-SIO pins.
1245:Generated_Source\PSoC6\pdl\drivers\peripheral\gpio/cy_gpio.h **** *
1246:Generated_Source\PSoC6\pdl\drivers\peripheral\gpio/cy_gpio.h **** * \param base
1247:Generated_Source\PSoC6\pdl\drivers\peripheral\gpio/cy_gpio.h **** * Pointer to the pin's port register base address
1248:Generated_Source\PSoC6\pdl\drivers\peripheral\gpio/cy_gpio.h **** *
1249:Generated_Source\PSoC6\pdl\drivers\peripheral\gpio/cy_gpio.h **** * \param pinNum
1250:Generated_Source\PSoC6\pdl\drivers\peripheral\gpio/cy_gpio.h **** * Position of the pin bit-field within the port register
1251:Generated_Source\PSoC6\pdl\drivers\peripheral\gpio/cy_gpio.h **** *
1252:Generated_Source\PSoC6\pdl\drivers\peripheral\gpio/cy_gpio.h **** * \return
1253:Generated_Source\PSoC6\pdl\drivers\peripheral\gpio/cy_gpio.h **** * SIO pair output buffer regulator mode. Options are detailed in \ref group_gpio_sioVreg macros
1254:Generated_Source\PSoC6\pdl\drivers\peripheral\gpio/cy_gpio.h **** *
1255:Generated_Source\PSoC6\pdl\drivers\peripheral\gpio/cy_gpio.h **** * \funcusage
1256:Generated_Source\PSoC6\pdl\drivers\peripheral\gpio/cy_gpio.h **** * \snippet gpio/gpio_v1_10_sut_01.cydsn/main_cm4.c snippet_Cy_GPIO_SetVregEn
1257:Generated_Source\PSoC6\pdl\drivers\peripheral\gpio/cy_gpio.h **** *
1258:Generated_Source\PSoC6\pdl\drivers\peripheral\gpio/cy_gpio.h **** *******************************************************************************/
1259:Generated_Source\PSoC6\pdl\drivers\peripheral\gpio/cy_gpio.h **** __STATIC_INLINE uint32_t Cy_GPIO_GetVregEn(GPIO_PRT_Type* base, uint32_t pinNum)
1260:Generated_Source\PSoC6\pdl\drivers\peripheral\gpio/cy_gpio.h **** {
1261:Generated_Source\PSoC6\pdl\drivers\peripheral\gpio/cy_gpio.h ****     CY_ASSERT_L2(CY_GPIO_IS_PIN_VALID(pinNum));
1262:Generated_Source\PSoC6\pdl\drivers\peripheral\gpio/cy_gpio.h ****     
1263:Generated_Source\PSoC6\pdl\drivers\peripheral\gpio/cy_gpio.h ****     return (GPIO_PRT_CFG_SIO(base) >> ((pinNum & CY_GPIO_SIO_ODD_PIN_MASK) << CY_GPIO_CFG_SIO_OFFSE
1264:Generated_Source\PSoC6\pdl\drivers\peripheral\gpio/cy_gpio.h **** }
1265:Generated_Source\PSoC6\pdl\drivers\peripheral\gpio/cy_gpio.h **** 
1266:Generated_Source\PSoC6\pdl\drivers\peripheral\gpio/cy_gpio.h **** 
1267:Generated_Source\PSoC6\pdl\drivers\peripheral\gpio/cy_gpio.h **** /*******************************************************************************
1268:Generated_Source\PSoC6\pdl\drivers\peripheral\gpio/cy_gpio.h **** * Function Name: Cy_GPIO_SetIbufMode
1269:Generated_Source\PSoC6\pdl\drivers\peripheral\gpio/cy_gpio.h **** ****************************************************************************//**
1270:Generated_Source\PSoC6\pdl\drivers\peripheral\gpio/cy_gpio.h **** *
1271:Generated_Source\PSoC6\pdl\drivers\peripheral\gpio/cy_gpio.h **** * Configures the SIO pin pair input buffer mode.
1272:Generated_Source\PSoC6\pdl\drivers\peripheral\gpio/cy_gpio.h **** *
1273:Generated_Source\PSoC6\pdl\drivers\peripheral\gpio/cy_gpio.h **** * Note that this function has no effect on non-SIO pins.
1274:Generated_Source\PSoC6\pdl\drivers\peripheral\gpio/cy_gpio.h **** *
1275:Generated_Source\PSoC6\pdl\drivers\peripheral\gpio/cy_gpio.h **** * \param base
1276:Generated_Source\PSoC6\pdl\drivers\peripheral\gpio/cy_gpio.h **** * Pointer to the pin's port register base address
1277:Generated_Source\PSoC6\pdl\drivers\peripheral\gpio/cy_gpio.h **** *
1278:Generated_Source\PSoC6\pdl\drivers\peripheral\gpio/cy_gpio.h **** * \param pinNum
1279:Generated_Source\PSoC6\pdl\drivers\peripheral\gpio/cy_gpio.h **** * Position of the pin bit-field within the port register
1280:Generated_Source\PSoC6\pdl\drivers\peripheral\gpio/cy_gpio.h **** *
1281:Generated_Source\PSoC6\pdl\drivers\peripheral\gpio/cy_gpio.h **** * \param value
1282:Generated_Source\PSoC6\pdl\drivers\peripheral\gpio/cy_gpio.h **** * SIO pair input buffer mode. Options are detailed in \ref group_gpio_sioIbuf macros
1283:Generated_Source\PSoC6\pdl\drivers\peripheral\gpio/cy_gpio.h **** *
1284:Generated_Source\PSoC6\pdl\drivers\peripheral\gpio/cy_gpio.h **** * \note 
1285:Generated_Source\PSoC6\pdl\drivers\peripheral\gpio/cy_gpio.h **** * This function modifies a port register in a read-modify-write operation. It is
1286:Generated_Source\PSoC6\pdl\drivers\peripheral\gpio/cy_gpio.h **** * not thread safe as the resource is shared among multiple pins on a port.
1287:Generated_Source\PSoC6\pdl\drivers\peripheral\gpio/cy_gpio.h **** *
1288:Generated_Source\PSoC6\pdl\drivers\peripheral\gpio/cy_gpio.h **** * \funcusage
1289:Generated_Source\PSoC6\pdl\drivers\peripheral\gpio/cy_gpio.h **** * \snippet gpio/gpio_v1_10_sut_01.cydsn/main_cm4.c snippet_Cy_GPIO_SetIbufMode
1290:Generated_Source\PSoC6\pdl\drivers\peripheral\gpio/cy_gpio.h **** *
1291:Generated_Source\PSoC6\pdl\drivers\peripheral\gpio/cy_gpio.h **** *******************************************************************************/
ARM GAS  C:\Users\stijn\AppData\Local\Temp\ccD3lQ9e.s 			page 31


1292:Generated_Source\PSoC6\pdl\drivers\peripheral\gpio/cy_gpio.h **** __STATIC_INLINE void Cy_GPIO_SetIbufMode(GPIO_PRT_Type* base, uint32_t pinNum, uint32_t value)
1293:Generated_Source\PSoC6\pdl\drivers\peripheral\gpio/cy_gpio.h **** {
1294:Generated_Source\PSoC6\pdl\drivers\peripheral\gpio/cy_gpio.h ****     uint32_t tempReg;
1295:Generated_Source\PSoC6\pdl\drivers\peripheral\gpio/cy_gpio.h ****     uint32_t pinLoc;
1296:Generated_Source\PSoC6\pdl\drivers\peripheral\gpio/cy_gpio.h **** 
1297:Generated_Source\PSoC6\pdl\drivers\peripheral\gpio/cy_gpio.h ****     CY_ASSERT_L2(CY_GPIO_IS_PIN_VALID(pinNum));
1298:Generated_Source\PSoC6\pdl\drivers\peripheral\gpio/cy_gpio.h ****     CY_ASSERT_L2(CY_GPIO_IS_VALUE_VALID(value));
1299:Generated_Source\PSoC6\pdl\drivers\peripheral\gpio/cy_gpio.h **** 
1300:Generated_Source\PSoC6\pdl\drivers\peripheral\gpio/cy_gpio.h ****     pinLoc = ((pinNum & CY_GPIO_SIO_ODD_PIN_MASK) << CY_GPIO_CFG_SIO_OFFSET) + CY_GPIO_IBUF_SHIFT;
1301:Generated_Source\PSoC6\pdl\drivers\peripheral\gpio/cy_gpio.h ****     tempReg = (GPIO_PRT_CFG_SIO(base) & ~(CY_GPIO_IBUF_MASK << pinLoc));
1302:Generated_Source\PSoC6\pdl\drivers\peripheral\gpio/cy_gpio.h ****     GPIO_PRT_CFG_SIO(base) = tempReg | ((value & CY_GPIO_IBUF_MASK) << pinLoc);
1303:Generated_Source\PSoC6\pdl\drivers\peripheral\gpio/cy_gpio.h **** }
1304:Generated_Source\PSoC6\pdl\drivers\peripheral\gpio/cy_gpio.h **** 
1305:Generated_Source\PSoC6\pdl\drivers\peripheral\gpio/cy_gpio.h **** 
1306:Generated_Source\PSoC6\pdl\drivers\peripheral\gpio/cy_gpio.h **** /*******************************************************************************
1307:Generated_Source\PSoC6\pdl\drivers\peripheral\gpio/cy_gpio.h **** * Function Name: Cy_GPIO_GetIbufMode
1308:Generated_Source\PSoC6\pdl\drivers\peripheral\gpio/cy_gpio.h **** ****************************************************************************//**
1309:Generated_Source\PSoC6\pdl\drivers\peripheral\gpio/cy_gpio.h **** *
1310:Generated_Source\PSoC6\pdl\drivers\peripheral\gpio/cy_gpio.h **** * Returns the SIO pin pair input buffer mode.
1311:Generated_Source\PSoC6\pdl\drivers\peripheral\gpio/cy_gpio.h **** *
1312:Generated_Source\PSoC6\pdl\drivers\peripheral\gpio/cy_gpio.h **** * Note that this function has no effect on non-SIO pins.
1313:Generated_Source\PSoC6\pdl\drivers\peripheral\gpio/cy_gpio.h **** *
1314:Generated_Source\PSoC6\pdl\drivers\peripheral\gpio/cy_gpio.h **** * \param base
1315:Generated_Source\PSoC6\pdl\drivers\peripheral\gpio/cy_gpio.h **** * Pointer to the pin's port register base address
1316:Generated_Source\PSoC6\pdl\drivers\peripheral\gpio/cy_gpio.h **** *
1317:Generated_Source\PSoC6\pdl\drivers\peripheral\gpio/cy_gpio.h **** * \param pinNum
1318:Generated_Source\PSoC6\pdl\drivers\peripheral\gpio/cy_gpio.h **** * Position of the pin bit-field within the port register
1319:Generated_Source\PSoC6\pdl\drivers\peripheral\gpio/cy_gpio.h **** *
1320:Generated_Source\PSoC6\pdl\drivers\peripheral\gpio/cy_gpio.h **** * \return
1321:Generated_Source\PSoC6\pdl\drivers\peripheral\gpio/cy_gpio.h **** * SIO pair input buffer mode. Options are detailed in \ref group_gpio_sioIbuf macros
1322:Generated_Source\PSoC6\pdl\drivers\peripheral\gpio/cy_gpio.h **** *
1323:Generated_Source\PSoC6\pdl\drivers\peripheral\gpio/cy_gpio.h **** * \funcusage
1324:Generated_Source\PSoC6\pdl\drivers\peripheral\gpio/cy_gpio.h **** * \snippet gpio/gpio_v1_10_sut_01.cydsn/main_cm4.c snippet_Cy_GPIO_SetIbufMode
1325:Generated_Source\PSoC6\pdl\drivers\peripheral\gpio/cy_gpio.h **** *
1326:Generated_Source\PSoC6\pdl\drivers\peripheral\gpio/cy_gpio.h **** *******************************************************************************/
1327:Generated_Source\PSoC6\pdl\drivers\peripheral\gpio/cy_gpio.h **** __STATIC_INLINE uint32_t Cy_GPIO_GetIbufMode(GPIO_PRT_Type* base, uint32_t pinNum)
1328:Generated_Source\PSoC6\pdl\drivers\peripheral\gpio/cy_gpio.h **** {
1329:Generated_Source\PSoC6\pdl\drivers\peripheral\gpio/cy_gpio.h ****     CY_ASSERT_L2(CY_GPIO_IS_PIN_VALID(pinNum));
1330:Generated_Source\PSoC6\pdl\drivers\peripheral\gpio/cy_gpio.h ****     
1331:Generated_Source\PSoC6\pdl\drivers\peripheral\gpio/cy_gpio.h ****     return (GPIO_PRT_CFG_SIO(base) >> (((pinNum & CY_GPIO_SIO_ODD_PIN_MASK) << CY_GPIO_CFG_SIO_OFFS
1332:Generated_Source\PSoC6\pdl\drivers\peripheral\gpio/cy_gpio.h **** }
1333:Generated_Source\PSoC6\pdl\drivers\peripheral\gpio/cy_gpio.h **** 
1334:Generated_Source\PSoC6\pdl\drivers\peripheral\gpio/cy_gpio.h **** 
1335:Generated_Source\PSoC6\pdl\drivers\peripheral\gpio/cy_gpio.h **** /*******************************************************************************
1336:Generated_Source\PSoC6\pdl\drivers\peripheral\gpio/cy_gpio.h **** * Function Name: Cy_GPIO_SetVtripSel
1337:Generated_Source\PSoC6\pdl\drivers\peripheral\gpio/cy_gpio.h **** ****************************************************************************//**
1338:Generated_Source\PSoC6\pdl\drivers\peripheral\gpio/cy_gpio.h **** *
1339:Generated_Source\PSoC6\pdl\drivers\peripheral\gpio/cy_gpio.h **** * Configures the SIO pin pair input buffer trip point.
1340:Generated_Source\PSoC6\pdl\drivers\peripheral\gpio/cy_gpio.h **** *
1341:Generated_Source\PSoC6\pdl\drivers\peripheral\gpio/cy_gpio.h **** * Note that this function has no effect on non-SIO pins.
1342:Generated_Source\PSoC6\pdl\drivers\peripheral\gpio/cy_gpio.h **** *
1343:Generated_Source\PSoC6\pdl\drivers\peripheral\gpio/cy_gpio.h **** * \param base
1344:Generated_Source\PSoC6\pdl\drivers\peripheral\gpio/cy_gpio.h **** * Pointer to the pin's port register base address
1345:Generated_Source\PSoC6\pdl\drivers\peripheral\gpio/cy_gpio.h **** *
1346:Generated_Source\PSoC6\pdl\drivers\peripheral\gpio/cy_gpio.h **** * \param pinNum
1347:Generated_Source\PSoC6\pdl\drivers\peripheral\gpio/cy_gpio.h **** * Position of the pin bit-field within the port register
1348:Generated_Source\PSoC6\pdl\drivers\peripheral\gpio/cy_gpio.h **** *
ARM GAS  C:\Users\stijn\AppData\Local\Temp\ccD3lQ9e.s 			page 32


1349:Generated_Source\PSoC6\pdl\drivers\peripheral\gpio/cy_gpio.h **** * \param value
1350:Generated_Source\PSoC6\pdl\drivers\peripheral\gpio/cy_gpio.h **** * SIO pair input buffer trip point. Options are detailed in \ref group_gpio_sioVtrip macros
1351:Generated_Source\PSoC6\pdl\drivers\peripheral\gpio/cy_gpio.h **** *
1352:Generated_Source\PSoC6\pdl\drivers\peripheral\gpio/cy_gpio.h **** * \note 
1353:Generated_Source\PSoC6\pdl\drivers\peripheral\gpio/cy_gpio.h **** * This function modifies a port register in a read-modify-write operation. It is
1354:Generated_Source\PSoC6\pdl\drivers\peripheral\gpio/cy_gpio.h **** * not thread safe as the resource is shared among multiple pins on a port.
1355:Generated_Source\PSoC6\pdl\drivers\peripheral\gpio/cy_gpio.h **** *
1356:Generated_Source\PSoC6\pdl\drivers\peripheral\gpio/cy_gpio.h **** * \funcusage
1357:Generated_Source\PSoC6\pdl\drivers\peripheral\gpio/cy_gpio.h **** * \snippet gpio/gpio_v1_10_sut_01.cydsn/main_cm4.c snippet_Cy_GPIO_SetVtripSel
1358:Generated_Source\PSoC6\pdl\drivers\peripheral\gpio/cy_gpio.h **** *
1359:Generated_Source\PSoC6\pdl\drivers\peripheral\gpio/cy_gpio.h **** *******************************************************************************/
1360:Generated_Source\PSoC6\pdl\drivers\peripheral\gpio/cy_gpio.h **** __STATIC_INLINE void Cy_GPIO_SetVtripSel(GPIO_PRT_Type* base, uint32_t pinNum, uint32_t value)
1361:Generated_Source\PSoC6\pdl\drivers\peripheral\gpio/cy_gpio.h **** {
1362:Generated_Source\PSoC6\pdl\drivers\peripheral\gpio/cy_gpio.h ****     uint32_t tempReg;
1363:Generated_Source\PSoC6\pdl\drivers\peripheral\gpio/cy_gpio.h ****     uint32_t pinLoc;
1364:Generated_Source\PSoC6\pdl\drivers\peripheral\gpio/cy_gpio.h **** 
1365:Generated_Source\PSoC6\pdl\drivers\peripheral\gpio/cy_gpio.h ****     CY_ASSERT_L2(CY_GPIO_IS_PIN_VALID(pinNum));
1366:Generated_Source\PSoC6\pdl\drivers\peripheral\gpio/cy_gpio.h ****     CY_ASSERT_L2(CY_GPIO_IS_VALUE_VALID(value));
1367:Generated_Source\PSoC6\pdl\drivers\peripheral\gpio/cy_gpio.h **** 
1368:Generated_Source\PSoC6\pdl\drivers\peripheral\gpio/cy_gpio.h ****     pinLoc = ((pinNum & CY_GPIO_SIO_ODD_PIN_MASK) << CY_GPIO_CFG_SIO_OFFSET) + CY_GPIO_VTRIP_SEL_SH
1369:Generated_Source\PSoC6\pdl\drivers\peripheral\gpio/cy_gpio.h ****     tempReg = (GPIO_PRT_CFG_SIO(base) & ~(CY_GPIO_VTRIP_SEL_MASK << pinLoc));
1370:Generated_Source\PSoC6\pdl\drivers\peripheral\gpio/cy_gpio.h ****     GPIO_PRT_CFG_SIO(base) = tempReg | ((value & CY_GPIO_VTRIP_SEL_MASK) << pinLoc);
1371:Generated_Source\PSoC6\pdl\drivers\peripheral\gpio/cy_gpio.h **** }
1372:Generated_Source\PSoC6\pdl\drivers\peripheral\gpio/cy_gpio.h **** 
1373:Generated_Source\PSoC6\pdl\drivers\peripheral\gpio/cy_gpio.h **** 
1374:Generated_Source\PSoC6\pdl\drivers\peripheral\gpio/cy_gpio.h **** /*******************************************************************************
1375:Generated_Source\PSoC6\pdl\drivers\peripheral\gpio/cy_gpio.h **** * Function Name: Cy_GPIO_GetVtripSel
1376:Generated_Source\PSoC6\pdl\drivers\peripheral\gpio/cy_gpio.h **** ****************************************************************************//**
1377:Generated_Source\PSoC6\pdl\drivers\peripheral\gpio/cy_gpio.h **** *
1378:Generated_Source\PSoC6\pdl\drivers\peripheral\gpio/cy_gpio.h **** * Returns the SIO pin pair input buffer trip point.
1379:Generated_Source\PSoC6\pdl\drivers\peripheral\gpio/cy_gpio.h **** *
1380:Generated_Source\PSoC6\pdl\drivers\peripheral\gpio/cy_gpio.h **** * Note that this function has no effect on non-SIO pins.
1381:Generated_Source\PSoC6\pdl\drivers\peripheral\gpio/cy_gpio.h **** *
1382:Generated_Source\PSoC6\pdl\drivers\peripheral\gpio/cy_gpio.h **** * \param base
1383:Generated_Source\PSoC6\pdl\drivers\peripheral\gpio/cy_gpio.h **** * Pointer to the pin's port register base address
1384:Generated_Source\PSoC6\pdl\drivers\peripheral\gpio/cy_gpio.h **** *
1385:Generated_Source\PSoC6\pdl\drivers\peripheral\gpio/cy_gpio.h **** * \param pinNum
1386:Generated_Source\PSoC6\pdl\drivers\peripheral\gpio/cy_gpio.h **** * Position of the pin bit-field within the port register
1387:Generated_Source\PSoC6\pdl\drivers\peripheral\gpio/cy_gpio.h **** *
1388:Generated_Source\PSoC6\pdl\drivers\peripheral\gpio/cy_gpio.h **** * \return
1389:Generated_Source\PSoC6\pdl\drivers\peripheral\gpio/cy_gpio.h **** * SIO pair input buffer trip point. Options are detailed in \ref group_gpio_sioVtrip macros
1390:Generated_Source\PSoC6\pdl\drivers\peripheral\gpio/cy_gpio.h **** *
1391:Generated_Source\PSoC6\pdl\drivers\peripheral\gpio/cy_gpio.h **** * \funcusage
1392:Generated_Source\PSoC6\pdl\drivers\peripheral\gpio/cy_gpio.h **** * \snippet gpio/gpio_v1_10_sut_01.cydsn/main_cm4.c snippet_Cy_GPIO_SetVtripSel
1393:Generated_Source\PSoC6\pdl\drivers\peripheral\gpio/cy_gpio.h **** *
1394:Generated_Source\PSoC6\pdl\drivers\peripheral\gpio/cy_gpio.h **** *******************************************************************************/
1395:Generated_Source\PSoC6\pdl\drivers\peripheral\gpio/cy_gpio.h **** __STATIC_INLINE uint32_t Cy_GPIO_GetVtripSel(GPIO_PRT_Type* base, uint32_t pinNum)
1396:Generated_Source\PSoC6\pdl\drivers\peripheral\gpio/cy_gpio.h **** {
1397:Generated_Source\PSoC6\pdl\drivers\peripheral\gpio/cy_gpio.h ****     CY_ASSERT_L2(CY_GPIO_IS_PIN_VALID(pinNum));
1398:Generated_Source\PSoC6\pdl\drivers\peripheral\gpio/cy_gpio.h **** 
1399:Generated_Source\PSoC6\pdl\drivers\peripheral\gpio/cy_gpio.h ****     return (GPIO_PRT_CFG_SIO(base) >> (((pinNum & CY_GPIO_SIO_ODD_PIN_MASK) << CY_GPIO_CFG_SIO_OFFS
1400:Generated_Source\PSoC6\pdl\drivers\peripheral\gpio/cy_gpio.h **** }
1401:Generated_Source\PSoC6\pdl\drivers\peripheral\gpio/cy_gpio.h **** 
1402:Generated_Source\PSoC6\pdl\drivers\peripheral\gpio/cy_gpio.h **** 
1403:Generated_Source\PSoC6\pdl\drivers\peripheral\gpio/cy_gpio.h **** /*******************************************************************************
1404:Generated_Source\PSoC6\pdl\drivers\peripheral\gpio/cy_gpio.h **** * Function Name: Cy_GPIO_SetVrefSel
1405:Generated_Source\PSoC6\pdl\drivers\peripheral\gpio/cy_gpio.h **** ****************************************************************************//**
ARM GAS  C:\Users\stijn\AppData\Local\Temp\ccD3lQ9e.s 			page 33


1406:Generated_Source\PSoC6\pdl\drivers\peripheral\gpio/cy_gpio.h **** *
1407:Generated_Source\PSoC6\pdl\drivers\peripheral\gpio/cy_gpio.h **** * Configures the SIO reference voltage for the input buffer trip point.
1408:Generated_Source\PSoC6\pdl\drivers\peripheral\gpio/cy_gpio.h **** *
1409:Generated_Source\PSoC6\pdl\drivers\peripheral\gpio/cy_gpio.h **** * Note that this function has no effect on non-SIO pins.
1410:Generated_Source\PSoC6\pdl\drivers\peripheral\gpio/cy_gpio.h **** *
1411:Generated_Source\PSoC6\pdl\drivers\peripheral\gpio/cy_gpio.h **** * \param base
1412:Generated_Source\PSoC6\pdl\drivers\peripheral\gpio/cy_gpio.h **** * Pointer to the pin's port register base address
1413:Generated_Source\PSoC6\pdl\drivers\peripheral\gpio/cy_gpio.h **** *
1414:Generated_Source\PSoC6\pdl\drivers\peripheral\gpio/cy_gpio.h **** * \param pinNum
1415:Generated_Source\PSoC6\pdl\drivers\peripheral\gpio/cy_gpio.h **** * Position of the pin bit-field within the port register
1416:Generated_Source\PSoC6\pdl\drivers\peripheral\gpio/cy_gpio.h **** *
1417:Generated_Source\PSoC6\pdl\drivers\peripheral\gpio/cy_gpio.h **** * \param value
1418:Generated_Source\PSoC6\pdl\drivers\peripheral\gpio/cy_gpio.h **** * SIO pair reference voltage. Options are detailed in \ref group_gpio_sioVref macros
1419:Generated_Source\PSoC6\pdl\drivers\peripheral\gpio/cy_gpio.h **** *
1420:Generated_Source\PSoC6\pdl\drivers\peripheral\gpio/cy_gpio.h **** * \note 
1421:Generated_Source\PSoC6\pdl\drivers\peripheral\gpio/cy_gpio.h **** * This function modifies a port register in a read-modify-write operation. It is
1422:Generated_Source\PSoC6\pdl\drivers\peripheral\gpio/cy_gpio.h **** * not thread safe as the resource is shared among multiple pins on a port.
1423:Generated_Source\PSoC6\pdl\drivers\peripheral\gpio/cy_gpio.h **** *
1424:Generated_Source\PSoC6\pdl\drivers\peripheral\gpio/cy_gpio.h **** * \funcusage
1425:Generated_Source\PSoC6\pdl\drivers\peripheral\gpio/cy_gpio.h **** * \snippet gpio/gpio_v1_10_sut_01.cydsn/main_cm4.c snippet_Cy_GPIO_SetVrefSel
1426:Generated_Source\PSoC6\pdl\drivers\peripheral\gpio/cy_gpio.h **** *
1427:Generated_Source\PSoC6\pdl\drivers\peripheral\gpio/cy_gpio.h **** *******************************************************************************/
1428:Generated_Source\PSoC6\pdl\drivers\peripheral\gpio/cy_gpio.h **** __STATIC_INLINE void Cy_GPIO_SetVrefSel(GPIO_PRT_Type* base, uint32_t pinNum, uint32_t value)
1429:Generated_Source\PSoC6\pdl\drivers\peripheral\gpio/cy_gpio.h **** {
1430:Generated_Source\PSoC6\pdl\drivers\peripheral\gpio/cy_gpio.h ****     uint32_t tempReg;
1431:Generated_Source\PSoC6\pdl\drivers\peripheral\gpio/cy_gpio.h ****     uint32_t pinLoc;
1432:Generated_Source\PSoC6\pdl\drivers\peripheral\gpio/cy_gpio.h **** 
1433:Generated_Source\PSoC6\pdl\drivers\peripheral\gpio/cy_gpio.h ****     CY_ASSERT_L2(CY_GPIO_IS_PIN_VALID(pinNum));
1434:Generated_Source\PSoC6\pdl\drivers\peripheral\gpio/cy_gpio.h ****     CY_ASSERT_L2(CY_GPIO_IS_VREF_SEL_VALID(value));
1435:Generated_Source\PSoC6\pdl\drivers\peripheral\gpio/cy_gpio.h ****     
1436:Generated_Source\PSoC6\pdl\drivers\peripheral\gpio/cy_gpio.h ****     pinLoc = ((pinNum & CY_GPIO_SIO_ODD_PIN_MASK) << CY_GPIO_CFG_SIO_OFFSET) + CY_GPIO_VREF_SEL_SHI
1437:Generated_Source\PSoC6\pdl\drivers\peripheral\gpio/cy_gpio.h ****     tempReg = (GPIO_PRT_CFG_SIO(base) & ~(CY_GPIO_VREF_SEL_MASK << pinLoc));
1438:Generated_Source\PSoC6\pdl\drivers\peripheral\gpio/cy_gpio.h ****     GPIO_PRT_CFG_SIO(base) = tempReg | ((value & CY_GPIO_VREF_SEL_MASK) << pinLoc);
1439:Generated_Source\PSoC6\pdl\drivers\peripheral\gpio/cy_gpio.h **** }
1440:Generated_Source\PSoC6\pdl\drivers\peripheral\gpio/cy_gpio.h **** 
1441:Generated_Source\PSoC6\pdl\drivers\peripheral\gpio/cy_gpio.h **** 
1442:Generated_Source\PSoC6\pdl\drivers\peripheral\gpio/cy_gpio.h **** /*******************************************************************************
1443:Generated_Source\PSoC6\pdl\drivers\peripheral\gpio/cy_gpio.h **** * Function Name: Cy_GPIO_GetVrefSel
1444:Generated_Source\PSoC6\pdl\drivers\peripheral\gpio/cy_gpio.h **** ****************************************************************************//**
1445:Generated_Source\PSoC6\pdl\drivers\peripheral\gpio/cy_gpio.h **** *
1446:Generated_Source\PSoC6\pdl\drivers\peripheral\gpio/cy_gpio.h **** * Returns the SIO reference voltage for the input buffer trip point.
1447:Generated_Source\PSoC6\pdl\drivers\peripheral\gpio/cy_gpio.h **** *
1448:Generated_Source\PSoC6\pdl\drivers\peripheral\gpio/cy_gpio.h **** * Note that this function has no effect on non-SIO pins.
1449:Generated_Source\PSoC6\pdl\drivers\peripheral\gpio/cy_gpio.h **** *
1450:Generated_Source\PSoC6\pdl\drivers\peripheral\gpio/cy_gpio.h **** * \param base
1451:Generated_Source\PSoC6\pdl\drivers\peripheral\gpio/cy_gpio.h **** * Pointer to the pin's port register base address
1452:Generated_Source\PSoC6\pdl\drivers\peripheral\gpio/cy_gpio.h **** *
1453:Generated_Source\PSoC6\pdl\drivers\peripheral\gpio/cy_gpio.h **** * \param pinNum
1454:Generated_Source\PSoC6\pdl\drivers\peripheral\gpio/cy_gpio.h **** * Position of the pin bit-field within the port register
1455:Generated_Source\PSoC6\pdl\drivers\peripheral\gpio/cy_gpio.h **** *
1456:Generated_Source\PSoC6\pdl\drivers\peripheral\gpio/cy_gpio.h **** * \return
1457:Generated_Source\PSoC6\pdl\drivers\peripheral\gpio/cy_gpio.h **** * SIO pair reference voltage. Options are detailed in \ref group_gpio_sioVref macros
1458:Generated_Source\PSoC6\pdl\drivers\peripheral\gpio/cy_gpio.h **** *
1459:Generated_Source\PSoC6\pdl\drivers\peripheral\gpio/cy_gpio.h **** * \funcusage
1460:Generated_Source\PSoC6\pdl\drivers\peripheral\gpio/cy_gpio.h **** * \snippet gpio/gpio_v1_10_sut_01.cydsn/main_cm4.c snippet_Cy_GPIO_SetVrefSel
1461:Generated_Source\PSoC6\pdl\drivers\peripheral\gpio/cy_gpio.h **** *
1462:Generated_Source\PSoC6\pdl\drivers\peripheral\gpio/cy_gpio.h **** *******************************************************************************/
ARM GAS  C:\Users\stijn\AppData\Local\Temp\ccD3lQ9e.s 			page 34


1463:Generated_Source\PSoC6\pdl\drivers\peripheral\gpio/cy_gpio.h **** __STATIC_INLINE uint32_t Cy_GPIO_GetVrefSel(GPIO_PRT_Type* base, uint32_t pinNum)
1464:Generated_Source\PSoC6\pdl\drivers\peripheral\gpio/cy_gpio.h **** {
1465:Generated_Source\PSoC6\pdl\drivers\peripheral\gpio/cy_gpio.h ****     CY_ASSERT_L2(CY_GPIO_IS_PIN_VALID(pinNum));
1466:Generated_Source\PSoC6\pdl\drivers\peripheral\gpio/cy_gpio.h ****     
1467:Generated_Source\PSoC6\pdl\drivers\peripheral\gpio/cy_gpio.h ****     return (GPIO_PRT_CFG_SIO(base) >> (((pinNum & CY_GPIO_SIO_ODD_PIN_MASK) << CY_GPIO_CFG_SIO_OFFS
1468:Generated_Source\PSoC6\pdl\drivers\peripheral\gpio/cy_gpio.h **** }
1469:Generated_Source\PSoC6\pdl\drivers\peripheral\gpio/cy_gpio.h **** 
1470:Generated_Source\PSoC6\pdl\drivers\peripheral\gpio/cy_gpio.h **** 
1471:Generated_Source\PSoC6\pdl\drivers\peripheral\gpio/cy_gpio.h **** /*******************************************************************************
1472:Generated_Source\PSoC6\pdl\drivers\peripheral\gpio/cy_gpio.h **** * Function Name: Cy_GPIO_SetVohSel
1473:Generated_Source\PSoC6\pdl\drivers\peripheral\gpio/cy_gpio.h **** ****************************************************************************//**
1474:Generated_Source\PSoC6\pdl\drivers\peripheral\gpio/cy_gpio.h **** *
1475:Generated_Source\PSoC6\pdl\drivers\peripheral\gpio/cy_gpio.h **** * Configures the regulated output reference multiplier for the SIO pin pair.
1476:Generated_Source\PSoC6\pdl\drivers\peripheral\gpio/cy_gpio.h **** *
1477:Generated_Source\PSoC6\pdl\drivers\peripheral\gpio/cy_gpio.h **** * The regulated output reference controls both the output level of digital output
1478:Generated_Source\PSoC6\pdl\drivers\peripheral\gpio/cy_gpio.h **** * pin and the input trip point of digital input pin in the SIO pair.
1479:Generated_Source\PSoC6\pdl\drivers\peripheral\gpio/cy_gpio.h **** *
1480:Generated_Source\PSoC6\pdl\drivers\peripheral\gpio/cy_gpio.h **** * Note that this function has no effect on non-SIO pins.
1481:Generated_Source\PSoC6\pdl\drivers\peripheral\gpio/cy_gpio.h **** *
1482:Generated_Source\PSoC6\pdl\drivers\peripheral\gpio/cy_gpio.h **** * \param base
1483:Generated_Source\PSoC6\pdl\drivers\peripheral\gpio/cy_gpio.h **** * Pointer to the pin's port register base address
1484:Generated_Source\PSoC6\pdl\drivers\peripheral\gpio/cy_gpio.h **** *
1485:Generated_Source\PSoC6\pdl\drivers\peripheral\gpio/cy_gpio.h **** * \param pinNum
1486:Generated_Source\PSoC6\pdl\drivers\peripheral\gpio/cy_gpio.h **** * Position of the pin bit-field within the port register
1487:Generated_Source\PSoC6\pdl\drivers\peripheral\gpio/cy_gpio.h **** *
1488:Generated_Source\PSoC6\pdl\drivers\peripheral\gpio/cy_gpio.h **** * \param value
1489:Generated_Source\PSoC6\pdl\drivers\peripheral\gpio/cy_gpio.h **** * SIO pair reference voltage. Options are detailed in \ref group_gpio_sioVoh macros
1490:Generated_Source\PSoC6\pdl\drivers\peripheral\gpio/cy_gpio.h **** *
1491:Generated_Source\PSoC6\pdl\drivers\peripheral\gpio/cy_gpio.h **** * \note 
1492:Generated_Source\PSoC6\pdl\drivers\peripheral\gpio/cy_gpio.h **** * This function modifies a port register in a read-modify-write operation. It is
1493:Generated_Source\PSoC6\pdl\drivers\peripheral\gpio/cy_gpio.h **** * not thread safe as the resource is shared among multiple pins on a port.
1494:Generated_Source\PSoC6\pdl\drivers\peripheral\gpio/cy_gpio.h **** *
1495:Generated_Source\PSoC6\pdl\drivers\peripheral\gpio/cy_gpio.h **** * \funcusage
1496:Generated_Source\PSoC6\pdl\drivers\peripheral\gpio/cy_gpio.h **** * \snippet gpio/gpio_v1_10_sut_01.cydsn/main_cm4.c snippet_Cy_GPIO_SetVohSel
1497:Generated_Source\PSoC6\pdl\drivers\peripheral\gpio/cy_gpio.h **** *
1498:Generated_Source\PSoC6\pdl\drivers\peripheral\gpio/cy_gpio.h **** *******************************************************************************/
1499:Generated_Source\PSoC6\pdl\drivers\peripheral\gpio/cy_gpio.h **** __STATIC_INLINE void Cy_GPIO_SetVohSel(GPIO_PRT_Type* base, uint32_t pinNum, uint32_t value)
1500:Generated_Source\PSoC6\pdl\drivers\peripheral\gpio/cy_gpio.h **** {
1501:Generated_Source\PSoC6\pdl\drivers\peripheral\gpio/cy_gpio.h ****     uint32_t tempReg;
1502:Generated_Source\PSoC6\pdl\drivers\peripheral\gpio/cy_gpio.h ****     uint32_t pinLoc;
1503:Generated_Source\PSoC6\pdl\drivers\peripheral\gpio/cy_gpio.h **** 
1504:Generated_Source\PSoC6\pdl\drivers\peripheral\gpio/cy_gpio.h ****     CY_ASSERT_L2(CY_GPIO_IS_PIN_VALID(pinNum));
1505:Generated_Source\PSoC6\pdl\drivers\peripheral\gpio/cy_gpio.h ****     CY_ASSERT_L2(CY_GPIO_IS_VOH_SEL_VALID(value));
1506:Generated_Source\PSoC6\pdl\drivers\peripheral\gpio/cy_gpio.h **** 
1507:Generated_Source\PSoC6\pdl\drivers\peripheral\gpio/cy_gpio.h ****     pinLoc = ((pinNum & CY_GPIO_SIO_ODD_PIN_MASK) << CY_GPIO_CFG_SIO_OFFSET) + CY_GPIO_VOH_SEL_SHIF
1508:Generated_Source\PSoC6\pdl\drivers\peripheral\gpio/cy_gpio.h ****     tempReg = (GPIO_PRT_CFG_SIO(base) & ~(CY_GPIO_VOH_SEL_MASK << pinLoc));
1509:Generated_Source\PSoC6\pdl\drivers\peripheral\gpio/cy_gpio.h ****     GPIO_PRT_CFG_SIO(base) = tempReg | ((value & CY_GPIO_VOH_SEL_MASK) << pinLoc);
1510:Generated_Source\PSoC6\pdl\drivers\peripheral\gpio/cy_gpio.h **** }
1511:Generated_Source\PSoC6\pdl\drivers\peripheral\gpio/cy_gpio.h **** 
1512:Generated_Source\PSoC6\pdl\drivers\peripheral\gpio/cy_gpio.h **** 
1513:Generated_Source\PSoC6\pdl\drivers\peripheral\gpio/cy_gpio.h **** /*******************************************************************************
1514:Generated_Source\PSoC6\pdl\drivers\peripheral\gpio/cy_gpio.h **** * Function Name: Cy_GPIO_GetVohSel
1515:Generated_Source\PSoC6\pdl\drivers\peripheral\gpio/cy_gpio.h **** ****************************************************************************//**
1516:Generated_Source\PSoC6\pdl\drivers\peripheral\gpio/cy_gpio.h **** *
1517:Generated_Source\PSoC6\pdl\drivers\peripheral\gpio/cy_gpio.h **** * Returns the regulated output reference multiplier for the SIO pin pair.
1518:Generated_Source\PSoC6\pdl\drivers\peripheral\gpio/cy_gpio.h **** *
1519:Generated_Source\PSoC6\pdl\drivers\peripheral\gpio/cy_gpio.h **** * Note that this function has no effect on non-SIO pins.
ARM GAS  C:\Users\stijn\AppData\Local\Temp\ccD3lQ9e.s 			page 35


1520:Generated_Source\PSoC6\pdl\drivers\peripheral\gpio/cy_gpio.h **** *
1521:Generated_Source\PSoC6\pdl\drivers\peripheral\gpio/cy_gpio.h **** * \param base
1522:Generated_Source\PSoC6\pdl\drivers\peripheral\gpio/cy_gpio.h **** * Pointer to the pin's port register base address
1523:Generated_Source\PSoC6\pdl\drivers\peripheral\gpio/cy_gpio.h **** *
1524:Generated_Source\PSoC6\pdl\drivers\peripheral\gpio/cy_gpio.h **** * \param pinNum
1525:Generated_Source\PSoC6\pdl\drivers\peripheral\gpio/cy_gpio.h **** * Position of the pin bit-field within the port register
1526:Generated_Source\PSoC6\pdl\drivers\peripheral\gpio/cy_gpio.h **** *
1527:Generated_Source\PSoC6\pdl\drivers\peripheral\gpio/cy_gpio.h **** * \return
1528:Generated_Source\PSoC6\pdl\drivers\peripheral\gpio/cy_gpio.h **** * SIO pair reference voltage. Options are detailed in \ref group_gpio_sioVoh macros
1529:Generated_Source\PSoC6\pdl\drivers\peripheral\gpio/cy_gpio.h **** *
1530:Generated_Source\PSoC6\pdl\drivers\peripheral\gpio/cy_gpio.h **** * \funcusage
1531:Generated_Source\PSoC6\pdl\drivers\peripheral\gpio/cy_gpio.h **** * \snippet gpio/gpio_v1_10_sut_01.cydsn/main_cm4.c snippet_Cy_GPIO_SetVohSel
1532:Generated_Source\PSoC6\pdl\drivers\peripheral\gpio/cy_gpio.h **** *
1533:Generated_Source\PSoC6\pdl\drivers\peripheral\gpio/cy_gpio.h **** *******************************************************************************/
1534:Generated_Source\PSoC6\pdl\drivers\peripheral\gpio/cy_gpio.h **** __STATIC_INLINE uint32_t Cy_GPIO_GetVohSel(GPIO_PRT_Type* base, uint32_t pinNum)
1535:Generated_Source\PSoC6\pdl\drivers\peripheral\gpio/cy_gpio.h **** {
1536:Generated_Source\PSoC6\pdl\drivers\peripheral\gpio/cy_gpio.h ****     CY_ASSERT_L2(CY_GPIO_IS_PIN_VALID(pinNum));
1537:Generated_Source\PSoC6\pdl\drivers\peripheral\gpio/cy_gpio.h ****     
1538:Generated_Source\PSoC6\pdl\drivers\peripheral\gpio/cy_gpio.h ****     return (GPIO_PRT_CFG_SIO(base) >> (((pinNum & CY_GPIO_SIO_ODD_PIN_MASK) << CY_GPIO_CFG_SIO_OFFS
1539:Generated_Source\PSoC6\pdl\drivers\peripheral\gpio/cy_gpio.h **** }
1540:Generated_Source\PSoC6\pdl\drivers\peripheral\gpio/cy_gpio.h **** 
1541:Generated_Source\PSoC6\pdl\drivers\peripheral\gpio/cy_gpio.h **** /** \} group_gpio_functions_sio */
1542:Generated_Source\PSoC6\pdl\drivers\peripheral\gpio/cy_gpio.h **** 
1543:Generated_Source\PSoC6\pdl\drivers\peripheral\gpio/cy_gpio.h **** /**
1544:Generated_Source\PSoC6\pdl\drivers\peripheral\gpio/cy_gpio.h **** * \addtogroup group_gpio_functions_interrupt
1545:Generated_Source\PSoC6\pdl\drivers\peripheral\gpio/cy_gpio.h **** * \{
1546:Generated_Source\PSoC6\pdl\drivers\peripheral\gpio/cy_gpio.h **** */
1547:Generated_Source\PSoC6\pdl\drivers\peripheral\gpio/cy_gpio.h **** 
1548:Generated_Source\PSoC6\pdl\drivers\peripheral\gpio/cy_gpio.h **** /*******************************************************************************
1549:Generated_Source\PSoC6\pdl\drivers\peripheral\gpio/cy_gpio.h **** * Function Name: Cy_GPIO_GetInterruptStatus
1550:Generated_Source\PSoC6\pdl\drivers\peripheral\gpio/cy_gpio.h **** ****************************************************************************//**
1551:Generated_Source\PSoC6\pdl\drivers\peripheral\gpio/cy_gpio.h **** *
1552:Generated_Source\PSoC6\pdl\drivers\peripheral\gpio/cy_gpio.h **** * Returns the current unmasked interrupt state of the pin.
1553:Generated_Source\PSoC6\pdl\drivers\peripheral\gpio/cy_gpio.h **** *
1554:Generated_Source\PSoC6\pdl\drivers\peripheral\gpio/cy_gpio.h **** * The core processor's NVIC is triggered by the masked interrupt bits. This 
1555:Generated_Source\PSoC6\pdl\drivers\peripheral\gpio/cy_gpio.h **** * function allows reading the unmasked interrupt state. Whether the bit
1556:Generated_Source\PSoC6\pdl\drivers\peripheral\gpio/cy_gpio.h **** * positions actually trigger the interrupt are defined by the interrupt mask bits.
1557:Generated_Source\PSoC6\pdl\drivers\peripheral\gpio/cy_gpio.h **** *
1558:Generated_Source\PSoC6\pdl\drivers\peripheral\gpio/cy_gpio.h **** * \param base
1559:Generated_Source\PSoC6\pdl\drivers\peripheral\gpio/cy_gpio.h **** * Pointer to the pin's port register base address
1560:Generated_Source\PSoC6\pdl\drivers\peripheral\gpio/cy_gpio.h **** *
1561:Generated_Source\PSoC6\pdl\drivers\peripheral\gpio/cy_gpio.h **** * \param pinNum
1562:Generated_Source\PSoC6\pdl\drivers\peripheral\gpio/cy_gpio.h **** * Position of the pin bit-field within the port register
1563:Generated_Source\PSoC6\pdl\drivers\peripheral\gpio/cy_gpio.h **** * Bit position 8 is the routed pin through the port glitch filter.
1564:Generated_Source\PSoC6\pdl\drivers\peripheral\gpio/cy_gpio.h **** *
1565:Generated_Source\PSoC6\pdl\drivers\peripheral\gpio/cy_gpio.h **** * \return
1566:Generated_Source\PSoC6\pdl\drivers\peripheral\gpio/cy_gpio.h **** * 0 = Pin interrupt condition not detected
1567:Generated_Source\PSoC6\pdl\drivers\peripheral\gpio/cy_gpio.h **** * 1 = Pin interrupt condition detected
1568:Generated_Source\PSoC6\pdl\drivers\peripheral\gpio/cy_gpio.h **** *
1569:Generated_Source\PSoC6\pdl\drivers\peripheral\gpio/cy_gpio.h **** * \funcusage
1570:Generated_Source\PSoC6\pdl\drivers\peripheral\gpio/cy_gpio.h **** * \snippet gpio/gpio_v1_10_sut_01.cydsn/main_cm4.c snippet_Cy_GPIO_GetInterruptStatus
1571:Generated_Source\PSoC6\pdl\drivers\peripheral\gpio/cy_gpio.h **** *
1572:Generated_Source\PSoC6\pdl\drivers\peripheral\gpio/cy_gpio.h **** *******************************************************************************/
1573:Generated_Source\PSoC6\pdl\drivers\peripheral\gpio/cy_gpio.h **** __STATIC_INLINE uint32_t Cy_GPIO_GetInterruptStatus(GPIO_PRT_Type* base, uint32_t pinNum)
1574:Generated_Source\PSoC6\pdl\drivers\peripheral\gpio/cy_gpio.h **** {
1575:Generated_Source\PSoC6\pdl\drivers\peripheral\gpio/cy_gpio.h ****     CY_ASSERT_L2(CY_GPIO_IS_FILTER_PIN_VALID(pinNum));
1576:Generated_Source\PSoC6\pdl\drivers\peripheral\gpio/cy_gpio.h ****     
ARM GAS  C:\Users\stijn\AppData\Local\Temp\ccD3lQ9e.s 			page 36


1577:Generated_Source\PSoC6\pdl\drivers\peripheral\gpio/cy_gpio.h ****     return (GPIO_PRT_INTR(base) >> pinNum) & CY_GPIO_INTR_STATUS_MASK;
1578:Generated_Source\PSoC6\pdl\drivers\peripheral\gpio/cy_gpio.h **** }
1579:Generated_Source\PSoC6\pdl\drivers\peripheral\gpio/cy_gpio.h **** 
1580:Generated_Source\PSoC6\pdl\drivers\peripheral\gpio/cy_gpio.h **** 
1581:Generated_Source\PSoC6\pdl\drivers\peripheral\gpio/cy_gpio.h **** /*******************************************************************************
1582:Generated_Source\PSoC6\pdl\drivers\peripheral\gpio/cy_gpio.h **** * Function Name: Cy_GPIO_ClearInterrupt
1583:Generated_Source\PSoC6\pdl\drivers\peripheral\gpio/cy_gpio.h **** ****************************************************************************//**
1584:Generated_Source\PSoC6\pdl\drivers\peripheral\gpio/cy_gpio.h **** *
1585:Generated_Source\PSoC6\pdl\drivers\peripheral\gpio/cy_gpio.h **** * Clears the triggered pin interrupt.
1586:Generated_Source\PSoC6\pdl\drivers\peripheral\gpio/cy_gpio.h **** *
1587:Generated_Source\PSoC6\pdl\drivers\peripheral\gpio/cy_gpio.h **** * \param base
1588:Generated_Source\PSoC6\pdl\drivers\peripheral\gpio/cy_gpio.h **** * Pointer to the pin's port register base address
1589:Generated_Source\PSoC6\pdl\drivers\peripheral\gpio/cy_gpio.h **** *
1590:Generated_Source\PSoC6\pdl\drivers\peripheral\gpio/cy_gpio.h **** * \param pinNum
1591:Generated_Source\PSoC6\pdl\drivers\peripheral\gpio/cy_gpio.h **** * Position of the pin bit-field within the port register
1592:Generated_Source\PSoC6\pdl\drivers\peripheral\gpio/cy_gpio.h **** * Bit position 8 is the routed pin through the port glitch filter.
1593:Generated_Source\PSoC6\pdl\drivers\peripheral\gpio/cy_gpio.h **** *
1594:Generated_Source\PSoC6\pdl\drivers\peripheral\gpio/cy_gpio.h **** * \funcusage
1595:Generated_Source\PSoC6\pdl\drivers\peripheral\gpio/cy_gpio.h **** * \snippet gpio/gpio_v1_10_sut_01.cydsn/main_cm4.c snippet_Cy_GPIO_ClearInterrupt
1596:Generated_Source\PSoC6\pdl\drivers\peripheral\gpio/cy_gpio.h **** *
1597:Generated_Source\PSoC6\pdl\drivers\peripheral\gpio/cy_gpio.h **** *******************************************************************************/
1598:Generated_Source\PSoC6\pdl\drivers\peripheral\gpio/cy_gpio.h **** __STATIC_INLINE void Cy_GPIO_ClearInterrupt(GPIO_PRT_Type* base, uint32_t pinNum)
1599:Generated_Source\PSoC6\pdl\drivers\peripheral\gpio/cy_gpio.h **** {
1600:Generated_Source\PSoC6\pdl\drivers\peripheral\gpio/cy_gpio.h ****     CY_ASSERT_L2(CY_GPIO_IS_FILTER_PIN_VALID(pinNum));
1601:Generated_Source\PSoC6\pdl\drivers\peripheral\gpio/cy_gpio.h ****     
1602:Generated_Source\PSoC6\pdl\drivers\peripheral\gpio/cy_gpio.h ****     /* Any INTR MMIO registers AHB clearing must be preceded with an AHB read access */
1603:Generated_Source\PSoC6\pdl\drivers\peripheral\gpio/cy_gpio.h ****     (void)GPIO_PRT_INTR(base);
1604:Generated_Source\PSoC6\pdl\drivers\peripheral\gpio/cy_gpio.h **** 
1605:Generated_Source\PSoC6\pdl\drivers\peripheral\gpio/cy_gpio.h ****     GPIO_PRT_INTR(base) = CY_GPIO_INTR_STATUS_MASK << pinNum;
1606:Generated_Source\PSoC6\pdl\drivers\peripheral\gpio/cy_gpio.h **** 
1607:Generated_Source\PSoC6\pdl\drivers\peripheral\gpio/cy_gpio.h ****     /* This read ensures that the initial write has been flushed out to the hardware */
1608:Generated_Source\PSoC6\pdl\drivers\peripheral\gpio/cy_gpio.h ****     (void)GPIO_PRT_INTR(base);
1609:Generated_Source\PSoC6\pdl\drivers\peripheral\gpio/cy_gpio.h **** }
1610:Generated_Source\PSoC6\pdl\drivers\peripheral\gpio/cy_gpio.h **** 
1611:Generated_Source\PSoC6\pdl\drivers\peripheral\gpio/cy_gpio.h **** 
1612:Generated_Source\PSoC6\pdl\drivers\peripheral\gpio/cy_gpio.h **** /*******************************************************************************
1613:Generated_Source\PSoC6\pdl\drivers\peripheral\gpio/cy_gpio.h **** * Function Name: Cy_GPIO_SetInterruptMask
1614:Generated_Source\PSoC6\pdl\drivers\peripheral\gpio/cy_gpio.h **** ****************************************************************************//**
1615:Generated_Source\PSoC6\pdl\drivers\peripheral\gpio/cy_gpio.h **** *
1616:Generated_Source\PSoC6\pdl\drivers\peripheral\gpio/cy_gpio.h **** * Configures the pin interrupt to be forwarded to the CPU NVIC.
1617:Generated_Source\PSoC6\pdl\drivers\peripheral\gpio/cy_gpio.h **** *
1618:Generated_Source\PSoC6\pdl\drivers\peripheral\gpio/cy_gpio.h **** * \param base
1619:Generated_Source\PSoC6\pdl\drivers\peripheral\gpio/cy_gpio.h **** * Pointer to the pin's port register base address
1620:Generated_Source\PSoC6\pdl\drivers\peripheral\gpio/cy_gpio.h **** *
1621:Generated_Source\PSoC6\pdl\drivers\peripheral\gpio/cy_gpio.h **** * \param pinNum
1622:Generated_Source\PSoC6\pdl\drivers\peripheral\gpio/cy_gpio.h **** * Position of the pin bit-field within the port register.
1623:Generated_Source\PSoC6\pdl\drivers\peripheral\gpio/cy_gpio.h **** * Bit position 8 is the routed pin through the port glitch filter.
1624:Generated_Source\PSoC6\pdl\drivers\peripheral\gpio/cy_gpio.h **** *
1625:Generated_Source\PSoC6\pdl\drivers\peripheral\gpio/cy_gpio.h **** * \param value
1626:Generated_Source\PSoC6\pdl\drivers\peripheral\gpio/cy_gpio.h **** * 0 = Pin interrupt not forwarded to CPU interrupt controller
1627:Generated_Source\PSoC6\pdl\drivers\peripheral\gpio/cy_gpio.h **** * 1 = Pin interrupt masked and forwarded to CPU interrupt controller
1628:Generated_Source\PSoC6\pdl\drivers\peripheral\gpio/cy_gpio.h **** *
1629:Generated_Source\PSoC6\pdl\drivers\peripheral\gpio/cy_gpio.h **** * \note 
1630:Generated_Source\PSoC6\pdl\drivers\peripheral\gpio/cy_gpio.h **** * This function modifies a port register in a read-modify-write operation. It is
1631:Generated_Source\PSoC6\pdl\drivers\peripheral\gpio/cy_gpio.h **** * not thread safe as the resource is shared among multiple pins on a port.
1632:Generated_Source\PSoC6\pdl\drivers\peripheral\gpio/cy_gpio.h **** *
1633:Generated_Source\PSoC6\pdl\drivers\peripheral\gpio/cy_gpio.h **** * \funcusage
ARM GAS  C:\Users\stijn\AppData\Local\Temp\ccD3lQ9e.s 			page 37


1634:Generated_Source\PSoC6\pdl\drivers\peripheral\gpio/cy_gpio.h **** * \snippet gpio/gpio_v1_10_sut_01.cydsn/main_cm4.c snippet_Cy_GPIO_SetInterruptMask
1635:Generated_Source\PSoC6\pdl\drivers\peripheral\gpio/cy_gpio.h **** *
1636:Generated_Source\PSoC6\pdl\drivers\peripheral\gpio/cy_gpio.h **** *******************************************************************************/
1637:Generated_Source\PSoC6\pdl\drivers\peripheral\gpio/cy_gpio.h **** __STATIC_INLINE void Cy_GPIO_SetInterruptMask(GPIO_PRT_Type* base, uint32_t pinNum, uint32_t value)
1638:Generated_Source\PSoC6\pdl\drivers\peripheral\gpio/cy_gpio.h **** {
 409              		.loc 1 1638 0
 410              		.cfi_startproc
 411              		@ args = 0, pretend = 0, frame = 24
 412              		@ frame_needed = 1, uses_anonymous_args = 0
 413 0000 80B5     		push	{r7, lr}
 414              		.cfi_def_cfa_offset 8
 415              		.cfi_offset 7, -8
 416              		.cfi_offset 14, -4
 417 0002 86B0     		sub	sp, sp, #24
 418              		.cfi_def_cfa_offset 32
 419 0004 00AF     		add	r7, sp, #0
 420              		.cfi_def_cfa_register 7
 421 0006 F860     		str	r0, [r7, #12]
 422 0008 B960     		str	r1, [r7, #8]
 423 000a 7A60     		str	r2, [r7, #4]
1639:Generated_Source\PSoC6\pdl\drivers\peripheral\gpio/cy_gpio.h ****     uint32_t tempReg;
1640:Generated_Source\PSoC6\pdl\drivers\peripheral\gpio/cy_gpio.h **** 
1641:Generated_Source\PSoC6\pdl\drivers\peripheral\gpio/cy_gpio.h ****     CY_ASSERT_L2(CY_GPIO_IS_FILTER_PIN_VALID(pinNum));
 424              		.loc 1 1641 0
 425 000c BB68     		ldr	r3, [r7, #8]
 426 000e 082B     		cmp	r3, #8
 427 0010 04D9     		bls	.L28
 428              		.loc 1 1641 0 is_stmt 0 discriminator 1
 429 0012 40F26961 		movw	r1, #1641
 430 0016 1048     		ldr	r0, .L30
 431 0018 FFF7FEFF 		bl	Cy_SysLib_AssertFailed
 432              	.L28:
1642:Generated_Source\PSoC6\pdl\drivers\peripheral\gpio/cy_gpio.h ****     CY_ASSERT_L2(CY_GPIO_IS_VALUE_VALID(value));
 433              		.loc 1 1642 0 is_stmt 1
 434 001c 7B68     		ldr	r3, [r7, #4]
 435 001e 012B     		cmp	r3, #1
 436 0020 04D9     		bls	.L29
 437              		.loc 1 1642 0 is_stmt 0 discriminator 1
 438 0022 40F26A61 		movw	r1, #1642
 439 0026 0C48     		ldr	r0, .L30
 440 0028 FFF7FEFF 		bl	Cy_SysLib_AssertFailed
 441              	.L29:
1643:Generated_Source\PSoC6\pdl\drivers\peripheral\gpio/cy_gpio.h **** 
1644:Generated_Source\PSoC6\pdl\drivers\peripheral\gpio/cy_gpio.h ****     tempReg= GPIO_PRT_INTR_MASK(base) & ~(CY_GPIO_INTR_EN_MASK << pinNum);
 442              		.loc 1 1644 0 is_stmt 1
 443 002c FB68     		ldr	r3, [r7, #12]
 444 002e 9A69     		ldr	r2, [r3, #24]
 445 0030 0121     		movs	r1, #1
 446 0032 BB68     		ldr	r3, [r7, #8]
 447 0034 01FA03F3 		lsl	r3, r1, r3
 448 0038 DB43     		mvns	r3, r3
 449 003a 1340     		ands	r3, r3, r2
 450 003c 7B61     		str	r3, [r7, #20]
1645:Generated_Source\PSoC6\pdl\drivers\peripheral\gpio/cy_gpio.h ****     GPIO_PRT_INTR_MASK(base) = tempReg | ((value & CY_GPIO_INTR_EN_MASK) << pinNum);
 451              		.loc 1 1645 0
 452 003e 7B68     		ldr	r3, [r7, #4]
 453 0040 03F00102 		and	r2, r3, #1
ARM GAS  C:\Users\stijn\AppData\Local\Temp\ccD3lQ9e.s 			page 38


 454 0044 BB68     		ldr	r3, [r7, #8]
 455 0046 9A40     		lsls	r2, r2, r3
 456 0048 7B69     		ldr	r3, [r7, #20]
 457 004a 1A43     		orrs	r2, r2, r3
 458 004c FB68     		ldr	r3, [r7, #12]
 459 004e 9A61     		str	r2, [r3, #24]
1646:Generated_Source\PSoC6\pdl\drivers\peripheral\gpio/cy_gpio.h **** }
 460              		.loc 1 1646 0
 461 0050 00BF     		nop
 462 0052 1837     		adds	r7, r7, #24
 463              		.cfi_def_cfa_offset 8
 464 0054 BD46     		mov	sp, r7
 465              		.cfi_def_cfa_register 13
 466              		@ sp needed
 467 0056 80BD     		pop	{r7, pc}
 468              	.L31:
 469              		.align	2
 470              	.L30:
 471 0058 00000000 		.word	.LC0
 472              		.cfi_endproc
 473              	.LFE161:
 474              		.size	Cy_GPIO_SetInterruptMask, .-Cy_GPIO_SetInterruptMask
 475              		.section	.text.Cy_GPIO_SetInterruptEdge,"ax",%progbits
 476              		.align	2
 477              		.thumb
 478              		.thumb_func
 479              		.type	Cy_GPIO_SetInterruptEdge, %function
 480              	Cy_GPIO_SetInterruptEdge:
 481              	.LFB165:
1647:Generated_Source\PSoC6\pdl\drivers\peripheral\gpio/cy_gpio.h **** 
1648:Generated_Source\PSoC6\pdl\drivers\peripheral\gpio/cy_gpio.h **** 
1649:Generated_Source\PSoC6\pdl\drivers\peripheral\gpio/cy_gpio.h **** /*******************************************************************************
1650:Generated_Source\PSoC6\pdl\drivers\peripheral\gpio/cy_gpio.h **** * Function Name: Cy_GPIO_GetInterruptMask
1651:Generated_Source\PSoC6\pdl\drivers\peripheral\gpio/cy_gpio.h **** ****************************************************************************//**
1652:Generated_Source\PSoC6\pdl\drivers\peripheral\gpio/cy_gpio.h **** *
1653:Generated_Source\PSoC6\pdl\drivers\peripheral\gpio/cy_gpio.h **** * Returns the state of the pin interrupt mask.
1654:Generated_Source\PSoC6\pdl\drivers\peripheral\gpio/cy_gpio.h **** *
1655:Generated_Source\PSoC6\pdl\drivers\peripheral\gpio/cy_gpio.h **** * This mask is used to determine whether the pin is configured to be forwarded
1656:Generated_Source\PSoC6\pdl\drivers\peripheral\gpio/cy_gpio.h **** * to the CPU NVIC.
1657:Generated_Source\PSoC6\pdl\drivers\peripheral\gpio/cy_gpio.h **** *
1658:Generated_Source\PSoC6\pdl\drivers\peripheral\gpio/cy_gpio.h **** * \param base
1659:Generated_Source\PSoC6\pdl\drivers\peripheral\gpio/cy_gpio.h **** * Pointer to the pin's port register base address
1660:Generated_Source\PSoC6\pdl\drivers\peripheral\gpio/cy_gpio.h **** *
1661:Generated_Source\PSoC6\pdl\drivers\peripheral\gpio/cy_gpio.h **** * \param pinNum
1662:Generated_Source\PSoC6\pdl\drivers\peripheral\gpio/cy_gpio.h **** * Position of the pin bit-field within the port register.
1663:Generated_Source\PSoC6\pdl\drivers\peripheral\gpio/cy_gpio.h **** * Bit position 8 is the routed pin through the port glitch filter.
1664:Generated_Source\PSoC6\pdl\drivers\peripheral\gpio/cy_gpio.h **** *
1665:Generated_Source\PSoC6\pdl\drivers\peripheral\gpio/cy_gpio.h **** * \return
1666:Generated_Source\PSoC6\pdl\drivers\peripheral\gpio/cy_gpio.h **** * 0 = Pin interrupt not forwarded to CPU interrupt controller
1667:Generated_Source\PSoC6\pdl\drivers\peripheral\gpio/cy_gpio.h **** * 1 = Pin interrupt masked and forwarded to CPU interrupt controller
1668:Generated_Source\PSoC6\pdl\drivers\peripheral\gpio/cy_gpio.h **** *
1669:Generated_Source\PSoC6\pdl\drivers\peripheral\gpio/cy_gpio.h **** * \funcusage
1670:Generated_Source\PSoC6\pdl\drivers\peripheral\gpio/cy_gpio.h **** * \snippet gpio/gpio_v1_10_sut_01.cydsn/main_cm4.c snippet_Cy_GPIO_SetInterruptMask
1671:Generated_Source\PSoC6\pdl\drivers\peripheral\gpio/cy_gpio.h **** *
1672:Generated_Source\PSoC6\pdl\drivers\peripheral\gpio/cy_gpio.h **** *******************************************************************************/
1673:Generated_Source\PSoC6\pdl\drivers\peripheral\gpio/cy_gpio.h **** __STATIC_INLINE uint32_t Cy_GPIO_GetInterruptMask(GPIO_PRT_Type* base, uint32_t pinNum)
1674:Generated_Source\PSoC6\pdl\drivers\peripheral\gpio/cy_gpio.h **** {
ARM GAS  C:\Users\stijn\AppData\Local\Temp\ccD3lQ9e.s 			page 39


1675:Generated_Source\PSoC6\pdl\drivers\peripheral\gpio/cy_gpio.h ****     CY_ASSERT_L2(CY_GPIO_IS_FILTER_PIN_VALID(pinNum));
1676:Generated_Source\PSoC6\pdl\drivers\peripheral\gpio/cy_gpio.h ****     
1677:Generated_Source\PSoC6\pdl\drivers\peripheral\gpio/cy_gpio.h ****     return (GPIO_PRT_INTR_MASK(base) >> pinNum) & CY_GPIO_INTR_EN_MASK;
1678:Generated_Source\PSoC6\pdl\drivers\peripheral\gpio/cy_gpio.h **** }
1679:Generated_Source\PSoC6\pdl\drivers\peripheral\gpio/cy_gpio.h **** 
1680:Generated_Source\PSoC6\pdl\drivers\peripheral\gpio/cy_gpio.h **** 
1681:Generated_Source\PSoC6\pdl\drivers\peripheral\gpio/cy_gpio.h **** /*******************************************************************************
1682:Generated_Source\PSoC6\pdl\drivers\peripheral\gpio/cy_gpio.h **** * Function Name: Cy_GPIO_GetInterruptStatusMasked
1683:Generated_Source\PSoC6\pdl\drivers\peripheral\gpio/cy_gpio.h **** ****************************************************************************//**
1684:Generated_Source\PSoC6\pdl\drivers\peripheral\gpio/cy_gpio.h **** *
1685:Generated_Source\PSoC6\pdl\drivers\peripheral\gpio/cy_gpio.h **** * Return the pin's current interrupt state after being masked.
1686:Generated_Source\PSoC6\pdl\drivers\peripheral\gpio/cy_gpio.h **** *
1687:Generated_Source\PSoC6\pdl\drivers\peripheral\gpio/cy_gpio.h **** * The core processor's NVIC is triggered by the masked interrupt bits. This 
1688:Generated_Source\PSoC6\pdl\drivers\peripheral\gpio/cy_gpio.h **** * function allows reading this masked interrupt state. Note that the bits that
1689:Generated_Source\PSoC6\pdl\drivers\peripheral\gpio/cy_gpio.h **** * are not masked will not be forwarded to the NVIC.
1690:Generated_Source\PSoC6\pdl\drivers\peripheral\gpio/cy_gpio.h **** *
1691:Generated_Source\PSoC6\pdl\drivers\peripheral\gpio/cy_gpio.h **** * \param base
1692:Generated_Source\PSoC6\pdl\drivers\peripheral\gpio/cy_gpio.h **** * Pointer to the pin's port register base address
1693:Generated_Source\PSoC6\pdl\drivers\peripheral\gpio/cy_gpio.h **** *
1694:Generated_Source\PSoC6\pdl\drivers\peripheral\gpio/cy_gpio.h **** * \param pinNum
1695:Generated_Source\PSoC6\pdl\drivers\peripheral\gpio/cy_gpio.h **** * Position of the pin bit-field within the port register.
1696:Generated_Source\PSoC6\pdl\drivers\peripheral\gpio/cy_gpio.h **** * Bit position 8 is the routed pin through the port glitch filter.
1697:Generated_Source\PSoC6\pdl\drivers\peripheral\gpio/cy_gpio.h **** *
1698:Generated_Source\PSoC6\pdl\drivers\peripheral\gpio/cy_gpio.h **** * \return
1699:Generated_Source\PSoC6\pdl\drivers\peripheral\gpio/cy_gpio.h **** * 0 = Pin interrupt not detected or not forwarded to CPU interrupt controller
1700:Generated_Source\PSoC6\pdl\drivers\peripheral\gpio/cy_gpio.h **** * 1 = Pin interrupt detected and forwarded to CPU interrupt controller
1701:Generated_Source\PSoC6\pdl\drivers\peripheral\gpio/cy_gpio.h **** *
1702:Generated_Source\PSoC6\pdl\drivers\peripheral\gpio/cy_gpio.h **** * \funcusage
1703:Generated_Source\PSoC6\pdl\drivers\peripheral\gpio/cy_gpio.h **** * \snippet gpio/gpio_v1_10_sut_01.cydsn/main_cm4.c snippet_Cy_GPIO_GetInterruptStatusMasked
1704:Generated_Source\PSoC6\pdl\drivers\peripheral\gpio/cy_gpio.h **** *
1705:Generated_Source\PSoC6\pdl\drivers\peripheral\gpio/cy_gpio.h **** *******************************************************************************/
1706:Generated_Source\PSoC6\pdl\drivers\peripheral\gpio/cy_gpio.h **** __STATIC_INLINE uint32_t Cy_GPIO_GetInterruptStatusMasked(GPIO_PRT_Type* base, uint32_t pinNum)
1707:Generated_Source\PSoC6\pdl\drivers\peripheral\gpio/cy_gpio.h **** {
1708:Generated_Source\PSoC6\pdl\drivers\peripheral\gpio/cy_gpio.h ****     CY_ASSERT_L2(CY_GPIO_IS_FILTER_PIN_VALID(pinNum));
1709:Generated_Source\PSoC6\pdl\drivers\peripheral\gpio/cy_gpio.h ****     
1710:Generated_Source\PSoC6\pdl\drivers\peripheral\gpio/cy_gpio.h ****     return (GPIO_PRT_INTR_MASKED(base) >> pinNum) & CY_GPIO_INTR_MASKED_MASK;
1711:Generated_Source\PSoC6\pdl\drivers\peripheral\gpio/cy_gpio.h **** }
1712:Generated_Source\PSoC6\pdl\drivers\peripheral\gpio/cy_gpio.h **** 
1713:Generated_Source\PSoC6\pdl\drivers\peripheral\gpio/cy_gpio.h **** 
1714:Generated_Source\PSoC6\pdl\drivers\peripheral\gpio/cy_gpio.h **** /*******************************************************************************
1715:Generated_Source\PSoC6\pdl\drivers\peripheral\gpio/cy_gpio.h **** * Function Name: Cy_GPIO_SetSwInterrupt
1716:Generated_Source\PSoC6\pdl\drivers\peripheral\gpio/cy_gpio.h **** ****************************************************************************//**
1717:Generated_Source\PSoC6\pdl\drivers\peripheral\gpio/cy_gpio.h **** *
1718:Generated_Source\PSoC6\pdl\drivers\peripheral\gpio/cy_gpio.h **** * Force a pin interrupt to trigger.
1719:Generated_Source\PSoC6\pdl\drivers\peripheral\gpio/cy_gpio.h **** *
1720:Generated_Source\PSoC6\pdl\drivers\peripheral\gpio/cy_gpio.h **** * \param base
1721:Generated_Source\PSoC6\pdl\drivers\peripheral\gpio/cy_gpio.h **** * Pointer to the pin's port register base address
1722:Generated_Source\PSoC6\pdl\drivers\peripheral\gpio/cy_gpio.h **** *
1723:Generated_Source\PSoC6\pdl\drivers\peripheral\gpio/cy_gpio.h **** * \param pinNum
1724:Generated_Source\PSoC6\pdl\drivers\peripheral\gpio/cy_gpio.h **** * Position of the pin bit-field within the port register.
1725:Generated_Source\PSoC6\pdl\drivers\peripheral\gpio/cy_gpio.h **** * Bit position 8 is the routed pin through the port glitch filter.
1726:Generated_Source\PSoC6\pdl\drivers\peripheral\gpio/cy_gpio.h **** *
1727:Generated_Source\PSoC6\pdl\drivers\peripheral\gpio/cy_gpio.h **** * \funcusage
1728:Generated_Source\PSoC6\pdl\drivers\peripheral\gpio/cy_gpio.h **** * \snippet gpio/gpio_v1_10_sut_01.cydsn/main_cm4.c snippet_Cy_GPIO_SetSwInterrupt
1729:Generated_Source\PSoC6\pdl\drivers\peripheral\gpio/cy_gpio.h **** *
1730:Generated_Source\PSoC6\pdl\drivers\peripheral\gpio/cy_gpio.h **** *******************************************************************************/
1731:Generated_Source\PSoC6\pdl\drivers\peripheral\gpio/cy_gpio.h **** __STATIC_INLINE void Cy_GPIO_SetSwInterrupt(GPIO_PRT_Type* base, uint32_t pinNum)
ARM GAS  C:\Users\stijn\AppData\Local\Temp\ccD3lQ9e.s 			page 40


1732:Generated_Source\PSoC6\pdl\drivers\peripheral\gpio/cy_gpio.h **** {
1733:Generated_Source\PSoC6\pdl\drivers\peripheral\gpio/cy_gpio.h ****     CY_ASSERT_L2(CY_GPIO_IS_FILTER_PIN_VALID(pinNum));
1734:Generated_Source\PSoC6\pdl\drivers\peripheral\gpio/cy_gpio.h ****     
1735:Generated_Source\PSoC6\pdl\drivers\peripheral\gpio/cy_gpio.h ****     GPIO_PRT_INTR_SET(base) = CY_GPIO_INTR_SET_MASK << pinNum;
1736:Generated_Source\PSoC6\pdl\drivers\peripheral\gpio/cy_gpio.h **** }
1737:Generated_Source\PSoC6\pdl\drivers\peripheral\gpio/cy_gpio.h **** 
1738:Generated_Source\PSoC6\pdl\drivers\peripheral\gpio/cy_gpio.h **** 
1739:Generated_Source\PSoC6\pdl\drivers\peripheral\gpio/cy_gpio.h **** /*******************************************************************************
1740:Generated_Source\PSoC6\pdl\drivers\peripheral\gpio/cy_gpio.h **** * Function Name: Cy_GPIO_SetInterruptEdge
1741:Generated_Source\PSoC6\pdl\drivers\peripheral\gpio/cy_gpio.h **** ****************************************************************************//**
1742:Generated_Source\PSoC6\pdl\drivers\peripheral\gpio/cy_gpio.h **** *
1743:Generated_Source\PSoC6\pdl\drivers\peripheral\gpio/cy_gpio.h **** * Configures the type of edge that will trigger a pin interrupt.
1744:Generated_Source\PSoC6\pdl\drivers\peripheral\gpio/cy_gpio.h **** *
1745:Generated_Source\PSoC6\pdl\drivers\peripheral\gpio/cy_gpio.h **** * \param base
1746:Generated_Source\PSoC6\pdl\drivers\peripheral\gpio/cy_gpio.h **** * Pointer to the pin's port register base address
1747:Generated_Source\PSoC6\pdl\drivers\peripheral\gpio/cy_gpio.h **** *
1748:Generated_Source\PSoC6\pdl\drivers\peripheral\gpio/cy_gpio.h **** * \param pinNum
1749:Generated_Source\PSoC6\pdl\drivers\peripheral\gpio/cy_gpio.h **** * Position of the pin bit-field within the port register.
1750:Generated_Source\PSoC6\pdl\drivers\peripheral\gpio/cy_gpio.h **** * Bit position 8 is the routed pin through the port glitch filter.
1751:Generated_Source\PSoC6\pdl\drivers\peripheral\gpio/cy_gpio.h **** *
1752:Generated_Source\PSoC6\pdl\drivers\peripheral\gpio/cy_gpio.h **** * \param value
1753:Generated_Source\PSoC6\pdl\drivers\peripheral\gpio/cy_gpio.h **** * Pin interrupt mode. Options are detailed in \ref group_gpio_interruptTrigger macros
1754:Generated_Source\PSoC6\pdl\drivers\peripheral\gpio/cy_gpio.h **** *
1755:Generated_Source\PSoC6\pdl\drivers\peripheral\gpio/cy_gpio.h **** * \note 
1756:Generated_Source\PSoC6\pdl\drivers\peripheral\gpio/cy_gpio.h **** * This function modifies a port register in a read-modify-write operation. It is
1757:Generated_Source\PSoC6\pdl\drivers\peripheral\gpio/cy_gpio.h **** * not thread safe as the resource is shared among multiple pins on a port.
1758:Generated_Source\PSoC6\pdl\drivers\peripheral\gpio/cy_gpio.h **** *
1759:Generated_Source\PSoC6\pdl\drivers\peripheral\gpio/cy_gpio.h **** * \funcusage
1760:Generated_Source\PSoC6\pdl\drivers\peripheral\gpio/cy_gpio.h **** * \snippet gpio/gpio_v1_10_sut_01.cydsn/main_cm4.c snippet_Cy_GPIO_SetInterruptEdge
1761:Generated_Source\PSoC6\pdl\drivers\peripheral\gpio/cy_gpio.h **** *
1762:Generated_Source\PSoC6\pdl\drivers\peripheral\gpio/cy_gpio.h **** *******************************************************************************/
1763:Generated_Source\PSoC6\pdl\drivers\peripheral\gpio/cy_gpio.h **** __STATIC_INLINE void Cy_GPIO_SetInterruptEdge(GPIO_PRT_Type* base, uint32_t pinNum, uint32_t value)
1764:Generated_Source\PSoC6\pdl\drivers\peripheral\gpio/cy_gpio.h **** {
 482              		.loc 1 1764 0
 483              		.cfi_startproc
 484              		@ args = 0, pretend = 0, frame = 24
 485              		@ frame_needed = 1, uses_anonymous_args = 0
 486 0000 80B5     		push	{r7, lr}
 487              		.cfi_def_cfa_offset 8
 488              		.cfi_offset 7, -8
 489              		.cfi_offset 14, -4
 490 0002 86B0     		sub	sp, sp, #24
 491              		.cfi_def_cfa_offset 32
 492 0004 00AF     		add	r7, sp, #0
 493              		.cfi_def_cfa_register 7
 494 0006 F860     		str	r0, [r7, #12]
 495 0008 B960     		str	r1, [r7, #8]
 496 000a 7A60     		str	r2, [r7, #4]
1765:Generated_Source\PSoC6\pdl\drivers\peripheral\gpio/cy_gpio.h ****     uint32_t tempReg;
1766:Generated_Source\PSoC6\pdl\drivers\peripheral\gpio/cy_gpio.h ****     uint32_t pinLoc;
1767:Generated_Source\PSoC6\pdl\drivers\peripheral\gpio/cy_gpio.h **** 
1768:Generated_Source\PSoC6\pdl\drivers\peripheral\gpio/cy_gpio.h ****     CY_ASSERT_L2(CY_GPIO_IS_FILTER_PIN_VALID(pinNum));
 497              		.loc 1 1768 0
 498 000c BB68     		ldr	r3, [r7, #8]
 499 000e 082B     		cmp	r3, #8
 500 0010 04D9     		bls	.L33
 501              		.loc 1 1768 0 is_stmt 0 discriminator 1
ARM GAS  C:\Users\stijn\AppData\Local\Temp\ccD3lQ9e.s 			page 41


 502 0012 4FF4DD61 		mov	r1, #1768
 503 0016 1D48     		ldr	r0, .L35
 504 0018 FFF7FEFF 		bl	Cy_SysLib_AssertFailed
 505              	.L33:
1769:Generated_Source\PSoC6\pdl\drivers\peripheral\gpio/cy_gpio.h ****     CY_ASSERT_L2(CY_GPIO_IS_INT_EDGE_VALID(value));
 506              		.loc 1 1769 0 is_stmt 1
 507 001c 7B68     		ldr	r3, [r7, #4]
 508 001e 002B     		cmp	r3, #0
 509 0020 0DD0     		beq	.L34
 510              		.loc 1 1769 0 is_stmt 0 discriminator 1
 511 0022 7B68     		ldr	r3, [r7, #4]
 512 0024 012B     		cmp	r3, #1
 513 0026 0AD0     		beq	.L34
 514              		.loc 1 1769 0 discriminator 2
 515 0028 7B68     		ldr	r3, [r7, #4]
 516 002a 022B     		cmp	r3, #2
 517 002c 07D0     		beq	.L34
 518              		.loc 1 1769 0 discriminator 3
 519 002e 7B68     		ldr	r3, [r7, #4]
 520 0030 032B     		cmp	r3, #3
 521 0032 04D0     		beq	.L34
 522              		.loc 1 1769 0 discriminator 4
 523 0034 40F2E961 		movw	r1, #1769
 524 0038 1448     		ldr	r0, .L35
 525 003a FFF7FEFF 		bl	Cy_SysLib_AssertFailed
 526              	.L34:
1770:Generated_Source\PSoC6\pdl\drivers\peripheral\gpio/cy_gpio.h **** 
1771:Generated_Source\PSoC6\pdl\drivers\peripheral\gpio/cy_gpio.h ****     pinLoc = pinNum << CY_GPIO_INTR_CFG_OFFSET;
 527              		.loc 1 1771 0 is_stmt 1
 528 003e BB68     		ldr	r3, [r7, #8]
 529 0040 5B00     		lsls	r3, r3, #1
 530 0042 7B61     		str	r3, [r7, #20]
1772:Generated_Source\PSoC6\pdl\drivers\peripheral\gpio/cy_gpio.h ****     tempReg = GPIO_PRT_INTR_CFG(base) & ~(CY_GPIO_INTR_EDGE_MASK << pinLoc);
 531              		.loc 1 1772 0
 532 0044 124B     		ldr	r3, .L35+4
 533 0046 1B68     		ldr	r3, [r3]
 534 0048 93F87C30 		ldrb	r3, [r3, #124]	@ zero_extendqisi2
 535 004c 1A46     		mov	r2, r3
 536 004e FB68     		ldr	r3, [r7, #12]
 537 0050 1344     		add	r3, r3, r2
 538 0052 1A68     		ldr	r2, [r3]
 539 0054 0321     		movs	r1, #3
 540 0056 7B69     		ldr	r3, [r7, #20]
 541 0058 01FA03F3 		lsl	r3, r1, r3
 542 005c DB43     		mvns	r3, r3
 543 005e 1340     		ands	r3, r3, r2
 544 0060 3B61     		str	r3, [r7, #16]
1773:Generated_Source\PSoC6\pdl\drivers\peripheral\gpio/cy_gpio.h ****     GPIO_PRT_INTR_CFG(base) = tempReg | ((value & CY_GPIO_INTR_EDGE_MASK) << pinLoc);
 545              		.loc 1 1773 0
 546 0062 0B4B     		ldr	r3, .L35+4
 547 0064 1B68     		ldr	r3, [r3]
 548 0066 93F87C30 		ldrb	r3, [r3, #124]	@ zero_extendqisi2
 549 006a 1A46     		mov	r2, r3
 550 006c FB68     		ldr	r3, [r7, #12]
 551 006e 1344     		add	r3, r3, r2
 552 0070 1946     		mov	r1, r3
 553 0072 7B68     		ldr	r3, [r7, #4]
ARM GAS  C:\Users\stijn\AppData\Local\Temp\ccD3lQ9e.s 			page 42


 554 0074 03F00302 		and	r2, r3, #3
 555 0078 7B69     		ldr	r3, [r7, #20]
 556 007a 9A40     		lsls	r2, r2, r3
 557 007c 3B69     		ldr	r3, [r7, #16]
 558 007e 1343     		orrs	r3, r3, r2
 559 0080 0B60     		str	r3, [r1]
1774:Generated_Source\PSoC6\pdl\drivers\peripheral\gpio/cy_gpio.h **** }
 560              		.loc 1 1774 0
 561 0082 00BF     		nop
 562 0084 1837     		adds	r7, r7, #24
 563              		.cfi_def_cfa_offset 8
 564 0086 BD46     		mov	sp, r7
 565              		.cfi_def_cfa_register 13
 566              		@ sp needed
 567 0088 80BD     		pop	{r7, pc}
 568              	.L36:
 569 008a 00BF     		.align	2
 570              	.L35:
 571 008c 00000000 		.word	.LC0
 572 0090 00000000 		.word	cy_device
 573              		.cfi_endproc
 574              	.LFE165:
 575              		.size	Cy_GPIO_SetInterruptEdge, .-Cy_GPIO_SetInterruptEdge
 576              		.section	.rodata
 577 003d 000000   		.align	2
 578              	.LC1:
 579 0040 47656E65 		.ascii	"Generated_Source\\PSoC6\\pdl\\drivers\\peripheral\\"
 579      72617465 
 579      645F536F 
 579      75726365 
 579      5C50536F 
 580 006e 6770696F 		.ascii	"gpio\\cy_gpio.c\000"
 580      5C63795F 
 580      6770696F 
 580      2E6300
 581              		.section	.text.Cy_GPIO_Pin_Init,"ax",%progbits
 582              		.align	2
 583              		.global	Cy_GPIO_Pin_Init
 584              		.thumb
 585              		.thumb_func
 586              		.type	Cy_GPIO_Pin_Init, %function
 587              	Cy_GPIO_Pin_Init:
 588              	.LFB173:
 589              		.file 2 "Generated_Source\\PSoC6\\pdl\\drivers\\peripheral\\gpio\\cy_gpio.c"
   1:Generated_Source\PSoC6\pdl\drivers\peripheral\gpio/cy_gpio.c **** /***************************************************************************//**
   2:Generated_Source\PSoC6\pdl\drivers\peripheral\gpio/cy_gpio.c **** * \file cy_gpio.c
   3:Generated_Source\PSoC6\pdl\drivers\peripheral\gpio/cy_gpio.c **** * \version 1.20
   4:Generated_Source\PSoC6\pdl\drivers\peripheral\gpio/cy_gpio.c **** *
   5:Generated_Source\PSoC6\pdl\drivers\peripheral\gpio/cy_gpio.c **** * Provides an API implementation of the GPIO driver
   6:Generated_Source\PSoC6\pdl\drivers\peripheral\gpio/cy_gpio.c **** *
   7:Generated_Source\PSoC6\pdl\drivers\peripheral\gpio/cy_gpio.c **** ********************************************************************************
   8:Generated_Source\PSoC6\pdl\drivers\peripheral\gpio/cy_gpio.c **** * \copyright
   9:Generated_Source\PSoC6\pdl\drivers\peripheral\gpio/cy_gpio.c **** * Copyright 2016-2018, Cypress Semiconductor Corporation. All rights reserved.
  10:Generated_Source\PSoC6\pdl\drivers\peripheral\gpio/cy_gpio.c **** * You may use this file only in accordance with the license, terms, conditions,
  11:Generated_Source\PSoC6\pdl\drivers\peripheral\gpio/cy_gpio.c **** * disclaimers, and limitations in the end user license agreement accompanying
  12:Generated_Source\PSoC6\pdl\drivers\peripheral\gpio/cy_gpio.c **** * the software package with which this file was provided.
  13:Generated_Source\PSoC6\pdl\drivers\peripheral\gpio/cy_gpio.c **** *******************************************************************************/
ARM GAS  C:\Users\stijn\AppData\Local\Temp\ccD3lQ9e.s 			page 43


  14:Generated_Source\PSoC6\pdl\drivers\peripheral\gpio/cy_gpio.c **** 
  15:Generated_Source\PSoC6\pdl\drivers\peripheral\gpio/cy_gpio.c **** #include "cy_gpio.h"
  16:Generated_Source\PSoC6\pdl\drivers\peripheral\gpio/cy_gpio.c **** 
  17:Generated_Source\PSoC6\pdl\drivers\peripheral\gpio/cy_gpio.c **** #if defined(__cplusplus)
  18:Generated_Source\PSoC6\pdl\drivers\peripheral\gpio/cy_gpio.c **** extern "C" {
  19:Generated_Source\PSoC6\pdl\drivers\peripheral\gpio/cy_gpio.c **** #endif
  20:Generated_Source\PSoC6\pdl\drivers\peripheral\gpio/cy_gpio.c **** 
  21:Generated_Source\PSoC6\pdl\drivers\peripheral\gpio/cy_gpio.c **** 
  22:Generated_Source\PSoC6\pdl\drivers\peripheral\gpio/cy_gpio.c **** /* Define for AMUX A splitters */
  23:Generated_Source\PSoC6\pdl\drivers\peripheral\gpio/cy_gpio.c **** #define GPIO_AMUXA_SPLITTER_MASK     (uint32_t)(HSIOM_AMUX_SPLIT_CTL_SWITCH_AA_SL_Msk \
  24:Generated_Source\PSoC6\pdl\drivers\peripheral\gpio/cy_gpio.c ****                                               | HSIOM_AMUX_SPLIT_CTL_SWITCH_AA_SR_Msk \
  25:Generated_Source\PSoC6\pdl\drivers\peripheral\gpio/cy_gpio.c ****                                               | HSIOM_AMUX_SPLIT_CTL_SWITCH_AA_S0_Msk)
  26:Generated_Source\PSoC6\pdl\drivers\peripheral\gpio/cy_gpio.c **** 
  27:Generated_Source\PSoC6\pdl\drivers\peripheral\gpio/cy_gpio.c **** /* Define for AMUX B splitters */
  28:Generated_Source\PSoC6\pdl\drivers\peripheral\gpio/cy_gpio.c **** #define GPIO_AMUXB_SPLITTER_MASK     (uint32_t)(HSIOM_AMUX_SPLIT_CTL_SWITCH_BB_SL_Msk \
  29:Generated_Source\PSoC6\pdl\drivers\peripheral\gpio/cy_gpio.c ****                                               | HSIOM_AMUX_SPLIT_CTL_SWITCH_BB_SR_Msk \
  30:Generated_Source\PSoC6\pdl\drivers\peripheral\gpio/cy_gpio.c ****                                               | HSIOM_AMUX_SPLIT_CTL_SWITCH_BB_S0_Msk)
  31:Generated_Source\PSoC6\pdl\drivers\peripheral\gpio/cy_gpio.c **** 
  32:Generated_Source\PSoC6\pdl\drivers\peripheral\gpio/cy_gpio.c **** 
  33:Generated_Source\PSoC6\pdl\drivers\peripheral\gpio/cy_gpio.c **** 
  34:Generated_Source\PSoC6\pdl\drivers\peripheral\gpio/cy_gpio.c **** /*******************************************************************************
  35:Generated_Source\PSoC6\pdl\drivers\peripheral\gpio/cy_gpio.c **** * Function Name: Cy_GPIO_Pin_Init
  36:Generated_Source\PSoC6\pdl\drivers\peripheral\gpio/cy_gpio.c **** ****************************************************************************//**
  37:Generated_Source\PSoC6\pdl\drivers\peripheral\gpio/cy_gpio.c **** *
  38:Generated_Source\PSoC6\pdl\drivers\peripheral\gpio/cy_gpio.c **** * Initializes all pin configuration settings for the specified pin.
  39:Generated_Source\PSoC6\pdl\drivers\peripheral\gpio/cy_gpio.c **** *
  40:Generated_Source\PSoC6\pdl\drivers\peripheral\gpio/cy_gpio.c **** * \param base
  41:Generated_Source\PSoC6\pdl\drivers\peripheral\gpio/cy_gpio.c **** * Pointer to the pin's port register base address
  42:Generated_Source\PSoC6\pdl\drivers\peripheral\gpio/cy_gpio.c **** *
  43:Generated_Source\PSoC6\pdl\drivers\peripheral\gpio/cy_gpio.c **** * \param pinNum
  44:Generated_Source\PSoC6\pdl\drivers\peripheral\gpio/cy_gpio.c **** * Position of the pin bit-field within the port register
  45:Generated_Source\PSoC6\pdl\drivers\peripheral\gpio/cy_gpio.c **** *
  46:Generated_Source\PSoC6\pdl\drivers\peripheral\gpio/cy_gpio.c **** * \param config
  47:Generated_Source\PSoC6\pdl\drivers\peripheral\gpio/cy_gpio.c **** * Pointer to the pin config structure base address
  48:Generated_Source\PSoC6\pdl\drivers\peripheral\gpio/cy_gpio.c **** *
  49:Generated_Source\PSoC6\pdl\drivers\peripheral\gpio/cy_gpio.c **** * \return
  50:Generated_Source\PSoC6\pdl\drivers\peripheral\gpio/cy_gpio.c **** * Initialization status
  51:Generated_Source\PSoC6\pdl\drivers\peripheral\gpio/cy_gpio.c **** *
  52:Generated_Source\PSoC6\pdl\drivers\peripheral\gpio/cy_gpio.c **** * \note 
  53:Generated_Source\PSoC6\pdl\drivers\peripheral\gpio/cy_gpio.c **** * This function modifies port registers in read-modify-write operations. It is
  54:Generated_Source\PSoC6\pdl\drivers\peripheral\gpio/cy_gpio.c **** * not thread safe as the resource is shared among multiple pins on a port.
  55:Generated_Source\PSoC6\pdl\drivers\peripheral\gpio/cy_gpio.c **** *
  56:Generated_Source\PSoC6\pdl\drivers\peripheral\gpio/cy_gpio.c **** * \funcusage
  57:Generated_Source\PSoC6\pdl\drivers\peripheral\gpio/cy_gpio.c **** * \snippet gpio/gpio_v1_10_sut_01.cydsn/main_cm4.c snippet_Cy_GPIO_Pin_Init
  58:Generated_Source\PSoC6\pdl\drivers\peripheral\gpio/cy_gpio.c **** *
  59:Generated_Source\PSoC6\pdl\drivers\peripheral\gpio/cy_gpio.c **** *******************************************************************************/
  60:Generated_Source\PSoC6\pdl\drivers\peripheral\gpio/cy_gpio.c **** cy_en_gpio_status_t Cy_GPIO_Pin_Init(GPIO_PRT_Type *base, uint32_t pinNum, const cy_stc_gpio_pin_co
  61:Generated_Source\PSoC6\pdl\drivers\peripheral\gpio/cy_gpio.c **** {
 590              		.loc 2 61 0
 591              		.cfi_startproc
 592              		@ args = 0, pretend = 0, frame = 32
 593              		@ frame_needed = 1, uses_anonymous_args = 0
 594 0000 80B5     		push	{r7, lr}
 595              		.cfi_def_cfa_offset 8
 596              		.cfi_offset 7, -8
 597              		.cfi_offset 14, -4
 598 0002 88B0     		sub	sp, sp, #32
ARM GAS  C:\Users\stijn\AppData\Local\Temp\ccD3lQ9e.s 			page 44


 599              		.cfi_def_cfa_offset 40
 600 0004 00AF     		add	r7, sp, #0
 601              		.cfi_def_cfa_register 7
 602 0006 F860     		str	r0, [r7, #12]
 603 0008 B960     		str	r1, [r7, #8]
 604 000a 7A60     		str	r2, [r7, #4]
  62:Generated_Source\PSoC6\pdl\drivers\peripheral\gpio/cy_gpio.c ****     cy_en_gpio_status_t status = CY_GPIO_BAD_PARAM;
 605              		.loc 2 62 0
 606 000c A74B     		ldr	r3, .L54
 607 000e FB61     		str	r3, [r7, #28]
  63:Generated_Source\PSoC6\pdl\drivers\peripheral\gpio/cy_gpio.c **** 
  64:Generated_Source\PSoC6\pdl\drivers\peripheral\gpio/cy_gpio.c ****     if ((NULL != base) && (NULL != config))
 608              		.loc 2 64 0
 609 0010 FB68     		ldr	r3, [r7, #12]
 610 0012 002B     		cmp	r3, #0
 611 0014 00F05281 		beq	.L38
 612              		.loc 2 64 0 is_stmt 0 discriminator 1
 613 0018 7B68     		ldr	r3, [r7, #4]
 614 001a 002B     		cmp	r3, #0
 615 001c 00F04E81 		beq	.L38
 616              	.LBB2:
  65:Generated_Source\PSoC6\pdl\drivers\peripheral\gpio/cy_gpio.c ****     {
  66:Generated_Source\PSoC6\pdl\drivers\peripheral\gpio/cy_gpio.c ****         uint32_t maskCfgOut;
  67:Generated_Source\PSoC6\pdl\drivers\peripheral\gpio/cy_gpio.c ****         uint32_t tempReg;
  68:Generated_Source\PSoC6\pdl\drivers\peripheral\gpio/cy_gpio.c ****         
  69:Generated_Source\PSoC6\pdl\drivers\peripheral\gpio/cy_gpio.c ****         CY_ASSERT_L2(CY_GPIO_IS_PIN_VALID(pinNum));
 617              		.loc 2 69 0 is_stmt 1
 618 0020 BB68     		ldr	r3, [r7, #8]
 619 0022 072B     		cmp	r3, #7
 620 0024 03D9     		bls	.L39
 621              		.loc 2 69 0 is_stmt 0 discriminator 1
 622 0026 4521     		movs	r1, #69
 623 0028 A148     		ldr	r0, .L54+4
 624 002a FFF7FEFF 		bl	Cy_SysLib_AssertFailed
 625              	.L39:
  70:Generated_Source\PSoC6\pdl\drivers\peripheral\gpio/cy_gpio.c ****         CY_ASSERT_L2(CY_GPIO_IS_VALUE_VALID(config->outVal));
 626              		.loc 2 70 0 is_stmt 1
 627 002e 7B68     		ldr	r3, [r7, #4]
 628 0030 1B68     		ldr	r3, [r3]
 629 0032 012B     		cmp	r3, #1
 630 0034 03D9     		bls	.L40
 631              		.loc 2 70 0 is_stmt 0 discriminator 1
 632 0036 4621     		movs	r1, #70
 633 0038 9D48     		ldr	r0, .L54+4
 634 003a FFF7FEFF 		bl	Cy_SysLib_AssertFailed
 635              	.L40:
  71:Generated_Source\PSoC6\pdl\drivers\peripheral\gpio/cy_gpio.c ****         CY_ASSERT_L2(CY_GPIO_IS_DM_VALID(config->driveMode));
 636              		.loc 2 71 0 is_stmt 1
 637 003e 7B68     		ldr	r3, [r7, #4]
 638 0040 5B68     		ldr	r3, [r3, #4]
 639 0042 23F00F03 		bic	r3, r3, #15
 640 0046 002B     		cmp	r3, #0
 641 0048 03D0     		beq	.L41
 642              		.loc 2 71 0 is_stmt 0 discriminator 1
 643 004a 4721     		movs	r1, #71
 644 004c 9848     		ldr	r0, .L54+4
 645 004e FFF7FEFF 		bl	Cy_SysLib_AssertFailed
ARM GAS  C:\Users\stijn\AppData\Local\Temp\ccD3lQ9e.s 			page 45


 646              	.L41:
  72:Generated_Source\PSoC6\pdl\drivers\peripheral\gpio/cy_gpio.c ****         CY_ASSERT_L2(CY_GPIO_IS_HSIOM_VALID(config->hsiom));  
 647              		.loc 2 72 0 is_stmt 1
 648 0052 7B68     		ldr	r3, [r7, #4]
 649 0054 1B7A     		ldrb	r3, [r3, #8]	@ zero_extendqisi2
 650 0056 23F01F03 		bic	r3, r3, #31
 651 005a 002B     		cmp	r3, #0
 652 005c 03D0     		beq	.L42
 653              		.loc 2 72 0 is_stmt 0 discriminator 1
 654 005e 4821     		movs	r1, #72
 655 0060 9348     		ldr	r0, .L54+4
 656 0062 FFF7FEFF 		bl	Cy_SysLib_AssertFailed
 657              	.L42:
  73:Generated_Source\PSoC6\pdl\drivers\peripheral\gpio/cy_gpio.c ****         CY_ASSERT_L2(CY_GPIO_IS_INT_EDGE_VALID(config->intEdge)); 
 658              		.loc 2 73 0 is_stmt 1
 659 0066 7B68     		ldr	r3, [r7, #4]
 660 0068 DB68     		ldr	r3, [r3, #12]
 661 006a 002B     		cmp	r3, #0
 662 006c 0FD0     		beq	.L43
 663              		.loc 2 73 0 is_stmt 0 discriminator 1
 664 006e 7B68     		ldr	r3, [r7, #4]
 665 0070 DB68     		ldr	r3, [r3, #12]
 666 0072 012B     		cmp	r3, #1
 667 0074 0BD0     		beq	.L43
 668              		.loc 2 73 0 discriminator 2
 669 0076 7B68     		ldr	r3, [r7, #4]
 670 0078 DB68     		ldr	r3, [r3, #12]
 671 007a 022B     		cmp	r3, #2
 672 007c 07D0     		beq	.L43
 673              		.loc 2 73 0 discriminator 3
 674 007e 7B68     		ldr	r3, [r7, #4]
 675 0080 DB68     		ldr	r3, [r3, #12]
 676 0082 032B     		cmp	r3, #3
 677 0084 03D0     		beq	.L43
 678              		.loc 2 73 0 discriminator 4
 679 0086 4921     		movs	r1, #73
 680 0088 8948     		ldr	r0, .L54+4
 681 008a FFF7FEFF 		bl	Cy_SysLib_AssertFailed
 682              	.L43:
  74:Generated_Source\PSoC6\pdl\drivers\peripheral\gpio/cy_gpio.c ****         CY_ASSERT_L2(CY_GPIO_IS_VALUE_VALID(config->intMask));
 683              		.loc 2 74 0 is_stmt 1
 684 008e 7B68     		ldr	r3, [r7, #4]
 685 0090 1B69     		ldr	r3, [r3, #16]
 686 0092 012B     		cmp	r3, #1
 687 0094 03D9     		bls	.L44
 688              		.loc 2 74 0 is_stmt 0 discriminator 1
 689 0096 4A21     		movs	r1, #74
 690 0098 8548     		ldr	r0, .L54+4
 691 009a FFF7FEFF 		bl	Cy_SysLib_AssertFailed
 692              	.L44:
  75:Generated_Source\PSoC6\pdl\drivers\peripheral\gpio/cy_gpio.c ****         CY_ASSERT_L2(CY_GPIO_IS_VALUE_VALID(config->vtrip));
 693              		.loc 2 75 0 is_stmt 1
 694 009e 7B68     		ldr	r3, [r7, #4]
 695 00a0 5B69     		ldr	r3, [r3, #20]
 696 00a2 012B     		cmp	r3, #1
 697 00a4 03D9     		bls	.L45
 698              		.loc 2 75 0 is_stmt 0 discriminator 1
ARM GAS  C:\Users\stijn\AppData\Local\Temp\ccD3lQ9e.s 			page 46


 699 00a6 4B21     		movs	r1, #75
 700 00a8 8148     		ldr	r0, .L54+4
 701 00aa FFF7FEFF 		bl	Cy_SysLib_AssertFailed
 702              	.L45:
  76:Generated_Source\PSoC6\pdl\drivers\peripheral\gpio/cy_gpio.c ****         CY_ASSERT_L2(CY_GPIO_IS_VALUE_VALID(config->slewRate));
 703              		.loc 2 76 0 is_stmt 1
 704 00ae 7B68     		ldr	r3, [r7, #4]
 705 00b0 9B69     		ldr	r3, [r3, #24]
 706 00b2 012B     		cmp	r3, #1
 707 00b4 03D9     		bls	.L46
 708              		.loc 2 76 0 is_stmt 0 discriminator 1
 709 00b6 4C21     		movs	r1, #76
 710 00b8 7D48     		ldr	r0, .L54+4
 711 00ba FFF7FEFF 		bl	Cy_SysLib_AssertFailed
 712              	.L46:
  77:Generated_Source\PSoC6\pdl\drivers\peripheral\gpio/cy_gpio.c ****         CY_ASSERT_L2(CY_GPIO_IS_DRIVE_SEL_VALID(config->driveSel));
 713              		.loc 2 77 0 is_stmt 1
 714 00be 7B68     		ldr	r3, [r7, #4]
 715 00c0 DB69     		ldr	r3, [r3, #28]
 716 00c2 002B     		cmp	r3, #0
 717 00c4 0FD0     		beq	.L47
 718              		.loc 2 77 0 is_stmt 0 discriminator 1
 719 00c6 7B68     		ldr	r3, [r7, #4]
 720 00c8 DB69     		ldr	r3, [r3, #28]
 721 00ca 012B     		cmp	r3, #1
 722 00cc 0BD0     		beq	.L47
 723              		.loc 2 77 0 discriminator 2
 724 00ce 7B68     		ldr	r3, [r7, #4]
 725 00d0 DB69     		ldr	r3, [r3, #28]
 726 00d2 022B     		cmp	r3, #2
 727 00d4 07D0     		beq	.L47
 728              		.loc 2 77 0 discriminator 3
 729 00d6 7B68     		ldr	r3, [r7, #4]
 730 00d8 DB69     		ldr	r3, [r3, #28]
 731 00da 032B     		cmp	r3, #3
 732 00dc 03D0     		beq	.L47
 733              		.loc 2 77 0 discriminator 4
 734 00de 4D21     		movs	r1, #77
 735 00e0 7348     		ldr	r0, .L54+4
 736 00e2 FFF7FEFF 		bl	Cy_SysLib_AssertFailed
 737              	.L47:
  78:Generated_Source\PSoC6\pdl\drivers\peripheral\gpio/cy_gpio.c ****         CY_ASSERT_L2(CY_GPIO_IS_VALUE_VALID(config->vregEn));
 738              		.loc 2 78 0 is_stmt 1
 739 00e6 7B68     		ldr	r3, [r7, #4]
 740 00e8 1B6A     		ldr	r3, [r3, #32]
 741 00ea 012B     		cmp	r3, #1
 742 00ec 03D9     		bls	.L48
 743              		.loc 2 78 0 is_stmt 0 discriminator 1
 744 00ee 4E21     		movs	r1, #78
 745 00f0 6F48     		ldr	r0, .L54+4
 746 00f2 FFF7FEFF 		bl	Cy_SysLib_AssertFailed
 747              	.L48:
  79:Generated_Source\PSoC6\pdl\drivers\peripheral\gpio/cy_gpio.c ****         CY_ASSERT_L2(CY_GPIO_IS_VALUE_VALID(config->ibufMode));
 748              		.loc 2 79 0 is_stmt 1
 749 00f6 7B68     		ldr	r3, [r7, #4]
 750 00f8 5B6A     		ldr	r3, [r3, #36]
 751 00fa 012B     		cmp	r3, #1
ARM GAS  C:\Users\stijn\AppData\Local\Temp\ccD3lQ9e.s 			page 47


 752 00fc 03D9     		bls	.L49
 753              		.loc 2 79 0 is_stmt 0 discriminator 1
 754 00fe 4F21     		movs	r1, #79
 755 0100 6B48     		ldr	r0, .L54+4
 756 0102 FFF7FEFF 		bl	Cy_SysLib_AssertFailed
 757              	.L49:
  80:Generated_Source\PSoC6\pdl\drivers\peripheral\gpio/cy_gpio.c ****         CY_ASSERT_L2(CY_GPIO_IS_VALUE_VALID(config->vtripSel));
 758              		.loc 2 80 0 is_stmt 1
 759 0106 7B68     		ldr	r3, [r7, #4]
 760 0108 9B6A     		ldr	r3, [r3, #40]
 761 010a 012B     		cmp	r3, #1
 762 010c 03D9     		bls	.L50
 763              		.loc 2 80 0 is_stmt 0 discriminator 1
 764 010e 5021     		movs	r1, #80
 765 0110 6748     		ldr	r0, .L54+4
 766 0112 FFF7FEFF 		bl	Cy_SysLib_AssertFailed
 767              	.L50:
  81:Generated_Source\PSoC6\pdl\drivers\peripheral\gpio/cy_gpio.c ****         CY_ASSERT_L2(CY_GPIO_IS_VREF_SEL_VALID(config->vrefSel));
 768              		.loc 2 81 0 is_stmt 1
 769 0116 7B68     		ldr	r3, [r7, #4]
 770 0118 DB6A     		ldr	r3, [r3, #44]
 771 011a 002B     		cmp	r3, #0
 772 011c 0FD0     		beq	.L51
 773              		.loc 2 81 0 is_stmt 0 discriminator 1
 774 011e 7B68     		ldr	r3, [r7, #4]
 775 0120 DB6A     		ldr	r3, [r3, #44]
 776 0122 012B     		cmp	r3, #1
 777 0124 0BD0     		beq	.L51
 778              		.loc 2 81 0 discriminator 2
 779 0126 7B68     		ldr	r3, [r7, #4]
 780 0128 DB6A     		ldr	r3, [r3, #44]
 781 012a 022B     		cmp	r3, #2
 782 012c 07D0     		beq	.L51
 783              		.loc 2 81 0 discriminator 3
 784 012e 7B68     		ldr	r3, [r7, #4]
 785 0130 DB6A     		ldr	r3, [r3, #44]
 786 0132 032B     		cmp	r3, #3
 787 0134 03D0     		beq	.L51
 788              		.loc 2 81 0 discriminator 4
 789 0136 5121     		movs	r1, #81
 790 0138 5D48     		ldr	r0, .L54+4
 791 013a FFF7FEFF 		bl	Cy_SysLib_AssertFailed
 792              	.L51:
  82:Generated_Source\PSoC6\pdl\drivers\peripheral\gpio/cy_gpio.c ****         CY_ASSERT_L2(CY_GPIO_IS_VOH_SEL_VALID(config->vohSel));
 793              		.loc 2 82 0 is_stmt 1
 794 013e 7B68     		ldr	r3, [r7, #4]
 795 0140 1B6B     		ldr	r3, [r3, #48]
 796 0142 002B     		cmp	r3, #0
 797 0144 1FD0     		beq	.L52
 798              		.loc 2 82 0 is_stmt 0 discriminator 1
 799 0146 7B68     		ldr	r3, [r7, #4]
 800 0148 1B6B     		ldr	r3, [r3, #48]
 801 014a 012B     		cmp	r3, #1
 802 014c 1BD0     		beq	.L52
 803              		.loc 2 82 0 discriminator 2
 804 014e 7B68     		ldr	r3, [r7, #4]
 805 0150 1B6B     		ldr	r3, [r3, #48]
ARM GAS  C:\Users\stijn\AppData\Local\Temp\ccD3lQ9e.s 			page 48


 806 0152 022B     		cmp	r3, #2
 807 0154 17D0     		beq	.L52
 808              		.loc 2 82 0 discriminator 3
 809 0156 7B68     		ldr	r3, [r7, #4]
 810 0158 1B6B     		ldr	r3, [r3, #48]
 811 015a 032B     		cmp	r3, #3
 812 015c 13D0     		beq	.L52
 813              		.loc 2 82 0 discriminator 4
 814 015e 7B68     		ldr	r3, [r7, #4]
 815 0160 1B6B     		ldr	r3, [r3, #48]
 816 0162 042B     		cmp	r3, #4
 817 0164 0FD0     		beq	.L52
 818              		.loc 2 82 0 discriminator 5
 819 0166 7B68     		ldr	r3, [r7, #4]
 820 0168 1B6B     		ldr	r3, [r3, #48]
 821 016a 052B     		cmp	r3, #5
 822 016c 0BD0     		beq	.L52
 823              		.loc 2 82 0 discriminator 6
 824 016e 7B68     		ldr	r3, [r7, #4]
 825 0170 1B6B     		ldr	r3, [r3, #48]
 826 0172 062B     		cmp	r3, #6
 827 0174 07D0     		beq	.L52
 828              		.loc 2 82 0 discriminator 7
 829 0176 7B68     		ldr	r3, [r7, #4]
 830 0178 1B6B     		ldr	r3, [r3, #48]
 831 017a 072B     		cmp	r3, #7
 832 017c 03D0     		beq	.L52
 833              		.loc 2 82 0 discriminator 8
 834 017e 5221     		movs	r1, #82
 835 0180 4B48     		ldr	r0, .L54+4
 836 0182 FFF7FEFF 		bl	Cy_SysLib_AssertFailed
 837              	.L52:
  83:Generated_Source\PSoC6\pdl\drivers\peripheral\gpio/cy_gpio.c ****     
  84:Generated_Source\PSoC6\pdl\drivers\peripheral\gpio/cy_gpio.c ****         Cy_GPIO_Write(base, pinNum, config->outVal);
 838              		.loc 2 84 0 is_stmt 1
 839 0186 7B68     		ldr	r3, [r7, #4]
 840 0188 1B68     		ldr	r3, [r3]
 841 018a 1A46     		mov	r2, r3
 842 018c B968     		ldr	r1, [r7, #8]
 843 018e F868     		ldr	r0, [r7, #12]
 844 0190 FFF7FEFF 		bl	Cy_GPIO_Write
  85:Generated_Source\PSoC6\pdl\drivers\peripheral\gpio/cy_gpio.c ****         Cy_GPIO_SetDrivemode(base, pinNum, config->driveMode);
 845              		.loc 2 85 0
 846 0194 7B68     		ldr	r3, [r7, #4]
 847 0196 5B68     		ldr	r3, [r3, #4]
 848 0198 1A46     		mov	r2, r3
 849 019a B968     		ldr	r1, [r7, #8]
 850 019c F868     		ldr	r0, [r7, #12]
 851 019e FFF7FEFF 		bl	Cy_GPIO_SetDrivemode
  86:Generated_Source\PSoC6\pdl\drivers\peripheral\gpio/cy_gpio.c ****         Cy_GPIO_SetHSIOM(base, pinNum, config->hsiom);
 852              		.loc 2 86 0
 853 01a2 7B68     		ldr	r3, [r7, #4]
 854 01a4 1B7A     		ldrb	r3, [r3, #8]	@ zero_extendqisi2
 855 01a6 1A46     		mov	r2, r3
 856 01a8 B968     		ldr	r1, [r7, #8]
 857 01aa F868     		ldr	r0, [r7, #12]
 858 01ac FFF7FEFF 		bl	Cy_GPIO_SetHSIOM
ARM GAS  C:\Users\stijn\AppData\Local\Temp\ccD3lQ9e.s 			page 49


  87:Generated_Source\PSoC6\pdl\drivers\peripheral\gpio/cy_gpio.c **** 
  88:Generated_Source\PSoC6\pdl\drivers\peripheral\gpio/cy_gpio.c ****         Cy_GPIO_SetInterruptEdge(base, pinNum, config->intEdge);
 859              		.loc 2 88 0
 860 01b0 7B68     		ldr	r3, [r7, #4]
 861 01b2 DB68     		ldr	r3, [r3, #12]
 862 01b4 1A46     		mov	r2, r3
 863 01b6 B968     		ldr	r1, [r7, #8]
 864 01b8 F868     		ldr	r0, [r7, #12]
 865 01ba FFF7FEFF 		bl	Cy_GPIO_SetInterruptEdge
  89:Generated_Source\PSoC6\pdl\drivers\peripheral\gpio/cy_gpio.c ****         Cy_GPIO_SetInterruptMask(base, pinNum, config->intMask);
 866              		.loc 2 89 0
 867 01be 7B68     		ldr	r3, [r7, #4]
 868 01c0 1B69     		ldr	r3, [r3, #16]
 869 01c2 1A46     		mov	r2, r3
 870 01c4 B968     		ldr	r1, [r7, #8]
 871 01c6 F868     		ldr	r0, [r7, #12]
 872 01c8 FFF7FEFF 		bl	Cy_GPIO_SetInterruptMask
  90:Generated_Source\PSoC6\pdl\drivers\peripheral\gpio/cy_gpio.c ****         Cy_GPIO_SetVtrip(base, pinNum, config->vtrip);
 873              		.loc 2 90 0
 874 01cc 7B68     		ldr	r3, [r7, #4]
 875 01ce 5B69     		ldr	r3, [r3, #20]
 876 01d0 1A46     		mov	r2, r3
 877 01d2 B968     		ldr	r1, [r7, #8]
 878 01d4 F868     		ldr	r0, [r7, #12]
 879 01d6 FFF7FEFF 		bl	Cy_GPIO_SetVtrip
  91:Generated_Source\PSoC6\pdl\drivers\peripheral\gpio/cy_gpio.c **** 
  92:Generated_Source\PSoC6\pdl\drivers\peripheral\gpio/cy_gpio.c ****         /* Slew rate and Driver strength */
  93:Generated_Source\PSoC6\pdl\drivers\peripheral\gpio/cy_gpio.c ****         maskCfgOut = (CY_GPIO_CFG_OUT_SLOW_MASK << pinNum) 
 880              		.loc 2 93 0
 881 01da 0122     		movs	r2, #1
 882 01dc BB68     		ldr	r3, [r7, #8]
 883 01de 9A40     		lsls	r2, r2, r3
  94:Generated_Source\PSoC6\pdl\drivers\peripheral\gpio/cy_gpio.c ****                      | (CY_GPIO_CFG_OUT_DRIVE_SEL_MASK << ((uint32_t)(pinNum << 1U) + CY_GPIO_CFG_O
 884              		.loc 2 94 0
 885 01e0 BB68     		ldr	r3, [r7, #8]
 886 01e2 5B00     		lsls	r3, r3, #1
 887 01e4 1033     		adds	r3, r3, #16
 888 01e6 0321     		movs	r1, #3
 889 01e8 01FA03F3 		lsl	r3, r1, r3
  93:Generated_Source\PSoC6\pdl\drivers\peripheral\gpio/cy_gpio.c ****                      | (CY_GPIO_CFG_OUT_DRIVE_SEL_MASK << ((uint32_t)(pinNum << 1U) + CY_GPIO_CFG_O
 890              		.loc 2 93 0
 891 01ec 1343     		orrs	r3, r3, r2
 892 01ee BB61     		str	r3, [r7, #24]
  95:Generated_Source\PSoC6\pdl\drivers\peripheral\gpio/cy_gpio.c ****         tempReg = GPIO_PRT_CFG_OUT(base) & ~(maskCfgOut);
 893              		.loc 2 95 0
 894 01f0 304B     		ldr	r3, .L54+8
 895 01f2 1B68     		ldr	r3, [r3]
 896 01f4 93F87F30 		ldrb	r3, [r3, #127]	@ zero_extendqisi2
 897 01f8 1A46     		mov	r2, r3
 898 01fa FB68     		ldr	r3, [r7, #12]
 899 01fc 1344     		add	r3, r3, r2
 900 01fe 1A68     		ldr	r2, [r3]
 901 0200 BB69     		ldr	r3, [r7, #24]
 902 0202 DB43     		mvns	r3, r3
 903 0204 1340     		ands	r3, r3, r2
 904 0206 7B61     		str	r3, [r7, #20]
  96:Generated_Source\PSoC6\pdl\drivers\peripheral\gpio/cy_gpio.c ****         
ARM GAS  C:\Users\stijn\AppData\Local\Temp\ccD3lQ9e.s 			page 50


  97:Generated_Source\PSoC6\pdl\drivers\peripheral\gpio/cy_gpio.c ****         GPIO_PRT_CFG_OUT(base) = tempReg | ((config->slewRate & CY_GPIO_CFG_OUT_SLOW_MASK) << pinNu
 905              		.loc 2 97 0
 906 0208 2A4B     		ldr	r3, .L54+8
 907 020a 1B68     		ldr	r3, [r3]
 908 020c 93F87F30 		ldrb	r3, [r3, #127]	@ zero_extendqisi2
 909 0210 1A46     		mov	r2, r3
 910 0212 FB68     		ldr	r3, [r7, #12]
 911 0214 1344     		add	r3, r3, r2
 912 0216 1846     		mov	r0, r3
 913 0218 7B68     		ldr	r3, [r7, #4]
 914 021a 9B69     		ldr	r3, [r3, #24]
 915 021c 03F00102 		and	r2, r3, #1
 916 0220 BB68     		ldr	r3, [r7, #8]
 917 0222 9A40     		lsls	r2, r2, r3
 918 0224 7B69     		ldr	r3, [r7, #20]
 919 0226 1A43     		orrs	r2, r2, r3
  98:Generated_Source\PSoC6\pdl\drivers\peripheral\gpio/cy_gpio.c ****                             | ((config->driveSel & CY_GPIO_CFG_OUT_DRIVE_SEL_MASK) << ((uint32_t)(p
 920              		.loc 2 98 0
 921 0228 7B68     		ldr	r3, [r7, #4]
 922 022a DB69     		ldr	r3, [r3, #28]
 923 022c 03F00301 		and	r1, r3, #3
 924 0230 BB68     		ldr	r3, [r7, #8]
 925 0232 5B00     		lsls	r3, r3, #1
 926 0234 1033     		adds	r3, r3, #16
 927 0236 01FA03F3 		lsl	r3, r1, r3
 928 023a 1343     		orrs	r3, r3, r2
  97:Generated_Source\PSoC6\pdl\drivers\peripheral\gpio/cy_gpio.c ****                             | ((config->driveSel & CY_GPIO_CFG_OUT_DRIVE_SEL_MASK) << ((uint32_t)(p
 929              		.loc 2 97 0
 930 023c 0360     		str	r3, [r0]
  99:Generated_Source\PSoC6\pdl\drivers\peripheral\gpio/cy_gpio.c **** 
 100:Generated_Source\PSoC6\pdl\drivers\peripheral\gpio/cy_gpio.c ****         /* SIO specific configuration */
 101:Generated_Source\PSoC6\pdl\drivers\peripheral\gpio/cy_gpio.c ****         tempReg = GPIO_PRT_CFG_SIO(base) & ~(CY_GPIO_SIO_PIN_MASK);
 931              		.loc 2 101 0
 932 023e 1D4B     		ldr	r3, .L54+8
 933 0240 1B68     		ldr	r3, [r3]
 934 0242 93F88030 		ldrb	r3, [r3, #128]	@ zero_extendqisi2
 935 0246 1A46     		mov	r2, r3
 936 0248 FB68     		ldr	r3, [r7, #12]
 937 024a 1344     		add	r3, r3, r2
 938 024c 1B68     		ldr	r3, [r3]
 939 024e 23F0FF03 		bic	r3, r3, #255
 940 0252 7B61     		str	r3, [r7, #20]
 102:Generated_Source\PSoC6\pdl\drivers\peripheral\gpio/cy_gpio.c ****         GPIO_PRT_CFG_SIO(base) = tempReg | (((config->vregEn & CY_GPIO_VREG_EN_MASK)
 941              		.loc 2 102 0
 942 0254 174B     		ldr	r3, .L54+8
 943 0256 1B68     		ldr	r3, [r3]
 944 0258 93F88030 		ldrb	r3, [r3, #128]	@ zero_extendqisi2
 945 025c 1A46     		mov	r2, r3
 946 025e FB68     		ldr	r3, [r7, #12]
 947 0260 1344     		add	r3, r3, r2
 948 0262 1946     		mov	r1, r3
 949 0264 7B68     		ldr	r3, [r7, #4]
 950 0266 1B6A     		ldr	r3, [r3, #32]
 951 0268 03F00102 		and	r2, r3, #1
 103:Generated_Source\PSoC6\pdl\drivers\peripheral\gpio/cy_gpio.c ****                                          | ((config->ibufMode & CY_GPIO_IBUF_MASK) << CY_GPIO_IBUF_
 952              		.loc 2 103 0
 953 026c 7B68     		ldr	r3, [r7, #4]
ARM GAS  C:\Users\stijn\AppData\Local\Temp\ccD3lQ9e.s 			page 51


 954 026e 5B6A     		ldr	r3, [r3, #36]
 955 0270 5B00     		lsls	r3, r3, #1
 956 0272 03F00203 		and	r3, r3, #2
 957 0276 1A43     		orrs	r2, r2, r3
 104:Generated_Source\PSoC6\pdl\drivers\peripheral\gpio/cy_gpio.c ****                                          | ((config->vtripSel & CY_GPIO_VTRIP_SEL_MASK) << CY_GPIO_
 958              		.loc 2 104 0
 959 0278 7B68     		ldr	r3, [r7, #4]
 960 027a 9B6A     		ldr	r3, [r3, #40]
 961 027c 9B00     		lsls	r3, r3, #2
 962 027e 03F00403 		and	r3, r3, #4
 963 0282 1A43     		orrs	r2, r2, r3
 105:Generated_Source\PSoC6\pdl\drivers\peripheral\gpio/cy_gpio.c ****                                          | ((config->vrefSel & CY_GPIO_VREF_SEL_MASK)  << CY_GPIO_V
 964              		.loc 2 105 0
 965 0284 7B68     		ldr	r3, [r7, #4]
 966 0286 DB6A     		ldr	r3, [r3, #44]
 967 0288 DB00     		lsls	r3, r3, #3
 968 028a 03F01803 		and	r3, r3, #24
 969 028e 1A43     		orrs	r2, r2, r3
 106:Generated_Source\PSoC6\pdl\drivers\peripheral\gpio/cy_gpio.c ****                                          | ((config->vohSel & CY_GPIO_VOH_SEL_MASK) << CY_GPIO_VOH_
 970              		.loc 2 106 0
 971 0290 7B68     		ldr	r3, [r7, #4]
 972 0292 1B6B     		ldr	r3, [r3, #48]
 973 0294 5B01     		lsls	r3, r3, #5
 974 0296 DBB2     		uxtb	r3, r3
 975 0298 1A43     		orrs	r2, r2, r3
 107:Generated_Source\PSoC6\pdl\drivers\peripheral\gpio/cy_gpio.c ****                                            << ((pinNum & CY_GPIO_SIO_ODD_PIN_MASK) << CY_GPIO_CFG_S
 976              		.loc 2 107 0
 977 029a BB68     		ldr	r3, [r7, #8]
 978 029c 9B00     		lsls	r3, r3, #2
 979 029e 03F47E73 		and	r3, r3, #1016
 980 02a2 9A40     		lsls	r2, r2, r3
 102:Generated_Source\PSoC6\pdl\drivers\peripheral\gpio/cy_gpio.c ****                                          | ((config->ibufMode & CY_GPIO_IBUF_MASK) << CY_GPIO_IBUF_
 981              		.loc 2 102 0
 982 02a4 7B69     		ldr	r3, [r7, #20]
 983 02a6 1343     		orrs	r3, r3, r2
 984 02a8 0B60     		str	r3, [r1]
 985 02aa 05E0     		b	.L55
 986              	.L56:
 987              		.align	2
 988              	.L54:
 989 02ac 01005A00 		.word	5898241
 990 02b0 40000000 		.word	.LC1
 991 02b4 00000000 		.word	cy_device
 992              	.L55:
 108:Generated_Source\PSoC6\pdl\drivers\peripheral\gpio/cy_gpio.c **** 
 109:Generated_Source\PSoC6\pdl\drivers\peripheral\gpio/cy_gpio.c ****         status = CY_GPIO_SUCCESS;
 993              		.loc 2 109 0
 994 02b8 0023     		movs	r3, #0
 995 02ba FB61     		str	r3, [r7, #28]
 996              	.L38:
 997              	.LBE2:
 110:Generated_Source\PSoC6\pdl\drivers\peripheral\gpio/cy_gpio.c ****     }
 111:Generated_Source\PSoC6\pdl\drivers\peripheral\gpio/cy_gpio.c **** 
 112:Generated_Source\PSoC6\pdl\drivers\peripheral\gpio/cy_gpio.c ****     return(status);
 998              		.loc 2 112 0
 999 02bc FB69     		ldr	r3, [r7, #28]
 113:Generated_Source\PSoC6\pdl\drivers\peripheral\gpio/cy_gpio.c **** }
ARM GAS  C:\Users\stijn\AppData\Local\Temp\ccD3lQ9e.s 			page 52


 1000              		.loc 2 113 0
 1001 02be 1846     		mov	r0, r3
 1002 02c0 2037     		adds	r7, r7, #32
 1003              		.cfi_def_cfa_offset 8
 1004 02c2 BD46     		mov	sp, r7
 1005              		.cfi_def_cfa_register 13
 1006              		@ sp needed
 1007 02c4 80BD     		pop	{r7, pc}
 1008              		.cfi_endproc
 1009              	.LFE173:
 1010              		.size	Cy_GPIO_Pin_Init, .-Cy_GPIO_Pin_Init
 1011 02c6 00BF     		.section	.text.Cy_GPIO_Port_Init,"ax",%progbits
 1012              		.align	2
 1013              		.global	Cy_GPIO_Port_Init
 1014              		.thumb
 1015              		.thumb_func
 1016              		.type	Cy_GPIO_Port_Init, %function
 1017              	Cy_GPIO_Port_Init:
 1018              	.LFB174:
 114:Generated_Source\PSoC6\pdl\drivers\peripheral\gpio/cy_gpio.c **** 
 115:Generated_Source\PSoC6\pdl\drivers\peripheral\gpio/cy_gpio.c **** 
 116:Generated_Source\PSoC6\pdl\drivers\peripheral\gpio/cy_gpio.c **** /*******************************************************************************
 117:Generated_Source\PSoC6\pdl\drivers\peripheral\gpio/cy_gpio.c **** * Function Name: Cy_GPIO_Port_Init
 118:Generated_Source\PSoC6\pdl\drivers\peripheral\gpio/cy_gpio.c **** ****************************************************************************//**
 119:Generated_Source\PSoC6\pdl\drivers\peripheral\gpio/cy_gpio.c **** *
 120:Generated_Source\PSoC6\pdl\drivers\peripheral\gpio/cy_gpio.c **** * Initialize a complete port of pins from a single init structure.
 121:Generated_Source\PSoC6\pdl\drivers\peripheral\gpio/cy_gpio.c **** *
 122:Generated_Source\PSoC6\pdl\drivers\peripheral\gpio/cy_gpio.c **** * The configuration structure used in this function has a 1:1 mapping to the
 123:Generated_Source\PSoC6\pdl\drivers\peripheral\gpio/cy_gpio.c **** * GPIO and HSIOM registers. Refer to the device Technical Reference Manual (TRM)
 124:Generated_Source\PSoC6\pdl\drivers\peripheral\gpio/cy_gpio.c **** * for the register details on how to populate them.
 125:Generated_Source\PSoC6\pdl\drivers\peripheral\gpio/cy_gpio.c **** *
 126:Generated_Source\PSoC6\pdl\drivers\peripheral\gpio/cy_gpio.c **** * \param base
 127:Generated_Source\PSoC6\pdl\drivers\peripheral\gpio/cy_gpio.c **** * Pointer to the pin's port register base address
 128:Generated_Source\PSoC6\pdl\drivers\peripheral\gpio/cy_gpio.c **** *
 129:Generated_Source\PSoC6\pdl\drivers\peripheral\gpio/cy_gpio.c **** * \param config
 130:Generated_Source\PSoC6\pdl\drivers\peripheral\gpio/cy_gpio.c **** * Pointer to the pin config structure base address
 131:Generated_Source\PSoC6\pdl\drivers\peripheral\gpio/cy_gpio.c **** *
 132:Generated_Source\PSoC6\pdl\drivers\peripheral\gpio/cy_gpio.c **** * \return
 133:Generated_Source\PSoC6\pdl\drivers\peripheral\gpio/cy_gpio.c **** * Initialization status
 134:Generated_Source\PSoC6\pdl\drivers\peripheral\gpio/cy_gpio.c **** *
 135:Generated_Source\PSoC6\pdl\drivers\peripheral\gpio/cy_gpio.c **** * \note 
 136:Generated_Source\PSoC6\pdl\drivers\peripheral\gpio/cy_gpio.c **** * If using the PSoC Creator IDE, there is no need to initialize the pins when 
 137:Generated_Source\PSoC6\pdl\drivers\peripheral\gpio/cy_gpio.c **** * using the GPIO component on the schematic. Ports are configured in 
 138:Generated_Source\PSoC6\pdl\drivers\peripheral\gpio/cy_gpio.c **** * Cy_SystemInit() before main() entry.
 139:Generated_Source\PSoC6\pdl\drivers\peripheral\gpio/cy_gpio.c **** *
 140:Generated_Source\PSoC6\pdl\drivers\peripheral\gpio/cy_gpio.c **** * \funcusage
 141:Generated_Source\PSoC6\pdl\drivers\peripheral\gpio/cy_gpio.c **** * \snippet gpio/gpio_v1_10_sut_01.cydsn/main_cm4.c snippet_Cy_GPIO_Port_Init
 142:Generated_Source\PSoC6\pdl\drivers\peripheral\gpio/cy_gpio.c **** *
 143:Generated_Source\PSoC6\pdl\drivers\peripheral\gpio/cy_gpio.c **** *******************************************************************************/
 144:Generated_Source\PSoC6\pdl\drivers\peripheral\gpio/cy_gpio.c **** cy_en_gpio_status_t Cy_GPIO_Port_Init(GPIO_PRT_Type* base, const cy_stc_gpio_prt_config_t *config)
 145:Generated_Source\PSoC6\pdl\drivers\peripheral\gpio/cy_gpio.c **** {
 1019              		.loc 2 145 0
 1020              		.cfi_startproc
 1021              		@ args = 0, pretend = 0, frame = 24
 1022              		@ frame_needed = 1, uses_anonymous_args = 0
 1023 0000 80B5     		push	{r7, lr}
 1024              		.cfi_def_cfa_offset 8
ARM GAS  C:\Users\stijn\AppData\Local\Temp\ccD3lQ9e.s 			page 53


 1025              		.cfi_offset 7, -8
 1026              		.cfi_offset 14, -4
 1027 0002 86B0     		sub	sp, sp, #24
 1028              		.cfi_def_cfa_offset 32
 1029 0004 00AF     		add	r7, sp, #0
 1030              		.cfi_def_cfa_register 7
 1031 0006 7860     		str	r0, [r7, #4]
 1032 0008 3960     		str	r1, [r7]
 146:Generated_Source\PSoC6\pdl\drivers\peripheral\gpio/cy_gpio.c ****     cy_en_gpio_status_t status = CY_GPIO_BAD_PARAM;
 1033              		.loc 2 146 0
 1034 000a 524B     		ldr	r3, .L66
 1035 000c 7B61     		str	r3, [r7, #20]
 147:Generated_Source\PSoC6\pdl\drivers\peripheral\gpio/cy_gpio.c **** 
 148:Generated_Source\PSoC6\pdl\drivers\peripheral\gpio/cy_gpio.c ****     if ((NULL != base) && (NULL != config))
 1036              		.loc 2 148 0
 1037 000e 7B68     		ldr	r3, [r7, #4]
 1038 0010 002B     		cmp	r3, #0
 1039 0012 00F09980 		beq	.L58
 1040              		.loc 2 148 0 is_stmt 0 discriminator 1
 1041 0016 3B68     		ldr	r3, [r7]
 1042 0018 002B     		cmp	r3, #0
 1043 001a 00F09580 		beq	.L58
 1044              	.LBB3:
 149:Generated_Source\PSoC6\pdl\drivers\peripheral\gpio/cy_gpio.c ****     {
 150:Generated_Source\PSoC6\pdl\drivers\peripheral\gpio/cy_gpio.c ****         uint32_t portNum;
 151:Generated_Source\PSoC6\pdl\drivers\peripheral\gpio/cy_gpio.c ****         HSIOM_PRT_V1_Type* baseHSIOM;
 152:Generated_Source\PSoC6\pdl\drivers\peripheral\gpio/cy_gpio.c ****         
 153:Generated_Source\PSoC6\pdl\drivers\peripheral\gpio/cy_gpio.c ****         CY_ASSERT_L2(CY_GPIO_IS_PIN_BIT_VALID(config->out));
 1045              		.loc 2 153 0 is_stmt 1
 1046 001e 3B68     		ldr	r3, [r7]
 1047 0020 1B68     		ldr	r3, [r3]
 1048 0022 23F0FF03 		bic	r3, r3, #255
 1049 0026 002B     		cmp	r3, #0
 1050 0028 03D0     		beq	.L59
 1051              		.loc 2 153 0 is_stmt 0 discriminator 1
 1052 002a 9921     		movs	r1, #153
 1053 002c 4A48     		ldr	r0, .L66+4
 1054 002e FFF7FEFF 		bl	Cy_SysLib_AssertFailed
 1055              	.L59:
 154:Generated_Source\PSoC6\pdl\drivers\peripheral\gpio/cy_gpio.c ****         CY_ASSERT_L2(CY_GPIO_IS_PIN_BIT_VALID(config->cfgIn));
 1056              		.loc 2 154 0 is_stmt 1
 1057 0032 3B68     		ldr	r3, [r7]
 1058 0034 1B69     		ldr	r3, [r3, #16]
 1059 0036 23F0FF03 		bic	r3, r3, #255
 1060 003a 002B     		cmp	r3, #0
 1061 003c 03D0     		beq	.L60
 1062              		.loc 2 154 0 is_stmt 0 discriminator 1
 1063 003e 9A21     		movs	r1, #154
 1064 0040 4548     		ldr	r0, .L66+4
 1065 0042 FFF7FEFF 		bl	Cy_SysLib_AssertFailed
 1066              	.L60:
 155:Generated_Source\PSoC6\pdl\drivers\peripheral\gpio/cy_gpio.c ****         CY_ASSERT_L2(CY_GPIO_IS_INTR_CFG_VALID(config->intrCfg));
 1067              		.loc 2 155 0 is_stmt 1
 1068 0046 3B68     		ldr	r3, [r7]
 1069 0048 9B68     		ldr	r3, [r3, #8]
 1070 004a 5B0D     		lsrs	r3, r3, #21
 1071 004c 5B05     		lsls	r3, r3, #21
ARM GAS  C:\Users\stijn\AppData\Local\Temp\ccD3lQ9e.s 			page 54


 1072 004e 002B     		cmp	r3, #0
 1073 0050 03D0     		beq	.L61
 1074              		.loc 2 155 0 is_stmt 0 discriminator 1
 1075 0052 9B21     		movs	r1, #155
 1076 0054 4048     		ldr	r0, .L66+4
 1077 0056 FFF7FEFF 		bl	Cy_SysLib_AssertFailed
 1078              	.L61:
 156:Generated_Source\PSoC6\pdl\drivers\peripheral\gpio/cy_gpio.c ****         CY_ASSERT_L2(CY_GPIO_IS_INTR_MASK_VALID(config->intrMask));
 1079              		.loc 2 156 0 is_stmt 1
 1080 005a 3B68     		ldr	r3, [r7]
 1081 005c 5B68     		ldr	r3, [r3, #4]
 1082 005e 23F4FF73 		bic	r3, r3, #510
 1083 0062 23F00103 		bic	r3, r3, #1
 1084 0066 002B     		cmp	r3, #0
 1085 0068 03D0     		beq	.L62
 1086              		.loc 2 156 0 is_stmt 0 discriminator 1
 1087 006a 9C21     		movs	r1, #156
 1088 006c 3A48     		ldr	r0, .L66+4
 1089 006e FFF7FEFF 		bl	Cy_SysLib_AssertFailed
 1090              	.L62:
 157:Generated_Source\PSoC6\pdl\drivers\peripheral\gpio/cy_gpio.c ****         CY_ASSERT_L2(CY_GPIO_IS_SEL_ACT_VALID(config->sel0Active));
 1091              		.loc 2 157 0 is_stmt 1
 1092 0072 3B68     		ldr	r3, [r7]
 1093 0074 DB69     		ldr	r3, [r3, #28]
 1094 0076 03F06043 		and	r3, r3, #-536870912
 1095 007a 002B     		cmp	r3, #0
 1096 007c 03D0     		beq	.L63
 1097              		.loc 2 157 0 is_stmt 0 discriminator 1
 1098 007e 9D21     		movs	r1, #157
 1099 0080 3548     		ldr	r0, .L66+4
 1100 0082 FFF7FEFF 		bl	Cy_SysLib_AssertFailed
 1101              	.L63:
 158:Generated_Source\PSoC6\pdl\drivers\peripheral\gpio/cy_gpio.c ****         CY_ASSERT_L2(CY_GPIO_IS_SEL_ACT_VALID(config->sel1Active));
 1102              		.loc 2 158 0 is_stmt 1
 1103 0086 3B68     		ldr	r3, [r7]
 1104 0088 1B6A     		ldr	r3, [r3, #32]
 1105 008a 03F06043 		and	r3, r3, #-536870912
 1106 008e 002B     		cmp	r3, #0
 1107 0090 03D0     		beq	.L64
 1108              		.loc 2 158 0 is_stmt 0 discriminator 1
 1109 0092 9E21     		movs	r1, #158
 1110 0094 3048     		ldr	r0, .L66+4
 1111 0096 FFF7FEFF 		bl	Cy_SysLib_AssertFailed
 1112              	.L64:
 159:Generated_Source\PSoC6\pdl\drivers\peripheral\gpio/cy_gpio.c ****     
 160:Generated_Source\PSoC6\pdl\drivers\peripheral\gpio/cy_gpio.c ****         portNum = ((uint32_t)(base) - CY_GPIO_BASE) / GPIO_PRT_SECTION_SIZE;
 1113              		.loc 2 160 0 is_stmt 1
 1114 009a 7A68     		ldr	r2, [r7, #4]
 1115 009c 2F4B     		ldr	r3, .L66+8
 1116 009e 1B68     		ldr	r3, [r3]
 1117 00a0 9B69     		ldr	r3, [r3, #24]
 1118 00a2 D31A     		subs	r3, r2, r3
 1119 00a4 DB09     		lsrs	r3, r3, #7
 1120 00a6 3B61     		str	r3, [r7, #16]
 161:Generated_Source\PSoC6\pdl\drivers\peripheral\gpio/cy_gpio.c ****         baseHSIOM = (HSIOM_PRT_V1_Type*)(CY_HSIOM_BASE + (HSIOM_PRT_SECTION_SIZE * portNum));
 1121              		.loc 2 161 0
 1122 00a8 2C4B     		ldr	r3, .L66+8
ARM GAS  C:\Users\stijn\AppData\Local\Temp\ccD3lQ9e.s 			page 55


 1123 00aa 1B68     		ldr	r3, [r3]
 1124 00ac 5A69     		ldr	r2, [r3, #20]
 1125 00ae 3B69     		ldr	r3, [r7, #16]
 1126 00b0 1B01     		lsls	r3, r3, #4
 1127 00b2 1344     		add	r3, r3, r2
 1128 00b4 FB60     		str	r3, [r7, #12]
 162:Generated_Source\PSoC6\pdl\drivers\peripheral\gpio/cy_gpio.c **** 
 163:Generated_Source\PSoC6\pdl\drivers\peripheral\gpio/cy_gpio.c ****         GPIO_PRT_OUT(base)             = config->out;
 1129              		.loc 2 163 0
 1130 00b6 3B68     		ldr	r3, [r7]
 1131 00b8 1A68     		ldr	r2, [r3]
 1132 00ba 7B68     		ldr	r3, [r7, #4]
 1133 00bc 1A60     		str	r2, [r3]
 164:Generated_Source\PSoC6\pdl\drivers\peripheral\gpio/cy_gpio.c ****         GPIO_PRT_CFG(base)             = config->cfg;
 1134              		.loc 2 164 0
 1135 00be 274B     		ldr	r3, .L66+8
 1136 00c0 1B68     		ldr	r3, [r3]
 1137 00c2 93F87D30 		ldrb	r3, [r3, #125]	@ zero_extendqisi2
 1138 00c6 1A46     		mov	r2, r3
 1139 00c8 7B68     		ldr	r3, [r7, #4]
 1140 00ca 1344     		add	r3, r3, r2
 1141 00cc 1A46     		mov	r2, r3
 1142 00ce 3B68     		ldr	r3, [r7]
 1143 00d0 DB68     		ldr	r3, [r3, #12]
 1144 00d2 1360     		str	r3, [r2]
 165:Generated_Source\PSoC6\pdl\drivers\peripheral\gpio/cy_gpio.c ****         GPIO_PRT_CFG_IN(base)          = config->cfgIn;
 1145              		.loc 2 165 0
 1146 00d4 214B     		ldr	r3, .L66+8
 1147 00d6 1B68     		ldr	r3, [r3]
 1148 00d8 93F87E30 		ldrb	r3, [r3, #126]	@ zero_extendqisi2
 1149 00dc 1A46     		mov	r2, r3
 1150 00de 7B68     		ldr	r3, [r7, #4]
 1151 00e0 1344     		add	r3, r3, r2
 1152 00e2 1A46     		mov	r2, r3
 1153 00e4 3B68     		ldr	r3, [r7]
 1154 00e6 1B69     		ldr	r3, [r3, #16]
 1155 00e8 1360     		str	r3, [r2]
 166:Generated_Source\PSoC6\pdl\drivers\peripheral\gpio/cy_gpio.c ****         GPIO_PRT_CFG_OUT(base)         = config->cfgOut;
 1156              		.loc 2 166 0
 1157 00ea 1C4B     		ldr	r3, .L66+8
 1158 00ec 1B68     		ldr	r3, [r3]
 1159 00ee 93F87F30 		ldrb	r3, [r3, #127]	@ zero_extendqisi2
 1160 00f2 1A46     		mov	r2, r3
 1161 00f4 7B68     		ldr	r3, [r7, #4]
 1162 00f6 1344     		add	r3, r3, r2
 1163 00f8 1A46     		mov	r2, r3
 1164 00fa 3B68     		ldr	r3, [r7]
 1165 00fc 5B69     		ldr	r3, [r3, #20]
 1166 00fe 1360     		str	r3, [r2]
 167:Generated_Source\PSoC6\pdl\drivers\peripheral\gpio/cy_gpio.c ****         GPIO_PRT_INTR_CFG(base)        = config->intrCfg;
 1167              		.loc 2 167 0
 1168 0100 164B     		ldr	r3, .L66+8
 1169 0102 1B68     		ldr	r3, [r3]
 1170 0104 93F87C30 		ldrb	r3, [r3, #124]	@ zero_extendqisi2
 1171 0108 1A46     		mov	r2, r3
 1172 010a 7B68     		ldr	r3, [r7, #4]
 1173 010c 1344     		add	r3, r3, r2
ARM GAS  C:\Users\stijn\AppData\Local\Temp\ccD3lQ9e.s 			page 56


 1174 010e 1A46     		mov	r2, r3
 1175 0110 3B68     		ldr	r3, [r7]
 1176 0112 9B68     		ldr	r3, [r3, #8]
 1177 0114 1360     		str	r3, [r2]
 168:Generated_Source\PSoC6\pdl\drivers\peripheral\gpio/cy_gpio.c ****         GPIO_PRT_INTR_MASK(base)       = config->intrMask;
 1178              		.loc 2 168 0
 1179 0116 3B68     		ldr	r3, [r7]
 1180 0118 5A68     		ldr	r2, [r3, #4]
 1181 011a 7B68     		ldr	r3, [r7, #4]
 1182 011c 9A61     		str	r2, [r3, #24]
 169:Generated_Source\PSoC6\pdl\drivers\peripheral\gpio/cy_gpio.c ****         GPIO_PRT_CFG_SIO(base)         = config->cfgSIO;
 1183              		.loc 2 169 0
 1184 011e 0F4B     		ldr	r3, .L66+8
 1185 0120 1B68     		ldr	r3, [r3]
 1186 0122 93F88030 		ldrb	r3, [r3, #128]	@ zero_extendqisi2
 1187 0126 1A46     		mov	r2, r3
 1188 0128 7B68     		ldr	r3, [r7, #4]
 1189 012a 1344     		add	r3, r3, r2
 1190 012c 1A46     		mov	r2, r3
 1191 012e 3B68     		ldr	r3, [r7]
 1192 0130 9B69     		ldr	r3, [r3, #24]
 1193 0132 1360     		str	r3, [r2]
 170:Generated_Source\PSoC6\pdl\drivers\peripheral\gpio/cy_gpio.c ****         HSIOM_PRT_PORT_SEL0(baseHSIOM) = config->sel0Active;
 1194              		.loc 2 170 0
 1195 0134 3B68     		ldr	r3, [r7]
 1196 0136 DA69     		ldr	r2, [r3, #28]
 1197 0138 FB68     		ldr	r3, [r7, #12]
 1198 013a 1A60     		str	r2, [r3]
 171:Generated_Source\PSoC6\pdl\drivers\peripheral\gpio/cy_gpio.c ****         HSIOM_PRT_PORT_SEL1(baseHSIOM) = config->sel1Active;
 1199              		.loc 2 171 0
 1200 013c 3B68     		ldr	r3, [r7]
 1201 013e 1A6A     		ldr	r2, [r3, #32]
 1202 0140 FB68     		ldr	r3, [r7, #12]
 1203 0142 5A60     		str	r2, [r3, #4]
 172:Generated_Source\PSoC6\pdl\drivers\peripheral\gpio/cy_gpio.c ****         
 173:Generated_Source\PSoC6\pdl\drivers\peripheral\gpio/cy_gpio.c ****         status = CY_GPIO_SUCCESS;
 1204              		.loc 2 173 0
 1205 0144 0023     		movs	r3, #0
 1206 0146 7B61     		str	r3, [r7, #20]
 1207              	.L58:
 1208              	.LBE3:
 174:Generated_Source\PSoC6\pdl\drivers\peripheral\gpio/cy_gpio.c ****     }
 175:Generated_Source\PSoC6\pdl\drivers\peripheral\gpio/cy_gpio.c ****     
 176:Generated_Source\PSoC6\pdl\drivers\peripheral\gpio/cy_gpio.c ****     return (status);
 1209              		.loc 2 176 0
 1210 0148 7B69     		ldr	r3, [r7, #20]
 177:Generated_Source\PSoC6\pdl\drivers\peripheral\gpio/cy_gpio.c **** }
 1211              		.loc 2 177 0
 1212 014a 1846     		mov	r0, r3
 1213 014c 1837     		adds	r7, r7, #24
 1214              		.cfi_def_cfa_offset 8
 1215 014e BD46     		mov	sp, r7
 1216              		.cfi_def_cfa_register 13
 1217              		@ sp needed
 1218 0150 80BD     		pop	{r7, pc}
 1219              	.L67:
 1220 0152 00BF     		.align	2
ARM GAS  C:\Users\stijn\AppData\Local\Temp\ccD3lQ9e.s 			page 57


 1221              	.L66:
 1222 0154 01005A00 		.word	5898241
 1223 0158 40000000 		.word	.LC1
 1224 015c 00000000 		.word	cy_device
 1225              		.cfi_endproc
 1226              	.LFE174:
 1227              		.size	Cy_GPIO_Port_Init, .-Cy_GPIO_Port_Init
 1228              		.section	.text.Cy_GPIO_Pin_FastInit,"ax",%progbits
 1229              		.align	2
 1230              		.global	Cy_GPIO_Pin_FastInit
 1231              		.thumb
 1232              		.thumb_func
 1233              		.type	Cy_GPIO_Pin_FastInit, %function
 1234              	Cy_GPIO_Pin_FastInit:
 1235              	.LFB175:
 178:Generated_Source\PSoC6\pdl\drivers\peripheral\gpio/cy_gpio.c **** 
 179:Generated_Source\PSoC6\pdl\drivers\peripheral\gpio/cy_gpio.c **** 
 180:Generated_Source\PSoC6\pdl\drivers\peripheral\gpio/cy_gpio.c **** /*******************************************************************************
 181:Generated_Source\PSoC6\pdl\drivers\peripheral\gpio/cy_gpio.c **** * Function Name: Cy_GPIO_Pin_FastInit
 182:Generated_Source\PSoC6\pdl\drivers\peripheral\gpio/cy_gpio.c **** ****************************************************************************//**
 183:Generated_Source\PSoC6\pdl\drivers\peripheral\gpio/cy_gpio.c **** *
 184:Generated_Source\PSoC6\pdl\drivers\peripheral\gpio/cy_gpio.c **** * Initialize the most common configuration settings for all pin types.
 185:Generated_Source\PSoC6\pdl\drivers\peripheral\gpio/cy_gpio.c **** *
 186:Generated_Source\PSoC6\pdl\drivers\peripheral\gpio/cy_gpio.c **** * These include, drive mode, initial output value, and HSIOM connection.
 187:Generated_Source\PSoC6\pdl\drivers\peripheral\gpio/cy_gpio.c **** *
 188:Generated_Source\PSoC6\pdl\drivers\peripheral\gpio/cy_gpio.c **** * \param base
 189:Generated_Source\PSoC6\pdl\drivers\peripheral\gpio/cy_gpio.c **** * Pointer to the pin's port register base address
 190:Generated_Source\PSoC6\pdl\drivers\peripheral\gpio/cy_gpio.c **** *
 191:Generated_Source\PSoC6\pdl\drivers\peripheral\gpio/cy_gpio.c **** * \param pinNum
 192:Generated_Source\PSoC6\pdl\drivers\peripheral\gpio/cy_gpio.c **** * Position of the pin bit-field within the port register
 193:Generated_Source\PSoC6\pdl\drivers\peripheral\gpio/cy_gpio.c **** *
 194:Generated_Source\PSoC6\pdl\drivers\peripheral\gpio/cy_gpio.c **** * \param driveMode
 195:Generated_Source\PSoC6\pdl\drivers\peripheral\gpio/cy_gpio.c **** * Pin drive mode. Options are detailed in \ref group_gpio_driveModes macros
 196:Generated_Source\PSoC6\pdl\drivers\peripheral\gpio/cy_gpio.c **** *
 197:Generated_Source\PSoC6\pdl\drivers\peripheral\gpio/cy_gpio.c **** * \param outVal
 198:Generated_Source\PSoC6\pdl\drivers\peripheral\gpio/cy_gpio.c **** * Logic state of the output buffer driven to the pin (1 or 0)
 199:Generated_Source\PSoC6\pdl\drivers\peripheral\gpio/cy_gpio.c **** *
 200:Generated_Source\PSoC6\pdl\drivers\peripheral\gpio/cy_gpio.c **** * \param hsiom
 201:Generated_Source\PSoC6\pdl\drivers\peripheral\gpio/cy_gpio.c **** * HSIOM input selection
 202:Generated_Source\PSoC6\pdl\drivers\peripheral\gpio/cy_gpio.c **** *
 203:Generated_Source\PSoC6\pdl\drivers\peripheral\gpio/cy_gpio.c **** * \note 
 204:Generated_Source\PSoC6\pdl\drivers\peripheral\gpio/cy_gpio.c **** * This function modifies port registers in read-modify-write operations. It is
 205:Generated_Source\PSoC6\pdl\drivers\peripheral\gpio/cy_gpio.c **** * not thread safe as the resource is shared among multiple pins on a port.
 206:Generated_Source\PSoC6\pdl\drivers\peripheral\gpio/cy_gpio.c **** * You can use the Cy_SysLib_EnterCriticalSection() and 
 207:Generated_Source\PSoC6\pdl\drivers\peripheral\gpio/cy_gpio.c **** * Cy_SysLib_ExitCriticalSection() functions to ensure that 
 208:Generated_Source\PSoC6\pdl\drivers\peripheral\gpio/cy_gpio.c **** * Cy_GPIO_Pin_FastInit() function execution is not interrupted.
 209:Generated_Source\PSoC6\pdl\drivers\peripheral\gpio/cy_gpio.c **** *
 210:Generated_Source\PSoC6\pdl\drivers\peripheral\gpio/cy_gpio.c **** * \funcusage
 211:Generated_Source\PSoC6\pdl\drivers\peripheral\gpio/cy_gpio.c **** * \snippet gpio/gpio_v1_10_sut_01.cydsn/main_cm4.c snippet_Cy_GPIO_Pin_FastInit
 212:Generated_Source\PSoC6\pdl\drivers\peripheral\gpio/cy_gpio.c **** *
 213:Generated_Source\PSoC6\pdl\drivers\peripheral\gpio/cy_gpio.c **** *******************************************************************************/
 214:Generated_Source\PSoC6\pdl\drivers\peripheral\gpio/cy_gpio.c **** void Cy_GPIO_Pin_FastInit(GPIO_PRT_Type* base, uint32_t pinNum, uint32_t driveMode,
 215:Generated_Source\PSoC6\pdl\drivers\peripheral\gpio/cy_gpio.c ****                                         uint32_t outVal, en_hsiom_sel_t hsiom)
 216:Generated_Source\PSoC6\pdl\drivers\peripheral\gpio/cy_gpio.c **** {
 1236              		.loc 2 216 0
 1237              		.cfi_startproc
 1238              		@ args = 4, pretend = 0, frame = 24
ARM GAS  C:\Users\stijn\AppData\Local\Temp\ccD3lQ9e.s 			page 58


 1239              		@ frame_needed = 1, uses_anonymous_args = 0
 1240 0000 80B5     		push	{r7, lr}
 1241              		.cfi_def_cfa_offset 8
 1242              		.cfi_offset 7, -8
 1243              		.cfi_offset 14, -4
 1244 0002 86B0     		sub	sp, sp, #24
 1245              		.cfi_def_cfa_offset 32
 1246 0004 00AF     		add	r7, sp, #0
 1247              		.cfi_def_cfa_register 7
 1248 0006 F860     		str	r0, [r7, #12]
 1249 0008 B960     		str	r1, [r7, #8]
 1250 000a 7A60     		str	r2, [r7, #4]
 1251 000c 3B60     		str	r3, [r7]
 217:Generated_Source\PSoC6\pdl\drivers\peripheral\gpio/cy_gpio.c ****     CY_ASSERT_L2(CY_GPIO_IS_PIN_VALID(pinNum));
 1252              		.loc 2 217 0
 1253 000e BB68     		ldr	r3, [r7, #8]
 1254 0010 072B     		cmp	r3, #7
 1255 0012 03D9     		bls	.L69
 1256              		.loc 2 217 0 is_stmt 0 discriminator 1
 1257 0014 D921     		movs	r1, #217
 1258 0016 2D48     		ldr	r0, .L73
 1259 0018 FFF7FEFF 		bl	Cy_SysLib_AssertFailed
 1260              	.L69:
 218:Generated_Source\PSoC6\pdl\drivers\peripheral\gpio/cy_gpio.c ****     CY_ASSERT_L2(CY_GPIO_IS_DM_VALID(driveMode));
 1261              		.loc 2 218 0 is_stmt 1
 1262 001c 7B68     		ldr	r3, [r7, #4]
 1263 001e 23F00F03 		bic	r3, r3, #15
 1264 0022 002B     		cmp	r3, #0
 1265 0024 03D0     		beq	.L70
 1266              		.loc 2 218 0 is_stmt 0 discriminator 1
 1267 0026 DA21     		movs	r1, #218
 1268 0028 2848     		ldr	r0, .L73
 1269 002a FFF7FEFF 		bl	Cy_SysLib_AssertFailed
 1270              	.L70:
 219:Generated_Source\PSoC6\pdl\drivers\peripheral\gpio/cy_gpio.c ****     CY_ASSERT_L2(CY_GPIO_IS_VALUE_VALID(outVal));
 1271              		.loc 2 219 0 is_stmt 1
 1272 002e 3B68     		ldr	r3, [r7]
 1273 0030 012B     		cmp	r3, #1
 1274 0032 03D9     		bls	.L71
 1275              		.loc 2 219 0 is_stmt 0 discriminator 1
 1276 0034 DB21     		movs	r1, #219
 1277 0036 2548     		ldr	r0, .L73
 1278 0038 FFF7FEFF 		bl	Cy_SysLib_AssertFailed
 1279              	.L71:
 220:Generated_Source\PSoC6\pdl\drivers\peripheral\gpio/cy_gpio.c ****     CY_ASSERT_L2(CY_GPIO_IS_HSIOM_VALID(hsiom));
 1280              		.loc 2 220 0 is_stmt 1
 1281 003c 97F82030 		ldrb	r3, [r7, #32]	@ zero_extendqisi2
 1282 0040 23F01F03 		bic	r3, r3, #31
 1283 0044 002B     		cmp	r3, #0
 1284 0046 03D0     		beq	.L72
 1285              		.loc 2 220 0 is_stmt 0 discriminator 1
 1286 0048 DC21     		movs	r1, #220
 1287 004a 2048     		ldr	r0, .L73
 1288 004c FFF7FEFF 		bl	Cy_SysLib_AssertFailed
 1289              	.L72:
 221:Generated_Source\PSoC6\pdl\drivers\peripheral\gpio/cy_gpio.c **** 
 222:Generated_Source\PSoC6\pdl\drivers\peripheral\gpio/cy_gpio.c ****     uint32_t tempReg;
ARM GAS  C:\Users\stijn\AppData\Local\Temp\ccD3lQ9e.s 			page 59


 223:Generated_Source\PSoC6\pdl\drivers\peripheral\gpio/cy_gpio.c **** 
 224:Generated_Source\PSoC6\pdl\drivers\peripheral\gpio/cy_gpio.c ****     tempReg = (GPIO_PRT_OUT(base) & ~(CY_GPIO_OUT_MASK << pinNum));
 1290              		.loc 2 224 0 is_stmt 1
 1291 0050 FB68     		ldr	r3, [r7, #12]
 1292 0052 1A68     		ldr	r2, [r3]
 1293 0054 0121     		movs	r1, #1
 1294 0056 BB68     		ldr	r3, [r7, #8]
 1295 0058 01FA03F3 		lsl	r3, r1, r3
 1296 005c DB43     		mvns	r3, r3
 1297 005e 1340     		ands	r3, r3, r2
 1298 0060 7B61     		str	r3, [r7, #20]
 225:Generated_Source\PSoC6\pdl\drivers\peripheral\gpio/cy_gpio.c ****     GPIO_PRT_OUT(base) = tempReg | ((outVal & CY_GPIO_OUT_MASK) << pinNum);
 1299              		.loc 2 225 0
 1300 0062 3B68     		ldr	r3, [r7]
 1301 0064 03F00102 		and	r2, r3, #1
 1302 0068 BB68     		ldr	r3, [r7, #8]
 1303 006a 9A40     		lsls	r2, r2, r3
 1304 006c 7B69     		ldr	r3, [r7, #20]
 1305 006e 1A43     		orrs	r2, r2, r3
 1306 0070 FB68     		ldr	r3, [r7, #12]
 1307 0072 1A60     		str	r2, [r3]
 226:Generated_Source\PSoC6\pdl\drivers\peripheral\gpio/cy_gpio.c **** 
 227:Generated_Source\PSoC6\pdl\drivers\peripheral\gpio/cy_gpio.c ****     tempReg = (GPIO_PRT_CFG(base) & ~(CY_GPIO_CFG_DM_MASK << (pinNum << CY_GPIO_DRIVE_MODE_OFFSET))
 1308              		.loc 2 227 0
 1309 0074 164B     		ldr	r3, .L73+4
 1310 0076 1B68     		ldr	r3, [r3]
 1311 0078 93F87D30 		ldrb	r3, [r3, #125]	@ zero_extendqisi2
 1312 007c 1A46     		mov	r2, r3
 1313 007e FB68     		ldr	r3, [r7, #12]
 1314 0080 1344     		add	r3, r3, r2
 1315 0082 1A68     		ldr	r2, [r3]
 1316 0084 BB68     		ldr	r3, [r7, #8]
 1317 0086 9B00     		lsls	r3, r3, #2
 1318 0088 0F21     		movs	r1, #15
 1319 008a 01FA03F3 		lsl	r3, r1, r3
 1320 008e DB43     		mvns	r3, r3
 1321 0090 1340     		ands	r3, r3, r2
 1322 0092 7B61     		str	r3, [r7, #20]
 228:Generated_Source\PSoC6\pdl\drivers\peripheral\gpio/cy_gpio.c ****     GPIO_PRT_CFG(base) = tempReg | ((driveMode & CY_GPIO_CFG_DM_MASK) << (pinNum << CY_GPIO_DRIVE_M
 1323              		.loc 2 228 0
 1324 0094 0E4B     		ldr	r3, .L73+4
 1325 0096 1B68     		ldr	r3, [r3]
 1326 0098 93F87D30 		ldrb	r3, [r3, #125]	@ zero_extendqisi2
 1327 009c 1A46     		mov	r2, r3
 1328 009e FB68     		ldr	r3, [r7, #12]
 1329 00a0 1344     		add	r3, r3, r2
 1330 00a2 1946     		mov	r1, r3
 1331 00a4 7B68     		ldr	r3, [r7, #4]
 1332 00a6 03F00F02 		and	r2, r3, #15
 1333 00aa BB68     		ldr	r3, [r7, #8]
 1334 00ac 9B00     		lsls	r3, r3, #2
 1335 00ae 9A40     		lsls	r2, r2, r3
 1336 00b0 7B69     		ldr	r3, [r7, #20]
 1337 00b2 1343     		orrs	r3, r3, r2
 1338 00b4 0B60     		str	r3, [r1]
 229:Generated_Source\PSoC6\pdl\drivers\peripheral\gpio/cy_gpio.c **** 
 230:Generated_Source\PSoC6\pdl\drivers\peripheral\gpio/cy_gpio.c ****     Cy_GPIO_SetHSIOM(base, pinNum, hsiom);
ARM GAS  C:\Users\stijn\AppData\Local\Temp\ccD3lQ9e.s 			page 60


 1339              		.loc 2 230 0
 1340 00b6 97F82030 		ldrb	r3, [r7, #32]	@ zero_extendqisi2
 1341 00ba 1A46     		mov	r2, r3
 1342 00bc B968     		ldr	r1, [r7, #8]
 1343 00be F868     		ldr	r0, [r7, #12]
 1344 00c0 FFF7FEFF 		bl	Cy_GPIO_SetHSIOM
 231:Generated_Source\PSoC6\pdl\drivers\peripheral\gpio/cy_gpio.c **** }
 1345              		.loc 2 231 0
 1346 00c4 00BF     		nop
 1347 00c6 1837     		adds	r7, r7, #24
 1348              		.cfi_def_cfa_offset 8
 1349 00c8 BD46     		mov	sp, r7
 1350              		.cfi_def_cfa_register 13
 1351              		@ sp needed
 1352 00ca 80BD     		pop	{r7, pc}
 1353              	.L74:
 1354              		.align	2
 1355              	.L73:
 1356 00cc 40000000 		.word	.LC1
 1357 00d0 00000000 		.word	cy_device
 1358              		.cfi_endproc
 1359              	.LFE175:
 1360              		.size	Cy_GPIO_Pin_FastInit, .-Cy_GPIO_Pin_FastInit
 1361              		.section	.text.Cy_GPIO_Port_Deinit,"ax",%progbits
 1362              		.align	2
 1363              		.global	Cy_GPIO_Port_Deinit
 1364              		.thumb
 1365              		.thumb_func
 1366              		.type	Cy_GPIO_Port_Deinit, %function
 1367              	Cy_GPIO_Port_Deinit:
 1368              	.LFB176:
 232:Generated_Source\PSoC6\pdl\drivers\peripheral\gpio/cy_gpio.c **** 
 233:Generated_Source\PSoC6\pdl\drivers\peripheral\gpio/cy_gpio.c **** 
 234:Generated_Source\PSoC6\pdl\drivers\peripheral\gpio/cy_gpio.c **** /*******************************************************************************
 235:Generated_Source\PSoC6\pdl\drivers\peripheral\gpio/cy_gpio.c **** * Function Name: Cy_GPIO_Port_Deinit
 236:Generated_Source\PSoC6\pdl\drivers\peripheral\gpio/cy_gpio.c **** ****************************************************************************//**
 237:Generated_Source\PSoC6\pdl\drivers\peripheral\gpio/cy_gpio.c **** *
 238:Generated_Source\PSoC6\pdl\drivers\peripheral\gpio/cy_gpio.c **** * Reset a complete port of pins back to power on reset defaults.
 239:Generated_Source\PSoC6\pdl\drivers\peripheral\gpio/cy_gpio.c **** *
 240:Generated_Source\PSoC6\pdl\drivers\peripheral\gpio/cy_gpio.c **** * \param base
 241:Generated_Source\PSoC6\pdl\drivers\peripheral\gpio/cy_gpio.c **** * Pointer to the pin's port register base address
 242:Generated_Source\PSoC6\pdl\drivers\peripheral\gpio/cy_gpio.c **** *
 243:Generated_Source\PSoC6\pdl\drivers\peripheral\gpio/cy_gpio.c **** * \funcusage
 244:Generated_Source\PSoC6\pdl\drivers\peripheral\gpio/cy_gpio.c **** * \snippet gpio/gpio_v1_10_sut_01.cydsn/main_cm4.c snippet_Cy_GPIO_Port_Deinit
 245:Generated_Source\PSoC6\pdl\drivers\peripheral\gpio/cy_gpio.c **** *
 246:Generated_Source\PSoC6\pdl\drivers\peripheral\gpio/cy_gpio.c **** *******************************************************************************/
 247:Generated_Source\PSoC6\pdl\drivers\peripheral\gpio/cy_gpio.c **** void Cy_GPIO_Port_Deinit(GPIO_PRT_Type* base)
 248:Generated_Source\PSoC6\pdl\drivers\peripheral\gpio/cy_gpio.c **** {
 1369              		.loc 2 248 0
 1370              		.cfi_startproc
 1371              		@ args = 0, pretend = 0, frame = 16
 1372              		@ frame_needed = 1, uses_anonymous_args = 0
 1373              		@ link register save eliminated.
 1374 0000 80B4     		push	{r7}
 1375              		.cfi_def_cfa_offset 4
 1376              		.cfi_offset 7, -4
 1377 0002 85B0     		sub	sp, sp, #20
ARM GAS  C:\Users\stijn\AppData\Local\Temp\ccD3lQ9e.s 			page 61


 1378              		.cfi_def_cfa_offset 24
 1379 0004 00AF     		add	r7, sp, #0
 1380              		.cfi_def_cfa_register 7
 1381 0006 7860     		str	r0, [r7, #4]
 249:Generated_Source\PSoC6\pdl\drivers\peripheral\gpio/cy_gpio.c ****     uint32_t portNum;
 250:Generated_Source\PSoC6\pdl\drivers\peripheral\gpio/cy_gpio.c ****     HSIOM_PRT_V1_Type* baseHSIOM;
 251:Generated_Source\PSoC6\pdl\drivers\peripheral\gpio/cy_gpio.c **** 
 252:Generated_Source\PSoC6\pdl\drivers\peripheral\gpio/cy_gpio.c ****     portNum = ((uint32_t)(base) - CY_GPIO_BASE) / GPIO_PRT_SECTION_SIZE;
 1382              		.loc 2 252 0
 1383 0008 7A68     		ldr	r2, [r7, #4]
 1384 000a 284B     		ldr	r3, .L76
 1385 000c 1B68     		ldr	r3, [r3]
 1386 000e 9B69     		ldr	r3, [r3, #24]
 1387 0010 D31A     		subs	r3, r2, r3
 1388 0012 DB09     		lsrs	r3, r3, #7
 1389 0014 FB60     		str	r3, [r7, #12]
 253:Generated_Source\PSoC6\pdl\drivers\peripheral\gpio/cy_gpio.c ****     baseHSIOM = (HSIOM_PRT_V1_Type*)(CY_HSIOM_BASE + (HSIOM_PRT_SECTION_SIZE * portNum));
 1390              		.loc 2 253 0
 1391 0016 254B     		ldr	r3, .L76
 1392 0018 1B68     		ldr	r3, [r3]
 1393 001a 5A69     		ldr	r2, [r3, #20]
 1394 001c FB68     		ldr	r3, [r7, #12]
 1395 001e 1B01     		lsls	r3, r3, #4
 1396 0020 1344     		add	r3, r3, r2
 1397 0022 BB60     		str	r3, [r7, #8]
 254:Generated_Source\PSoC6\pdl\drivers\peripheral\gpio/cy_gpio.c **** 
 255:Generated_Source\PSoC6\pdl\drivers\peripheral\gpio/cy_gpio.c ****     GPIO_PRT_OUT(base)             = CY_GPIO_PRT_DEINIT;
 1398              		.loc 2 255 0
 1399 0024 7B68     		ldr	r3, [r7, #4]
 1400 0026 0022     		movs	r2, #0
 1401 0028 1A60     		str	r2, [r3]
 256:Generated_Source\PSoC6\pdl\drivers\peripheral\gpio/cy_gpio.c ****     GPIO_PRT_CFG(base)             = CY_GPIO_PRT_DEINIT;
 1402              		.loc 2 256 0
 1403 002a 204B     		ldr	r3, .L76
 1404 002c 1B68     		ldr	r3, [r3]
 1405 002e 93F87D30 		ldrb	r3, [r3, #125]	@ zero_extendqisi2
 1406 0032 1A46     		mov	r2, r3
 1407 0034 7B68     		ldr	r3, [r7, #4]
 1408 0036 1344     		add	r3, r3, r2
 1409 0038 1A46     		mov	r2, r3
 1410 003a 0023     		movs	r3, #0
 1411 003c 1360     		str	r3, [r2]
 257:Generated_Source\PSoC6\pdl\drivers\peripheral\gpio/cy_gpio.c ****     GPIO_PRT_CFG_IN(base)          = CY_GPIO_PRT_DEINIT;
 1412              		.loc 2 257 0
 1413 003e 1B4B     		ldr	r3, .L76
 1414 0040 1B68     		ldr	r3, [r3]
 1415 0042 93F87E30 		ldrb	r3, [r3, #126]	@ zero_extendqisi2
 1416 0046 1A46     		mov	r2, r3
 1417 0048 7B68     		ldr	r3, [r7, #4]
 1418 004a 1344     		add	r3, r3, r2
 1419 004c 1A46     		mov	r2, r3
 1420 004e 0023     		movs	r3, #0
 1421 0050 1360     		str	r3, [r2]
 258:Generated_Source\PSoC6\pdl\drivers\peripheral\gpio/cy_gpio.c ****     GPIO_PRT_CFG_OUT(base)         = CY_GPIO_PRT_DEINIT;
 1422              		.loc 2 258 0
 1423 0052 164B     		ldr	r3, .L76
 1424 0054 1B68     		ldr	r3, [r3]
ARM GAS  C:\Users\stijn\AppData\Local\Temp\ccD3lQ9e.s 			page 62


 1425 0056 93F87F30 		ldrb	r3, [r3, #127]	@ zero_extendqisi2
 1426 005a 1A46     		mov	r2, r3
 1427 005c 7B68     		ldr	r3, [r7, #4]
 1428 005e 1344     		add	r3, r3, r2
 1429 0060 1A46     		mov	r2, r3
 1430 0062 0023     		movs	r3, #0
 1431 0064 1360     		str	r3, [r2]
 259:Generated_Source\PSoC6\pdl\drivers\peripheral\gpio/cy_gpio.c ****     GPIO_PRT_INTR_CFG(base)        = CY_GPIO_PRT_DEINIT;
 1432              		.loc 2 259 0
 1433 0066 114B     		ldr	r3, .L76
 1434 0068 1B68     		ldr	r3, [r3]
 1435 006a 93F87C30 		ldrb	r3, [r3, #124]	@ zero_extendqisi2
 1436 006e 1A46     		mov	r2, r3
 1437 0070 7B68     		ldr	r3, [r7, #4]
 1438 0072 1344     		add	r3, r3, r2
 1439 0074 1A46     		mov	r2, r3
 1440 0076 0023     		movs	r3, #0
 1441 0078 1360     		str	r3, [r2]
 260:Generated_Source\PSoC6\pdl\drivers\peripheral\gpio/cy_gpio.c ****     GPIO_PRT_INTR_MASK(base)       = CY_GPIO_PRT_DEINIT;
 1442              		.loc 2 260 0
 1443 007a 7B68     		ldr	r3, [r7, #4]
 1444 007c 0022     		movs	r2, #0
 1445 007e 9A61     		str	r2, [r3, #24]
 261:Generated_Source\PSoC6\pdl\drivers\peripheral\gpio/cy_gpio.c ****     GPIO_PRT_CFG_SIO(base)         = CY_GPIO_PRT_DEINIT;
 1446              		.loc 2 261 0
 1447 0080 0A4B     		ldr	r3, .L76
 1448 0082 1B68     		ldr	r3, [r3]
 1449 0084 93F88030 		ldrb	r3, [r3, #128]	@ zero_extendqisi2
 1450 0088 1A46     		mov	r2, r3
 1451 008a 7B68     		ldr	r3, [r7, #4]
 1452 008c 1344     		add	r3, r3, r2
 1453 008e 1A46     		mov	r2, r3
 1454 0090 0023     		movs	r3, #0
 1455 0092 1360     		str	r3, [r2]
 262:Generated_Source\PSoC6\pdl\drivers\peripheral\gpio/cy_gpio.c ****     HSIOM_PRT_PORT_SEL0(baseHSIOM) = CY_GPIO_PRT_DEINIT;
 1456              		.loc 2 262 0
 1457 0094 BB68     		ldr	r3, [r7, #8]
 1458 0096 0022     		movs	r2, #0
 1459 0098 1A60     		str	r2, [r3]
 263:Generated_Source\PSoC6\pdl\drivers\peripheral\gpio/cy_gpio.c ****     HSIOM_PRT_PORT_SEL1(baseHSIOM) = CY_GPIO_PRT_DEINIT;
 1460              		.loc 2 263 0
 1461 009a BB68     		ldr	r3, [r7, #8]
 1462 009c 0022     		movs	r2, #0
 1463 009e 5A60     		str	r2, [r3, #4]
 264:Generated_Source\PSoC6\pdl\drivers\peripheral\gpio/cy_gpio.c **** }
 1464              		.loc 2 264 0
 1465 00a0 00BF     		nop
 1466 00a2 1437     		adds	r7, r7, #20
 1467              		.cfi_def_cfa_offset 4
 1468 00a4 BD46     		mov	sp, r7
 1469              		.cfi_def_cfa_register 13
 1470              		@ sp needed
 1471 00a6 5DF8047B 		ldr	r7, [sp], #4
 1472              		.cfi_restore 7
 1473              		.cfi_def_cfa_offset 0
 1474 00aa 7047     		bx	lr
 1475              	.L77:
ARM GAS  C:\Users\stijn\AppData\Local\Temp\ccD3lQ9e.s 			page 63


 1476              		.align	2
 1477              	.L76:
 1478 00ac 00000000 		.word	cy_device
 1479              		.cfi_endproc
 1480              	.LFE176:
 1481              		.size	Cy_GPIO_Port_Deinit, .-Cy_GPIO_Port_Deinit
 1482              		.section	.text.Cy_GPIO_SetAmuxSplit,"ax",%progbits
 1483              		.align	2
 1484              		.global	Cy_GPIO_SetAmuxSplit
 1485              		.thumb
 1486              		.thumb_func
 1487              		.type	Cy_GPIO_SetAmuxSplit, %function
 1488              	Cy_GPIO_SetAmuxSplit:
 1489              	.LFB177:
 265:Generated_Source\PSoC6\pdl\drivers\peripheral\gpio/cy_gpio.c **** 
 266:Generated_Source\PSoC6\pdl\drivers\peripheral\gpio/cy_gpio.c **** 
 267:Generated_Source\PSoC6\pdl\drivers\peripheral\gpio/cy_gpio.c **** /*******************************************************************************
 268:Generated_Source\PSoC6\pdl\drivers\peripheral\gpio/cy_gpio.c **** * Function Name: Cy_GPIO_SetAmuxSplit
 269:Generated_Source\PSoC6\pdl\drivers\peripheral\gpio/cy_gpio.c **** ****************************************************************************//**
 270:Generated_Source\PSoC6\pdl\drivers\peripheral\gpio/cy_gpio.c **** *
 271:Generated_Source\PSoC6\pdl\drivers\peripheral\gpio/cy_gpio.c **** * Configure a specific AMux bus splitter switch cell into a specific 
 272:Generated_Source\PSoC6\pdl\drivers\peripheral\gpio/cy_gpio.c **** * configuration.
 273:Generated_Source\PSoC6\pdl\drivers\peripheral\gpio/cy_gpio.c **** *
 274:Generated_Source\PSoC6\pdl\drivers\peripheral\gpio/cy_gpio.c **** * \param switchCtrl
 275:Generated_Source\PSoC6\pdl\drivers\peripheral\gpio/cy_gpio.c **** * Selects specific AMux bus splitter cell between two segments.
 276:Generated_Source\PSoC6\pdl\drivers\peripheral\gpio/cy_gpio.c **** * The cy_en_amux_split_t enumeration can be found in the GPIO header file 
 277:Generated_Source\PSoC6\pdl\drivers\peripheral\gpio/cy_gpio.c **** * for the device package.
 278:Generated_Source\PSoC6\pdl\drivers\peripheral\gpio/cy_gpio.c **** *
 279:Generated_Source\PSoC6\pdl\drivers\peripheral\gpio/cy_gpio.c **** * \param amuxConnect
 280:Generated_Source\PSoC6\pdl\drivers\peripheral\gpio/cy_gpio.c **** * Selects configuration of the three switches within the splitter cell
 281:Generated_Source\PSoC6\pdl\drivers\peripheral\gpio/cy_gpio.c **** *
 282:Generated_Source\PSoC6\pdl\drivers\peripheral\gpio/cy_gpio.c **** * \param amuxBus
 283:Generated_Source\PSoC6\pdl\drivers\peripheral\gpio/cy_gpio.c **** * Selects which AMux bus within the splitter is being configured
 284:Generated_Source\PSoC6\pdl\drivers\peripheral\gpio/cy_gpio.c **** *
 285:Generated_Source\PSoC6\pdl\drivers\peripheral\gpio/cy_gpio.c **** *******************************************************************************/
 286:Generated_Source\PSoC6\pdl\drivers\peripheral\gpio/cy_gpio.c **** void Cy_GPIO_SetAmuxSplit(cy_en_amux_split_t switchCtrl, cy_en_gpio_amuxconnect_t amuxConnect, 
 287:Generated_Source\PSoC6\pdl\drivers\peripheral\gpio/cy_gpio.c ****                                                          cy_en_gpio_amuxselect_t amuxBus)
 288:Generated_Source\PSoC6\pdl\drivers\peripheral\gpio/cy_gpio.c **** {
 1490              		.loc 2 288 0
 1491              		.cfi_startproc
 1492              		@ args = 0, pretend = 0, frame = 16
 1493              		@ frame_needed = 1, uses_anonymous_args = 0
 1494 0000 80B5     		push	{r7, lr}
 1495              		.cfi_def_cfa_offset 8
 1496              		.cfi_offset 7, -8
 1497              		.cfi_offset 14, -4
 1498 0002 84B0     		sub	sp, sp, #16
 1499              		.cfi_def_cfa_offset 24
 1500 0004 00AF     		add	r7, sp, #0
 1501              		.cfi_def_cfa_register 7
 1502 0006 0346     		mov	r3, r0
 1503 0008 FB71     		strb	r3, [r7, #7]
 1504 000a 0B46     		mov	r3, r1
 1505 000c BB71     		strb	r3, [r7, #6]
 1506 000e 1346     		mov	r3, r2
 1507 0010 7B71     		strb	r3, [r7, #5]
 289:Generated_Source\PSoC6\pdl\drivers\peripheral\gpio/cy_gpio.c ****     CY_ASSERT_L2(CY_GPIO_IS_AMUX_SPLIT_VALID(switchCtrl));
ARM GAS  C:\Users\stijn\AppData\Local\Temp\ccD3lQ9e.s 			page 64


 1508              		.loc 2 289 0
 1509 0012 FB79     		ldrb	r3, [r7, #7]	@ zero_extendqisi2
 1510 0014 082B     		cmp	r3, #8
 1511 0016 04D9     		bls	.L79
 1512              		.loc 2 289 0 is_stmt 0 discriminator 1
 1513 0018 40F22111 		movw	r1, #289
 1514 001c 3348     		ldr	r0, .L85
 1515 001e FFF7FEFF 		bl	Cy_SysLib_AssertFailed
 1516              	.L79:
 290:Generated_Source\PSoC6\pdl\drivers\peripheral\gpio/cy_gpio.c ****     CY_ASSERT_L3(CY_GPIO_IS_AMUX_CONNECT_VALID(amuxConnect));
 1517              		.loc 2 290 0 is_stmt 1
 1518 0022 BB79     		ldrb	r3, [r7, #6]	@ zero_extendqisi2
 1519 0024 002B     		cmp	r3, #0
 1520 0026 19D0     		beq	.L80
 1521              		.loc 2 290 0 is_stmt 0 discriminator 1
 1522 0028 BB79     		ldrb	r3, [r7, #6]	@ zero_extendqisi2
 1523 002a 012B     		cmp	r3, #1
 1524 002c 16D0     		beq	.L80
 1525              		.loc 2 290 0 discriminator 2
 1526 002e BB79     		ldrb	r3, [r7, #6]	@ zero_extendqisi2
 1527 0030 022B     		cmp	r3, #2
 1528 0032 13D0     		beq	.L80
 1529              		.loc 2 290 0 discriminator 3
 1530 0034 BB79     		ldrb	r3, [r7, #6]	@ zero_extendqisi2
 1531 0036 032B     		cmp	r3, #3
 1532 0038 10D0     		beq	.L80
 1533              		.loc 2 290 0 discriminator 4
 1534 003a BB79     		ldrb	r3, [r7, #6]	@ zero_extendqisi2
 1535 003c 042B     		cmp	r3, #4
 1536 003e 0DD0     		beq	.L80
 1537              		.loc 2 290 0 discriminator 5
 1538 0040 BB79     		ldrb	r3, [r7, #6]	@ zero_extendqisi2
 1539 0042 052B     		cmp	r3, #5
 1540 0044 0AD0     		beq	.L80
 1541              		.loc 2 290 0 discriminator 6
 1542 0046 BB79     		ldrb	r3, [r7, #6]	@ zero_extendqisi2
 1543 0048 062B     		cmp	r3, #6
 1544 004a 07D0     		beq	.L80
 1545              		.loc 2 290 0 discriminator 7
 1546 004c BB79     		ldrb	r3, [r7, #6]	@ zero_extendqisi2
 1547 004e 072B     		cmp	r3, #7
 1548 0050 04D0     		beq	.L80
 1549              		.loc 2 290 0 discriminator 8
 1550 0052 4FF49171 		mov	r1, #290
 1551 0056 2548     		ldr	r0, .L85
 1552 0058 FFF7FEFF 		bl	Cy_SysLib_AssertFailed
 1553              	.L80:
 291:Generated_Source\PSoC6\pdl\drivers\peripheral\gpio/cy_gpio.c ****     CY_ASSERT_L3(CY_GPIO_IS_AMUX_SELECT_VALID(amuxBus));
 1554              		.loc 2 291 0 is_stmt 1
 1555 005c 7B79     		ldrb	r3, [r7, #5]	@ zero_extendqisi2
 1556 005e 002B     		cmp	r3, #0
 1557 0060 07D0     		beq	.L81
 1558              		.loc 2 291 0 is_stmt 0 discriminator 1
 1559 0062 7B79     		ldrb	r3, [r7, #5]	@ zero_extendqisi2
 1560 0064 012B     		cmp	r3, #1
 1561 0066 04D0     		beq	.L81
 1562              		.loc 2 291 0 discriminator 2
ARM GAS  C:\Users\stijn\AppData\Local\Temp\ccD3lQ9e.s 			page 65


 1563 0068 40F22311 		movw	r1, #291
 1564 006c 1F48     		ldr	r0, .L85
 1565 006e FFF7FEFF 		bl	Cy_SysLib_AssertFailed
 1566              	.L81:
 292:Generated_Source\PSoC6\pdl\drivers\peripheral\gpio/cy_gpio.c **** 
 293:Generated_Source\PSoC6\pdl\drivers\peripheral\gpio/cy_gpio.c ****     uint32_t tmpReg;
 294:Generated_Source\PSoC6\pdl\drivers\peripheral\gpio/cy_gpio.c **** 
 295:Generated_Source\PSoC6\pdl\drivers\peripheral\gpio/cy_gpio.c ****     if (amuxBus != CY_GPIO_AMUXBUSB)
 1567              		.loc 2 295 0 is_stmt 1
 1568 0072 7B79     		ldrb	r3, [r7, #5]	@ zero_extendqisi2
 1569 0074 012B     		cmp	r3, #1
 1570 0076 1AD0     		beq	.L82
 296:Generated_Source\PSoC6\pdl\drivers\peripheral\gpio/cy_gpio.c ****     {
 297:Generated_Source\PSoC6\pdl\drivers\peripheral\gpio/cy_gpio.c ****         tmpReg = HSIOM_AMUX_SPLIT_CTL(switchCtrl) & GPIO_AMUXB_SPLITTER_MASK;
 1571              		.loc 2 297 0
 1572 0078 1D4B     		ldr	r3, .L85+4
 1573 007a 1B68     		ldr	r3, [r3]
 1574 007c 5B69     		ldr	r3, [r3, #20]
 1575 007e 1A46     		mov	r2, r3
 1576 0080 FB79     		ldrb	r3, [r7, #7]	@ zero_extendqisi2
 1577 0082 03F50063 		add	r3, r3, #2048
 1578 0086 52F82330 		ldr	r3, [r2, r3, lsl #2]
 1579 008a 03F07003 		and	r3, r3, #112
 1580 008e FB60     		str	r3, [r7, #12]
 298:Generated_Source\PSoC6\pdl\drivers\peripheral\gpio/cy_gpio.c ****         HSIOM_AMUX_SPLIT_CTL(switchCtrl) = tmpReg | ((uint32_t) amuxConnect & GPIO_AMUXA_SPLITTER_M
 1581              		.loc 2 298 0
 1582 0090 174B     		ldr	r3, .L85+4
 1583 0092 1B68     		ldr	r3, [r3]
 1584 0094 5B69     		ldr	r3, [r3, #20]
 1585 0096 1846     		mov	r0, r3
 1586 0098 FB79     		ldrb	r3, [r7, #7]	@ zero_extendqisi2
 1587 009a BA79     		ldrb	r2, [r7, #6]	@ zero_extendqisi2
 1588 009c 02F00701 		and	r1, r2, #7
 1589 00a0 FA68     		ldr	r2, [r7, #12]
 1590 00a2 0A43     		orrs	r2, r2, r1
 1591 00a4 03F50063 		add	r3, r3, #2048
 1592 00a8 40F82320 		str	r2, [r0, r3, lsl #2]
 299:Generated_Source\PSoC6\pdl\drivers\peripheral\gpio/cy_gpio.c ****     }
 300:Generated_Source\PSoC6\pdl\drivers\peripheral\gpio/cy_gpio.c ****     else
 301:Generated_Source\PSoC6\pdl\drivers\peripheral\gpio/cy_gpio.c ****     {
 302:Generated_Source\PSoC6\pdl\drivers\peripheral\gpio/cy_gpio.c ****         tmpReg = HSIOM_AMUX_SPLIT_CTL(switchCtrl) & GPIO_AMUXA_SPLITTER_MASK;
 303:Generated_Source\PSoC6\pdl\drivers\peripheral\gpio/cy_gpio.c ****         HSIOM_AMUX_SPLIT_CTL(switchCtrl) = 
 304:Generated_Source\PSoC6\pdl\drivers\peripheral\gpio/cy_gpio.c ****         tmpReg | (((uint32_t) amuxConnect << HSIOM_AMUX_SPLIT_CTL_SWITCH_BB_SL_Pos) & GPIO_AMUXB_SP
 305:Generated_Source\PSoC6\pdl\drivers\peripheral\gpio/cy_gpio.c ****     }
 306:Generated_Source\PSoC6\pdl\drivers\peripheral\gpio/cy_gpio.c **** }
 1593              		.loc 2 306 0
 1594 00ac 1AE0     		b	.L84
 1595              	.L82:
 302:Generated_Source\PSoC6\pdl\drivers\peripheral\gpio/cy_gpio.c ****         HSIOM_AMUX_SPLIT_CTL(switchCtrl) = 
 1596              		.loc 2 302 0
 1597 00ae 104B     		ldr	r3, .L85+4
 1598 00b0 1B68     		ldr	r3, [r3]
 1599 00b2 5B69     		ldr	r3, [r3, #20]
 1600 00b4 1A46     		mov	r2, r3
 1601 00b6 FB79     		ldrb	r3, [r7, #7]	@ zero_extendqisi2
 1602 00b8 03F50063 		add	r3, r3, #2048
 1603 00bc 52F82330 		ldr	r3, [r2, r3, lsl #2]
ARM GAS  C:\Users\stijn\AppData\Local\Temp\ccD3lQ9e.s 			page 66


 1604 00c0 03F00703 		and	r3, r3, #7
 1605 00c4 FB60     		str	r3, [r7, #12]
 303:Generated_Source\PSoC6\pdl\drivers\peripheral\gpio/cy_gpio.c ****         tmpReg | (((uint32_t) amuxConnect << HSIOM_AMUX_SPLIT_CTL_SWITCH_BB_SL_Pos) & GPIO_AMUXB_SP
 1606              		.loc 2 303 0
 1607 00c6 0A4B     		ldr	r3, .L85+4
 1608 00c8 1B68     		ldr	r3, [r3]
 1609 00ca 5B69     		ldr	r3, [r3, #20]
 1610 00cc 1846     		mov	r0, r3
 1611 00ce FB79     		ldrb	r3, [r7, #7]	@ zero_extendqisi2
 304:Generated_Source\PSoC6\pdl\drivers\peripheral\gpio/cy_gpio.c ****     }
 1612              		.loc 2 304 0
 1613 00d0 BA79     		ldrb	r2, [r7, #6]	@ zero_extendqisi2
 1614 00d2 1201     		lsls	r2, r2, #4
 1615 00d4 02F07001 		and	r1, r2, #112
 1616 00d8 FA68     		ldr	r2, [r7, #12]
 1617 00da 0A43     		orrs	r2, r2, r1
 303:Generated_Source\PSoC6\pdl\drivers\peripheral\gpio/cy_gpio.c ****         tmpReg | (((uint32_t) amuxConnect << HSIOM_AMUX_SPLIT_CTL_SWITCH_BB_SL_Pos) & GPIO_AMUXB_SP
 1618              		.loc 2 303 0
 1619 00dc 03F50063 		add	r3, r3, #2048
 1620 00e0 40F82320 		str	r2, [r0, r3, lsl #2]
 1621              	.L84:
 1622              		.loc 2 306 0
 1623 00e4 00BF     		nop
 1624 00e6 1037     		adds	r7, r7, #16
 1625              		.cfi_def_cfa_offset 8
 1626 00e8 BD46     		mov	sp, r7
 1627              		.cfi_def_cfa_register 13
 1628              		@ sp needed
 1629 00ea 80BD     		pop	{r7, pc}
 1630              	.L86:
 1631              		.align	2
 1632              	.L85:
 1633 00ec 40000000 		.word	.LC1
 1634 00f0 00000000 		.word	cy_device
 1635              		.cfi_endproc
 1636              	.LFE177:
 1637              		.size	Cy_GPIO_SetAmuxSplit, .-Cy_GPIO_SetAmuxSplit
 1638              		.section	.text.Cy_GPIO_GetAmuxSplit,"ax",%progbits
 1639              		.align	2
 1640              		.global	Cy_GPIO_GetAmuxSplit
 1641              		.thumb
 1642              		.thumb_func
 1643              		.type	Cy_GPIO_GetAmuxSplit, %function
 1644              	Cy_GPIO_GetAmuxSplit:
 1645              	.LFB178:
 307:Generated_Source\PSoC6\pdl\drivers\peripheral\gpio/cy_gpio.c **** 
 308:Generated_Source\PSoC6\pdl\drivers\peripheral\gpio/cy_gpio.c **** 
 309:Generated_Source\PSoC6\pdl\drivers\peripheral\gpio/cy_gpio.c **** /*******************************************************************************
 310:Generated_Source\PSoC6\pdl\drivers\peripheral\gpio/cy_gpio.c **** * Function Name: Cy_GPIO_GetAmuxSplit
 311:Generated_Source\PSoC6\pdl\drivers\peripheral\gpio/cy_gpio.c **** ****************************************************************************//**
 312:Generated_Source\PSoC6\pdl\drivers\peripheral\gpio/cy_gpio.c **** *
 313:Generated_Source\PSoC6\pdl\drivers\peripheral\gpio/cy_gpio.c **** * Returns the configuration of a specific AMux bus splitter switch cell.
 314:Generated_Source\PSoC6\pdl\drivers\peripheral\gpio/cy_gpio.c **** *
 315:Generated_Source\PSoC6\pdl\drivers\peripheral\gpio/cy_gpio.c **** * \param switchCtrl
 316:Generated_Source\PSoC6\pdl\drivers\peripheral\gpio/cy_gpio.c **** * Selects specific AMux bus splitter cell between two segments.
 317:Generated_Source\PSoC6\pdl\drivers\peripheral\gpio/cy_gpio.c **** * The cy_en_amux_split_t enumeration can be found in the GPIO header file 
 318:Generated_Source\PSoC6\pdl\drivers\peripheral\gpio/cy_gpio.c **** * for the device package.
ARM GAS  C:\Users\stijn\AppData\Local\Temp\ccD3lQ9e.s 			page 67


 319:Generated_Source\PSoC6\pdl\drivers\peripheral\gpio/cy_gpio.c **** *
 320:Generated_Source\PSoC6\pdl\drivers\peripheral\gpio/cy_gpio.c **** * \param amuxBus
 321:Generated_Source\PSoC6\pdl\drivers\peripheral\gpio/cy_gpio.c **** * Selects which AMux bus within the splitter is being configured
 322:Generated_Source\PSoC6\pdl\drivers\peripheral\gpio/cy_gpio.c **** *
 323:Generated_Source\PSoC6\pdl\drivers\peripheral\gpio/cy_gpio.c **** * \return
 324:Generated_Source\PSoC6\pdl\drivers\peripheral\gpio/cy_gpio.c **** * Returns configuration of the three switches in the selected splitter cell
 325:Generated_Source\PSoC6\pdl\drivers\peripheral\gpio/cy_gpio.c **** *
 326:Generated_Source\PSoC6\pdl\drivers\peripheral\gpio/cy_gpio.c **** *******************************************************************************/
 327:Generated_Source\PSoC6\pdl\drivers\peripheral\gpio/cy_gpio.c **** cy_en_gpio_amuxconnect_t Cy_GPIO_GetAmuxSplit(cy_en_amux_split_t switchCtrl, cy_en_gpio_amuxselect_
 328:Generated_Source\PSoC6\pdl\drivers\peripheral\gpio/cy_gpio.c **** {
 1646              		.loc 2 328 0
 1647              		.cfi_startproc
 1648              		@ args = 0, pretend = 0, frame = 16
 1649              		@ frame_needed = 1, uses_anonymous_args = 0
 1650 0000 80B5     		push	{r7, lr}
 1651              		.cfi_def_cfa_offset 8
 1652              		.cfi_offset 7, -8
 1653              		.cfi_offset 14, -4
 1654 0002 84B0     		sub	sp, sp, #16
 1655              		.cfi_def_cfa_offset 24
 1656 0004 00AF     		add	r7, sp, #0
 1657              		.cfi_def_cfa_register 7
 1658 0006 0346     		mov	r3, r0
 1659 0008 0A46     		mov	r2, r1
 1660 000a FB71     		strb	r3, [r7, #7]
 1661 000c 1346     		mov	r3, r2
 1662 000e BB71     		strb	r3, [r7, #6]
 329:Generated_Source\PSoC6\pdl\drivers\peripheral\gpio/cy_gpio.c ****     CY_ASSERT_L2(CY_GPIO_IS_AMUX_SPLIT_VALID(switchCtrl));
 1663              		.loc 2 329 0
 1664 0010 FB79     		ldrb	r3, [r7, #7]	@ zero_extendqisi2
 1665 0012 082B     		cmp	r3, #8
 1666 0014 04D9     		bls	.L88
 1667              		.loc 2 329 0 is_stmt 0 discriminator 1
 1668 0016 40F24911 		movw	r1, #329
 1669 001a 1848     		ldr	r0, .L93
 1670 001c FFF7FEFF 		bl	Cy_SysLib_AssertFailed
 1671              	.L88:
 330:Generated_Source\PSoC6\pdl\drivers\peripheral\gpio/cy_gpio.c ****     CY_ASSERT_L3(CY_GPIO_IS_AMUX_SELECT_VALID(amuxBus));
 1672              		.loc 2 330 0 is_stmt 1
 1673 0020 BB79     		ldrb	r3, [r7, #6]	@ zero_extendqisi2
 1674 0022 002B     		cmp	r3, #0
 1675 0024 07D0     		beq	.L89
 1676              		.loc 2 330 0 is_stmt 0 discriminator 1
 1677 0026 BB79     		ldrb	r3, [r7, #6]	@ zero_extendqisi2
 1678 0028 012B     		cmp	r3, #1
 1679 002a 04D0     		beq	.L89
 1680              		.loc 2 330 0 discriminator 2
 1681 002c 4FF4A571 		mov	r1, #330
 1682 0030 1248     		ldr	r0, .L93
 1683 0032 FFF7FEFF 		bl	Cy_SysLib_AssertFailed
 1684              	.L89:
 331:Generated_Source\PSoC6\pdl\drivers\peripheral\gpio/cy_gpio.c ****     
 332:Generated_Source\PSoC6\pdl\drivers\peripheral\gpio/cy_gpio.c ****     uint32_t retVal;
 333:Generated_Source\PSoC6\pdl\drivers\peripheral\gpio/cy_gpio.c ****     
 334:Generated_Source\PSoC6\pdl\drivers\peripheral\gpio/cy_gpio.c ****     if (amuxBus != CY_GPIO_AMUXBUSB)
 1685              		.loc 2 334 0 is_stmt 1
 1686 0036 BB79     		ldrb	r3, [r7, #6]	@ zero_extendqisi2
ARM GAS  C:\Users\stijn\AppData\Local\Temp\ccD3lQ9e.s 			page 68


 1687 0038 012B     		cmp	r3, #1
 1688 003a 0CD0     		beq	.L90
 335:Generated_Source\PSoC6\pdl\drivers\peripheral\gpio/cy_gpio.c ****     {
 336:Generated_Source\PSoC6\pdl\drivers\peripheral\gpio/cy_gpio.c ****         retVal = HSIOM_AMUX_SPLIT_CTL(switchCtrl) & GPIO_AMUXA_SPLITTER_MASK;
 1689              		.loc 2 336 0
 1690 003c 104B     		ldr	r3, .L93+4
 1691 003e 1B68     		ldr	r3, [r3]
 1692 0040 5B69     		ldr	r3, [r3, #20]
 1693 0042 1A46     		mov	r2, r3
 1694 0044 FB79     		ldrb	r3, [r7, #7]	@ zero_extendqisi2
 1695 0046 03F50063 		add	r3, r3, #2048
 1696 004a 52F82330 		ldr	r3, [r2, r3, lsl #2]
 1697 004e 03F00703 		and	r3, r3, #7
 1698 0052 FB60     		str	r3, [r7, #12]
 1699 0054 0CE0     		b	.L91
 1700              	.L90:
 337:Generated_Source\PSoC6\pdl\drivers\peripheral\gpio/cy_gpio.c ****     }
 338:Generated_Source\PSoC6\pdl\drivers\peripheral\gpio/cy_gpio.c ****     else
 339:Generated_Source\PSoC6\pdl\drivers\peripheral\gpio/cy_gpio.c ****     {
 340:Generated_Source\PSoC6\pdl\drivers\peripheral\gpio/cy_gpio.c ****         retVal = ((uint32_t) ((HSIOM_AMUX_SPLIT_CTL(switchCtrl) & GPIO_AMUXB_SPLITTER_MASK) 
 1701              		.loc 2 340 0
 1702 0056 0A4B     		ldr	r3, .L93+4
 1703 0058 1B68     		ldr	r3, [r3]
 1704 005a 5B69     		ldr	r3, [r3, #20]
 1705 005c 1A46     		mov	r2, r3
 1706 005e FB79     		ldrb	r3, [r7, #7]	@ zero_extendqisi2
 1707 0060 03F50063 		add	r3, r3, #2048
 1708 0064 52F82330 		ldr	r3, [r2, r3, lsl #2]
 1709 0068 03F07003 		and	r3, r3, #112
 1710 006c 1B09     		lsrs	r3, r3, #4
 1711 006e FB60     		str	r3, [r7, #12]
 1712              	.L91:
 341:Generated_Source\PSoC6\pdl\drivers\peripheral\gpio/cy_gpio.c ****                                                      >> HSIOM_AMUX_SPLIT_CTL_SWITCH_BB_SL_Pos));
 342:Generated_Source\PSoC6\pdl\drivers\peripheral\gpio/cy_gpio.c ****     }
 343:Generated_Source\PSoC6\pdl\drivers\peripheral\gpio/cy_gpio.c ****     
 344:Generated_Source\PSoC6\pdl\drivers\peripheral\gpio/cy_gpio.c ****     return ((cy_en_gpio_amuxconnect_t) retVal);
 1713              		.loc 2 344 0
 1714 0070 FB68     		ldr	r3, [r7, #12]
 1715 0072 DBB2     		uxtb	r3, r3
 345:Generated_Source\PSoC6\pdl\drivers\peripheral\gpio/cy_gpio.c **** }
 1716              		.loc 2 345 0
 1717 0074 1846     		mov	r0, r3
 1718 0076 1037     		adds	r7, r7, #16
 1719              		.cfi_def_cfa_offset 8
 1720 0078 BD46     		mov	sp, r7
 1721              		.cfi_def_cfa_register 13
 1722              		@ sp needed
 1723 007a 80BD     		pop	{r7, pc}
 1724              	.L94:
 1725              		.align	2
 1726              	.L93:
 1727 007c 40000000 		.word	.LC1
 1728 0080 00000000 		.word	cy_device
 1729              		.cfi_endproc
 1730              	.LFE178:
 1731              		.size	Cy_GPIO_GetAmuxSplit, .-Cy_GPIO_GetAmuxSplit
 1732              		.text
ARM GAS  C:\Users\stijn\AppData\Local\Temp\ccD3lQ9e.s 			page 69


 1733              	.Letext0:
 1734              		.file 3 "c:\\program files (x86)\\cypress\\psoc creator\\4.2\\psoc creator\\import\\gnu\\arm\\5.4.
 1735              		.file 4 "c:\\program files (x86)\\cypress\\psoc creator\\4.2\\psoc creator\\import\\gnu\\arm\\5.4.
 1736              		.file 5 "Generated_Source\\PSoC6\\pdl\\devices/psoc6/include/ip/cyip_gpio.h"
 1737              		.file 6 "Generated_Source\\PSoC6\\pdl\\devices/psoc6/include/ip/cyip_hsiom.h"
 1738              		.file 7 "Generated_Source\\PSoC6\\pdl\\drivers/peripheral/device/cy_device.h"
 1739              		.file 8 "Generated_Source\\PSoC6\\pdl\\devices/psoc6/include/psoc6_01_config.h"
 1740              		.file 9 "Generated_Source\\PSoC6\\pdl\\devices/psoc6/include/gpio_psoc6_01_124_bga.h"
 1741              		.file 10 "Generated_Source\\PSoC6\\pdl\\drivers/peripheral/syslib/cy_syslib.h"
 1742              		.file 11 "Generated_Source\\PSoC6\\pdl\\cmsis/include/core_cm4.h"
 1743              		.section	.debug_info,"",%progbits
 1744              	.Ldebug_info0:
 1745 0000 86360000 		.4byte	0x3686
 1746 0004 0400     		.2byte	0x4
 1747 0006 00000000 		.4byte	.Ldebug_abbrev0
 1748 000a 04       		.byte	0x4
 1749 000b 01       		.uleb128 0x1
 1750 000c 624E0000 		.4byte	.LASF1950
 1751 0010 0C       		.byte	0xc
 1752 0011 70590000 		.4byte	.LASF1951
 1753 0015 85220000 		.4byte	.LASF1952
 1754 0019 00000000 		.4byte	.Ldebug_ranges0+0
 1755 001d 00000000 		.4byte	0
 1756 0021 00000000 		.4byte	.Ldebug_line0
 1757 0025 02       		.uleb128 0x2
 1758 0026 04       		.byte	0x4
 1759 0027 05       		.byte	0x5
 1760 0028 696E7400 		.ascii	"int\000"
 1761 002c 03       		.uleb128 0x3
 1762 002d 04       		.byte	0x4
 1763 002e 07       		.byte	0x7
 1764 002f 1E7B0000 		.4byte	.LASF0
 1765 0033 03       		.uleb128 0x3
 1766 0034 08       		.byte	0x8
 1767 0035 05       		.byte	0x5
 1768 0036 16000000 		.4byte	.LASF1
 1769 003a 03       		.uleb128 0x3
 1770 003b 08       		.byte	0x8
 1771 003c 04       		.byte	0x4
 1772 003d EE090000 		.4byte	.LASF2
 1773 0041 03       		.uleb128 0x3
 1774 0042 01       		.byte	0x1
 1775 0043 06       		.byte	0x6
 1776 0044 7D620000 		.4byte	.LASF3
 1777 0048 04       		.uleb128 0x4
 1778 0049 CD170000 		.4byte	.LASF5
 1779 004d 03       		.byte	0x3
 1780 004e 1D       		.byte	0x1d
 1781 004f 53000000 		.4byte	0x53
 1782 0053 03       		.uleb128 0x3
 1783 0054 01       		.byte	0x1
 1784 0055 08       		.byte	0x8
 1785 0056 593D0000 		.4byte	.LASF4
 1786 005a 04       		.uleb128 0x4
 1787 005b C5380000 		.4byte	.LASF6
 1788 005f 03       		.byte	0x3
 1789 0060 29       		.byte	0x29
ARM GAS  C:\Users\stijn\AppData\Local\Temp\ccD3lQ9e.s 			page 70


 1790 0061 65000000 		.4byte	0x65
 1791 0065 03       		.uleb128 0x3
 1792 0066 02       		.byte	0x2
 1793 0067 05       		.byte	0x5
 1794 0068 89510000 		.4byte	.LASF7
 1795 006c 04       		.uleb128 0x4
 1796 006d 04260000 		.4byte	.LASF8
 1797 0071 03       		.byte	0x3
 1798 0072 2B       		.byte	0x2b
 1799 0073 77000000 		.4byte	0x77
 1800 0077 03       		.uleb128 0x3
 1801 0078 02       		.byte	0x2
 1802 0079 07       		.byte	0x7
 1803 007a AB370000 		.4byte	.LASF9
 1804 007e 04       		.uleb128 0x4
 1805 007f C0560000 		.4byte	.LASF10
 1806 0083 03       		.byte	0x3
 1807 0084 3F       		.byte	0x3f
 1808 0085 89000000 		.4byte	0x89
 1809 0089 03       		.uleb128 0x3
 1810 008a 04       		.byte	0x4
 1811 008b 05       		.byte	0x5
 1812 008c 0A560000 		.4byte	.LASF11
 1813 0090 04       		.uleb128 0x4
 1814 0091 B9440000 		.4byte	.LASF12
 1815 0095 03       		.byte	0x3
 1816 0096 41       		.byte	0x41
 1817 0097 9B000000 		.4byte	0x9b
 1818 009b 03       		.uleb128 0x3
 1819 009c 04       		.byte	0x4
 1820 009d 07       		.byte	0x7
 1821 009e 8B010000 		.4byte	.LASF13
 1822 00a2 03       		.uleb128 0x3
 1823 00a3 08       		.byte	0x8
 1824 00a4 07       		.byte	0x7
 1825 00a5 80670000 		.4byte	.LASF14
 1826 00a9 04       		.uleb128 0x4
 1827 00aa FC3A0000 		.4byte	.LASF15
 1828 00ae 04       		.byte	0x4
 1829 00af 18       		.byte	0x18
 1830 00b0 48000000 		.4byte	0x48
 1831 00b4 04       		.uleb128 0x4
 1832 00b5 915A0000 		.4byte	.LASF16
 1833 00b9 04       		.byte	0x4
 1834 00ba 20       		.byte	0x20
 1835 00bb 5A000000 		.4byte	0x5a
 1836 00bf 04       		.uleb128 0x4
 1837 00c0 C2660000 		.4byte	.LASF17
 1838 00c4 04       		.byte	0x4
 1839 00c5 24       		.byte	0x24
 1840 00c6 6C000000 		.4byte	0x6c
 1841 00ca 04       		.uleb128 0x4
 1842 00cb 6F790000 		.4byte	.LASF18
 1843 00cf 04       		.byte	0x4
 1844 00d0 2C       		.byte	0x2c
 1845 00d1 7E000000 		.4byte	0x7e
 1846 00d5 04       		.uleb128 0x4
ARM GAS  C:\Users\stijn\AppData\Local\Temp\ccD3lQ9e.s 			page 71


 1847 00d6 53080000 		.4byte	.LASF19
 1848 00da 04       		.byte	0x4
 1849 00db 30       		.byte	0x30
 1850 00dc 90000000 		.4byte	0x90
 1851 00e0 05       		.uleb128 0x5
 1852 00e1 D5000000 		.4byte	0xd5
 1853 00e5 06       		.uleb128 0x6
 1854 00e6 E0000000 		.4byte	0xe0
 1855 00ea 03       		.uleb128 0x3
 1856 00eb 04       		.byte	0x4
 1857 00ec 07       		.byte	0x7
 1858 00ed 215A0000 		.4byte	.LASF20
 1859 00f1 07       		.uleb128 0x7
 1860 00f2 E5000000 		.4byte	0xe5
 1861 00f6 01010000 		.4byte	0x101
 1862 00fa 08       		.uleb128 0x8
 1863 00fb EA000000 		.4byte	0xea
 1864 00ff 0F       		.byte	0xf
 1865 0100 00       		.byte	0
 1866 0101 07       		.uleb128 0x7
 1867 0102 E5000000 		.4byte	0xe5
 1868 0106 11010000 		.4byte	0x111
 1869 010a 08       		.uleb128 0x8
 1870 010b EA000000 		.4byte	0xea
 1871 010f 01       		.byte	0x1
 1872 0110 00       		.byte	0
 1873 0111 09       		.uleb128 0x9
 1874 0112 80       		.byte	0x80
 1875 0113 05       		.byte	0x5
 1876 0114 22       		.byte	0x22
 1877 0115 E5010000 		.4byte	0x1e5
 1878 0119 0A       		.uleb128 0xa
 1879 011a 4F555400 		.ascii	"OUT\000"
 1880 011e 05       		.byte	0x5
 1881 011f 23       		.byte	0x23
 1882 0120 E0000000 		.4byte	0xe0
 1883 0124 00       		.byte	0
 1884 0125 0B       		.uleb128 0xb
 1885 0126 E11E0000 		.4byte	.LASF21
 1886 012a 05       		.byte	0x5
 1887 012b 24       		.byte	0x24
 1888 012c E0000000 		.4byte	0xe0
 1889 0130 04       		.byte	0x4
 1890 0131 0B       		.uleb128 0xb
 1891 0132 5C780000 		.4byte	.LASF22
 1892 0136 05       		.byte	0x5
 1893 0137 25       		.byte	0x25
 1894 0138 E0000000 		.4byte	0xe0
 1895 013c 08       		.byte	0x8
 1896 013d 0B       		.uleb128 0xb
 1897 013e C4440000 		.4byte	.LASF23
 1898 0142 05       		.byte	0x5
 1899 0143 26       		.byte	0x26
 1900 0144 E0000000 		.4byte	0xe0
 1901 0148 0C       		.byte	0xc
 1902 0149 0A       		.uleb128 0xa
 1903 014a 494E00   		.ascii	"IN\000"
ARM GAS  C:\Users\stijn\AppData\Local\Temp\ccD3lQ9e.s 			page 72


 1904 014d 05       		.byte	0x5
 1905 014e 27       		.byte	0x27
 1906 014f E5000000 		.4byte	0xe5
 1907 0153 10       		.byte	0x10
 1908 0154 0B       		.uleb128 0xb
 1909 0155 D9670000 		.4byte	.LASF24
 1910 0159 05       		.byte	0x5
 1911 015a 28       		.byte	0x28
 1912 015b E0000000 		.4byte	0xe0
 1913 015f 14       		.byte	0x14
 1914 0160 0B       		.uleb128 0xb
 1915 0161 47550000 		.4byte	.LASF25
 1916 0165 05       		.byte	0x5
 1917 0166 29       		.byte	0x29
 1918 0167 E0000000 		.4byte	0xe0
 1919 016b 18       		.byte	0x18
 1920 016c 0B       		.uleb128 0xb
 1921 016d 68360000 		.4byte	.LASF26
 1922 0171 05       		.byte	0x5
 1923 0172 2A       		.byte	0x2a
 1924 0173 E5000000 		.4byte	0xe5
 1925 0177 1C       		.byte	0x1c
 1926 0178 0B       		.uleb128 0xb
 1927 0179 A2360000 		.4byte	.LASF27
 1928 017d 05       		.byte	0x5
 1929 017e 2B       		.byte	0x2b
 1930 017f E0000000 		.4byte	0xe0
 1931 0183 20       		.byte	0x20
 1932 0184 0B       		.uleb128 0xb
 1933 0185 7F530000 		.4byte	.LASF28
 1934 0189 05       		.byte	0x5
 1935 018a 2C       		.byte	0x2c
 1936 018b E0000000 		.4byte	0xe0
 1937 018f 24       		.byte	0x24
 1938 0190 0A       		.uleb128 0xa
 1939 0191 43464700 		.ascii	"CFG\000"
 1940 0195 05       		.byte	0x5
 1941 0196 2D       		.byte	0x2d
 1942 0197 E0000000 		.4byte	0xe0
 1943 019b 28       		.byte	0x28
 1944 019c 0B       		.uleb128 0xb
 1945 019d 964F0000 		.4byte	.LASF29
 1946 01a1 05       		.byte	0x5
 1947 01a2 2E       		.byte	0x2e
 1948 01a3 E0000000 		.4byte	0xe0
 1949 01a7 2C       		.byte	0x2c
 1950 01a8 0B       		.uleb128 0xb
 1951 01a9 391D0000 		.4byte	.LASF30
 1952 01ad 05       		.byte	0x5
 1953 01ae 2F       		.byte	0x2f
 1954 01af E0000000 		.4byte	0xe0
 1955 01b3 30       		.byte	0x30
 1956 01b4 0B       		.uleb128 0xb
 1957 01b5 04290000 		.4byte	.LASF31
 1958 01b9 05       		.byte	0x5
 1959 01ba 30       		.byte	0x30
 1960 01bb E0000000 		.4byte	0xe0
ARM GAS  C:\Users\stijn\AppData\Local\Temp\ccD3lQ9e.s 			page 73


 1961 01bf 34       		.byte	0x34
 1962 01c0 0B       		.uleb128 0xb
 1963 01c1 4C520000 		.4byte	.LASF32
 1964 01c5 05       		.byte	0x5
 1965 01c6 31       		.byte	0x31
 1966 01c7 E5000000 		.4byte	0xe5
 1967 01cb 38       		.byte	0x38
 1968 01cc 0B       		.uleb128 0xb
 1969 01cd 3D630000 		.4byte	.LASF33
 1970 01d1 05       		.byte	0x5
 1971 01d2 32       		.byte	0x32
 1972 01d3 E0000000 		.4byte	0xe0
 1973 01d7 3C       		.byte	0x3c
 1974 01d8 0B       		.uleb128 0xb
 1975 01d9 A4380000 		.4byte	.LASF34
 1976 01dd 05       		.byte	0x5
 1977 01de 33       		.byte	0x33
 1978 01df EA010000 		.4byte	0x1ea
 1979 01e3 40       		.byte	0x40
 1980 01e4 00       		.byte	0
 1981 01e5 05       		.uleb128 0x5
 1982 01e6 F1000000 		.4byte	0xf1
 1983 01ea 06       		.uleb128 0x6
 1984 01eb E5010000 		.4byte	0x1e5
 1985 01ef 04       		.uleb128 0x4
 1986 01f0 CB700000 		.4byte	.LASF35
 1987 01f4 05       		.byte	0x5
 1988 01f5 34       		.byte	0x34
 1989 01f6 11010000 		.4byte	0x111
 1990 01fa 09       		.uleb128 0x9
 1991 01fb 10       		.byte	0x10
 1992 01fc 06       		.byte	0x6
 1993 01fd 22       		.byte	0x22
 1994 01fe 27020000 		.4byte	0x227
 1995 0202 0B       		.uleb128 0xb
 1996 0203 64070000 		.4byte	.LASF36
 1997 0207 06       		.byte	0x6
 1998 0208 23       		.byte	0x23
 1999 0209 E0000000 		.4byte	0xe0
 2000 020d 00       		.byte	0
 2001 020e 0B       		.uleb128 0xb
 2002 020f 6E070000 		.4byte	.LASF37
 2003 0213 06       		.byte	0x6
 2004 0214 24       		.byte	0x24
 2005 0215 E0000000 		.4byte	0xe0
 2006 0219 04       		.byte	0x4
 2007 021a 0B       		.uleb128 0xb
 2008 021b 4C520000 		.4byte	.LASF32
 2009 021f 06       		.byte	0x6
 2010 0220 25       		.byte	0x25
 2011 0221 2C020000 		.4byte	0x22c
 2012 0225 08       		.byte	0x8
 2013 0226 00       		.byte	0
 2014 0227 05       		.uleb128 0x5
 2015 0228 01010000 		.4byte	0x101
 2016 022c 06       		.uleb128 0x6
 2017 022d 27020000 		.4byte	0x227
ARM GAS  C:\Users\stijn\AppData\Local\Temp\ccD3lQ9e.s 			page 74


 2018 0231 04       		.uleb128 0x4
 2019 0232 34320000 		.4byte	.LASF38
 2020 0236 06       		.byte	0x6
 2021 0237 26       		.byte	0x26
 2022 0238 FA010000 		.4byte	0x1fa
 2023 023c 0C       		.uleb128 0xc
 2024 023d 0021     		.2byte	0x2100
 2025 023f 06       		.byte	0x6
 2026 0240 2B       		.byte	0x2b
 2027 0241 6C020000 		.4byte	0x26c
 2028 0245 0A       		.uleb128 0xa
 2029 0246 50525400 		.ascii	"PRT\000"
 2030 024a 06       		.byte	0x6
 2031 024b 2C       		.byte	0x2c
 2032 024c 6C020000 		.4byte	0x26c
 2033 0250 00       		.byte	0
 2034 0251 0D       		.uleb128 0xd
 2035 0252 4C520000 		.4byte	.LASF32
 2036 0256 06       		.byte	0x6
 2037 0257 2D       		.byte	0x2d
 2038 0258 92020000 		.4byte	0x292
 2039 025c 0008     		.2byte	0x800
 2040 025e 0D       		.uleb128 0xd
 2041 025f C6090000 		.4byte	.LASF39
 2042 0263 06       		.byte	0x6
 2043 0264 2E       		.byte	0x2e
 2044 0265 A7020000 		.4byte	0x2a7
 2045 0269 0020     		.2byte	0x2000
 2046 026b 00       		.byte	0
 2047 026c 07       		.uleb128 0x7
 2048 026d 31020000 		.4byte	0x231
 2049 0271 7C020000 		.4byte	0x27c
 2050 0275 08       		.uleb128 0x8
 2051 0276 EA000000 		.4byte	0xea
 2052 027a 7F       		.byte	0x7f
 2053 027b 00       		.byte	0
 2054 027c 07       		.uleb128 0x7
 2055 027d E5000000 		.4byte	0xe5
 2056 0281 8D020000 		.4byte	0x28d
 2057 0285 0E       		.uleb128 0xe
 2058 0286 EA000000 		.4byte	0xea
 2059 028a FF05     		.2byte	0x5ff
 2060 028c 00       		.byte	0
 2061 028d 05       		.uleb128 0x5
 2062 028e 7C020000 		.4byte	0x27c
 2063 0292 06       		.uleb128 0x6
 2064 0293 8D020000 		.4byte	0x28d
 2065 0297 07       		.uleb128 0x7
 2066 0298 E0000000 		.4byte	0xe0
 2067 029c A7020000 		.4byte	0x2a7
 2068 02a0 08       		.uleb128 0x8
 2069 02a1 EA000000 		.4byte	0xea
 2070 02a5 3F       		.byte	0x3f
 2071 02a6 00       		.byte	0
 2072 02a7 05       		.uleb128 0x5
 2073 02a8 97020000 		.4byte	0x297
 2074 02ac 04       		.uleb128 0x4
ARM GAS  C:\Users\stijn\AppData\Local\Temp\ccD3lQ9e.s 			page 75


 2075 02ad 662E0000 		.4byte	.LASF40
 2076 02b1 06       		.byte	0x6
 2077 02b2 2F       		.byte	0x2f
 2078 02b3 3C020000 		.4byte	0x23c
 2079 02b7 09       		.uleb128 0x9
 2080 02b8 B8       		.byte	0xb8
 2081 02b9 07       		.byte	0x7
 2082 02ba 34       		.byte	0x34
 2083 02bb C8060000 		.4byte	0x6c8
 2084 02bf 0B       		.uleb128 0xb
 2085 02c0 E4090000 		.4byte	.LASF41
 2086 02c4 07       		.byte	0x7
 2087 02c5 37       		.byte	0x37
 2088 02c6 D5000000 		.4byte	0xd5
 2089 02ca 00       		.byte	0
 2090 02cb 0B       		.uleb128 0xb
 2091 02cc 2A5A0000 		.4byte	.LASF42
 2092 02d0 07       		.byte	0x7
 2093 02d1 38       		.byte	0x38
 2094 02d2 D5000000 		.4byte	0xd5
 2095 02d6 04       		.byte	0x4
 2096 02d7 0B       		.uleb128 0xb
 2097 02d8 88240000 		.4byte	.LASF43
 2098 02dc 07       		.byte	0x7
 2099 02dd 39       		.byte	0x39
 2100 02de D5000000 		.4byte	0xd5
 2101 02e2 08       		.byte	0x8
 2102 02e3 0B       		.uleb128 0xb
 2103 02e4 975D0000 		.4byte	.LASF44
 2104 02e8 07       		.byte	0x7
 2105 02e9 3A       		.byte	0x3a
 2106 02ea D5000000 		.4byte	0xd5
 2107 02ee 0C       		.byte	0xc
 2108 02ef 0B       		.uleb128 0xb
 2109 02f0 E3740000 		.4byte	.LASF45
 2110 02f4 07       		.byte	0x7
 2111 02f5 3B       		.byte	0x3b
 2112 02f6 D5000000 		.4byte	0xd5
 2113 02fa 10       		.byte	0x10
 2114 02fb 0B       		.uleb128 0xb
 2115 02fc AE620000 		.4byte	.LASF46
 2116 0300 07       		.byte	0x7
 2117 0301 3C       		.byte	0x3c
 2118 0302 D5000000 		.4byte	0xd5
 2119 0306 14       		.byte	0x14
 2120 0307 0B       		.uleb128 0xb
 2121 0308 0D000000 		.4byte	.LASF47
 2122 030c 07       		.byte	0x7
 2123 030d 3D       		.byte	0x3d
 2124 030e D5000000 		.4byte	0xd5
 2125 0312 18       		.byte	0x18
 2126 0313 0B       		.uleb128 0xb
 2127 0314 153D0000 		.4byte	.LASF48
 2128 0318 07       		.byte	0x7
 2129 0319 3E       		.byte	0x3e
 2130 031a D5000000 		.4byte	0xd5
 2131 031e 1C       		.byte	0x1c
ARM GAS  C:\Users\stijn\AppData\Local\Temp\ccD3lQ9e.s 			page 76


 2132 031f 0B       		.uleb128 0xb
 2133 0320 F0530000 		.4byte	.LASF49
 2134 0324 07       		.byte	0x7
 2135 0325 3F       		.byte	0x3f
 2136 0326 D5000000 		.4byte	0xd5
 2137 032a 20       		.byte	0x20
 2138 032b 0B       		.uleb128 0xb
 2139 032c F75C0000 		.4byte	.LASF50
 2140 0330 07       		.byte	0x7
 2141 0331 40       		.byte	0x40
 2142 0332 D5000000 		.4byte	0xd5
 2143 0336 24       		.byte	0x24
 2144 0337 0B       		.uleb128 0xb
 2145 0338 D12B0000 		.4byte	.LASF51
 2146 033c 07       		.byte	0x7
 2147 033d 43       		.byte	0x43
 2148 033e A9000000 		.4byte	0xa9
 2149 0342 28       		.byte	0x28
 2150 0343 0B       		.uleb128 0xb
 2151 0344 C8250000 		.4byte	.LASF52
 2152 0348 07       		.byte	0x7
 2153 0349 44       		.byte	0x44
 2154 034a A9000000 		.4byte	0xa9
 2155 034e 29       		.byte	0x29
 2156 034f 0B       		.uleb128 0xb
 2157 0350 C80C0000 		.4byte	.LASF53
 2158 0354 07       		.byte	0x7
 2159 0355 45       		.byte	0x45
 2160 0356 A9000000 		.4byte	0xa9
 2161 035a 2A       		.byte	0x2a
 2162 035b 0B       		.uleb128 0xb
 2163 035c 6E280000 		.4byte	.LASF54
 2164 0360 07       		.byte	0x7
 2165 0361 46       		.byte	0x46
 2166 0362 A9000000 		.4byte	0xa9
 2167 0366 2B       		.byte	0x2b
 2168 0367 0B       		.uleb128 0xb
 2169 0368 81470000 		.4byte	.LASF55
 2170 036c 07       		.byte	0x7
 2171 036d 47       		.byte	0x47
 2172 036e A9000000 		.4byte	0xa9
 2173 0372 2C       		.byte	0x2c
 2174 0373 0B       		.uleb128 0xb
 2175 0374 954C0000 		.4byte	.LASF56
 2176 0378 07       		.byte	0x7
 2177 0379 48       		.byte	0x48
 2178 037a A9000000 		.4byte	0xa9
 2179 037e 2D       		.byte	0x2d
 2180 037f 0B       		.uleb128 0xb
 2181 0380 7F170000 		.4byte	.LASF57
 2182 0384 07       		.byte	0x7
 2183 0385 49       		.byte	0x49
 2184 0386 A9000000 		.4byte	0xa9
 2185 038a 2E       		.byte	0x2e
 2186 038b 0B       		.uleb128 0xb
 2187 038c A0170000 		.4byte	.LASF58
 2188 0390 07       		.byte	0x7
ARM GAS  C:\Users\stijn\AppData\Local\Temp\ccD3lQ9e.s 			page 77


 2189 0391 4A       		.byte	0x4a
 2190 0392 A9000000 		.4byte	0xa9
 2191 0396 2F       		.byte	0x2f
 2192 0397 0B       		.uleb128 0xb
 2193 0398 215C0000 		.4byte	.LASF59
 2194 039c 07       		.byte	0x7
 2195 039d 4B       		.byte	0x4b
 2196 039e A9000000 		.4byte	0xa9
 2197 03a2 30       		.byte	0x30
 2198 03a3 0B       		.uleb128 0xb
 2199 03a4 D3210000 		.4byte	.LASF60
 2200 03a8 07       		.byte	0x7
 2201 03a9 4E       		.byte	0x4e
 2202 03aa A9000000 		.4byte	0xa9
 2203 03ae 31       		.byte	0x31
 2204 03af 0B       		.uleb128 0xb
 2205 03b0 5E0D0000 		.4byte	.LASF61
 2206 03b4 07       		.byte	0x7
 2207 03b5 4F       		.byte	0x4f
 2208 03b6 A9000000 		.4byte	0xa9
 2209 03ba 32       		.byte	0x32
 2210 03bb 0B       		.uleb128 0xb
 2211 03bc 1A020000 		.4byte	.LASF62
 2212 03c0 07       		.byte	0x7
 2213 03c1 50       		.byte	0x50
 2214 03c2 A9000000 		.4byte	0xa9
 2215 03c6 33       		.byte	0x33
 2216 03c7 0B       		.uleb128 0xb
 2217 03c8 455A0000 		.4byte	.LASF63
 2218 03cc 07       		.byte	0x7
 2219 03cd 51       		.byte	0x51
 2220 03ce A9000000 		.4byte	0xa9
 2221 03d2 34       		.byte	0x34
 2222 03d3 0B       		.uleb128 0xb
 2223 03d4 D1730000 		.4byte	.LASF64
 2224 03d8 07       		.byte	0x7
 2225 03d9 52       		.byte	0x52
 2226 03da B4000000 		.4byte	0xb4
 2227 03de 36       		.byte	0x36
 2228 03df 0B       		.uleb128 0xb
 2229 03e0 1A570000 		.4byte	.LASF65
 2230 03e4 07       		.byte	0x7
 2231 03e5 53       		.byte	0x53
 2232 03e6 B4000000 		.4byte	0xb4
 2233 03ea 38       		.byte	0x38
 2234 03eb 0B       		.uleb128 0xb
 2235 03ec 74430000 		.4byte	.LASF66
 2236 03f0 07       		.byte	0x7
 2237 03f1 54       		.byte	0x54
 2238 03f2 B4000000 		.4byte	0xb4
 2239 03f6 3A       		.byte	0x3a
 2240 03f7 0B       		.uleb128 0xb
 2241 03f8 3F4E0000 		.4byte	.LASF67
 2242 03fc 07       		.byte	0x7
 2243 03fd 55       		.byte	0x55
 2244 03fe A9000000 		.4byte	0xa9
 2245 0402 3C       		.byte	0x3c
ARM GAS  C:\Users\stijn\AppData\Local\Temp\ccD3lQ9e.s 			page 78


 2246 0403 0B       		.uleb128 0xb
 2247 0404 BC050000 		.4byte	.LASF68
 2248 0408 07       		.byte	0x7
 2249 0409 56       		.byte	0x56
 2250 040a A9000000 		.4byte	0xa9
 2251 040e 3D       		.byte	0x3d
 2252 040f 0B       		.uleb128 0xb
 2253 0410 3C2E0000 		.4byte	.LASF69
 2254 0414 07       		.byte	0x7
 2255 0415 57       		.byte	0x57
 2256 0416 A9000000 		.4byte	0xa9
 2257 041a 3E       		.byte	0x3e
 2258 041b 0B       		.uleb128 0xb
 2259 041c 0A6C0000 		.4byte	.LASF70
 2260 0420 07       		.byte	0x7
 2261 0421 58       		.byte	0x58
 2262 0422 A9000000 		.4byte	0xa9
 2263 0426 3F       		.byte	0x3f
 2264 0427 0B       		.uleb128 0xb
 2265 0428 09220000 		.4byte	.LASF71
 2266 042c 07       		.byte	0x7
 2267 042d 59       		.byte	0x59
 2268 042e A9000000 		.4byte	0xa9
 2269 0432 40       		.byte	0x40
 2270 0433 0B       		.uleb128 0xb
 2271 0434 DE3A0000 		.4byte	.LASF72
 2272 0438 07       		.byte	0x7
 2273 0439 5A       		.byte	0x5a
 2274 043a A9000000 		.4byte	0xa9
 2275 043e 41       		.byte	0x41
 2276 043f 0B       		.uleb128 0xb
 2277 0440 1C6A0000 		.4byte	.LASF73
 2278 0444 07       		.byte	0x7
 2279 0445 5B       		.byte	0x5b
 2280 0446 A9000000 		.4byte	0xa9
 2281 044a 42       		.byte	0x42
 2282 044b 0B       		.uleb128 0xb
 2283 044c 826A0000 		.4byte	.LASF74
 2284 0450 07       		.byte	0x7
 2285 0451 5C       		.byte	0x5c
 2286 0452 A9000000 		.4byte	0xa9
 2287 0456 43       		.byte	0x43
 2288 0457 0B       		.uleb128 0xb
 2289 0458 BE010000 		.4byte	.LASF75
 2290 045c 07       		.byte	0x7
 2291 045d 5D       		.byte	0x5d
 2292 045e A9000000 		.4byte	0xa9
 2293 0462 44       		.byte	0x44
 2294 0463 0B       		.uleb128 0xb
 2295 0464 D34B0000 		.4byte	.LASF76
 2296 0468 07       		.byte	0x7
 2297 0469 5E       		.byte	0x5e
 2298 046a D5000000 		.4byte	0xd5
 2299 046e 48       		.byte	0x48
 2300 046f 0B       		.uleb128 0xb
 2301 0470 27300000 		.4byte	.LASF77
 2302 0474 07       		.byte	0x7
ARM GAS  C:\Users\stijn\AppData\Local\Temp\ccD3lQ9e.s 			page 79


 2303 0475 5F       		.byte	0x5f
 2304 0476 D5000000 		.4byte	0xd5
 2305 047a 4C       		.byte	0x4c
 2306 047b 0B       		.uleb128 0xb
 2307 047c 523F0000 		.4byte	.LASF78
 2308 0480 07       		.byte	0x7
 2309 0481 60       		.byte	0x60
 2310 0482 A9000000 		.4byte	0xa9
 2311 0486 50       		.byte	0x50
 2312 0487 0B       		.uleb128 0xb
 2313 0488 BF2E0000 		.4byte	.LASF79
 2314 048c 07       		.byte	0x7
 2315 048d 61       		.byte	0x61
 2316 048e A9000000 		.4byte	0xa9
 2317 0492 51       		.byte	0x51
 2318 0493 0B       		.uleb128 0xb
 2319 0494 C8550000 		.4byte	.LASF80
 2320 0498 07       		.byte	0x7
 2321 0499 62       		.byte	0x62
 2322 049a A9000000 		.4byte	0xa9
 2323 049e 52       		.byte	0x52
 2324 049f 0B       		.uleb128 0xb
 2325 04a0 CB660000 		.4byte	.LASF81
 2326 04a4 07       		.byte	0x7
 2327 04a5 63       		.byte	0x63
 2328 04a6 A9000000 		.4byte	0xa9
 2329 04aa 53       		.byte	0x53
 2330 04ab 0B       		.uleb128 0xb
 2331 04ac 1D310000 		.4byte	.LASF82
 2332 04b0 07       		.byte	0x7
 2333 04b1 64       		.byte	0x64
 2334 04b2 A9000000 		.4byte	0xa9
 2335 04b6 54       		.byte	0x54
 2336 04b7 0B       		.uleb128 0xb
 2337 04b8 4E4E0000 		.4byte	.LASF83
 2338 04bc 07       		.byte	0x7
 2339 04bd 65       		.byte	0x65
 2340 04be A9000000 		.4byte	0xa9
 2341 04c2 55       		.byte	0x55
 2342 04c3 0B       		.uleb128 0xb
 2343 04c4 25620000 		.4byte	.LASF84
 2344 04c8 07       		.byte	0x7
 2345 04c9 66       		.byte	0x66
 2346 04ca A9000000 		.4byte	0xa9
 2347 04ce 56       		.byte	0x56
 2348 04cf 0B       		.uleb128 0xb
 2349 04d0 AF740000 		.4byte	.LASF85
 2350 04d4 07       		.byte	0x7
 2351 04d5 67       		.byte	0x67
 2352 04d6 A9000000 		.4byte	0xa9
 2353 04da 57       		.byte	0x57
 2354 04db 0B       		.uleb128 0xb
 2355 04dc 7D0B0000 		.4byte	.LASF86
 2356 04e0 07       		.byte	0x7
 2357 04e1 68       		.byte	0x68
 2358 04e2 A9000000 		.4byte	0xa9
 2359 04e6 58       		.byte	0x58
ARM GAS  C:\Users\stijn\AppData\Local\Temp\ccD3lQ9e.s 			page 80


 2360 04e7 0B       		.uleb128 0xb
 2361 04e8 531E0000 		.4byte	.LASF87
 2362 04ec 07       		.byte	0x7
 2363 04ed 69       		.byte	0x69
 2364 04ee A9000000 		.4byte	0xa9
 2365 04f2 59       		.byte	0x59
 2366 04f3 0B       		.uleb128 0xb
 2367 04f4 BD4B0000 		.4byte	.LASF88
 2368 04f8 07       		.byte	0x7
 2369 04f9 6E       		.byte	0x6e
 2370 04fa BF000000 		.4byte	0xbf
 2371 04fe 5A       		.byte	0x5a
 2372 04ff 0B       		.uleb128 0xb
 2373 0500 51240000 		.4byte	.LASF89
 2374 0504 07       		.byte	0x7
 2375 0505 6F       		.byte	0x6f
 2376 0506 BF000000 		.4byte	0xbf
 2377 050a 5C       		.byte	0x5c
 2378 050b 0B       		.uleb128 0xb
 2379 050c 65210000 		.4byte	.LASF90
 2380 0510 07       		.byte	0x7
 2381 0511 70       		.byte	0x70
 2382 0512 A9000000 		.4byte	0xa9
 2383 0516 5E       		.byte	0x5e
 2384 0517 0B       		.uleb128 0xb
 2385 0518 9D410000 		.4byte	.LASF91
 2386 051c 07       		.byte	0x7
 2387 051d 71       		.byte	0x71
 2388 051e A9000000 		.4byte	0xa9
 2389 0522 5F       		.byte	0x5f
 2390 0523 0B       		.uleb128 0xb
 2391 0524 1C060000 		.4byte	.LASF92
 2392 0528 07       		.byte	0x7
 2393 0529 72       		.byte	0x72
 2394 052a A9000000 		.4byte	0xa9
 2395 052e 60       		.byte	0x60
 2396 052f 0B       		.uleb128 0xb
 2397 0530 3B370000 		.4byte	.LASF93
 2398 0534 07       		.byte	0x7
 2399 0535 73       		.byte	0x73
 2400 0536 D5000000 		.4byte	0xd5
 2401 053a 64       		.byte	0x64
 2402 053b 0B       		.uleb128 0xb
 2403 053c 6D4C0000 		.4byte	.LASF94
 2404 0540 07       		.byte	0x7
 2405 0541 76       		.byte	0x76
 2406 0542 BF000000 		.4byte	0xbf
 2407 0546 68       		.byte	0x68
 2408 0547 0B       		.uleb128 0xb
 2409 0548 1D6B0000 		.4byte	.LASF95
 2410 054c 07       		.byte	0x7
 2411 054d 77       		.byte	0x77
 2412 054e BF000000 		.4byte	0xbf
 2413 0552 6A       		.byte	0x6a
 2414 0553 0B       		.uleb128 0xb
 2415 0554 AF0A0000 		.4byte	.LASF96
 2416 0558 07       		.byte	0x7
ARM GAS  C:\Users\stijn\AppData\Local\Temp\ccD3lQ9e.s 			page 81


 2417 0559 78       		.byte	0x78
 2418 055a BF000000 		.4byte	0xbf
 2419 055e 6C       		.byte	0x6c
 2420 055f 0B       		.uleb128 0xb
 2421 0560 D7680000 		.4byte	.LASF97
 2422 0564 07       		.byte	0x7
 2423 0565 79       		.byte	0x79
 2424 0566 BF000000 		.4byte	0xbf
 2425 056a 6E       		.byte	0x6e
 2426 056b 0B       		.uleb128 0xb
 2427 056c 050B0000 		.4byte	.LASF98
 2428 0570 07       		.byte	0x7
 2429 0571 7B       		.byte	0x7b
 2430 0572 A9000000 		.4byte	0xa9
 2431 0576 70       		.byte	0x70
 2432 0577 0B       		.uleb128 0xb
 2433 0578 32200000 		.4byte	.LASF99
 2434 057c 07       		.byte	0x7
 2435 057d 7C       		.byte	0x7c
 2436 057e A9000000 		.4byte	0xa9
 2437 0582 71       		.byte	0x71
 2438 0583 0B       		.uleb128 0xb
 2439 0584 8A170000 		.4byte	.LASF100
 2440 0588 07       		.byte	0x7
 2441 0589 7D       		.byte	0x7d
 2442 058a A9000000 		.4byte	0xa9
 2443 058e 72       		.byte	0x72
 2444 058f 0B       		.uleb128 0xb
 2445 0590 46260000 		.4byte	.LASF101
 2446 0594 07       		.byte	0x7
 2447 0595 7E       		.byte	0x7e
 2448 0596 A9000000 		.4byte	0xa9
 2449 059a 73       		.byte	0x73
 2450 059b 0B       		.uleb128 0xb
 2451 059c 16270000 		.4byte	.LASF102
 2452 05a0 07       		.byte	0x7
 2453 05a1 80       		.byte	0x80
 2454 05a2 BF000000 		.4byte	0xbf
 2455 05a6 74       		.byte	0x74
 2456 05a7 0B       		.uleb128 0xb
 2457 05a8 5B230000 		.4byte	.LASF103
 2458 05ac 07       		.byte	0x7
 2459 05ad 81       		.byte	0x81
 2460 05ae BF000000 		.4byte	0xbf
 2461 05b2 76       		.byte	0x76
 2462 05b3 0B       		.uleb128 0xb
 2463 05b4 B9600000 		.4byte	.LASF104
 2464 05b8 07       		.byte	0x7
 2465 05b9 82       		.byte	0x82
 2466 05ba BF000000 		.4byte	0xbf
 2467 05be 78       		.byte	0x78
 2468 05bf 0B       		.uleb128 0xb
 2469 05c0 65540000 		.4byte	.LASF105
 2470 05c4 07       		.byte	0x7
 2471 05c5 83       		.byte	0x83
 2472 05c6 BF000000 		.4byte	0xbf
 2473 05ca 7A       		.byte	0x7a
ARM GAS  C:\Users\stijn\AppData\Local\Temp\ccD3lQ9e.s 			page 82


 2474 05cb 0B       		.uleb128 0xb
 2475 05cc 454C0000 		.4byte	.LASF106
 2476 05d0 07       		.byte	0x7
 2477 05d1 86       		.byte	0x86
 2478 05d2 A9000000 		.4byte	0xa9
 2479 05d6 7C       		.byte	0x7c
 2480 05d7 0B       		.uleb128 0xb
 2481 05d8 D86F0000 		.4byte	.LASF107
 2482 05dc 07       		.byte	0x7
 2483 05dd 87       		.byte	0x87
 2484 05de A9000000 		.4byte	0xa9
 2485 05e2 7D       		.byte	0x7d
 2486 05e3 0B       		.uleb128 0xb
 2487 05e4 4C7A0000 		.4byte	.LASF108
 2488 05e8 07       		.byte	0x7
 2489 05e9 88       		.byte	0x88
 2490 05ea A9000000 		.4byte	0xa9
 2491 05ee 7E       		.byte	0x7e
 2492 05ef 0B       		.uleb128 0xb
 2493 05f0 28260000 		.4byte	.LASF109
 2494 05f4 07       		.byte	0x7
 2495 05f5 89       		.byte	0x89
 2496 05f6 A9000000 		.4byte	0xa9
 2497 05fa 7F       		.byte	0x7f
 2498 05fb 0B       		.uleb128 0xb
 2499 05fc 18090000 		.4byte	.LASF110
 2500 0600 07       		.byte	0x7
 2501 0601 8A       		.byte	0x8a
 2502 0602 A9000000 		.4byte	0xa9
 2503 0606 80       		.byte	0x80
 2504 0607 0B       		.uleb128 0xb
 2505 0608 3E6D0000 		.4byte	.LASF111
 2506 060c 07       		.byte	0x7
 2507 060d 8D       		.byte	0x8d
 2508 060e D5000000 		.4byte	0xd5
 2509 0612 84       		.byte	0x84
 2510 0613 0B       		.uleb128 0xb
 2511 0614 86410000 		.4byte	.LASF112
 2512 0618 07       		.byte	0x7
 2513 0619 8E       		.byte	0x8e
 2514 061a D5000000 		.4byte	0xd5
 2515 061e 88       		.byte	0x88
 2516 061f 0B       		.uleb128 0xb
 2517 0620 472A0000 		.4byte	.LASF113
 2518 0624 07       		.byte	0x7
 2519 0625 8F       		.byte	0x8f
 2520 0626 D5000000 		.4byte	0xd5
 2521 062a 8C       		.byte	0x8c
 2522 062b 0B       		.uleb128 0xb
 2523 062c 0B640000 		.4byte	.LASF114
 2524 0630 07       		.byte	0x7
 2525 0631 90       		.byte	0x90
 2526 0632 D5000000 		.4byte	0xd5
 2527 0636 90       		.byte	0x90
 2528 0637 0B       		.uleb128 0xb
 2529 0638 A1550000 		.4byte	.LASF115
 2530 063c 07       		.byte	0x7
ARM GAS  C:\Users\stijn\AppData\Local\Temp\ccD3lQ9e.s 			page 83


 2531 063d 91       		.byte	0x91
 2532 063e D5000000 		.4byte	0xd5
 2533 0642 94       		.byte	0x94
 2534 0643 0B       		.uleb128 0xb
 2535 0644 050E0000 		.4byte	.LASF116
 2536 0648 07       		.byte	0x7
 2537 0649 92       		.byte	0x92
 2538 064a D5000000 		.4byte	0xd5
 2539 064e 98       		.byte	0x98
 2540 064f 0B       		.uleb128 0xb
 2541 0650 78340000 		.4byte	.LASF117
 2542 0654 07       		.byte	0x7
 2543 0655 93       		.byte	0x93
 2544 0656 D5000000 		.4byte	0xd5
 2545 065a 9C       		.byte	0x9c
 2546 065b 0B       		.uleb128 0xb
 2547 065c DE130000 		.4byte	.LASF118
 2548 0660 07       		.byte	0x7
 2549 0661 94       		.byte	0x94
 2550 0662 D5000000 		.4byte	0xd5
 2551 0666 A0       		.byte	0xa0
 2552 0667 0B       		.uleb128 0xb
 2553 0668 291E0000 		.4byte	.LASF119
 2554 066c 07       		.byte	0x7
 2555 066d 95       		.byte	0x95
 2556 066e BF000000 		.4byte	0xbf
 2557 0672 A4       		.byte	0xa4
 2558 0673 0B       		.uleb128 0xb
 2559 0674 28630000 		.4byte	.LASF120
 2560 0678 07       		.byte	0x7
 2561 0679 96       		.byte	0x96
 2562 067a BF000000 		.4byte	0xbf
 2563 067e A6       		.byte	0xa6
 2564 067f 0B       		.uleb128 0xb
 2565 0680 4E2C0000 		.4byte	.LASF121
 2566 0684 07       		.byte	0x7
 2567 0685 97       		.byte	0x97
 2568 0686 BF000000 		.4byte	0xbf
 2569 068a A8       		.byte	0xa8
 2570 068b 0B       		.uleb128 0xb
 2571 068c 5F1C0000 		.4byte	.LASF122
 2572 0690 07       		.byte	0x7
 2573 0691 98       		.byte	0x98
 2574 0692 BF000000 		.4byte	0xbf
 2575 0696 AA       		.byte	0xaa
 2576 0697 0B       		.uleb128 0xb
 2577 0698 1E2F0000 		.4byte	.LASF123
 2578 069c 07       		.byte	0x7
 2579 069d 99       		.byte	0x99
 2580 069e BF000000 		.4byte	0xbf
 2581 06a2 AC       		.byte	0xac
 2582 06a3 0B       		.uleb128 0xb
 2583 06a4 08430000 		.4byte	.LASF124
 2584 06a8 07       		.byte	0x7
 2585 06a9 9A       		.byte	0x9a
 2586 06aa BF000000 		.4byte	0xbf
 2587 06ae AE       		.byte	0xae
ARM GAS  C:\Users\stijn\AppData\Local\Temp\ccD3lQ9e.s 			page 84


 2588 06af 0B       		.uleb128 0xb
 2589 06b0 48590000 		.4byte	.LASF125
 2590 06b4 07       		.byte	0x7
 2591 06b5 9D       		.byte	0x9d
 2592 06b6 BF000000 		.4byte	0xbf
 2593 06ba B0       		.byte	0xb0
 2594 06bb 0B       		.uleb128 0xb
 2595 06bc CF5D0000 		.4byte	.LASF126
 2596 06c0 07       		.byte	0x7
 2597 06c1 9E       		.byte	0x9e
 2598 06c2 D5000000 		.4byte	0xd5
 2599 06c6 B4       		.byte	0xb4
 2600 06c7 00       		.byte	0
 2601 06c8 04       		.uleb128 0x4
 2602 06c9 6B750000 		.4byte	.LASF127
 2603 06cd 07       		.byte	0x7
 2604 06ce 9F       		.byte	0x9f
 2605 06cf B7020000 		.4byte	0x2b7
 2606 06d3 0F       		.uleb128 0xf
 2607 06d4 886D0000 		.4byte	.LASF128
 2608 06d8 08       		.byte	0x8
 2609 06d9 3106     		.2byte	0x631
 2610 06db EF010000 		.4byte	0x1ef
 2611 06df 10       		.uleb128 0x10
 2612 06e0 01       		.byte	0x1
 2613 06e1 53000000 		.4byte	0x53
 2614 06e5 09       		.byte	0x9
 2615 06e6 36       		.byte	0x36
 2616 06e7 22070000 		.4byte	0x722
 2617 06eb 11       		.uleb128 0x11
 2618 06ec AC750000 		.4byte	.LASF129
 2619 06f0 00       		.byte	0
 2620 06f1 11       		.uleb128 0x11
 2621 06f2 BD750000 		.4byte	.LASF130
 2622 06f6 01       		.byte	0x1
 2623 06f7 11       		.uleb128 0x11
 2624 06f8 23760000 		.4byte	.LASF131
 2625 06fc 07       		.byte	0x7
 2626 06fd 11       		.uleb128 0x11
 2627 06fe CE750000 		.4byte	.LASF132
 2628 0702 02       		.byte	0x2
 2629 0703 11       		.uleb128 0x11
 2630 0704 DF750000 		.4byte	.LASF133
 2631 0708 03       		.byte	0x3
 2632 0709 11       		.uleb128 0x11
 2633 070a F0750000 		.4byte	.LASF134
 2634 070e 04       		.byte	0x4
 2635 070f 11       		.uleb128 0x11
 2636 0710 01760000 		.4byte	.LASF135
 2637 0714 05       		.byte	0x5
 2638 0715 11       		.uleb128 0x11
 2639 0716 12760000 		.4byte	.LASF136
 2640 071a 06       		.byte	0x6
 2641 071b 11       		.uleb128 0x11
 2642 071c 34760000 		.4byte	.LASF137
 2643 0720 08       		.byte	0x8
 2644 0721 00       		.byte	0
ARM GAS  C:\Users\stijn\AppData\Local\Temp\ccD3lQ9e.s 			page 85


 2645 0722 04       		.uleb128 0x4
 2646 0723 75270000 		.4byte	.LASF138
 2647 0727 09       		.byte	0x9
 2648 0728 40       		.byte	0x40
 2649 0729 DF060000 		.4byte	0x6df
 2650 072d 12       		.uleb128 0x12
 2651 072e 01       		.byte	0x1
 2652 072f 53000000 		.4byte	0x53
 2653 0733 09       		.byte	0x9
 2654 0734 4702     		.2byte	0x247
 2655 0736 FD2F0000 		.4byte	0x2ffd
 2656 073a 11       		.uleb128 0x11
 2657 073b BE0B0000 		.4byte	.LASF139
 2658 073f 00       		.byte	0
 2659 0740 11       		.uleb128 0x11
 2660 0741 292C0000 		.4byte	.LASF140
 2661 0745 01       		.byte	0x1
 2662 0746 11       		.uleb128 0x11
 2663 0747 9A570000 		.4byte	.LASF141
 2664 074b 02       		.byte	0x2
 2665 074c 11       		.uleb128 0x11
 2666 074d 3E7B0000 		.4byte	.LASF142
 2667 0751 03       		.byte	0x3
 2668 0752 11       		.uleb128 0x11
 2669 0753 96150000 		.4byte	.LASF143
 2670 0757 04       		.byte	0x4
 2671 0758 11       		.uleb128 0x11
 2672 0759 A6150000 		.4byte	.LASF144
 2673 075d 05       		.byte	0x5
 2674 075e 11       		.uleb128 0x11
 2675 075f DF420000 		.4byte	.LASF145
 2676 0763 06       		.byte	0x6
 2677 0764 11       		.uleb128 0x11
 2678 0765 51550000 		.4byte	.LASF146
 2679 0769 07       		.byte	0x7
 2680 076a 11       		.uleb128 0x11
 2681 076b F03D0000 		.4byte	.LASF147
 2682 076f 08       		.byte	0x8
 2683 0770 11       		.uleb128 0x11
 2684 0771 003E0000 		.4byte	.LASF148
 2685 0775 09       		.byte	0x9
 2686 0776 11       		.uleb128 0x11
 2687 0777 103E0000 		.4byte	.LASF149
 2688 077b 0A       		.byte	0xa
 2689 077c 11       		.uleb128 0x11
 2690 077d 203E0000 		.4byte	.LASF150
 2691 0781 0B       		.byte	0xb
 2692 0782 11       		.uleb128 0x11
 2693 0783 865E0000 		.4byte	.LASF151
 2694 0787 0C       		.byte	0xc
 2695 0788 11       		.uleb128 0x11
 2696 0789 955E0000 		.4byte	.LASF152
 2697 078d 0D       		.byte	0xd
 2698 078e 11       		.uleb128 0x11
 2699 078f A45E0000 		.4byte	.LASF153
 2700 0793 0E       		.byte	0xe
 2701 0794 11       		.uleb128 0x11
ARM GAS  C:\Users\stijn\AppData\Local\Temp\ccD3lQ9e.s 			page 86


 2702 0795 B35E0000 		.4byte	.LASF154
 2703 0799 0F       		.byte	0xf
 2704 079a 11       		.uleb128 0x11
 2705 079b 303E0000 		.4byte	.LASF155
 2706 079f 10       		.byte	0x10
 2707 07a0 11       		.uleb128 0x11
 2708 07a1 403E0000 		.4byte	.LASF156
 2709 07a5 11       		.byte	0x11
 2710 07a6 11       		.uleb128 0x11
 2711 07a7 503E0000 		.4byte	.LASF157
 2712 07ab 12       		.byte	0x12
 2713 07ac 11       		.uleb128 0x11
 2714 07ad 603E0000 		.4byte	.LASF158
 2715 07b1 13       		.byte	0x13
 2716 07b2 11       		.uleb128 0x11
 2717 07b3 703E0000 		.4byte	.LASF159
 2718 07b7 14       		.byte	0x14
 2719 07b8 11       		.uleb128 0x11
 2720 07b9 803E0000 		.4byte	.LASF160
 2721 07bd 15       		.byte	0x15
 2722 07be 11       		.uleb128 0x11
 2723 07bf A2080000 		.4byte	.LASF161
 2724 07c3 16       		.byte	0x16
 2725 07c4 11       		.uleb128 0x11
 2726 07c5 B3080000 		.4byte	.LASF162
 2727 07c9 17       		.byte	0x17
 2728 07ca 11       		.uleb128 0x11
 2729 07cb C4080000 		.4byte	.LASF163
 2730 07cf 18       		.byte	0x18
 2731 07d0 11       		.uleb128 0x11
 2732 07d1 D5080000 		.4byte	.LASF164
 2733 07d5 19       		.byte	0x19
 2734 07d6 11       		.uleb128 0x11
 2735 07d7 E6080000 		.4byte	.LASF165
 2736 07db 1A       		.byte	0x1a
 2737 07dc 11       		.uleb128 0x11
 2738 07dd F7080000 		.4byte	.LASF166
 2739 07e1 1B       		.byte	0x1b
 2740 07e2 11       		.uleb128 0x11
 2741 07e3 C25E0000 		.4byte	.LASF167
 2742 07e7 1C       		.byte	0x1c
 2743 07e8 11       		.uleb128 0x11
 2744 07e9 D15E0000 		.4byte	.LASF168
 2745 07ed 1D       		.byte	0x1d
 2746 07ee 11       		.uleb128 0x11
 2747 07ef E05E0000 		.4byte	.LASF169
 2748 07f3 1E       		.byte	0x1e
 2749 07f4 11       		.uleb128 0x11
 2750 07f5 EF5E0000 		.4byte	.LASF170
 2751 07f9 1F       		.byte	0x1f
 2752 07fa 11       		.uleb128 0x11
 2753 07fb 8D470000 		.4byte	.LASF171
 2754 07ff 00       		.byte	0
 2755 0800 11       		.uleb128 0x11
 2756 0801 0F590000 		.4byte	.LASF172
 2757 0805 01       		.byte	0x1
 2758 0806 11       		.uleb128 0x11
ARM GAS  C:\Users\stijn\AppData\Local\Temp\ccD3lQ9e.s 			page 87


 2759 0807 9A4B0000 		.4byte	.LASF173
 2760 080b 02       		.byte	0x2
 2761 080c 11       		.uleb128 0x11
 2762 080d 6C2A0000 		.4byte	.LASF174
 2763 0811 03       		.byte	0x3
 2764 0812 11       		.uleb128 0x11
 2765 0813 69170000 		.4byte	.LASF175
 2766 0817 04       		.byte	0x4
 2767 0818 11       		.uleb128 0x11
 2768 0819 74170000 		.4byte	.LASF176
 2769 081d 05       		.byte	0x5
 2770 081e 11       		.uleb128 0x11
 2771 081f A0060000 		.4byte	.LASF177
 2772 0823 06       		.byte	0x6
 2773 0824 11       		.uleb128 0x11
 2774 0825 FC190000 		.4byte	.LASF178
 2775 0829 07       		.byte	0x7
 2776 082a 11       		.uleb128 0x11
 2777 082b AC170000 		.4byte	.LASF179
 2778 082f 08       		.byte	0x8
 2779 0830 11       		.uleb128 0x11
 2780 0831 AD0D0000 		.4byte	.LASF180
 2781 0835 09       		.byte	0x9
 2782 0836 11       		.uleb128 0x11
 2783 0837 B5030000 		.4byte	.LASF181
 2784 083b 0A       		.byte	0xa
 2785 083c 11       		.uleb128 0x11
 2786 083d 93680000 		.4byte	.LASF182
 2787 0841 0B       		.byte	0xb
 2788 0842 11       		.uleb128 0x11
 2789 0843 0F770000 		.4byte	.LASF183
 2790 0847 0C       		.byte	0xc
 2791 0848 11       		.uleb128 0x11
 2792 0849 86720000 		.4byte	.LASF184
 2793 084d 0D       		.byte	0xd
 2794 084e 11       		.uleb128 0x11
 2795 084f 34430000 		.4byte	.LASF185
 2796 0853 10       		.byte	0x10
 2797 0854 11       		.uleb128 0x11
 2798 0855 0B5C0000 		.4byte	.LASF186
 2799 0859 14       		.byte	0x14
 2800 085a 11       		.uleb128 0x11
 2801 085b 47030000 		.4byte	.LASF187
 2802 085f 18       		.byte	0x18
 2803 0860 11       		.uleb128 0x11
 2804 0861 F16E0000 		.4byte	.LASF188
 2805 0865 00       		.byte	0
 2806 0866 11       		.uleb128 0x11
 2807 0867 B9000000 		.4byte	.LASF189
 2808 086b 01       		.byte	0x1
 2809 086c 11       		.uleb128 0x11
 2810 086d B4020000 		.4byte	.LASF190
 2811 0871 02       		.byte	0x2
 2812 0872 11       		.uleb128 0x11
 2813 0873 0A4E0000 		.4byte	.LASF191
 2814 0877 03       		.byte	0x3
 2815 0878 11       		.uleb128 0x11
ARM GAS  C:\Users\stijn\AppData\Local\Temp\ccD3lQ9e.s 			page 88


 2816 0879 480D0000 		.4byte	.LASF192
 2817 087d 04       		.byte	0x4
 2818 087e 11       		.uleb128 0x11
 2819 087f 530D0000 		.4byte	.LASF193
 2820 0883 05       		.byte	0x5
 2821 0884 11       		.uleb128 0x11
 2822 0885 FA2C0000 		.4byte	.LASF194
 2823 0889 06       		.byte	0x6
 2824 088a 11       		.uleb128 0x11
 2825 088b 00410000 		.4byte	.LASF195
 2826 088f 07       		.byte	0x7
 2827 0890 11       		.uleb128 0x11
 2828 0891 6F040000 		.4byte	.LASF196
 2829 0895 08       		.byte	0x8
 2830 0896 11       		.uleb128 0x11
 2831 0897 2E150000 		.4byte	.LASF197
 2832 089b 09       		.byte	0x9
 2833 089c 11       		.uleb128 0x11
 2834 089d BC4F0000 		.4byte	.LASF198
 2835 08a1 0A       		.byte	0xa
 2836 08a2 11       		.uleb128 0x11
 2837 08a3 45760000 		.4byte	.LASF199
 2838 08a7 0B       		.byte	0xb
 2839 08a8 11       		.uleb128 0x11
 2840 08a9 EA1D0000 		.4byte	.LASF200
 2841 08ad 0C       		.byte	0xc
 2842 08ae 11       		.uleb128 0x11
 2843 08af 651A0000 		.4byte	.LASF201
 2844 08b3 0D       		.byte	0xd
 2845 08b4 11       		.uleb128 0x11
 2846 08b5 F4710000 		.4byte	.LASF202
 2847 08b9 14       		.byte	0x14
 2848 08ba 11       		.uleb128 0x11
 2849 08bb 3C5D0000 		.4byte	.LASF203
 2850 08bf 18       		.byte	0x18
 2851 08c0 11       		.uleb128 0x11
 2852 08c1 F7600000 		.4byte	.LASF204
 2853 08c5 1D       		.byte	0x1d
 2854 08c6 11       		.uleb128 0x11
 2855 08c7 6D180000 		.4byte	.LASF205
 2856 08cb 00       		.byte	0
 2857 08cc 11       		.uleb128 0x11
 2858 08cd DA230000 		.4byte	.LASF206
 2859 08d1 01       		.byte	0x1
 2860 08d2 11       		.uleb128 0x11
 2861 08d3 DB340000 		.4byte	.LASF207
 2862 08d7 02       		.byte	0x2
 2863 08d8 11       		.uleb128 0x11
 2864 08d9 B8710000 		.4byte	.LASF208
 2865 08dd 03       		.byte	0x3
 2866 08de 11       		.uleb128 0x11
 2867 08df 06030000 		.4byte	.LASF209
 2868 08e3 04       		.byte	0x4
 2869 08e4 11       		.uleb128 0x11
 2870 08e5 11030000 		.4byte	.LASF210
 2871 08e9 05       		.byte	0x5
 2872 08ea 11       		.uleb128 0x11
ARM GAS  C:\Users\stijn\AppData\Local\Temp\ccD3lQ9e.s 			page 89


 2873 08eb 94520000 		.4byte	.LASF211
 2874 08ef 06       		.byte	0x6
 2875 08f0 11       		.uleb128 0x11
 2876 08f1 8F660000 		.4byte	.LASF212
 2877 08f5 07       		.byte	0x7
 2878 08f6 11       		.uleb128 0x11
 2879 08f7 F3330000 		.4byte	.LASF213
 2880 08fb 08       		.byte	0x8
 2881 08fc 11       		.uleb128 0x11
 2882 08fd 1B290000 		.4byte	.LASF214
 2883 0901 09       		.byte	0x9
 2884 0902 11       		.uleb128 0x11
 2885 0903 2D1F0000 		.4byte	.LASF215
 2886 0907 0A       		.byte	0xa
 2887 0908 11       		.uleb128 0x11
 2888 0909 B5070000 		.4byte	.LASF216
 2889 090d 0B       		.byte	0xb
 2890 090e 11       		.uleb128 0x11
 2891 090f 49420000 		.4byte	.LASF217
 2892 0913 0C       		.byte	0xc
 2893 0914 11       		.uleb128 0x11
 2894 0915 D83E0000 		.4byte	.LASF218
 2895 0919 0D       		.byte	0xd
 2896 091a 11       		.uleb128 0x11
 2897 091b 22460000 		.4byte	.LASF219
 2898 091f 12       		.byte	0x12
 2899 0920 11       		.uleb128 0x11
 2900 0921 EB630000 		.4byte	.LASF220
 2901 0925 13       		.byte	0x13
 2902 0926 11       		.uleb128 0x11
 2903 0927 F5260000 		.4byte	.LASF221
 2904 092b 14       		.byte	0x14
 2905 092c 11       		.uleb128 0x11
 2906 092d 48400000 		.4byte	.LASF222
 2907 0931 00       		.byte	0
 2908 0932 11       		.uleb128 0x11
 2909 0933 D3470000 		.4byte	.LASF223
 2910 0937 01       		.byte	0x1
 2911 0938 11       		.uleb128 0x11
 2912 0939 BC670000 		.4byte	.LASF224
 2913 093d 02       		.byte	0x2
 2914 093e 11       		.uleb128 0x11
 2915 093f 35190000 		.4byte	.LASF225
 2916 0943 03       		.byte	0x3
 2917 0944 11       		.uleb128 0x11
 2918 0945 F9720000 		.4byte	.LASF226
 2919 0949 04       		.byte	0x4
 2920 094a 11       		.uleb128 0x11
 2921 094b 04730000 		.4byte	.LASF227
 2922 094f 05       		.byte	0x5
 2923 0950 11       		.uleb128 0x11
 2924 0951 067A0000 		.4byte	.LASF228
 2925 0955 06       		.byte	0x6
 2926 0956 11       		.uleb128 0x11
 2927 0957 08100000 		.4byte	.LASF229
 2928 095b 07       		.byte	0x7
 2929 095c 11       		.uleb128 0x11
ARM GAS  C:\Users\stijn\AppData\Local\Temp\ccD3lQ9e.s 			page 90


 2930 095d 05340000 		.4byte	.LASF230
 2931 0961 08       		.byte	0x8
 2932 0962 11       		.uleb128 0x11
 2933 0963 0C450000 		.4byte	.LASF231
 2934 0967 09       		.byte	0x9
 2935 0968 11       		.uleb128 0x11
 2936 0969 9A6B0000 		.4byte	.LASF232
 2937 096d 0A       		.byte	0xa
 2938 096e 11       		.uleb128 0x11
 2939 096f DB160000 		.4byte	.LASF233
 2940 0973 0B       		.byte	0xb
 2941 0974 11       		.uleb128 0x11
 2942 0975 F0650000 		.4byte	.LASF234
 2943 0979 0C       		.byte	0xc
 2944 097a 11       		.uleb128 0x11
 2945 097b 89620000 		.4byte	.LASF235
 2946 097f 0D       		.byte	0xd
 2947 0980 11       		.uleb128 0x11
 2948 0981 2C560000 		.4byte	.LASF236
 2949 0985 12       		.byte	0x12
 2950 0986 11       		.uleb128 0x11
 2951 0987 E7720000 		.4byte	.LASF237
 2952 098b 13       		.byte	0x13
 2953 098c 11       		.uleb128 0x11
 2954 098d 6F560000 		.4byte	.LASF238
 2955 0991 14       		.byte	0x14
 2956 0992 11       		.uleb128 0x11
 2957 0993 23670000 		.4byte	.LASF239
 2958 0997 00       		.byte	0
 2959 0998 11       		.uleb128 0x11
 2960 0999 BC6B0000 		.4byte	.LASF240
 2961 099d 01       		.byte	0x1
 2962 099e 11       		.uleb128 0x11
 2963 099f 2C1D0000 		.4byte	.LASF241
 2964 09a3 02       		.byte	0x2
 2965 09a4 11       		.uleb128 0x11
 2966 09a5 843D0000 		.4byte	.LASF242
 2967 09a9 03       		.byte	0x3
 2968 09aa 11       		.uleb128 0x11
 2969 09ab F4680000 		.4byte	.LASF243
 2970 09af 04       		.byte	0x4
 2971 09b0 11       		.uleb128 0x11
 2972 09b1 FF680000 		.4byte	.LASF244
 2973 09b5 05       		.byte	0x5
 2974 09b6 11       		.uleb128 0x11
 2975 09b7 A1230000 		.4byte	.LASF245
 2976 09bb 06       		.byte	0x6
 2977 09bc 11       		.uleb128 0x11
 2978 09bd 80370000 		.4byte	.LASF246
 2979 09c1 07       		.byte	0x7
 2980 09c2 11       		.uleb128 0x11
 2981 09c3 F4500000 		.4byte	.LASF247
 2982 09c7 08       		.byte	0x8
 2983 09c8 11       		.uleb128 0x11
 2984 09c9 43460000 		.4byte	.LASF248
 2985 09cd 09       		.byte	0x9
 2986 09ce 11       		.uleb128 0x11
ARM GAS  C:\Users\stijn\AppData\Local\Temp\ccD3lQ9e.s 			page 91


 2987 09cf 663C0000 		.4byte	.LASF249
 2988 09d3 0A       		.byte	0xa
 2989 09d4 11       		.uleb128 0x11
 2990 09d5 C9240000 		.4byte	.LASF250
 2991 09d9 0B       		.byte	0xb
 2992 09da 11       		.uleb128 0x11
 2993 09db 816F0000 		.4byte	.LASF251
 2994 09df 0C       		.byte	0xc
 2995 09e0 11       		.uleb128 0x11
 2996 09e1 65090000 		.4byte	.LASF252
 2997 09e5 0D       		.byte	0xd
 2998 09e6 11       		.uleb128 0x11
 2999 09e7 4C160000 		.4byte	.LASF253
 3000 09eb 12       		.byte	0x12
 3001 09ec 11       		.uleb128 0x11
 3002 09ed 31600000 		.4byte	.LASF254
 3003 09f1 14       		.byte	0x14
 3004 09f2 11       		.uleb128 0x11
 3005 09f3 085B0000 		.4byte	.LASF255
 3006 09f7 19       		.byte	0x19
 3007 09f8 11       		.uleb128 0x11
 3008 09f9 2F100000 		.4byte	.LASF256
 3009 09fd 00       		.byte	0
 3010 09fe 11       		.uleb128 0x11
 3011 09ff 59120000 		.4byte	.LASF257
 3012 0a03 01       		.byte	0x1
 3013 0a04 11       		.uleb128 0x11
 3014 0a05 38500000 		.4byte	.LASF258
 3015 0a09 02       		.byte	0x2
 3016 0a0a 11       		.uleb128 0x11
 3017 0a0b 57610000 		.4byte	.LASF259
 3018 0a0f 03       		.byte	0x3
 3019 0a10 11       		.uleb128 0x11
 3020 0a11 5A5E0000 		.4byte	.LASF260
 3021 0a15 04       		.byte	0x4
 3022 0a16 11       		.uleb128 0x11
 3023 0a17 655E0000 		.4byte	.LASF261
 3024 0a1b 05       		.byte	0x5
 3025 0a1c 11       		.uleb128 0x11
 3026 0a1d 99490000 		.4byte	.LASF262
 3027 0a21 06       		.byte	0x6
 3028 0a22 11       		.uleb128 0x11
 3029 0a23 E85C0000 		.4byte	.LASF263
 3030 0a27 07       		.byte	0x7
 3031 0a28 11       		.uleb128 0x11
 3032 0a29 4C640000 		.4byte	.LASF264
 3033 0a2d 08       		.byte	0x8
 3034 0a2e 11       		.uleb128 0x11
 3035 0a2f EC740000 		.4byte	.LASF265
 3036 0a33 09       		.byte	0x9
 3037 0a34 11       		.uleb128 0x11
 3038 0a35 DF0B0000 		.4byte	.LASF266
 3039 0a39 0A       		.byte	0xa
 3040 0a3a 11       		.uleb128 0x11
 3041 0a3b D2320000 		.4byte	.LASF267
 3042 0a3f 0B       		.byte	0xb
 3043 0a40 11       		.uleb128 0x11
ARM GAS  C:\Users\stijn\AppData\Local\Temp\ccD3lQ9e.s 			page 92


 3044 0a41 73300000 		.4byte	.LASF268
 3045 0a45 0C       		.byte	0xc
 3046 0a46 11       		.uleb128 0x11
 3047 0a47 5A2C0000 		.4byte	.LASF269
 3048 0a4b 0D       		.byte	0xd
 3049 0a4c 11       		.uleb128 0x11
 3050 0a4d FB040000 		.4byte	.LASF270
 3051 0a51 10       		.byte	0x10
 3052 0a52 11       		.uleb128 0x11
 3053 0a53 C04D0000 		.4byte	.LASF271
 3054 0a57 12       		.byte	0x12
 3055 0a58 11       		.uleb128 0x11
 3056 0a59 E94C0000 		.4byte	.LASF272
 3057 0a5d 14       		.byte	0x14
 3058 0a5e 11       		.uleb128 0x11
 3059 0a5f FE340000 		.4byte	.LASF273
 3060 0a63 19       		.byte	0x19
 3061 0a64 11       		.uleb128 0x11
 3062 0a65 286A0000 		.4byte	.LASF274
 3063 0a69 00       		.byte	0
 3064 0a6a 11       		.uleb128 0x11
 3065 0a6b 21280000 		.4byte	.LASF275
 3066 0a6f 01       		.byte	0x1
 3067 0a70 11       		.uleb128 0x11
 3068 0a71 E7710000 		.4byte	.LASF276
 3069 0a75 02       		.byte	0x2
 3070 0a76 11       		.uleb128 0x11
 3071 0a77 BB760000 		.4byte	.LASF277
 3072 0a7b 03       		.byte	0x3
 3073 0a7c 11       		.uleb128 0x11
 3074 0a7d 754A0000 		.4byte	.LASF278
 3075 0a81 04       		.byte	0x4
 3076 0a82 11       		.uleb128 0x11
 3077 0a83 804A0000 		.4byte	.LASF279
 3078 0a87 05       		.byte	0x5
 3079 0a88 11       		.uleb128 0x11
 3080 0a89 41180000 		.4byte	.LASF280
 3081 0a8d 06       		.byte	0x6
 3082 0a8e 11       		.uleb128 0x11
 3083 0a8f 002B0000 		.4byte	.LASF281
 3084 0a93 07       		.byte	0x7
 3085 0a94 11       		.uleb128 0x11
 3086 0a95 B6550000 		.4byte	.LASF282
 3087 0a99 08       		.byte	0x8
 3088 0a9a 11       		.uleb128 0x11
 3089 0a9b 814B0000 		.4byte	.LASF283
 3090 0a9f 09       		.byte	0x9
 3091 0aa0 11       		.uleb128 0x11
 3092 0aa1 9E100000 		.4byte	.LASF284
 3093 0aa5 0A       		.byte	0xa
 3094 0aa6 11       		.uleb128 0x11
 3095 0aa7 F6290000 		.4byte	.LASF285
 3096 0aab 0B       		.byte	0xb
 3097 0aac 11       		.uleb128 0x11
 3098 0aad 92460000 		.4byte	.LASF286
 3099 0ab1 0C       		.byte	0xc
 3100 0ab2 11       		.uleb128 0x11
ARM GAS  C:\Users\stijn\AppData\Local\Temp\ccD3lQ9e.s 			page 93


 3101 0ab3 26430000 		.4byte	.LASF287
 3102 0ab7 0D       		.byte	0xd
 3103 0ab8 11       		.uleb128 0x11
 3104 0ab9 25550000 		.4byte	.LASF288
 3105 0abd 12       		.byte	0x12
 3106 0abe 11       		.uleb128 0x11
 3107 0abf BF730000 		.4byte	.LASF289
 3108 0ac3 13       		.byte	0x13
 3109 0ac4 11       		.uleb128 0x11
 3110 0ac5 E05F0000 		.4byte	.LASF290
 3111 0ac9 14       		.byte	0x14
 3112 0aca 11       		.uleb128 0x11
 3113 0acb 022C0000 		.4byte	.LASF291
 3114 0acf 18       		.byte	0x18
 3115 0ad0 11       		.uleb128 0x11
 3116 0ad1 32130000 		.4byte	.LASF292
 3117 0ad5 00       		.byte	0
 3118 0ad6 11       		.uleb128 0x11
 3119 0ad7 064C0000 		.4byte	.LASF293
 3120 0adb 01       		.byte	0x1
 3121 0adc 11       		.uleb128 0x11
 3122 0add FD270000 		.4byte	.LASF294
 3123 0ae1 02       		.byte	0x2
 3124 0ae2 11       		.uleb128 0x11
 3125 0ae3 C61D0000 		.4byte	.LASF295
 3126 0ae7 03       		.byte	0x3
 3127 0ae8 11       		.uleb128 0x11
 3128 0ae9 52400000 		.4byte	.LASF296
 3129 0aed 04       		.byte	0x4
 3130 0aee 11       		.uleb128 0x11
 3131 0aef 5D400000 		.4byte	.LASF297
 3132 0af3 05       		.byte	0x5
 3133 0af4 11       		.uleb128 0x11
 3134 0af5 903E0000 		.4byte	.LASF298
 3135 0af9 06       		.byte	0x6
 3136 0afa 11       		.uleb128 0x11
 3137 0afb E5500000 		.4byte	.LASF299
 3138 0aff 07       		.byte	0x7
 3139 0b00 11       		.uleb128 0x11
 3140 0b01 50670000 		.4byte	.LASF300
 3141 0b05 08       		.byte	0x8
 3142 0b06 11       		.uleb128 0x11
 3143 0b07 E0780000 		.4byte	.LASF301
 3144 0b0b 09       		.byte	0x9
 3145 0b0c 11       		.uleb128 0x11
 3146 0b0d 7A5D0000 		.4byte	.LASF302
 3147 0b11 0A       		.byte	0xa
 3148 0b12 11       		.uleb128 0x11
 3149 0b13 5E390000 		.4byte	.LASF303
 3150 0b17 0B       		.byte	0xb
 3151 0b18 11       		.uleb128 0x11
 3152 0b19 E76A0000 		.4byte	.LASF304
 3153 0b1d 0C       		.byte	0xc
 3154 0b1e 11       		.uleb128 0x11
 3155 0b1f 15670000 		.4byte	.LASF305
 3156 0b23 0D       		.byte	0xd
 3157 0b24 11       		.uleb128 0x11
ARM GAS  C:\Users\stijn\AppData\Local\Temp\ccD3lQ9e.s 			page 94


 3158 0b25 FE650000 		.4byte	.LASF306
 3159 0b29 12       		.byte	0x12
 3160 0b2a 11       		.uleb128 0x11
 3161 0b2b 5A060000 		.4byte	.LASF307
 3162 0b2f 13       		.byte	0x13
 3163 0b30 11       		.uleb128 0x11
 3164 0b31 DA100000 		.4byte	.LASF308
 3165 0b35 14       		.byte	0x14
 3166 0b36 11       		.uleb128 0x11
 3167 0b37 D80A0000 		.4byte	.LASF309
 3168 0b3b 18       		.byte	0x18
 3169 0b3c 11       		.uleb128 0x11
 3170 0b3d 4A3B0000 		.4byte	.LASF310
 3171 0b41 00       		.byte	0
 3172 0b42 11       		.uleb128 0x11
 3173 0b43 27700000 		.4byte	.LASF311
 3174 0b47 01       		.byte	0x1
 3175 0b48 11       		.uleb128 0x11
 3176 0b49 325B0000 		.4byte	.LASF312
 3177 0b4d 02       		.byte	0x2
 3178 0b4e 11       		.uleb128 0x11
 3179 0b4f D0410000 		.4byte	.LASF313
 3180 0b53 03       		.byte	0x3
 3181 0b54 11       		.uleb128 0x11
 3182 0b55 8B350000 		.4byte	.LASF314
 3183 0b59 04       		.byte	0x4
 3184 0b5a 11       		.uleb128 0x11
 3185 0b5b 96350000 		.4byte	.LASF315
 3186 0b5f 05       		.byte	0x5
 3187 0b60 11       		.uleb128 0x11
 3188 0b61 D4640000 		.4byte	.LASF316
 3189 0b65 06       		.byte	0x6
 3190 0b66 11       		.uleb128 0x11
 3191 0b67 39780000 		.4byte	.LASF317
 3192 0b6b 07       		.byte	0x7
 3193 0b6c 11       		.uleb128 0x11
 3194 0b6d A6720000 		.4byte	.LASF318
 3195 0b71 08       		.byte	0x8
 3196 0b72 11       		.uleb128 0x11
 3197 0b73 6D260000 		.4byte	.LASF319
 3198 0b77 09       		.byte	0x9
 3199 0b78 11       		.uleb128 0x11
 3200 0b79 7E2C0000 		.4byte	.LASF320
 3201 0b7d 0A       		.byte	0xa
 3202 0b7e 11       		.uleb128 0x11
 3203 0b7f AB460000 		.4byte	.LASF321
 3204 0b83 0B       		.byte	0xb
 3205 0b84 11       		.uleb128 0x11
 3206 0b85 64110000 		.4byte	.LASF322
 3207 0b89 0C       		.byte	0xc
 3208 0b8a 11       		.uleb128 0x11
 3209 0b8b 4D0E0000 		.4byte	.LASF323
 3210 0b8f 0D       		.byte	0xd
 3211 0b90 11       		.uleb128 0x11
 3212 0b91 664F0000 		.4byte	.LASF324
 3213 0b95 12       		.byte	0x12
 3214 0b96 11       		.uleb128 0x11
ARM GAS  C:\Users\stijn\AppData\Local\Temp\ccD3lQ9e.s 			page 95


 3215 0b97 B66F0000 		.4byte	.LASF325
 3216 0b9b 14       		.byte	0x14
 3217 0b9c 11       		.uleb128 0x11
 3218 0b9d 73620000 		.4byte	.LASF326
 3219 0ba1 00       		.byte	0
 3220 0ba2 11       		.uleb128 0x11
 3221 0ba3 4E170000 		.4byte	.LASF327
 3222 0ba7 01       		.byte	0x1
 3223 0ba8 11       		.uleb128 0x11
 3224 0ba9 BD100000 		.4byte	.LASF328
 3225 0bad 02       		.byte	0x2
 3226 0bae 11       		.uleb128 0x11
 3227 0baf D0650000 		.4byte	.LASF329
 3228 0bb3 03       		.byte	0x3
 3229 0bb4 11       		.uleb128 0x11
 3230 0bb5 65290000 		.4byte	.LASF330
 3231 0bb9 04       		.byte	0x4
 3232 0bba 11       		.uleb128 0x11
 3233 0bbb 70290000 		.4byte	.LASF331
 3234 0bbf 05       		.byte	0x5
 3235 0bc0 11       		.uleb128 0x11
 3236 0bc1 D70E0000 		.4byte	.LASF332
 3237 0bc5 06       		.byte	0x6
 3238 0bc6 11       		.uleb128 0x11
 3239 0bc7 8A210000 		.4byte	.LASF333
 3240 0bcb 07       		.byte	0x7
 3241 0bcc 11       		.uleb128 0x11
 3242 0bcd 3A1A0000 		.4byte	.LASF334
 3243 0bd1 08       		.byte	0x8
 3244 0bd2 11       		.uleb128 0x11
 3245 0bd3 114B0000 		.4byte	.LASF335
 3246 0bd7 09       		.byte	0x9
 3247 0bd8 11       		.uleb128 0x11
 3248 0bd9 907A0000 		.4byte	.LASF336
 3249 0bdd 0A       		.byte	0xa
 3250 0bde 11       		.uleb128 0x11
 3251 0bdf 8C540000 		.4byte	.LASF337
 3252 0be3 0B       		.byte	0xb
 3253 0be4 11       		.uleb128 0x11
 3254 0be5 06360000 		.4byte	.LASF338
 3255 0be9 0C       		.byte	0xc
 3256 0bea 11       		.uleb128 0x11
 3257 0beb B8310000 		.4byte	.LASF339
 3258 0bef 0D       		.byte	0xd
 3259 0bf0 11       		.uleb128 0x11
 3260 0bf1 3F090000 		.4byte	.LASF340
 3261 0bf5 12       		.byte	0x12
 3262 0bf6 11       		.uleb128 0x11
 3263 0bf7 FA700000 		.4byte	.LASF341
 3264 0bfb 14       		.byte	0x14
 3265 0bfc 11       		.uleb128 0x11
 3266 0bfd 9B0B0000 		.4byte	.LASF342
 3267 0c01 00       		.byte	0
 3268 0c02 11       		.uleb128 0x11
 3269 0c03 BB3B0000 		.4byte	.LASF343
 3270 0c07 01       		.byte	0x1
 3271 0c08 11       		.uleb128 0x11
ARM GAS  C:\Users\stijn\AppData\Local\Temp\ccD3lQ9e.s 			page 96


 3272 0c09 0C440000 		.4byte	.LASF344
 3273 0c0d 02       		.byte	0x2
 3274 0c0e 11       		.uleb128 0x11
 3275 0c0f 210D0000 		.4byte	.LASF345
 3276 0c13 03       		.byte	0x3
 3277 0c14 11       		.uleb128 0x11
 3278 0c15 E91E0000 		.4byte	.LASF346
 3279 0c19 04       		.byte	0x4
 3280 0c1a 11       		.uleb128 0x11
 3281 0c1b F41E0000 		.4byte	.LASF347
 3282 0c1f 05       		.byte	0x5
 3283 0c20 11       		.uleb128 0x11
 3284 0c21 50340000 		.4byte	.LASF348
 3285 0c25 06       		.byte	0x6
 3286 0c26 11       		.uleb128 0x11
 3287 0c27 40470000 		.4byte	.LASF349
 3288 0c2b 07       		.byte	0x7
 3289 0c2c 11       		.uleb128 0x11
 3290 0c2d 37120000 		.4byte	.LASF350
 3291 0c31 08       		.byte	0x8
 3292 0c32 11       		.uleb128 0x11
 3293 0c33 DB4F0000 		.4byte	.LASF351
 3294 0c37 09       		.byte	0x9
 3295 0c38 11       		.uleb128 0x11
 3296 0c39 294A0000 		.4byte	.LASF352
 3297 0c3d 0A       		.byte	0xa
 3298 0c3e 11       		.uleb128 0x11
 3299 0c3f A2630000 		.4byte	.LASF353
 3300 0c43 0B       		.byte	0xb
 3301 0c44 11       		.uleb128 0x11
 3302 0c45 B01E0000 		.4byte	.LASF354
 3303 0c49 0C       		.byte	0xc
 3304 0c4a 11       		.uleb128 0x11
 3305 0c4b 1D1D0000 		.4byte	.LASF355
 3306 0c4f 0D       		.byte	0xd
 3307 0c50 11       		.uleb128 0x11
 3308 0c51 EF0A0000 		.4byte	.LASF356
 3309 0c55 14       		.byte	0x14
 3310 0c56 11       		.uleb128 0x11
 3311 0c57 97320000 		.4byte	.LASF357
 3312 0c5b 00       		.byte	0
 3313 0c5c 11       		.uleb128 0x11
 3314 0c5d 465F0000 		.4byte	.LASF358
 3315 0c61 01       		.byte	0x1
 3316 0c62 11       		.uleb128 0x11
 3317 0c63 DB760000 		.4byte	.LASF359
 3318 0c67 02       		.byte	0x2
 3319 0c68 11       		.uleb128 0x11
 3320 0c69 8F310000 		.4byte	.LASF360
 3321 0c6d 03       		.byte	0x3
 3322 0c6e 11       		.uleb128 0x11
 3323 0c6f F4130000 		.4byte	.LASF361
 3324 0c73 04       		.byte	0x4
 3325 0c74 11       		.uleb128 0x11
 3326 0c75 FF130000 		.4byte	.LASF362
 3327 0c79 05       		.byte	0x5
 3328 0c7a 11       		.uleb128 0x11
ARM GAS  C:\Users\stijn\AppData\Local\Temp\ccD3lQ9e.s 			page 97


 3329 0c7b BE5A0000 		.4byte	.LASF363
 3330 0c7f 06       		.byte	0x6
 3331 0c80 11       		.uleb128 0x11
 3332 0c81 4B6E0000 		.4byte	.LASF364
 3333 0c85 07       		.byte	0x7
 3334 0c86 11       		.uleb128 0x11
 3335 0c87 114A0000 		.4byte	.LASF365
 3336 0c8b 08       		.byte	0x8
 3337 0c8c 11       		.uleb128 0x11
 3338 0c8d 0C230000 		.4byte	.LASF366
 3339 0c91 09       		.byte	0x9
 3340 0c92 11       		.uleb128 0x11
 3341 0c93 EC190000 		.4byte	.LASF367
 3342 0c97 0A       		.byte	0xa
 3343 0c98 11       		.uleb128 0x11
 3344 0c99 D7070000 		.4byte	.LASF368
 3345 0c9d 0B       		.byte	0xb
 3346 0c9e 11       		.uleb128 0x11
 3347 0c9f 6F450000 		.4byte	.LASF369
 3348 0ca3 0C       		.byte	0xc
 3349 0ca4 11       		.uleb128 0x11
 3350 0ca5 FD430000 		.4byte	.LASF370
 3351 0ca9 0D       		.byte	0xd
 3352 0caa 11       		.uleb128 0x11
 3353 0cab 60200000 		.4byte	.LASF371
 3354 0caf 14       		.byte	0x14
 3355 0cb0 11       		.uleb128 0x11
 3356 0cb1 64040000 		.4byte	.LASF372
 3357 0cb5 00       		.byte	0
 3358 0cb6 11       		.uleb128 0x11
 3359 0cb7 1A790000 		.4byte	.LASF373
 3360 0cbb 00       		.byte	0
 3361 0cbc 11       		.uleb128 0x11
 3362 0cbd A70F0000 		.4byte	.LASF374
 3363 0cc1 00       		.byte	0
 3364 0cc2 11       		.uleb128 0x11
 3365 0cc3 C3740000 		.4byte	.LASF375
 3366 0cc7 01       		.byte	0x1
 3367 0cc8 11       		.uleb128 0x11
 3368 0cc9 7F1B0000 		.4byte	.LASF376
 3369 0ccd 02       		.byte	0x2
 3370 0cce 11       		.uleb128 0x11
 3371 0ccf 55460000 		.4byte	.LASF377
 3372 0cd3 03       		.byte	0x3
 3373 0cd4 11       		.uleb128 0x11
 3374 0cd5 28010000 		.4byte	.LASF378
 3375 0cd9 04       		.byte	0x4
 3376 0cda 11       		.uleb128 0x11
 3377 0cdb 33010000 		.4byte	.LASF379
 3378 0cdf 05       		.byte	0x5
 3379 0ce0 11       		.uleb128 0x11
 3380 0ce1 EE270000 		.4byte	.LASF380
 3381 0ce5 06       		.byte	0x6
 3382 0ce6 11       		.uleb128 0x11
 3383 0ce7 F13B0000 		.4byte	.LASF381
 3384 0ceb 07       		.byte	0x7
 3385 0cec 11       		.uleb128 0x11
ARM GAS  C:\Users\stijn\AppData\Local\Temp\ccD3lQ9e.s 			page 98


 3386 0ced A6180000 		.4byte	.LASF382
 3387 0cf1 08       		.byte	0x8
 3388 0cf2 11       		.uleb128 0x11
 3389 0cf3 155D0000 		.4byte	.LASF383
 3390 0cf7 09       		.byte	0x9
 3391 0cf8 11       		.uleb128 0x11
 3392 0cf9 681F0000 		.4byte	.LASF384
 3393 0cfd 0A       		.byte	0xa
 3394 0cfe 11       		.uleb128 0x11
 3395 0cff 30690000 		.4byte	.LASF385
 3396 0d03 0B       		.byte	0xb
 3397 0d04 11       		.uleb128 0x11
 3398 0d05 A9120000 		.4byte	.LASF386
 3399 0d09 0C       		.byte	0xc
 3400 0d0a 11       		.uleb128 0x11
 3401 0d0b 55110000 		.4byte	.LASF387
 3402 0d0f 0D       		.byte	0xd
 3403 0d10 11       		.uleb128 0x11
 3404 0d11 BD5D0000 		.4byte	.LASF388
 3405 0d15 12       		.byte	0x12
 3406 0d16 11       		.uleb128 0x11
 3407 0d17 EC7A0000 		.4byte	.LASF389
 3408 0d1b 13       		.byte	0x13
 3409 0d1c 11       		.uleb128 0x11
 3410 0d1d 9E640000 		.4byte	.LASF390
 3411 0d21 14       		.byte	0x14
 3412 0d22 11       		.uleb128 0x11
 3413 0d23 4E570000 		.4byte	.LASF391
 3414 0d27 18       		.byte	0x18
 3415 0d28 11       		.uleb128 0x11
 3416 0d29 DA580000 		.4byte	.LASF392
 3417 0d2d 1C       		.byte	0x1c
 3418 0d2e 11       		.uleb128 0x11
 3419 0d2f 4E360000 		.4byte	.LASF393
 3420 0d33 00       		.byte	0
 3421 0d34 11       		.uleb128 0x11
 3422 0d35 F11B0000 		.4byte	.LASF394
 3423 0d39 01       		.byte	0x1
 3424 0d3a 11       		.uleb128 0x11
 3425 0d3b E64D0000 		.4byte	.LASF395
 3426 0d3f 02       		.byte	0x2
 3427 0d40 11       		.uleb128 0x11
 3428 0d41 9C6A0000 		.4byte	.LASF396
 3429 0d45 03       		.byte	0x3
 3430 0d46 11       		.uleb128 0x11
 3431 0d47 1B720000 		.4byte	.LASF397
 3432 0d4b 04       		.byte	0x4
 3433 0d4c 11       		.uleb128 0x11
 3434 0d4d 26720000 		.4byte	.LASF398
 3435 0d51 05       		.byte	0x5
 3436 0d52 11       		.uleb128 0x11
 3437 0d53 794F0000 		.4byte	.LASF399
 3438 0d57 06       		.byte	0x6
 3439 0d58 11       		.uleb128 0x11
 3440 0d59 B8620000 		.4byte	.LASF400
 3441 0d5d 07       		.byte	0x7
 3442 0d5e 11       		.uleb128 0x11
ARM GAS  C:\Users\stijn\AppData\Local\Temp\ccD3lQ9e.s 			page 99


 3443 0d5f 184E0000 		.4byte	.LASF401
 3444 0d63 08       		.byte	0x8
 3445 0d64 11       		.uleb128 0x11
 3446 0d65 46150000 		.4byte	.LASF402
 3447 0d69 09       		.byte	0x9
 3448 0d6a 11       		.uleb128 0x11
 3449 0d6b DA6B0000 		.4byte	.LASF403
 3450 0d6f 0A       		.byte	0xa
 3451 0d70 11       		.uleb128 0x11
 3452 0d71 76770000 		.4byte	.LASF404
 3453 0d75 0B       		.byte	0xb
 3454 0d76 11       		.uleb128 0x11
 3455 0d77 5C3A0000 		.4byte	.LASF405
 3456 0d7b 0C       		.byte	0xc
 3457 0d7c 11       		.uleb128 0x11
 3458 0d7d 22390000 		.4byte	.LASF406
 3459 0d81 0D       		.byte	0xd
 3460 0d82 11       		.uleb128 0x11
 3461 0d83 2A6E0000 		.4byte	.LASF407
 3462 0d87 12       		.byte	0x12
 3463 0d88 11       		.uleb128 0x11
 3464 0d89 BF0D0000 		.4byte	.LASF408
 3465 0d8d 13       		.byte	0x13
 3466 0d8e 11       		.uleb128 0x11
 3467 0d8f C1150000 		.4byte	.LASF409
 3468 0d93 14       		.byte	0x14
 3469 0d94 11       		.uleb128 0x11
 3470 0d95 74350000 		.4byte	.LASF410
 3471 0d99 18       		.byte	0x18
 3472 0d9a 11       		.uleb128 0x11
 3473 0d9b 46770000 		.4byte	.LASF411
 3474 0d9f 1C       		.byte	0x1c
 3475 0da0 11       		.uleb128 0x11
 3476 0da1 325D0000 		.4byte	.LASF412
 3477 0da5 00       		.byte	0
 3478 0da6 11       		.uleb128 0x11
 3479 0da7 7A400000 		.4byte	.LASF413
 3480 0dab 01       		.byte	0x1
 3481 0dac 11       		.uleb128 0x11
 3482 0dad A4040000 		.4byte	.LASF414
 3483 0db1 02       		.byte	0x2
 3484 0db2 11       		.uleb128 0x11
 3485 0db3 06110000 		.4byte	.LASF415
 3486 0db7 03       		.byte	0x3
 3487 0db8 11       		.uleb128 0x11
 3488 0db9 5B680000 		.4byte	.LASF416
 3489 0dbd 04       		.byte	0x4
 3490 0dbe 11       		.uleb128 0x11
 3491 0dbf 66680000 		.4byte	.LASF417
 3492 0dc3 05       		.byte	0x5
 3493 0dc4 11       		.uleb128 0x11
 3494 0dc5 40750000 		.4byte	.LASF418
 3495 0dc9 06       		.byte	0x6
 3496 0dca 11       		.uleb128 0x11
 3497 0dcb 690C0000 		.4byte	.LASF419
 3498 0dcf 07       		.byte	0x7
 3499 0dd0 11       		.uleb128 0x11
ARM GAS  C:\Users\stijn\AppData\Local\Temp\ccD3lQ9e.s 			page 100


 3500 0dd1 29350000 		.4byte	.LASF420
 3501 0dd5 08       		.byte	0x8
 3502 0dd6 11       		.uleb128 0x11
 3503 0dd7 2C0A0000 		.4byte	.LASF421
 3504 0ddb 09       		.byte	0x9
 3505 0ddc 11       		.uleb128 0x11
 3506 0ddd 763C0000 		.4byte	.LASF422
 3507 0de1 0A       		.byte	0xa
 3508 0de2 11       		.uleb128 0x11
 3509 0de3 75080000 		.4byte	.LASF423
 3510 0de7 0B       		.byte	0xb
 3511 0de8 11       		.uleb128 0x11
 3512 0de9 CE600000 		.4byte	.LASF424
 3513 0ded 0C       		.byte	0xc
 3514 0dee 11       		.uleb128 0x11
 3515 0def 375F0000 		.4byte	.LASF425
 3516 0df3 0D       		.byte	0xd
 3517 0df4 11       		.uleb128 0x11
 3518 0df5 07530000 		.4byte	.LASF426
 3519 0df9 12       		.byte	0x12
 3520 0dfa 11       		.uleb128 0x11
 3521 0dfb A9760000 		.4byte	.LASF427
 3522 0dff 14       		.byte	0x14
 3523 0e00 11       		.uleb128 0x11
 3524 0e01 89790000 		.4byte	.LASF428
 3525 0e05 1C       		.byte	0x1c
 3526 0e06 11       		.uleb128 0x11
 3527 0e07 AB070000 		.4byte	.LASF429
 3528 0e0b 00       		.byte	0
 3529 0e0c 11       		.uleb128 0x11
 3530 0e0d 2F640000 		.4byte	.LASF430
 3531 0e11 01       		.byte	0x1
 3532 0e12 11       		.uleb128 0x11
 3533 0e13 9E370000 		.4byte	.LASF431
 3534 0e17 02       		.byte	0x2
 3535 0e18 11       		.uleb128 0x11
 3536 0e19 CA360000 		.4byte	.LASF432
 3537 0e1d 03       		.byte	0x3
 3538 0e1e 11       		.uleb128 0x11
 3539 0e1f 715C0000 		.4byte	.LASF433
 3540 0e23 04       		.byte	0x4
 3541 0e24 11       		.uleb128 0x11
 3542 0e25 7C5C0000 		.4byte	.LASF434
 3543 0e29 05       		.byte	0x5
 3544 0e2a 11       		.uleb128 0x11
 3545 0e2b 811E0000 		.4byte	.LASF435
 3546 0e2f 06       		.byte	0x6
 3547 0e30 11       		.uleb128 0x11
 3548 0e31 C6310000 		.4byte	.LASF436
 3549 0e35 07       		.byte	0x7
 3550 0e36 11       		.uleb128 0x11
 3551 0e37 54020000 		.4byte	.LASF437
 3552 0e3b 08       		.byte	0x8
 3553 0e3c 11       		.uleb128 0x11
 3554 0e3d 326A0000 		.4byte	.LASF438
 3555 0e41 09       		.byte	0x9
 3556 0e42 11       		.uleb128 0x11
ARM GAS  C:\Users\stijn\AppData\Local\Temp\ccD3lQ9e.s 			page 101


 3557 0e43 FD0B0000 		.4byte	.LASF439
 3558 0e47 0A       		.byte	0xa
 3559 0e48 11       		.uleb128 0x11
 3560 0e49 6C0D0000 		.4byte	.LASF440
 3561 0e4d 0B       		.byte	0xb
 3562 0e4e 11       		.uleb128 0x11
 3563 0e4f B7090000 		.4byte	.LASF441
 3564 0e53 0C       		.byte	0xc
 3565 0e54 11       		.uleb128 0x11
 3566 0e55 36080000 		.4byte	.LASF442
 3567 0e59 0D       		.byte	0xd
 3568 0e5a 11       		.uleb128 0x11
 3569 0e5b E40D0000 		.4byte	.LASF443
 3570 0e5f 12       		.byte	0x12
 3571 0e60 11       		.uleb128 0x11
 3572 0e61 0F620000 		.4byte	.LASF444
 3573 0e65 14       		.byte	0x14
 3574 0e66 11       		.uleb128 0x11
 3575 0e67 A1260000 		.4byte	.LASF445
 3576 0e6b 1C       		.byte	0x1c
 3577 0e6c 11       		.uleb128 0x11
 3578 0e6d 642D0000 		.4byte	.LASF446
 3579 0e71 00       		.byte	0
 3580 0e72 11       		.uleb128 0x11
 3581 0e73 EF0B0000 		.4byte	.LASF447
 3582 0e77 01       		.byte	0x1
 3583 0e78 11       		.uleb128 0x11
 3584 0e79 ED690000 		.4byte	.LASF448
 3585 0e7d 02       		.byte	0x2
 3586 0e7e 11       		.uleb128 0x11
 3587 0e7f FB6F0000 		.4byte	.LASF449
 3588 0e83 03       		.byte	0x3
 3589 0e84 11       		.uleb128 0x11
 3590 0e85 93510000 		.4byte	.LASF450
 3591 0e89 04       		.byte	0x4
 3592 0e8a 11       		.uleb128 0x11
 3593 0e8b 9E510000 		.4byte	.LASF451
 3594 0e8f 05       		.byte	0x5
 3595 0e90 11       		.uleb128 0x11
 3596 0e91 57450000 		.4byte	.LASF452
 3597 0e95 06       		.byte	0x6
 3598 0e96 11       		.uleb128 0x11
 3599 0e97 CB580000 		.4byte	.LASF453
 3600 0e9b 07       		.byte	0x7
 3601 0e9c 11       		.uleb128 0x11
 3602 0e9d A9510000 		.4byte	.LASF454
 3603 0ea1 08       		.byte	0x8
 3604 0ea2 11       		.uleb128 0x11
 3605 0ea3 B0320000 		.4byte	.LASF455
 3606 0ea7 09       		.byte	0x9
 3607 0ea8 11       		.uleb128 0x11
 3608 0ea9 68580000 		.4byte	.LASF456
 3609 0ead 0A       		.byte	0xa
 3610 0eae 11       		.uleb128 0x11
 3611 0eaf 51250000 		.4byte	.LASF457
 3612 0eb3 0B       		.byte	0xb
 3613 0eb4 11       		.uleb128 0x11
ARM GAS  C:\Users\stijn\AppData\Local\Temp\ccD3lQ9e.s 			page 102


 3614 0eb5 C52F0000 		.4byte	.LASF458
 3615 0eb9 0C       		.byte	0xc
 3616 0eba 11       		.uleb128 0x11
 3617 0ebb 742E0000 		.4byte	.LASF459
 3618 0ebf 0D       		.byte	0xd
 3619 0ec0 11       		.uleb128 0x11
 3620 0ec1 73780000 		.4byte	.LASF460
 3621 0ec5 14       		.byte	0x14
 3622 0ec6 11       		.uleb128 0x11
 3623 0ec7 C3420000 		.4byte	.LASF461
 3624 0ecb 1C       		.byte	0x1c
 3625 0ecc 11       		.uleb128 0x11
 3626 0ecd B6540000 		.4byte	.LASF462
 3627 0ed1 00       		.byte	0
 3628 0ed2 11       		.uleb128 0x11
 3629 0ed3 472F0000 		.4byte	.LASF463
 3630 0ed7 01       		.byte	0x1
 3631 0ed8 11       		.uleb128 0x11
 3632 0ed9 F71F0000 		.4byte	.LASF464
 3633 0edd 02       		.byte	0x2
 3634 0ede 11       		.uleb128 0x11
 3635 0edf 36020000 		.4byte	.LASF465
 3636 0ee3 03       		.byte	0x3
 3637 0ee4 11       		.uleb128 0x11
 3638 0ee5 08470000 		.4byte	.LASF466
 3639 0ee9 04       		.byte	0x4
 3640 0eea 11       		.uleb128 0x11
 3641 0eeb 13470000 		.4byte	.LASF467
 3642 0eef 05       		.byte	0x5
 3643 0ef0 11       		.uleb128 0x11
 3644 0ef1 5B6C0000 		.4byte	.LASF468
 3645 0ef5 06       		.byte	0x6
 3646 0ef6 11       		.uleb128 0x11
 3647 0ef7 38030000 		.4byte	.LASF469
 3648 0efb 07       		.byte	0x7
 3649 0efc 11       		.uleb128 0x11
 3650 0efd D42F0000 		.4byte	.LASF470
 3651 0f01 08       		.byte	0x8
 3652 0f02 11       		.uleb128 0x11
 3653 0f03 FF410000 		.4byte	.LASF471
 3654 0f07 09       		.byte	0x9
 3655 0f08 11       		.uleb128 0x11
 3656 0f09 B0270000 		.4byte	.LASF472
 3657 0f0d 0A       		.byte	0xa
 3658 0f0e 11       		.uleb128 0x11
 3659 0f0f E1330000 		.4byte	.LASF473
 3660 0f13 0B       		.byte	0xb
 3661 0f14 11       		.uleb128 0x11
 3662 0f15 FD560000 		.4byte	.LASF474
 3663 0f19 0C       		.byte	0xc
 3664 0f1a 11       		.uleb128 0x11
 3665 0f1b E5540000 		.4byte	.LASF475
 3666 0f1f 0D       		.byte	0xd
 3667 0f20 11       		.uleb128 0x11
 3668 0f21 47100000 		.4byte	.LASF476
 3669 0f25 14       		.byte	0x14
 3670 0f26 11       		.uleb128 0x11
ARM GAS  C:\Users\stijn\AppData\Local\Temp\ccD3lQ9e.s 			page 103


 3671 0f27 C8110000 		.4byte	.LASF477
 3672 0f2b 1C       		.byte	0x1c
 3673 0f2c 11       		.uleb128 0x11
 3674 0f2d 7E000000 		.4byte	.LASF478
 3675 0f31 00       		.byte	0
 3676 0f32 11       		.uleb128 0x11
 3677 0f33 2D530000 		.4byte	.LASF479
 3678 0f37 01       		.byte	0x1
 3679 0f38 11       		.uleb128 0x11
 3680 0f39 2D520000 		.4byte	.LASF480
 3681 0f3d 02       		.byte	0x2
 3682 0f3e 11       		.uleb128 0x11
 3683 0f3f 12250000 		.4byte	.LASF481
 3684 0f43 03       		.byte	0x3
 3685 0f44 11       		.uleb128 0x11
 3686 0f45 CA3C0000 		.4byte	.LASF482
 3687 0f49 04       		.byte	0x4
 3688 0f4a 11       		.uleb128 0x11
 3689 0f4b D53C0000 		.4byte	.LASF483
 3690 0f4f 05       		.byte	0x5
 3691 0f50 11       		.uleb128 0x11
 3692 0f51 D5140000 		.4byte	.LASF484
 3693 0f55 06       		.byte	0x6
 3694 0f56 11       		.uleb128 0x11
 3695 0f57 DF270000 		.4byte	.LASF485
 3696 0f5b 07       		.byte	0x7
 3697 0f5c 11       		.uleb128 0x11
 3698 0f5d 5A6E0000 		.4byte	.LASF486
 3699 0f61 08       		.byte	0x8
 3700 0f62 11       		.uleb128 0x11
 3701 0f63 BC5B0000 		.4byte	.LASF487
 3702 0f67 09       		.byte	0x9
 3703 0f68 11       		.uleb128 0x11
 3704 0f69 03740000 		.4byte	.LASF488
 3705 0f6d 0A       		.byte	0xa
 3706 0f6e 11       		.uleb128 0x11
 3707 0f6f ED410000 		.4byte	.LASF489
 3708 0f73 0B       		.byte	0xb
 3709 0f74 11       		.uleb128 0x11
 3710 0f75 AA000000 		.4byte	.LASF490
 3711 0f79 0C       		.byte	0xc
 3712 0f7a 11       		.uleb128 0x11
 3713 0f7b FE7A0000 		.4byte	.LASF491
 3714 0f7f 0D       		.byte	0xd
 3715 0f80 11       		.uleb128 0x11
 3716 0f81 BE260000 		.4byte	.LASF492
 3717 0f85 14       		.byte	0x14
 3718 0f86 11       		.uleb128 0x11
 3719 0f87 F1470000 		.4byte	.LASF493
 3720 0f8b 1C       		.byte	0x1c
 3721 0f8c 11       		.uleb128 0x11
 3722 0f8d AD250000 		.4byte	.LASF494
 3723 0f91 00       		.byte	0
 3724 0f92 11       		.uleb128 0x11
 3725 0f93 D0770000 		.4byte	.LASF495
 3726 0f97 01       		.byte	0x1
 3727 0f98 11       		.uleb128 0x11
ARM GAS  C:\Users\stijn\AppData\Local\Temp\ccD3lQ9e.s 			page 104


 3728 0f99 95080000 		.4byte	.LASF496
 3729 0f9d 02       		.byte	0x2
 3730 0f9e 11       		.uleb128 0x11
 3731 0f9f 2F490000 		.4byte	.LASF497
 3732 0fa3 03       		.byte	0x3
 3733 0fa4 11       		.uleb128 0x11
 3734 0fa5 DB310000 		.4byte	.LASF498
 3735 0fa9 04       		.byte	0x4
 3736 0faa 11       		.uleb128 0x11
 3737 0fab E6310000 		.4byte	.LASF499
 3738 0faf 05       		.byte	0x5
 3739 0fb0 11       		.uleb128 0x11
 3740 0fb1 223C0000 		.4byte	.LASF500
 3741 0fb5 06       		.byte	0x6
 3742 0fb6 11       		.uleb128 0x11
 3743 0fb7 574F0000 		.4byte	.LASF501
 3744 0fbb 07       		.byte	0x7
 3745 0fbc 11       		.uleb128 0x11
 3746 0fbd 43600000 		.4byte	.LASF502
 3747 0fc1 08       		.byte	0x8
 3748 0fc2 11       		.uleb128 0x11
 3749 0fc3 E71A0000 		.4byte	.LASF503
 3750 0fc7 09       		.byte	0x9
 3751 0fc8 11       		.uleb128 0x11
 3752 0fc9 90420000 		.4byte	.LASF504
 3753 0fcd 0A       		.byte	0xa
 3754 0fce 11       		.uleb128 0x11
 3755 0fcf FC4F0000 		.4byte	.LASF505
 3756 0fd3 0B       		.byte	0xb
 3757 0fd4 11       		.uleb128 0x11
 3758 0fd5 293F0000 		.4byte	.LASF506
 3759 0fd9 0C       		.byte	0xc
 3760 0fda 11       		.uleb128 0x11
 3761 0fdb 03250000 		.4byte	.LASF507
 3762 0fdf 0D       		.byte	0xd
 3763 0fe0 11       		.uleb128 0x11
 3764 0fe1 87040000 		.4byte	.LASF508
 3765 0fe5 1C       		.byte	0x1c
 3766 0fe6 11       		.uleb128 0x11
 3767 0fe7 C2300000 		.4byte	.LASF509
 3768 0feb 00       		.byte	0
 3769 0fec 11       		.uleb128 0x11
 3770 0fed 6D440000 		.4byte	.LASF510
 3771 0ff1 01       		.byte	0x1
 3772 0ff2 11       		.uleb128 0x11
 3773 0ff3 57420000 		.4byte	.LASF511
 3774 0ff7 02       		.byte	0x2
 3775 0ff8 11       		.uleb128 0x11
 3776 0ff9 03170000 		.4byte	.LASF512
 3777 0ffd 03       		.byte	0x3
 3778 0ffe 11       		.uleb128 0x11
 3779 0fff 3B330000 		.4byte	.LASF513
 3780 1003 04       		.byte	0x4
 3781 1004 11       		.uleb128 0x11
 3782 1005 46330000 		.4byte	.LASF514
 3783 1009 05       		.byte	0x5
 3784 100a 11       		.uleb128 0x11
ARM GAS  C:\Users\stijn\AppData\Local\Temp\ccD3lQ9e.s 			page 105


 3785 100b 253A0000 		.4byte	.LASF515
 3786 100f 06       		.byte	0x6
 3787 1010 11       		.uleb128 0x11
 3788 1011 A24C0000 		.4byte	.LASF516
 3789 1015 07       		.byte	0x7
 3790 1016 11       		.uleb128 0x11
 3791 1017 F7570000 		.4byte	.LASF517
 3792 101b 08       		.byte	0x8
 3793 101c 11       		.uleb128 0x11
 3794 101d C9400000 		.4byte	.LASF518
 3795 1021 09       		.byte	0x9
 3796 1022 11       		.uleb128 0x11
 3797 1023 9D2C0000 		.4byte	.LASF519
 3798 1027 0A       		.byte	0xa
 3799 1028 11       		.uleb128 0x11
 3800 1029 552B0000 		.4byte	.LASF520
 3801 102d 0B       		.byte	0xb
 3802 102e 11       		.uleb128 0x11
 3803 102f 33250000 		.4byte	.LASF521
 3804 1033 0C       		.byte	0xc
 3805 1034 11       		.uleb128 0x11
 3806 1035 F7230000 		.4byte	.LASF522
 3807 1039 0D       		.byte	0xd
 3808 103a 11       		.uleb128 0x11
 3809 103b E2510000 		.4byte	.LASF523
 3810 103f 12       		.byte	0x12
 3811 1040 11       		.uleb128 0x11
 3812 1041 44700000 		.4byte	.LASF524
 3813 1045 13       		.byte	0x13
 3814 1046 11       		.uleb128 0x11
 3815 1047 6F6A0000 		.4byte	.LASF525
 3816 104b 14       		.byte	0x14
 3817 104c 11       		.uleb128 0x11
 3818 104d 28050000 		.4byte	.LASF526
 3819 1051 18       		.byte	0x18
 3820 1052 11       		.uleb128 0x11
 3821 1053 0E150000 		.4byte	.LASF527
 3822 1057 1C       		.byte	0x1c
 3823 1058 11       		.uleb128 0x11
 3824 1059 5E580000 		.4byte	.LASF528
 3825 105d 00       		.byte	0
 3826 105e 11       		.uleb128 0x11
 3827 105f 8F690000 		.4byte	.LASF529
 3828 1063 01       		.byte	0x1
 3829 1064 11       		.uleb128 0x11
 3830 1065 7A740000 		.4byte	.LASF530
 3831 1069 02       		.byte	0x2
 3832 106a 11       		.uleb128 0x11
 3833 106b 613B0000 		.4byte	.LASF531
 3834 106f 03       		.byte	0x3
 3835 1070 11       		.uleb128 0x11
 3836 1071 58280000 		.4byte	.LASF532
 3837 1075 04       		.byte	0x4
 3838 1076 11       		.uleb128 0x11
 3839 1077 63280000 		.4byte	.LASF533
 3840 107b 05       		.byte	0x5
 3841 107c 11       		.uleb128 0x11
ARM GAS  C:\Users\stijn\AppData\Local\Temp\ccD3lQ9e.s 			page 106


 3842 107d 9D600000 		.4byte	.LASF534
 3843 1081 06       		.byte	0x6
 3844 1082 11       		.uleb128 0x11
 3845 1083 0F730000 		.4byte	.LASF535
 3846 1087 07       		.byte	0x7
 3847 1088 11       		.uleb128 0x11
 3848 1089 C3340000 		.4byte	.LASF536
 3849 108d 08       		.byte	0x8
 3850 108e 11       		.uleb128 0x11
 3851 108f 5F340000 		.4byte	.LASF537
 3852 1093 09       		.byte	0x9
 3853 1094 11       		.uleb128 0x11
 3854 1095 B47A0000 		.4byte	.LASF538
 3855 1099 0A       		.byte	0xa
 3856 109a 11       		.uleb128 0x11
 3857 109b 3C3A0000 		.4byte	.LASF539
 3858 109f 0B       		.byte	0xb
 3859 10a0 11       		.uleb128 0x11
 3860 10a1 E54B0000 		.4byte	.LASF540
 3861 10a5 0C       		.byte	0xc
 3862 10a6 11       		.uleb128 0x11
 3863 10a7 D24A0000 		.4byte	.LASF541
 3864 10ab 0D       		.byte	0xd
 3865 10ac 11       		.uleb128 0x11
 3866 10ad 8F260000 		.4byte	.LASF542
 3867 10b1 12       		.byte	0x12
 3868 10b2 11       		.uleb128 0x11
 3869 10b3 71030000 		.4byte	.LASF543
 3870 10b7 13       		.byte	0x13
 3871 10b8 11       		.uleb128 0x11
 3872 10b9 9A1C0000 		.4byte	.LASF544
 3873 10bd 14       		.byte	0x14
 3874 10be 11       		.uleb128 0x11
 3875 10bf A15F0000 		.4byte	.LASF545
 3876 10c3 18       		.byte	0x18
 3877 10c4 11       		.uleb128 0x11
 3878 10c5 F5150000 		.4byte	.LASF546
 3879 10c9 1A       		.byte	0x1a
 3880 10ca 11       		.uleb128 0x11
 3881 10cb 9B030000 		.4byte	.LASF547
 3882 10cf 00       		.byte	0
 3883 10d0 11       		.uleb128 0x11
 3884 10d1 39100000 		.4byte	.LASF548
 3885 10d5 01       		.byte	0x1
 3886 10d6 11       		.uleb128 0x11
 3887 10d7 E42A0000 		.4byte	.LASF549
 3888 10db 02       		.byte	0x2
 3889 10dc 11       		.uleb128 0x11
 3890 10dd FE5E0000 		.4byte	.LASF550
 3891 10e1 03       		.byte	0x3
 3892 10e2 11       		.uleb128 0x11
 3893 10e3 D41D0000 		.4byte	.LASF551
 3894 10e7 04       		.byte	0x4
 3895 10e8 11       		.uleb128 0x11
 3896 10e9 DF1D0000 		.4byte	.LASF552
 3897 10ed 05       		.byte	0x5
 3898 10ee 11       		.uleb128 0x11
ARM GAS  C:\Users\stijn\AppData\Local\Temp\ccD3lQ9e.s 			page 107


 3899 10ef 9C090000 		.4byte	.LASF553
 3900 10f3 06       		.byte	0x6
 3901 10f4 11       		.uleb128 0x11
 3902 10f5 6D1C0000 		.4byte	.LASF554
 3903 10f9 07       		.byte	0x7
 3904 10fa 11       		.uleb128 0x11
 3905 10fb AD730000 		.4byte	.LASF555
 3906 10ff 08       		.byte	0x8
 3907 1100 11       		.uleb128 0x11
 3908 1101 FA690000 		.4byte	.LASF556
 3909 1105 09       		.byte	0x9
 3910 1106 11       		.uleb128 0x11
 3911 1107 654A0000 		.4byte	.LASF557
 3912 110b 0A       		.byte	0xa
 3913 110c 11       		.uleb128 0x11
 3914 110d 11480000 		.4byte	.LASF558
 3915 1111 0B       		.byte	0xb
 3916 1112 11       		.uleb128 0x11
 3917 1113 8E710000 		.4byte	.LASF559
 3918 1117 0C       		.byte	0xc
 3919 1118 11       		.uleb128 0x11
 3920 1119 35700000 		.4byte	.LASF560
 3921 111d 0D       		.byte	0xd
 3922 111e 11       		.uleb128 0x11
 3923 111f AD590000 		.4byte	.LASF561
 3924 1123 12       		.byte	0x12
 3925 1124 11       		.uleb128 0x11
 3926 1125 6A6C0000 		.4byte	.LASF562
 3927 1129 14       		.byte	0x14
 3928 112a 11       		.uleb128 0x11
 3929 112b 9B1A0000 		.4byte	.LASF563
 3930 112f 1A       		.byte	0x1a
 3931 1130 11       		.uleb128 0x11
 3932 1131 1E2A0000 		.4byte	.LASF564
 3933 1135 00       		.byte	0
 3934 1136 11       		.uleb128 0x11
 3935 1137 A6340000 		.4byte	.LASF565
 3936 113b 01       		.byte	0x1
 3937 113c 11       		.uleb128 0x11
 3938 113d 8A5D0000 		.4byte	.LASF566
 3939 1141 02       		.byte	0x2
 3940 1142 11       		.uleb128 0x11
 3941 1143 F6050000 		.4byte	.LASF567
 3942 1147 03       		.byte	0x3
 3943 1148 11       		.uleb128 0x11
 3944 1149 E7110000 		.4byte	.LASF568
 3945 114d 04       		.byte	0x4
 3946 114e 11       		.uleb128 0x11
 3947 114f F2110000 		.4byte	.LASF569
 3948 1153 05       		.byte	0x5
 3949 1154 11       		.uleb128 0x11
 3950 1155 9C2F0000 		.4byte	.LASF570
 3951 1159 06       		.byte	0x6
 3952 115a 11       		.uleb128 0x11
 3953 115b 56430000 		.4byte	.LASF571
 3954 115f 07       		.byte	0x7
 3955 1160 11       		.uleb128 0x11
ARM GAS  C:\Users\stijn\AppData\Local\Temp\ccD3lQ9e.s 			page 108


 3956 1161 BC640000 		.4byte	.LASF572
 3957 1165 08       		.byte	0x8
 3958 1166 11       		.uleb128 0x11
 3959 1167 2F0D0000 		.4byte	.LASF573
 3960 116b 09       		.byte	0x9
 3961 116c 11       		.uleb128 0x11
 3962 116d 1A1A0000 		.4byte	.LASF574
 3963 1171 0A       		.byte	0xa
 3964 1172 11       		.uleb128 0x11
 3965 1173 78550000 		.4byte	.LASF575
 3966 1177 0B       		.byte	0xb
 3967 1178 11       		.uleb128 0x11
 3968 1179 D31B0000 		.4byte	.LASF576
 3969 117d 0C       		.byte	0xc
 3970 117e 11       		.uleb128 0x11
 3971 117f 731A0000 		.4byte	.LASF577
 3972 1183 0D       		.byte	0xd
 3973 1184 11       		.uleb128 0x11
 3974 1185 1D140000 		.4byte	.LASF578
 3975 1189 12       		.byte	0x12
 3976 118a 11       		.uleb128 0x11
 3977 118b 2F4C0000 		.4byte	.LASF579
 3978 118f 14       		.byte	0x14
 3979 1190 11       		.uleb128 0x11
 3980 1191 75420000 		.4byte	.LASF580
 3981 1195 1A       		.byte	0x1a
 3982 1196 11       		.uleb128 0x11
 3983 1197 60500000 		.4byte	.LASF581
 3984 119b 00       		.byte	0
 3985 119c 11       		.uleb128 0x11
 3986 119d 50580000 		.4byte	.LASF582
 3987 11a1 01       		.byte	0x1
 3988 11a2 11       		.uleb128 0x11
 3989 11a3 A5130000 		.4byte	.LASF583
 3990 11a7 02       		.byte	0x2
 3991 11a8 11       		.uleb128 0x11
 3992 11a9 E8290000 		.4byte	.LASF584
 3993 11ad 03       		.byte	0x3
 3994 11ae 11       		.uleb128 0x11
 3995 11af E9070000 		.4byte	.LASF585
 3996 11b3 04       		.byte	0x4
 3997 11b4 11       		.uleb128 0x11
 3998 11b5 F4070000 		.4byte	.LASF586
 3999 11b9 05       		.byte	0x5
 4000 11ba 11       		.uleb128 0x11
 4001 11bb CA560000 		.4byte	.LASF587
 4002 11bf 06       		.byte	0x6
 4003 11c0 11       		.uleb128 0x11
 4004 11c1 0D6A0000 		.4byte	.LASF588
 4005 11c5 07       		.byte	0x7
 4006 11c6 11       		.uleb128 0x11
 4007 11c7 54130000 		.4byte	.LASF589
 4008 11cb 08       		.byte	0x8
 4009 11cc 11       		.uleb128 0x11
 4010 11cd D4150000 		.4byte	.LASF590
 4011 11d1 09       		.byte	0x9
 4012 11d2 11       		.uleb128 0x11
ARM GAS  C:\Users\stijn\AppData\Local\Temp\ccD3lQ9e.s 			page 109


 4013 11d3 9E660000 		.4byte	.LASF591
 4014 11d7 0A       		.byte	0xa
 4015 11d8 11       		.uleb128 0x11
 4016 11d9 8C640000 		.4byte	.LASF592
 4017 11dd 0B       		.byte	0xb
 4018 11de 11       		.uleb128 0x11
 4019 11df B4420000 		.4byte	.LASF593
 4020 11e3 0C       		.byte	0xc
 4021 11e4 11       		.uleb128 0x11
 4022 11e5 31410000 		.4byte	.LASF594
 4023 11e9 0D       		.byte	0xd
 4024 11ea 11       		.uleb128 0x11
 4025 11eb 53620000 		.4byte	.LASF595
 4026 11ef 14       		.byte	0x14
 4027 11f0 11       		.uleb128 0x11
 4028 11f1 6C060000 		.4byte	.LASF596
 4029 11f5 1A       		.byte	0x1a
 4030 11f6 11       		.uleb128 0x11
 4031 11f7 F7770000 		.4byte	.LASF597
 4032 11fb 00       		.byte	0
 4033 11fc 11       		.uleb128 0x11
 4034 11fd 4B000000 		.4byte	.LASF598
 4035 1201 01       		.byte	0x1
 4036 1202 11       		.uleb128 0x11
 4037 1203 63460000 		.4byte	.LASF599
 4038 1207 02       		.byte	0x2
 4039 1208 11       		.uleb128 0x11
 4040 1209 574D0000 		.4byte	.LASF600
 4041 120d 03       		.byte	0x3
 4042 120e 11       		.uleb128 0x11
 4043 120f 277A0000 		.4byte	.LASF601
 4044 1213 04       		.byte	0x4
 4045 1214 11       		.uleb128 0x11
 4046 1215 327A0000 		.4byte	.LASF602
 4047 1219 05       		.byte	0x5
 4048 121a 11       		.uleb128 0x11
 4049 121b 88000000 		.4byte	.LASF603
 4050 121f 06       		.byte	0x6
 4051 1220 11       		.uleb128 0x11
 4052 1221 77120000 		.4byte	.LASF604
 4053 1225 07       		.byte	0x7
 4054 1226 11       		.uleb128 0x11
 4055 1227 1E380000 		.4byte	.LASF605
 4056 122b 08       		.byte	0x8
 4057 122c 11       		.uleb128 0x11
 4058 122d E8610000 		.4byte	.LASF606
 4059 1231 09       		.byte	0x9
 4060 1232 11       		.uleb128 0x11
 4061 1233 58360000 		.4byte	.LASF607
 4062 1237 0A       		.byte	0xa
 4063 1238 11       		.uleb128 0x11
 4064 1239 66720000 		.4byte	.LASF608
 4065 123d 0B       		.byte	0xb
 4066 123e 11       		.uleb128 0x11
 4067 123f 65430000 		.4byte	.LASF609
 4068 1243 0C       		.byte	0xc
 4069 1244 11       		.uleb128 0x11
ARM GAS  C:\Users\stijn\AppData\Local\Temp\ccD3lQ9e.s 			page 110


 4070 1245 06670000 		.4byte	.LASF610
 4071 1249 0D       		.byte	0xd
 4072 124a 11       		.uleb128 0x11
 4073 124b BC780000 		.4byte	.LASF611
 4074 124f 14       		.byte	0x14
 4075 1250 11       		.uleb128 0x11
 4076 1251 E8620000 		.4byte	.LASF612
 4077 1255 1A       		.byte	0x1a
 4078 1256 11       		.uleb128 0x11
 4079 1257 FD520000 		.4byte	.LASF613
 4080 125b 00       		.byte	0
 4081 125c 11       		.uleb128 0x11
 4082 125d F1140000 		.4byte	.LASF614
 4083 1261 01       		.byte	0x1
 4084 1262 11       		.uleb128 0x11
 4085 1263 CA680000 		.4byte	.LASF615
 4086 1267 02       		.byte	0x2
 4087 1268 11       		.uleb128 0x11
 4088 1269 D2630000 		.4byte	.LASF616
 4089 126d 03       		.byte	0x3
 4090 126e 11       		.uleb128 0x11
 4091 126f 2F660000 		.4byte	.LASF617
 4092 1273 04       		.byte	0x4
 4093 1274 11       		.uleb128 0x11
 4094 1275 3A660000 		.4byte	.LASF618
 4095 1279 05       		.byte	0x5
 4096 127a 11       		.uleb128 0x11
 4097 127b F7490000 		.4byte	.LASF619
 4098 127f 06       		.byte	0x6
 4099 1280 11       		.uleb128 0x11
 4100 1281 6B5D0000 		.4byte	.LASF620
 4101 1285 07       		.byte	0x7
 4102 1286 11       		.uleb128 0x11
 4103 1287 87190000 		.4byte	.LASF621
 4104 128b 08       		.byte	0x8
 4105 128c 11       		.uleb128 0x11
 4106 128d 25230000 		.4byte	.LASF622
 4107 1291 09       		.byte	0x9
 4108 1292 11       		.uleb128 0x11
 4109 1293 953C0000 		.4byte	.LASF623
 4110 1297 0A       		.byte	0xa
 4111 1298 11       		.uleb128 0x11
 4112 1299 4B6A0000 		.4byte	.LASF624
 4113 129d 0B       		.byte	0xb
 4114 129e 11       		.uleb128 0x11
 4115 129f 71370000 		.4byte	.LASF625
 4116 12a3 0C       		.byte	0xc
 4117 12a4 11       		.uleb128 0x11
 4118 12a5 B4340000 		.4byte	.LASF626
 4119 12a9 0D       		.byte	0xd
 4120 12aa 11       		.uleb128 0x11
 4121 12ab D5460000 		.4byte	.LASF627
 4122 12af 12       		.byte	0x12
 4123 12b0 11       		.uleb128 0x11
 4124 12b1 5F370000 		.4byte	.LASF628
 4125 12b5 13       		.byte	0x13
 4126 12b6 11       		.uleb128 0x11
ARM GAS  C:\Users\stijn\AppData\Local\Temp\ccD3lQ9e.s 			page 111


 4127 12b7 42070000 		.4byte	.LASF629
 4128 12bb 14       		.byte	0x14
 4129 12bc 11       		.uleb128 0x11
 4130 12bd D12E0000 		.4byte	.LASF630
 4131 12c1 18       		.byte	0x18
 4132 12c2 11       		.uleb128 0x11
 4133 12c3 2D060000 		.4byte	.LASF631
 4134 12c7 1A       		.byte	0x1a
 4135 12c8 11       		.uleb128 0x11
 4136 12c9 AA7A0000 		.4byte	.LASF632
 4137 12cd 00       		.byte	0
 4138 12ce 11       		.uleb128 0x11
 4139 12cf 70390000 		.4byte	.LASF633
 4140 12d3 01       		.byte	0x1
 4141 12d4 11       		.uleb128 0x11
 4142 12d5 901E0000 		.4byte	.LASF634
 4143 12d9 02       		.byte	0x2
 4144 12da 11       		.uleb128 0x11
 4145 12db 730A0000 		.4byte	.LASF635
 4146 12df 03       		.byte	0x3
 4147 12e0 11       		.uleb128 0x11
 4148 12e1 7F5B0000 		.4byte	.LASF636
 4149 12e5 04       		.byte	0x4
 4150 12e6 11       		.uleb128 0x11
 4151 12e7 8A5B0000 		.4byte	.LASF637
 4152 12eb 05       		.byte	0x5
 4153 12ec 11       		.uleb128 0x11
 4154 12ed 81700000 		.4byte	.LASF638
 4155 12f1 06       		.byte	0x6
 4156 12f2 11       		.uleb128 0x11
 4157 12f3 55070000 		.4byte	.LASF639
 4158 12f7 07       		.byte	0x7
 4159 12f8 11       		.uleb128 0x11
 4160 12f9 111B0000 		.4byte	.LASF640
 4161 12fd 08       		.byte	0x8
 4162 12fe 11       		.uleb128 0x11
 4163 12ff 4D530000 		.4byte	.LASF641
 4164 1303 09       		.byte	0x9
 4165 1304 11       		.uleb128 0x11
 4166 1305 320C0000 		.4byte	.LASF642
 4167 1309 0A       		.byte	0xa
 4168 130a 11       		.uleb128 0x11
 4169 130b AA780000 		.4byte	.LASF643
 4170 130f 0B       		.byte	0xb
 4171 1310 11       		.uleb128 0x11
 4172 1311 D95C0000 		.4byte	.LASF644
 4173 1315 0C       		.byte	0xc
 4174 1316 11       		.uleb128 0x11
 4175 1317 EA5A0000 		.4byte	.LASF645
 4176 131b 0D       		.byte	0xd
 4177 131c 11       		.uleb128 0x11
 4178 131d 40290000 		.4byte	.LASF646
 4179 1321 12       		.byte	0x12
 4180 1322 11       		.uleb128 0x11
 4181 1323 7E450000 		.4byte	.LASF647
 4182 1327 13       		.byte	0x13
 4183 1328 11       		.uleb128 0x11
ARM GAS  C:\Users\stijn\AppData\Local\Temp\ccD3lQ9e.s 			page 112


 4184 1329 4C370000 		.4byte	.LASF648
 4185 132d 14       		.byte	0x14
 4186 132e 11       		.uleb128 0x11
 4187 132f 7E0D0000 		.4byte	.LASF649
 4188 1333 18       		.byte	0x18
 4189 1334 11       		.uleb128 0x11
 4190 1335 E8280000 		.4byte	.LASF650
 4191 1339 1A       		.byte	0x1a
 4192 133a 11       		.uleb128 0x11
 4193 133b 61750000 		.4byte	.LASF651
 4194 133f 00       		.byte	0
 4195 1340 11       		.uleb128 0x11
 4196 1341 01620000 		.4byte	.LASF652
 4197 1345 01       		.byte	0x1
 4198 1346 11       		.uleb128 0x11
 4199 1347 48110000 		.4byte	.LASF653
 4200 134b 02       		.byte	0x2
 4201 134c 11       		.uleb128 0x11
 4202 134d 07330000 		.4byte	.LASF654
 4203 1351 03       		.byte	0x3
 4204 1352 11       		.uleb128 0x11
 4205 1353 0E1C0000 		.4byte	.LASF655
 4206 1357 04       		.byte	0x4
 4207 1358 11       		.uleb128 0x11
 4208 1359 191C0000 		.4byte	.LASF656
 4209 135d 05       		.byte	0x5
 4210 135e 11       		.uleb128 0x11
 4211 135f 705B0000 		.4byte	.LASF657
 4212 1363 06       		.byte	0x6
 4213 1364 11       		.uleb128 0x11
 4214 1365 9C6E0000 		.4byte	.LASF658
 4215 1369 07       		.byte	0x7
 4216 136a 11       		.uleb128 0x11
 4217 136b 1A650000 		.4byte	.LASF659
 4218 136f 08       		.byte	0x8
 4219 1370 11       		.uleb128 0x11
 4220 1371 68400000 		.4byte	.LASF660
 4221 1375 09       		.byte	0x9
 4222 1376 11       		.uleb128 0x11
 4223 1377 8B4A0000 		.4byte	.LASF661
 4224 137b 0A       		.byte	0xa
 4225 137c 11       		.uleb128 0x11
 4226 137d DE2B0000 		.4byte	.LASF662
 4227 1381 0B       		.byte	0xb
 4228 1382 11       		.uleb128 0x11
 4229 1383 83480000 		.4byte	.LASF663
 4230 1387 0C       		.byte	0xc
 4231 1388 11       		.uleb128 0x11
 4232 1389 70460000 		.4byte	.LASF664
 4233 138d 0D       		.byte	0xd
 4234 138e 11       		.uleb128 0x11
 4235 138f CD6E0000 		.4byte	.LASF665
 4236 1393 12       		.byte	0x12
 4237 1394 11       		.uleb128 0x11
 4238 1395 1D100000 		.4byte	.LASF666
 4239 1399 13       		.byte	0x13
 4240 139a 11       		.uleb128 0x11
ARM GAS  C:\Users\stijn\AppData\Local\Temp\ccD3lQ9e.s 			page 113


 4241 139b 161E0000 		.4byte	.LASF667
 4242 139f 14       		.byte	0x14
 4243 13a0 11       		.uleb128 0x11
 4244 13a1 6F140000 		.4byte	.LASF668
 4245 13a5 16       		.byte	0x16
 4246 13a6 11       		.uleb128 0x11
 4247 13a7 622F0000 		.4byte	.LASF669
 4248 13ab 16       		.byte	0x16
 4249 13ac 11       		.uleb128 0x11
 4250 13ad 98330000 		.4byte	.LASF670
 4251 13b1 18       		.byte	0x18
 4252 13b2 11       		.uleb128 0x11
 4253 13b3 89200000 		.4byte	.LASF671
 4254 13b7 00       		.byte	0
 4255 13b8 11       		.uleb128 0x11
 4256 13b9 87080000 		.4byte	.LASF672
 4257 13bd 01       		.byte	0x1
 4258 13be 11       		.uleb128 0x11
 4259 13bf 4E440000 		.4byte	.LASF673
 4260 13c3 02       		.byte	0x2
 4261 13c4 11       		.uleb128 0x11
 4262 13c5 0C570000 		.4byte	.LASF674
 4263 13c9 03       		.byte	0x3
 4264 13ca 11       		.uleb128 0x11
 4265 13cb 23110000 		.4byte	.LASF675
 4266 13cf 04       		.byte	0x4
 4267 13d0 11       		.uleb128 0x11
 4268 13d1 2E110000 		.4byte	.LASF676
 4269 13d5 05       		.byte	0x5
 4270 13d6 11       		.uleb128 0x11
 4271 13d7 89050000 		.4byte	.LASF677
 4272 13db 06       		.byte	0x6
 4273 13dc 11       		.uleb128 0x11
 4274 13dd 97180000 		.4byte	.LASF678
 4275 13e1 07       		.byte	0x7
 4276 13e2 11       		.uleb128 0x11
 4277 13e3 DE010000 		.4byte	.LASF679
 4278 13e7 08       		.byte	0x8
 4279 13e8 11       		.uleb128 0x11
 4280 13e9 B0110000 		.4byte	.LASF680
 4281 13ed 09       		.byte	0x9
 4282 13ee 11       		.uleb128 0x11
 4283 13ef 2A1A0000 		.4byte	.LASF681
 4284 13f3 0A       		.byte	0xa
 4285 13f4 11       		.uleb128 0x11
 4286 13f5 383B0000 		.4byte	.LASF682
 4287 13f9 0B       		.byte	0xb
 4288 13fa 11       		.uleb128 0x11
 4289 13fb 096F0000 		.4byte	.LASF683
 4290 13ff 0C       		.byte	0xc
 4291 1400 11       		.uleb128 0x11
 4292 1401 A76D0000 		.4byte	.LASF684
 4293 1405 0D       		.byte	0xd
 4294 1406 11       		.uleb128 0x11
 4295 1407 E6020000 		.4byte	.LASF685
 4296 140b 12       		.byte	0x12
 4297 140c 11       		.uleb128 0x11
ARM GAS  C:\Users\stijn\AppData\Local\Temp\ccD3lQ9e.s 			page 114


 4298 140d 781F0000 		.4byte	.LASF686
 4299 1411 13       		.byte	0x13
 4300 1412 11       		.uleb128 0x11
 4301 1413 704D0000 		.4byte	.LASF687
 4302 1417 14       		.byte	0x14
 4303 1418 11       		.uleb128 0x11
 4304 1419 2C750000 		.4byte	.LASF688
 4305 141d 16       		.byte	0x16
 4306 141e 11       		.uleb128 0x11
 4307 141f 08310000 		.4byte	.LASF689
 4308 1423 16       		.byte	0x16
 4309 1424 11       		.uleb128 0x11
 4310 1425 950D0000 		.4byte	.LASF690
 4311 1429 18       		.byte	0x18
 4312 142a 11       		.uleb128 0x11
 4313 142b 77470000 		.4byte	.LASF691
 4314 142f 00       		.byte	0
 4315 1430 11       		.uleb128 0x11
 4316 1431 C32B0000 		.4byte	.LASF692
 4317 1435 01       		.byte	0x1
 4318 1436 11       		.uleb128 0x11
 4319 1437 69770000 		.4byte	.LASF693
 4320 143b 02       		.byte	0x2
 4321 143c 11       		.uleb128 0x11
 4322 143d C47A0000 		.4byte	.LASF694
 4323 1441 03       		.byte	0x3
 4324 1442 11       		.uleb128 0x11
 4325 1443 CE060000 		.4byte	.LASF695
 4326 1447 04       		.byte	0x4
 4327 1448 11       		.uleb128 0x11
 4328 1449 D9060000 		.4byte	.LASF696
 4329 144d 05       		.byte	0x5
 4330 144e 11       		.uleb128 0x11
 4331 144f 882B0000 		.4byte	.LASF697
 4332 1453 06       		.byte	0x6
 4333 1454 11       		.uleb128 0x11
 4334 1455 D13F0000 		.4byte	.LASF698
 4335 1459 07       		.byte	0x7
 4336 145a 11       		.uleb128 0x11
 4337 145b D1740000 		.4byte	.LASF699
 4338 145f 08       		.byte	0x8
 4339 1460 11       		.uleb128 0x11
 4340 1461 D56A0000 		.4byte	.LASF700
 4341 1465 09       		.byte	0x9
 4342 1466 11       		.uleb128 0x11
 4343 1467 313C0000 		.4byte	.LASF701
 4344 146b 0A       		.byte	0xa
 4345 146c 11       		.uleb128 0x11
 4346 146d 05490000 		.4byte	.LASF702
 4347 1471 0B       		.byte	0xb
 4348 1472 11       		.uleb128 0x11
 4349 1473 D1180000 		.4byte	.LASF703
 4350 1477 0C       		.byte	0xc
 4351 1478 11       		.uleb128 0x11
 4352 1479 5F160000 		.4byte	.LASF704
 4353 147d 0D       		.byte	0xd
 4354 147e 11       		.uleb128 0x11
ARM GAS  C:\Users\stijn\AppData\Local\Temp\ccD3lQ9e.s 			page 115


 4355 147f 1B0E0000 		.4byte	.LASF705
 4356 1483 12       		.byte	0x12
 4357 1484 11       		.uleb128 0x11
 4358 1485 0D0C0000 		.4byte	.LASF706
 4359 1489 14       		.byte	0x14
 4360 148a 11       		.uleb128 0x11
 4361 148b 1A520000 		.4byte	.LASF707
 4362 148f 16       		.byte	0x16
 4363 1490 11       		.uleb128 0x11
 4364 1491 A47B0000 		.4byte	.LASF708
 4365 1495 16       		.byte	0x16
 4366 1496 11       		.uleb128 0x11
 4367 1497 206E0000 		.4byte	.LASF709
 4368 149b 00       		.byte	0
 4369 149c 11       		.uleb128 0x11
 4370 149d 7E500000 		.4byte	.LASF710
 4371 14a1 01       		.byte	0x1
 4372 14a2 11       		.uleb128 0x11
 4373 14a3 122E0000 		.4byte	.LASF711
 4374 14a7 02       		.byte	0x2
 4375 14a8 11       		.uleb128 0x11
 4376 14a9 E9210000 		.4byte	.LASF712
 4377 14ad 03       		.byte	0x3
 4378 14ae 11       		.uleb128 0x11
 4379 14af 89780000 		.4byte	.LASF713
 4380 14b3 04       		.byte	0x4
 4381 14b4 11       		.uleb128 0x11
 4382 14b5 94780000 		.4byte	.LASF714
 4383 14b9 05       		.byte	0x5
 4384 14ba 11       		.uleb128 0x11
 4385 14bb 68510000 		.4byte	.LASF715
 4386 14bf 06       		.byte	0x6
 4387 14c0 11       		.uleb128 0x11
 4388 14c1 2C650000 		.4byte	.LASF716
 4389 14c5 07       		.byte	0x7
 4390 14c6 11       		.uleb128 0x11
 4391 14c7 81300000 		.4byte	.LASF717
 4392 14cb 08       		.byte	0x8
 4393 14cc 11       		.uleb128 0x11
 4394 14cd 7B100000 		.4byte	.LASF718
 4395 14d1 09       		.byte	0x9
 4396 14d2 11       		.uleb128 0x11
 4397 14d3 87360000 		.4byte	.LASF719
 4398 14d7 0A       		.byte	0xa
 4399 14d8 11       		.uleb128 0x11
 4400 14d9 EB560000 		.4byte	.LASF720
 4401 14dd 0B       		.byte	0xb
 4402 14de 11       		.uleb128 0x11
 4403 14df 892A0000 		.4byte	.LASF721
 4404 14e3 0C       		.byte	0xc
 4405 14e4 11       		.uleb128 0x11
 4406 14e5 673D0000 		.4byte	.LASF722
 4407 14e9 0D       		.byte	0xd
 4408 14ea 11       		.uleb128 0x11
 4409 14eb 44450000 		.4byte	.LASF723
 4410 14ef 12       		.byte	0x12
 4411 14f0 11       		.uleb128 0x11
ARM GAS  C:\Users\stijn\AppData\Local\Temp\ccD3lQ9e.s 			page 116


 4412 14f1 68320000 		.4byte	.LASF724
 4413 14f5 14       		.byte	0x14
 4414 14f6 11       		.uleb128 0x11
 4415 14f7 48780000 		.4byte	.LASF725
 4416 14fb 16       		.byte	0x16
 4417 14fc 11       		.uleb128 0x11
 4418 14fd D2720000 		.4byte	.LASF726
 4419 1501 16       		.byte	0x16
 4420 1502 11       		.uleb128 0x11
 4421 1503 63180000 		.4byte	.LASF727
 4422 1507 00       		.byte	0
 4423 1508 11       		.uleb128 0x11
 4424 1509 F5730000 		.4byte	.LASF728
 4425 150d 01       		.byte	0x1
 4426 150e 11       		.uleb128 0x11
 4427 150f 24600000 		.4byte	.LASF729
 4428 1513 02       		.byte	0x2
 4429 1514 11       		.uleb128 0x11
 4430 1515 C8450000 		.4byte	.LASF730
 4431 1519 03       		.byte	0x3
 4432 151a 11       		.uleb128 0x11
 4433 151b B66D0000 		.4byte	.LASF731
 4434 151f 04       		.byte	0x4
 4435 1520 11       		.uleb128 0x11
 4436 1521 C16D0000 		.4byte	.LASF732
 4437 1525 05       		.byte	0x5
 4438 1526 11       		.uleb128 0x11
 4439 1527 F8780000 		.4byte	.LASF733
 4440 152b 06       		.byte	0x6
 4441 152c 11       		.uleb128 0x11
 4442 152d 2D0F0000 		.4byte	.LASF734
 4443 1531 07       		.byte	0x7
 4444 1532 11       		.uleb128 0x11
 4445 1533 FA640000 		.4byte	.LASF735
 4446 1537 08       		.byte	0x8
 4447 1538 11       		.uleb128 0x11
 4448 1539 FA090000 		.4byte	.LASF736
 4449 153d 09       		.byte	0x9
 4450 153e 11       		.uleb128 0x11
 4451 153f CF690000 		.4byte	.LASF737
 4452 1543 0A       		.byte	0xa
 4453 1544 11       		.uleb128 0x11
 4454 1545 4E650000 		.4byte	.LASF738
 4455 1549 0B       		.byte	0xb
 4456 154a 11       		.uleb128 0x11
 4457 154b 82650000 		.4byte	.LASF739
 4458 154f 0C       		.byte	0xc
 4459 1550 11       		.uleb128 0x11
 4460 1551 20640000 		.4byte	.LASF740
 4461 1555 0D       		.byte	0xd
 4462 1556 11       		.uleb128 0x11
 4463 1557 23480000 		.4byte	.LASF741
 4464 155b 14       		.byte	0x14
 4465 155c 11       		.uleb128 0x11
 4466 155d C8290000 		.4byte	.LASF742
 4467 1561 16       		.byte	0x16
 4468 1562 11       		.uleb128 0x11
ARM GAS  C:\Users\stijn\AppData\Local\Temp\ccD3lQ9e.s 			page 117


 4469 1563 F4060000 		.4byte	.LASF743
 4470 1567 16       		.byte	0x16
 4471 1568 11       		.uleb128 0x11
 4472 1569 3E400000 		.4byte	.LASF744
 4473 156d 00       		.byte	0
 4474 156e 11       		.uleb128 0x11
 4475 156f A31B0000 		.4byte	.LASF745
 4476 1573 01       		.byte	0x1
 4477 1574 11       		.uleb128 0x11
 4478 1575 30160000 		.4byte	.LASF746
 4479 1579 02       		.byte	0x2
 4480 157a 11       		.uleb128 0x11
 4481 157b DF690000 		.4byte	.LASF747
 4482 157f 03       		.byte	0x3
 4483 1580 11       		.uleb128 0x11
 4484 1581 59630000 		.4byte	.LASF748
 4485 1585 04       		.byte	0x4
 4486 1586 11       		.uleb128 0x11
 4487 1587 64630000 		.4byte	.LASF749
 4488 158b 05       		.byte	0x5
 4489 158c 11       		.uleb128 0x11
 4490 158d 16220000 		.4byte	.LASF750
 4491 1591 06       		.byte	0x6
 4492 1592 11       		.uleb128 0x11
 4493 1593 E4350000 		.4byte	.LASF751
 4494 1597 07       		.byte	0x7
 4495 1598 11       		.uleb128 0x11
 4496 1599 0C610000 		.4byte	.LASF752
 4497 159d 08       		.byte	0x8
 4498 159e 11       		.uleb128 0x11
 4499 159f 04060000 		.4byte	.LASF753
 4500 15a3 09       		.byte	0x9
 4501 15a4 11       		.uleb128 0x11
 4502 15a5 947B0000 		.4byte	.LASF754
 4503 15a9 0A       		.byte	0xa
 4504 15aa 11       		.uleb128 0x11
 4505 15ab 8C730000 		.4byte	.LASF755
 4506 15af 0B       		.byte	0xb
 4507 15b0 11       		.uleb128 0x11
 4508 15b1 5E0F0000 		.4byte	.LASF756
 4509 15b5 0C       		.byte	0xc
 4510 15b6 11       		.uleb128 0x11
 4511 15b7 2E0E0000 		.4byte	.LASF757
 4512 15bb 0D       		.byte	0xd
 4513 15bc 11       		.uleb128 0x11
 4514 15bd 705E0000 		.4byte	.LASF758
 4515 15c1 14       		.byte	0x14
 4516 15c2 11       		.uleb128 0x11
 4517 15c3 1F2B0000 		.4byte	.LASF759
 4518 15c7 16       		.byte	0x16
 4519 15c8 11       		.uleb128 0x11
 4520 15c9 F0170000 		.4byte	.LASF760
 4521 15cd 16       		.byte	0x16
 4522 15ce 11       		.uleb128 0x11
 4523 15cf 3C260000 		.4byte	.LASF761
 4524 15d3 00       		.byte	0
 4525 15d4 11       		.uleb128 0x11
ARM GAS  C:\Users\stijn\AppData\Local\Temp\ccD3lQ9e.s 			page 118


 4526 15d5 FE3F0000 		.4byte	.LASF762
 4527 15d9 01       		.byte	0x1
 4528 15da 11       		.uleb128 0x11
 4529 15db 22490000 		.4byte	.LASF763
 4530 15df 02       		.byte	0x2
 4531 15e0 11       		.uleb128 0x11
 4532 15e1 6D100000 		.4byte	.LASF764
 4533 15e5 03       		.byte	0x3
 4534 15e6 11       		.uleb128 0x11
 4535 15e7 97360000 		.4byte	.LASF765
 4536 15eb 04       		.byte	0x4
 4537 15ec 11       		.uleb128 0x11
 4538 15ed E0630000 		.4byte	.LASF766
 4539 15f1 05       		.byte	0x5
 4540 15f2 11       		.uleb128 0x11
 4541 15f3 39480000 		.4byte	.LASF767
 4542 15f7 06       		.byte	0x6
 4543 15f8 11       		.uleb128 0x11
 4544 15f9 3F5B0000 		.4byte	.LASF768
 4545 15fd 07       		.byte	0x7
 4546 15fe 11       		.uleb128 0x11
 4547 15ff 7D310000 		.4byte	.LASF769
 4548 1603 08       		.byte	0x8
 4549 1604 11       		.uleb128 0x11
 4550 1605 E3260000 		.4byte	.LASF770
 4551 1609 09       		.byte	0x9
 4552 160a 11       		.uleb128 0x11
 4553 160b 65220000 		.4byte	.LASF771
 4554 160f 0A       		.byte	0xa
 4555 1610 11       		.uleb128 0x11
 4556 1611 98050000 		.4byte	.LASF772
 4557 1615 0B       		.byte	0xb
 4558 1616 11       		.uleb128 0x11
 4559 1617 3B350000 		.4byte	.LASF773
 4560 161b 0C       		.byte	0xc
 4561 161c 11       		.uleb128 0x11
 4562 161d 89330000 		.4byte	.LASF774
 4563 1621 0D       		.byte	0xd
 4564 1622 11       		.uleb128 0x11
 4565 1623 55730000 		.4byte	.LASF775
 4566 1627 14       		.byte	0x14
 4567 1628 11       		.uleb128 0x11
 4568 1629 42690000 		.4byte	.LASF776
 4569 162d 16       		.byte	0x16
 4570 162e 11       		.uleb128 0x11
 4571 162f E2490000 		.4byte	.LASF777
 4572 1633 16       		.byte	0x16
 4573 1634 11       		.uleb128 0x11
 4574 1635 77180000 		.4byte	.LASF778
 4575 1639 00       		.byte	0
 4576 163a 11       		.uleb128 0x11
 4577 163b 1C030000 		.4byte	.LASF779
 4578 163f 01       		.byte	0x1
 4579 1640 11       		.uleb128 0x11
 4580 1641 00000000 		.4byte	.LASF780
 4581 1645 02       		.byte	0x2
 4582 1646 11       		.uleb128 0x11
ARM GAS  C:\Users\stijn\AppData\Local\Temp\ccD3lQ9e.s 			page 119


 4583 1647 14360000 		.4byte	.LASF781
 4584 164b 03       		.byte	0x3
 4585 164c 11       		.uleb128 0x11
 4586 164d DD600000 		.4byte	.LASF782
 4587 1651 04       		.byte	0x4
 4588 1652 11       		.uleb128 0x11
 4589 1653 654D0000 		.4byte	.LASF783
 4590 1657 05       		.byte	0x5
 4591 1658 11       		.uleb128 0x11
 4592 1659 BE6E0000 		.4byte	.LASF784
 4593 165d 06       		.byte	0x6
 4594 165e 11       		.uleb128 0x11
 4595 165f 7A050000 		.4byte	.LASF785
 4596 1663 07       		.byte	0x7
 4597 1664 11       		.uleb128 0x11
 4598 1665 C6130000 		.4byte	.LASF786
 4599 1669 08       		.byte	0x8
 4600 166a 11       		.uleb128 0x11
 4601 166b 39240000 		.4byte	.LASF787
 4602 166f 09       		.byte	0x9
 4603 1670 11       		.uleb128 0x11
 4604 1671 2F6F0000 		.4byte	.LASF788
 4605 1675 0A       		.byte	0xa
 4606 1676 11       		.uleb128 0x11
 4607 1677 E4120000 		.4byte	.LASF789
 4608 167b 0B       		.byte	0xb
 4609 167c 11       		.uleb128 0x11
 4610 167d CF5B0000 		.4byte	.LASF790
 4611 1681 0C       		.byte	0xc
 4612 1682 11       		.uleb128 0x11
 4613 1683 125A0000 		.4byte	.LASF791
 4614 1687 0D       		.byte	0xd
 4615 1688 11       		.uleb128 0x11
 4616 1689 DE670000 		.4byte	.LASF792
 4617 168d 14       		.byte	0x14
 4618 168e 11       		.uleb128 0x11
 4619 168f B11B0000 		.4byte	.LASF793
 4620 1693 00       		.byte	0
 4621 1694 11       		.uleb128 0x11
 4622 1695 FA300000 		.4byte	.LASF794
 4623 1699 01       		.byte	0x1
 4624 169a 11       		.uleb128 0x11
 4625 169b 15390000 		.4byte	.LASF795
 4626 169f 02       		.byte	0x2
 4627 16a0 11       		.uleb128 0x11
 4628 16a1 8D030000 		.4byte	.LASF796
 4629 16a5 03       		.byte	0x3
 4630 16a6 11       		.uleb128 0x11
 4631 16a7 334F0000 		.4byte	.LASF797
 4632 16ab 04       		.byte	0x4
 4633 16ac 11       		.uleb128 0x11
 4634 16ad 3E4F0000 		.4byte	.LASF798
 4635 16b1 05       		.byte	0x5
 4636 16b2 11       		.uleb128 0x11
 4637 16b3 2F6D0000 		.4byte	.LASF799
 4638 16b7 06       		.byte	0x6
 4639 16b8 11       		.uleb128 0x11
ARM GAS  C:\Users\stijn\AppData\Local\Temp\ccD3lQ9e.s 			page 120


 4640 16b9 C5030000 		.4byte	.LASF800
 4641 16bd 07       		.byte	0x7
 4642 16be 11       		.uleb128 0x11
 4643 16bf 821A0000 		.4byte	.LASF801
 4644 16c3 08       		.byte	0x8
 4645 16c4 11       		.uleb128 0x11
 4646 16c5 CF0F0000 		.4byte	.LASF802
 4647 16c9 09       		.byte	0x9
 4648 16ca 11       		.uleb128 0x11
 4649 16cb 9B580000 		.4byte	.LASF803
 4650 16cf 0A       		.byte	0xa
 4651 16d0 11       		.uleb128 0x11
 4652 16d1 706B0000 		.4byte	.LASF804
 4653 16d5 0B       		.byte	0xb
 4654 16d6 11       		.uleb128 0x11
 4655 16d7 F1590000 		.4byte	.LASF805
 4656 16db 0C       		.byte	0xc
 4657 16dc 11       		.uleb128 0x11
 4658 16dd 18580000 		.4byte	.LASF806
 4659 16e1 0D       		.byte	0xd
 4660 16e2 11       		.uleb128 0x11
 4661 16e3 AA6A0000 		.4byte	.LASF807
 4662 16e7 0E       		.byte	0xe
 4663 16e8 11       		.uleb128 0x11
 4664 16e9 BD480000 		.4byte	.LASF808
 4665 16ed 12       		.byte	0x12
 4666 16ee 11       		.uleb128 0x11
 4667 16ef DE650000 		.4byte	.LASF809
 4668 16f3 13       		.byte	0x13
 4669 16f4 11       		.uleb128 0x11
 4670 16f5 F3350000 		.4byte	.LASF810
 4671 16f9 14       		.byte	0x14
 4672 16fa 11       		.uleb128 0x11
 4673 16fb 450B0000 		.4byte	.LASF811
 4674 16ff 19       		.byte	0x19
 4675 1700 11       		.uleb128 0x11
 4676 1701 556D0000 		.4byte	.LASF812
 4677 1705 1E       		.byte	0x1e
 4678 1706 11       		.uleb128 0x11
 4679 1707 F3420000 		.4byte	.LASF813
 4680 170b 00       		.byte	0
 4681 170c 11       		.uleb128 0x11
 4682 170d 9E540000 		.4byte	.LASF814
 4683 1711 01       		.byte	0x1
 4684 1712 11       		.uleb128 0x11
 4685 1713 826B0000 		.4byte	.LASF815
 4686 1717 02       		.byte	0x2
 4687 1718 11       		.uleb128 0x11
 4688 1719 1A260000 		.4byte	.LASF816
 4689 171d 03       		.byte	0x3
 4690 171e 11       		.uleb128 0x11
 4691 171f 28440000 		.4byte	.LASF817
 4692 1723 04       		.byte	0x4
 4693 1724 11       		.uleb128 0x11
 4694 1725 33440000 		.4byte	.LASF818
 4695 1729 05       		.byte	0x5
 4696 172a 11       		.uleb128 0x11
ARM GAS  C:\Users\stijn\AppData\Local\Temp\ccD3lQ9e.s 			page 121


 4697 172b 982A0000 		.4byte	.LASF819
 4698 172f 06       		.byte	0x6
 4699 1730 11       		.uleb128 0x11
 4700 1731 B6280000 		.4byte	.LASF820
 4701 1735 07       		.byte	0x7
 4702 1736 11       		.uleb128 0x11
 4703 1737 64640000 		.4byte	.LASF821
 4704 173b 08       		.byte	0x8
 4705 173c 11       		.uleb128 0x11
 4706 173d 14750000 		.4byte	.LASF822
 4707 1741 09       		.byte	0x9
 4708 1742 11       		.uleb128 0x11
 4709 1743 CF270000 		.4byte	.LASF823
 4710 1747 0A       		.byte	0xa
 4711 1748 11       		.uleb128 0x11
 4712 1749 5D790000 		.4byte	.LASF824
 4713 174d 0B       		.byte	0xb
 4714 174e 11       		.uleb128 0x11
 4715 174f 2E040000 		.4byte	.LASF825
 4716 1753 0C       		.byte	0xc
 4717 1754 11       		.uleb128 0x11
 4718 1755 0B020000 		.4byte	.LASF826
 4719 1759 0D       		.byte	0xd
 4720 175a 11       		.uleb128 0x11
 4721 175b 77790000 		.4byte	.LASF827
 4722 175f 0E       		.byte	0xe
 4723 1760 11       		.uleb128 0x11
 4724 1761 AB580000 		.4byte	.LASF828
 4725 1765 12       		.byte	0x12
 4726 1766 11       		.uleb128 0x11
 4727 1767 68740000 		.4byte	.LASF829
 4728 176b 13       		.byte	0x13
 4729 176c 11       		.uleb128 0x11
 4730 176d 3B650000 		.4byte	.LASF830
 4731 1771 14       		.byte	0x14
 4732 1772 11       		.uleb128 0x11
 4733 1773 74210000 		.4byte	.LASF831
 4734 1777 19       		.byte	0x19
 4735 1778 11       		.uleb128 0x11
 4736 1779 9D1E0000 		.4byte	.LASF832
 4737 177d 1E       		.byte	0x1e
 4738 177e 11       		.uleb128 0x11
 4739 177f 545F0000 		.4byte	.LASF833
 4740 1783 00       		.byte	0
 4741 1784 11       		.uleb128 0x11
 4742 1785 4F790000 		.4byte	.LASF834
 4743 1789 01       		.byte	0x1
 4744 178a 11       		.uleb128 0x11
 4745 178b 28210000 		.4byte	.LASF835
 4746 178f 02       		.byte	0x2
 4747 1790 11       		.uleb128 0x11
 4748 1791 9B4A0000 		.4byte	.LASF836
 4749 1795 03       		.byte	0x3
 4750 1796 11       		.uleb128 0x11
 4751 1797 1A3A0000 		.4byte	.LASF837
 4752 179b 04       		.byte	0x4
 4753 179c 11       		.uleb128 0x11
ARM GAS  C:\Users\stijn\AppData\Local\Temp\ccD3lQ9e.s 			page 122


 4754 179d E17A0000 		.4byte	.LASF838
 4755 17a1 05       		.byte	0x5
 4756 17a2 11       		.uleb128 0x11
 4757 17a3 863C0000 		.4byte	.LASF839
 4758 17a7 06       		.byte	0x6
 4759 17a8 11       		.uleb128 0x11
 4760 17a9 CC4F0000 		.4byte	.LASF840
 4761 17ad 07       		.byte	0x7
 4762 17ae 11       		.uleb128 0x11
 4763 17af 4F380000 		.4byte	.LASF841
 4764 17b3 08       		.byte	0x8
 4765 17b4 11       		.uleb128 0x11
 4766 17b5 3C2C0000 		.4byte	.LASF842
 4767 17b9 09       		.byte	0x9
 4768 17ba 11       		.uleb128 0x11
 4769 17bb 48740000 		.4byte	.LASF843
 4770 17bf 0A       		.byte	0xa
 4771 17c0 11       		.uleb128 0x11
 4772 17c1 AA6B0000 		.4byte	.LASF844
 4773 17c5 0B       		.byte	0xb
 4774 17c6 11       		.uleb128 0x11
 4775 17c7 382A0000 		.4byte	.LASF845
 4776 17cb 0C       		.byte	0xc
 4777 17cc 11       		.uleb128 0x11
 4778 17cd 1E1F0000 		.4byte	.LASF846
 4779 17d1 0D       		.byte	0xd
 4780 17d2 11       		.uleb128 0x11
 4781 17d3 B6240000 		.4byte	.LASF847
 4782 17d7 12       		.byte	0x12
 4783 17d8 11       		.uleb128 0x11
 4784 17d9 D6620000 		.4byte	.LASF848
 4785 17dd 14       		.byte	0x14
 4786 17de 11       		.uleb128 0x11
 4787 17df 2D670000 		.4byte	.LASF849
 4788 17e3 1E       		.byte	0x1e
 4789 17e4 11       		.uleb128 0x11
 4790 17e5 19130000 		.4byte	.LASF850
 4791 17e9 00       		.byte	0
 4792 17ea 11       		.uleb128 0x11
 4793 17eb 15200000 		.4byte	.LASF851
 4794 17ef 01       		.byte	0x1
 4795 17f0 11       		.uleb128 0x11
 4796 17f1 A0530000 		.4byte	.LASF852
 4797 17f5 02       		.byte	0x2
 4798 17f6 11       		.uleb128 0x11
 4799 17f7 836E0000 		.4byte	.LASF853
 4800 17fb 03       		.byte	0x3
 4801 17fc 11       		.uleb128 0x11
 4802 17fd B32D0000 		.4byte	.LASF854
 4803 1801 04       		.byte	0x4
 4804 1802 11       		.uleb128 0x11
 4805 1803 BE2D0000 		.4byte	.LASF855
 4806 1807 05       		.byte	0x5
 4807 1808 11       		.uleb128 0x11
 4808 1809 6F630000 		.4byte	.LASF856
 4809 180d 06       		.byte	0x6
 4810 180e 11       		.uleb128 0x11
ARM GAS  C:\Users\stijn\AppData\Local\Temp\ccD3lQ9e.s 			page 123


 4811 180f 857B0000 		.4byte	.LASF857
 4812 1813 07       		.byte	0x7
 4813 1814 11       		.uleb128 0x11
 4814 1815 11170000 		.4byte	.LASF858
 4815 1819 08       		.byte	0x8
 4816 181a 11       		.uleb128 0x11
 4817 181b 2F280000 		.4byte	.LASF859
 4818 181f 09       		.byte	0x9
 4819 1820 11       		.uleb128 0x11
 4820 1821 E5440000 		.4byte	.LASF860
 4821 1825 0A       		.byte	0xa
 4822 1826 11       		.uleb128 0x11
 4823 1827 64190000 		.4byte	.LASF861
 4824 182b 0B       		.byte	0xb
 4825 182c 11       		.uleb128 0x11
 4826 182d 9C500000 		.4byte	.LASF862
 4827 1831 0C       		.byte	0xc
 4828 1832 11       		.uleb128 0x11
 4829 1833 9D4F0000 		.4byte	.LASF863
 4830 1837 0D       		.byte	0xd
 4831 1838 11       		.uleb128 0x11
 4832 1839 975C0000 		.4byte	.LASF864
 4833 183d 12       		.byte	0x12
 4834 183e 11       		.uleb128 0x11
 4835 183f 97670000 		.4byte	.LASF865
 4836 1843 14       		.byte	0x14
 4837 1844 11       		.uleb128 0x11
 4838 1845 BB3F0000 		.4byte	.LASF866
 4839 1849 1E       		.byte	0x1e
 4840 184a 11       		.uleb128 0x11
 4841 184b 2E3B0000 		.4byte	.LASF867
 4842 184f 00       		.byte	0
 4843 1850 11       		.uleb128 0x11
 4844 1851 E0430000 		.4byte	.LASF868
 4845 1855 01       		.byte	0x1
 4846 1856 11       		.uleb128 0x11
 4847 1857 580A0000 		.4byte	.LASF869
 4848 185b 02       		.byte	0x2
 4849 185c 11       		.uleb128 0x11
 4850 185d 5F150000 		.4byte	.LASF870
 4851 1861 03       		.byte	0x3
 4852 1862 11       		.uleb128 0x11
 4853 1863 6E230000 		.4byte	.LASF871
 4854 1867 04       		.byte	0x4
 4855 1868 11       		.uleb128 0x11
 4856 1869 79230000 		.4byte	.LASF872
 4857 186d 05       		.byte	0x5
 4858 186e 11       		.uleb128 0x11
 4859 186f 3D640000 		.4byte	.LASF873
 4860 1873 06       		.byte	0x6
 4861 1874 11       		.uleb128 0x11
 4862 1875 23200000 		.4byte	.LASF874
 4863 1879 07       		.byte	0x7
 4864 187a 11       		.uleb128 0x11
 4865 187b 3B530000 		.4byte	.LASF875
 4866 187f 08       		.byte	0x8
 4867 1880 11       		.uleb128 0x11
ARM GAS  C:\Users\stijn\AppData\Local\Temp\ccD3lQ9e.s 			page 124


 4868 1881 7E390000 		.4byte	.LASF876
 4869 1885 09       		.byte	0x9
 4870 1886 11       		.uleb128 0x11
 4871 1887 87140000 		.4byte	.LASF877
 4872 188b 0A       		.byte	0xa
 4873 188c 11       		.uleb128 0x11
 4874 188d 4B270000 		.4byte	.LASF878
 4875 1891 0B       		.byte	0xb
 4876 1892 11       		.uleb128 0x11
 4877 1893 01780000 		.4byte	.LASF879
 4878 1897 0C       		.byte	0xc
 4879 1898 11       		.uleb128 0x11
 4880 1899 8D750000 		.4byte	.LASF880
 4881 189d 0D       		.byte	0xd
 4882 189e 11       		.uleb128 0x11
 4883 189f A5680000 		.4byte	.LASF881
 4884 18a3 0E       		.byte	0xe
 4885 18a4 11       		.uleb128 0x11
 4886 18a5 F2200000 		.4byte	.LASF882
 4887 18a9 12       		.byte	0x12
 4888 18aa 11       		.uleb128 0x11
 4889 18ab C63E0000 		.4byte	.LASF883
 4890 18af 13       		.byte	0x13
 4891 18b0 11       		.uleb128 0x11
 4892 18b1 1D770000 		.4byte	.LASF884
 4893 18b5 14       		.byte	0x14
 4894 18b6 11       		.uleb128 0x11
 4895 18b7 D0790000 		.4byte	.LASF885
 4896 18bb 18       		.byte	0x18
 4897 18bc 11       		.uleb128 0x11
 4898 18bd F93E0000 		.4byte	.LASF886
 4899 18c1 19       		.byte	0x19
 4900 18c2 11       		.uleb128 0x11
 4901 18c3 91240000 		.4byte	.LASF887
 4902 18c7 1D       		.byte	0x1d
 4903 18c8 11       		.uleb128 0x11
 4904 18c9 36420000 		.4byte	.LASF888
 4905 18cd 1E       		.byte	0x1e
 4906 18ce 11       		.uleb128 0x11
 4907 18cf A94A0000 		.4byte	.LASF889
 4908 18d3 1F       		.byte	0x1f
 4909 18d4 11       		.uleb128 0x11
 4910 18d5 69620000 		.4byte	.LASF890
 4911 18d9 00       		.byte	0
 4912 18da 11       		.uleb128 0x11
 4913 18db 4D680000 		.4byte	.LASF891
 4914 18df 01       		.byte	0x1
 4915 18e0 11       		.uleb128 0x11
 4916 18e1 1E3D0000 		.4byte	.LASF892
 4917 18e5 02       		.byte	0x2
 4918 18e6 11       		.uleb128 0x11
 4919 18e7 EE3A0000 		.4byte	.LASF893
 4920 18eb 03       		.byte	0x3
 4921 18ec 11       		.uleb128 0x11
 4922 18ed E0180000 		.4byte	.LASF894
 4923 18f1 04       		.byte	0x4
 4924 18f2 11       		.uleb128 0x11
ARM GAS  C:\Users\stijn\AppData\Local\Temp\ccD3lQ9e.s 			page 125


 4925 18f3 EB180000 		.4byte	.LASF895
 4926 18f7 05       		.byte	0x5
 4927 18f8 11       		.uleb128 0x11
 4928 18f9 7E320000 		.4byte	.LASF896
 4929 18fd 06       		.byte	0x6
 4930 18fe 11       		.uleb128 0x11
 4931 18ff D6450000 		.4byte	.LASF897
 4932 1903 07       		.byte	0x7
 4933 1904 11       		.uleb128 0x11
 4934 1905 BD460000 		.4byte	.LASF898
 4935 1909 08       		.byte	0x8
 4936 190a 11       		.uleb128 0x11
 4937 190b 0F410000 		.4byte	.LASF899
 4938 190f 09       		.byte	0x9
 4939 1910 11       		.uleb128 0x11
 4940 1911 79610000 		.4byte	.LASF900
 4941 1915 0A       		.byte	0xa
 4942 1916 11       		.uleb128 0x11
 4943 1917 F44B0000 		.4byte	.LASF901
 4944 191b 0B       		.byte	0xb
 4945 191c 11       		.uleb128 0x11
 4946 191d CC200000 		.4byte	.LASF902
 4947 1921 0C       		.byte	0xc
 4948 1922 11       		.uleb128 0x11
 4949 1923 FF1E0000 		.4byte	.LASF903
 4950 1927 0D       		.byte	0xd
 4951 1928 11       		.uleb128 0x11
 4952 1929 32360000 		.4byte	.LASF904
 4953 192d 0E       		.byte	0xe
 4954 192e 11       		.uleb128 0x11
 4955 192f 43300000 		.4byte	.LASF905
 4956 1933 12       		.byte	0x12
 4957 1934 11       		.uleb128 0x11
 4958 1935 B14C0000 		.4byte	.LASF906
 4959 1939 13       		.byte	0x13
 4960 193a 11       		.uleb128 0x11
 4961 193b 7B290000 		.4byte	.LASF907
 4962 193f 14       		.byte	0x14
 4963 1940 11       		.uleb128 0x11
 4964 1941 A3520000 		.4byte	.LASF908
 4965 1945 18       		.byte	0x18
 4966 1946 11       		.uleb128 0x11
 4967 1947 17180000 		.4byte	.LASF909
 4968 194b 19       		.byte	0x19
 4969 194c 11       		.uleb128 0x11
 4970 194d CF280000 		.4byte	.LASF910
 4971 1951 1D       		.byte	0x1d
 4972 1952 11       		.uleb128 0x11
 4973 1953 24710000 		.4byte	.LASF911
 4974 1957 1E       		.byte	0x1e
 4975 1958 11       		.uleb128 0x11
 4976 1959 0A280000 		.4byte	.LASF912
 4977 195d 1F       		.byte	0x1f
 4978 195e 11       		.uleb128 0x11
 4979 195f 910B0000 		.4byte	.LASF913
 4980 1963 00       		.byte	0
 4981 1964 11       		.uleb128 0x11
ARM GAS  C:\Users\stijn\AppData\Local\Temp\ccD3lQ9e.s 			page 126


 4982 1965 C10F0000 		.4byte	.LASF914
 4983 1969 01       		.byte	0x1
 4984 196a 11       		.uleb128 0x11
 4985 196b 9B6F0000 		.4byte	.LASF915
 4986 196f 02       		.byte	0x2
 4987 1970 11       		.uleb128 0x11
 4988 1971 115E0000 		.4byte	.LASF916
 4989 1975 03       		.byte	0x3
 4990 1976 11       		.uleb128 0x11
 4991 1977 AE0E0000 		.4byte	.LASF917
 4992 197b 04       		.byte	0x4
 4993 197c 11       		.uleb128 0x11
 4994 197d B90E0000 		.4byte	.LASF918
 4995 1981 05       		.byte	0x5
 4996 1982 11       		.uleb128 0x11
 4997 1983 61590000 		.4byte	.LASF919
 4998 1987 06       		.byte	0x6
 4999 1988 11       		.uleb128 0x11
 5000 1989 076D0000 		.4byte	.LASF920
 5001 198d 07       		.byte	0x7
 5002 198e 11       		.uleb128 0x11
 5003 198f E96F0000 		.4byte	.LASF921
 5004 1993 08       		.byte	0x8
 5005 1994 11       		.uleb128 0x11
 5006 1995 D1350000 		.4byte	.LASF922
 5007 1999 09       		.byte	0x9
 5008 199a 11       		.uleb128 0x11
 5009 199b 63300000 		.4byte	.LASF923
 5010 199f 0A       		.byte	0xa
 5011 19a0 11       		.uleb128 0x11
 5012 19a1 BE430000 		.4byte	.LASF924
 5013 19a5 0B       		.byte	0xb
 5014 19a6 11       		.uleb128 0x11
 5015 19a7 1E470000 		.4byte	.LASF925
 5016 19ab 0C       		.byte	0xc
 5017 19ac 11       		.uleb128 0x11
 5018 19ad 90450000 		.4byte	.LASF926
 5019 19b1 0D       		.byte	0xd
 5020 19b2 11       		.uleb128 0x11
 5021 19b3 63660000 		.4byte	.LASF927
 5022 19b7 12       		.byte	0x12
 5023 19b8 11       		.uleb128 0x11
 5024 19b9 083A0000 		.4byte	.LASF928
 5025 19bd 14       		.byte	0x14
 5026 19be 11       		.uleb128 0x11
 5027 19bf 22330000 		.4byte	.LASF929
 5028 19c3 1D       		.byte	0x1d
 5029 19c4 11       		.uleb128 0x11
 5030 19c5 3D220000 		.4byte	.LASF930
 5031 19c9 1E       		.byte	0x1e
 5032 19ca 11       		.uleb128 0x11
 5033 19cb 8D320000 		.4byte	.LASF931
 5034 19cf 00       		.byte	0
 5035 19d0 11       		.uleb128 0x11
 5036 19d1 D3330000 		.4byte	.LASF932
 5037 19d5 01       		.byte	0x1
 5038 19d6 11       		.uleb128 0x11
ARM GAS  C:\Users\stijn\AppData\Local\Temp\ccD3lQ9e.s 			page 127


 5039 19d7 63250000 		.4byte	.LASF933
 5040 19db 02       		.byte	0x2
 5041 19dc 11       		.uleb128 0x11
 5042 19dd 5A510000 		.4byte	.LASF934
 5043 19e1 03       		.byte	0x3
 5044 19e2 11       		.uleb128 0x11
 5045 19e3 3D040000 		.4byte	.LASF935
 5046 19e7 04       		.byte	0x4
 5047 19e8 11       		.uleb128 0x11
 5048 19e9 48040000 		.4byte	.LASF936
 5049 19ed 05       		.byte	0x5
 5050 19ee 11       		.uleb128 0x11
 5051 19ef FB030000 		.4byte	.LASF937
 5052 19f3 06       		.byte	0x6
 5053 19f4 11       		.uleb128 0x11
 5054 19f5 7A160000 		.4byte	.LASF938
 5055 19f9 07       		.byte	0x7
 5056 19fa 11       		.uleb128 0x11
 5057 19fb F7760000 		.4byte	.LASF939
 5058 19ff 08       		.byte	0x8
 5059 1a00 11       		.uleb128 0x11
 5060 1a01 B8180000 		.4byte	.LASF940
 5061 1a05 09       		.byte	0x9
 5062 1a06 11       		.uleb128 0x11
 5063 1a07 4C010000 		.4byte	.LASF941
 5064 1a0b 0A       		.byte	0xa
 5065 1a0c 11       		.uleb128 0x11
 5066 1a0d 3A520000 		.4byte	.LASF942
 5067 1a11 0B       		.byte	0xb
 5068 1a12 11       		.uleb128 0x11
 5069 1a13 3C6E0000 		.4byte	.LASF943
 5070 1a17 0C       		.byte	0xc
 5071 1a18 11       		.uleb128 0x11
 5072 1a19 D46C0000 		.4byte	.LASF944
 5073 1a1d 0D       		.byte	0xd
 5074 1a1e 11       		.uleb128 0x11
 5075 1a1f 35210000 		.4byte	.LASF945
 5076 1a23 12       		.byte	0x12
 5077 1a24 11       		.uleb128 0x11
 5078 1a25 76730000 		.4byte	.LASF946
 5079 1a29 14       		.byte	0x14
 5080 1a2a 11       		.uleb128 0x11
 5081 1a2b 16070000 		.4byte	.LASF947
 5082 1a2f 1D       		.byte	0x1d
 5083 1a30 11       		.uleb128 0x11
 5084 1a31 D6190000 		.4byte	.LASF948
 5085 1a35 1E       		.byte	0x1e
 5086 1a36 11       		.uleb128 0x11
 5087 1a37 B23E0000 		.4byte	.LASF949
 5088 1a3b 00       		.byte	0
 5089 1a3c 11       		.uleb128 0x11
 5090 1a3d B0010000 		.4byte	.LASF950
 5091 1a41 01       		.byte	0x1
 5092 1a42 11       		.uleb128 0x11
 5093 1a43 2A5F0000 		.4byte	.LASF951
 5094 1a47 02       		.byte	0x2
 5095 1a48 11       		.uleb128 0x11
ARM GAS  C:\Users\stijn\AppData\Local\Temp\ccD3lQ9e.s 			page 128


 5096 1a49 884F0000 		.4byte	.LASF952
 5097 1a4d 03       		.byte	0x3
 5098 1a4e 11       		.uleb128 0x11
 5099 1a4f 3F050000 		.4byte	.LASF953
 5100 1a53 04       		.byte	0x4
 5101 1a54 11       		.uleb128 0x11
 5102 1a55 4A050000 		.4byte	.LASF954
 5103 1a59 05       		.byte	0x5
 5104 1a5a 11       		.uleb128 0x11
 5105 1a5b 0C010000 		.4byte	.LASF955
 5106 1a5f 06       		.byte	0x6
 5107 1a60 11       		.uleb128 0x11
 5108 1a61 23130000 		.4byte	.LASF956
 5109 1a65 07       		.byte	0x7
 5110 1a66 11       		.uleb128 0x11
 5111 1a67 005A0000 		.4byte	.LASF957
 5112 1a6b 08       		.byte	0x8
 5113 1a6c 11       		.uleb128 0x11
 5114 1a6d B6400000 		.4byte	.LASF958
 5115 1a71 09       		.byte	0x9
 5116 1a72 11       		.uleb128 0x11
 5117 1a73 DD660000 		.4byte	.LASF959
 5118 1a77 0A       		.byte	0xa
 5119 1a78 11       		.uleb128 0x11
 5120 1a79 192D0000 		.4byte	.LASF960
 5121 1a7d 0B       		.byte	0xb
 5122 1a7e 11       		.uleb128 0x11
 5123 1a7f 4E6B0000 		.4byte	.LASF961
 5124 1a83 0C       		.byte	0xc
 5125 1a84 11       		.uleb128 0x11
 5126 1a85 9D690000 		.4byte	.LASF962
 5127 1a89 0D       		.byte	0xd
 5128 1a8a 11       		.uleb128 0x11
 5129 1a8b 0C0A0000 		.4byte	.LASF963
 5130 1a8f 12       		.byte	0x12
 5131 1a90 11       		.uleb128 0x11
 5132 1a91 205B0000 		.4byte	.LASF964
 5133 1a95 13       		.byte	0x13
 5134 1a96 11       		.uleb128 0x11
 5135 1a97 B73C0000 		.4byte	.LASF965
 5136 1a9b 14       		.byte	0x14
 5137 1a9c 11       		.uleb128 0x11
 5138 1a9d C7000000 		.4byte	.LASF966
 5139 1aa1 18       		.byte	0x18
 5140 1aa2 11       		.uleb128 0x11
 5141 1aa3 42540000 		.4byte	.LASF967
 5142 1aa7 1A       		.byte	0x1a
 5143 1aa8 11       		.uleb128 0x11
 5144 1aa9 78650000 		.4byte	.LASF968
 5145 1aad 00       		.byte	0
 5146 1aae 11       		.uleb128 0x11
 5147 1aaf A8240000 		.4byte	.LASF969
 5148 1ab3 01       		.byte	0x1
 5149 1ab4 11       		.uleb128 0x11
 5150 1ab5 E4140000 		.4byte	.LASF970
 5151 1ab9 02       		.byte	0x2
 5152 1aba 11       		.uleb128 0x11
ARM GAS  C:\Users\stijn\AppData\Local\Temp\ccD3lQ9e.s 			page 129


 5153 1abb 58720000 		.4byte	.LASF971
 5154 1abf 03       		.byte	0x3
 5155 1ac0 11       		.uleb128 0x11
 5156 1ac1 30770000 		.4byte	.LASF972
 5157 1ac5 04       		.byte	0x4
 5158 1ac6 11       		.uleb128 0x11
 5159 1ac7 3B770000 		.4byte	.LASF973
 5160 1acb 05       		.byte	0x5
 5161 1acc 11       		.uleb128 0x11
 5162 1acd D4260000 		.4byte	.LASF974
 5163 1ad1 06       		.byte	0x6
 5164 1ad2 11       		.uleb128 0x11
 5165 1ad3 BC3A0000 		.4byte	.LASF975
 5166 1ad7 07       		.byte	0x7
 5167 1ad8 11       		.uleb128 0x11
 5168 1ad9 394A0000 		.4byte	.LASF976
 5169 1add 08       		.byte	0x8
 5170 1ade 11       		.uleb128 0x11
 5171 1adf 03320000 		.4byte	.LASF977
 5172 1ae3 09       		.byte	0x9
 5173 1ae4 11       		.uleb128 0x11
 5174 1ae5 AB360000 		.4byte	.LASF978
 5175 1ae9 0A       		.byte	0xa
 5176 1aea 11       		.uleb128 0x11
 5177 1aeb 003C0000 		.4byte	.LASF979
 5178 1aef 0B       		.byte	0xb
 5179 1af0 11       		.uleb128 0x11
 5180 1af1 A6140000 		.4byte	.LASF980
 5181 1af5 0C       		.byte	0xc
 5182 1af6 11       		.uleb128 0x11
 5183 1af7 D5120000 		.4byte	.LASF981
 5184 1afb 0D       		.byte	0xd
 5185 1afc 11       		.uleb128 0x11
 5186 1afd C34C0000 		.4byte	.LASF982
 5187 1b01 12       		.byte	0x12
 5188 1b02 11       		.uleb128 0x11
 5189 1b03 5D6A0000 		.4byte	.LASF983
 5190 1b07 13       		.byte	0x13
 5191 1b08 11       		.uleb128 0x11
 5192 1b09 5D6B0000 		.4byte	.LASF984
 5193 1b0d 14       		.byte	0x14
 5194 1b0e 11       		.uleb128 0x11
 5195 1b0f 57560000 		.4byte	.LASF985
 5196 1b13 18       		.byte	0x18
 5197 1b14 11       		.uleb128 0x11
 5198 1b15 070F0000 		.4byte	.LASF986
 5199 1b19 00       		.byte	0
 5200 1b1a 11       		.uleb128 0x11
 5201 1b1b E8480000 		.4byte	.LASF987
 5202 1b1f 01       		.byte	0x1
 5203 1b20 11       		.uleb128 0x11
 5204 1b21 B4390000 		.4byte	.LASF988
 5205 1b25 02       		.byte	0x2
 5206 1b26 11       		.uleb128 0x11
 5207 1b27 401B0000 		.4byte	.LASF989
 5208 1b2b 03       		.byte	0x3
 5209 1b2c 11       		.uleb128 0x11
ARM GAS  C:\Users\stijn\AppData\Local\Temp\ccD3lQ9e.s 			page 130


 5210 1b2d F16C0000 		.4byte	.LASF990
 5211 1b31 04       		.byte	0x4
 5212 1b32 11       		.uleb128 0x11
 5213 1b33 FC6C0000 		.4byte	.LASF991
 5214 1b37 05       		.byte	0x5
 5215 1b38 11       		.uleb128 0x11
 5216 1b39 484D0000 		.4byte	.LASF992
 5217 1b3d 06       		.byte	0x6
 5218 1b3e 11       		.uleb128 0x11
 5219 1b3f 24610000 		.4byte	.LASF993
 5220 1b43 07       		.byte	0x7
 5221 1b44 11       		.uleb128 0x11
 5222 1b45 7B750000 		.4byte	.LASF994
 5223 1b49 08       		.byte	0x8
 5224 1b4a 11       		.uleb128 0x11
 5225 1b4b 14700000 		.4byte	.LASF995
 5226 1b4f 09       		.byte	0x9
 5227 1b50 11       		.uleb128 0x11
 5228 1b51 BE060000 		.4byte	.LASF996
 5229 1b55 0A       		.byte	0xa
 5230 1b56 11       		.uleb128 0x11
 5231 1b57 B7490000 		.4byte	.LASF997
 5232 1b5b 0B       		.byte	0xb
 5233 1b5c 11       		.uleb128 0x11
 5234 1b5d F1400000 		.4byte	.LASF998
 5235 1b61 0C       		.byte	0xc
 5236 1b62 11       		.uleb128 0x11
 5237 1b63 9D3A0000 		.4byte	.LASF999
 5238 1b67 0D       		.byte	0xd
 5239 1b68 11       		.uleb128 0x11
 5240 1b69 672B0000 		.4byte	.LASF1000
 5241 1b6d 12       		.byte	0x12
 5242 1b6e 11       		.uleb128 0x11
 5243 1b6f D9560000 		.4byte	.LASF1001
 5244 1b73 14       		.byte	0x14
 5245 1b74 11       		.uleb128 0x11
 5246 1b75 44360000 		.4byte	.LASF1002
 5247 1b79 00       		.byte	0
 5248 1b7a 11       		.uleb128 0x11
 5249 1b7b E36C0000 		.4byte	.LASF1003
 5250 1b7f 01       		.byte	0x1
 5251 1b80 11       		.uleb128 0x11
 5252 1b81 6E0E0000 		.4byte	.LASF1004
 5253 1b85 02       		.byte	0x2
 5254 1b86 11       		.uleb128 0x11
 5255 1b87 9D3F0000 		.4byte	.LASF1005
 5256 1b8b 03       		.byte	0x3
 5257 1b8c 11       		.uleb128 0x11
 5258 1b8d 33610000 		.4byte	.LASF1006
 5259 1b91 04       		.byte	0x4
 5260 1b92 11       		.uleb128 0x11
 5261 1b93 3E610000 		.4byte	.LASF1007
 5262 1b97 05       		.byte	0x5
 5263 1b98 11       		.uleb128 0x11
 5264 1b99 80690000 		.4byte	.LASF1008
 5265 1b9d 06       		.byte	0x6
 5266 1b9e 11       		.uleb128 0x11
ARM GAS  C:\Users\stijn\AppData\Local\Temp\ccD3lQ9e.s 			page 131


 5267 1b9f D2530000 		.4byte	.LASF1009
 5268 1ba3 07       		.byte	0x7
 5269 1ba4 11       		.uleb128 0x11
 5270 1ba5 71330000 		.4byte	.LASF1010
 5271 1ba9 08       		.byte	0x8
 5272 1baa 11       		.uleb128 0x11
 5273 1bab 3F0A0000 		.4byte	.LASF1011
 5274 1baf 09       		.byte	0x9
 5275 1bb0 11       		.uleb128 0x11
 5276 1bb1 D3520000 		.4byte	.LASF1012
 5277 1bb5 0A       		.byte	0xa
 5278 1bb6 11       		.uleb128 0x11
 5279 1bb7 D5570000 		.4byte	.LASF1013
 5280 1bbb 0B       		.byte	0xb
 5281 1bbc 11       		.uleb128 0x11
 5282 1bbd C7620000 		.4byte	.LASF1014
 5283 1bc1 0C       		.byte	0xc
 5284 1bc2 11       		.uleb128 0x11
 5285 1bc3 FF5F0000 		.4byte	.LASF1015
 5286 1bc7 0D       		.byte	0xd
 5287 1bc8 11       		.uleb128 0x11
 5288 1bc9 06630000 		.4byte	.LASF1016
 5289 1bcd 12       		.byte	0x12
 5290 1bce 11       		.uleb128 0x11
 5291 1bcf 32510000 		.4byte	.LASF1017
 5292 1bd3 14       		.byte	0x14
 5293 1bd4 11       		.uleb128 0x11
 5294 1bd5 285D0000 		.4byte	.LASF1018
 5295 1bd9 00       		.byte	0
 5296 1bda 11       		.uleb128 0x11
 5297 1bdb 30140000 		.4byte	.LASF1019
 5298 1bdf 01       		.byte	0x1
 5299 1be0 11       		.uleb128 0x11
 5300 1be1 7E5F0000 		.4byte	.LASF1020
 5301 1be5 02       		.byte	0x2
 5302 1be6 11       		.uleb128 0x11
 5303 1be7 4B630000 		.4byte	.LASF1021
 5304 1beb 03       		.byte	0x3
 5305 1bec 11       		.uleb128 0x11
 5306 1bed 25790000 		.4byte	.LASF1022
 5307 1bf1 04       		.byte	0x4
 5308 1bf2 11       		.uleb128 0x11
 5309 1bf3 3E560000 		.4byte	.LASF1023
 5310 1bf7 05       		.byte	0x5
 5311 1bf8 11       		.uleb128 0x11
 5312 1bf9 0E1D0000 		.4byte	.LASF1024
 5313 1bfd 06       		.byte	0x6
 5314 1bfe 11       		.uleb128 0x11
 5315 1bff 18300000 		.4byte	.LASF1025
 5316 1c03 07       		.byte	0x7
 5317 1c04 11       		.uleb128 0x11
 5318 1c05 DF6E0000 		.4byte	.LASF1026
 5319 1c09 08       		.byte	0x8
 5320 1c0a 11       		.uleb128 0x11
 5321 1c0b 341C0000 		.4byte	.LASF1027
 5322 1c0f 09       		.byte	0x9
 5323 1c10 11       		.uleb128 0x11
ARM GAS  C:\Users\stijn\AppData\Local\Temp\ccD3lQ9e.s 			page 132


 5324 1c11 75220000 		.4byte	.LASF1028
 5325 1c15 0A       		.byte	0xa
 5326 1c16 11       		.uleb128 0x11
 5327 1c17 6F700000 		.4byte	.LASF1029
 5328 1c1b 0B       		.byte	0xb
 5329 1c1c 11       		.uleb128 0x11
 5330 1c1d 420C0000 		.4byte	.LASF1030
 5331 1c21 0C       		.byte	0xc
 5332 1c22 11       		.uleb128 0x11
 5333 1c23 810A0000 		.4byte	.LASF1031
 5334 1c27 0D       		.byte	0xd
 5335 1c28 11       		.uleb128 0x11
 5336 1c29 12680000 		.4byte	.LASF1032
 5337 1c2d 14       		.byte	0x14
 5338 1c2e 11       		.uleb128 0x11
 5339 1c2f 8A1F0000 		.4byte	.LASF1033
 5340 1c33 1A       		.byte	0x1a
 5341 1c34 11       		.uleb128 0x11
 5342 1c35 FC450000 		.4byte	.LASF1034
 5343 1c39 1B       		.byte	0x1b
 5344 1c3a 11       		.uleb128 0x11
 5345 1c3b 96060000 		.4byte	.LASF1035
 5346 1c3f 00       		.byte	0
 5347 1c40 11       		.uleb128 0x11
 5348 1c41 31390000 		.4byte	.LASF1036
 5349 1c45 01       		.byte	0x1
 5350 1c46 11       		.uleb128 0x11
 5351 1c47 30340000 		.4byte	.LASF1037
 5352 1c4b 02       		.byte	0x2
 5353 1c4c 11       		.uleb128 0x11
 5354 1c4d 1E0A0000 		.4byte	.LASF1038
 5355 1c51 03       		.byte	0x3
 5356 1c52 11       		.uleb128 0x11
 5357 1c53 A74B0000 		.4byte	.LASF1039
 5358 1c57 04       		.byte	0x4
 5359 1c58 11       		.uleb128 0x11
 5360 1c59 B24B0000 		.4byte	.LASF1040
 5361 1c5d 05       		.byte	0x5
 5362 1c5e 11       		.uleb128 0x11
 5363 1c5f EE430000 		.4byte	.LASF1041
 5364 1c63 06       		.byte	0x6
 5365 1c64 11       		.uleb128 0x11
 5366 1c65 3F570000 		.4byte	.LASF1042
 5367 1c69 07       		.byte	0x7
 5368 1c6a 11       		.uleb128 0x11
 5369 1c6b AD2C0000 		.4byte	.LASF1043
 5370 1c6f 08       		.byte	0x8
 5371 1c70 11       		.uleb128 0x11
 5372 1c71 C75F0000 		.4byte	.LASF1044
 5373 1c75 09       		.byte	0x9
 5374 1c76 11       		.uleb128 0x11
 5375 1c77 3F6F0000 		.4byte	.LASF1045
 5376 1c7b 0A       		.byte	0xa
 5377 1c7c 11       		.uleb128 0x11
 5378 1c7d 9D740000 		.4byte	.LASF1046
 5379 1c81 0B       		.byte	0xb
 5380 1c82 11       		.uleb128 0x11
ARM GAS  C:\Users\stijn\AppData\Local\Temp\ccD3lQ9e.s 			page 133


 5381 1c83 C3320000 		.4byte	.LASF1047
 5382 1c87 0C       		.byte	0xc
 5383 1c88 11       		.uleb128 0x11
 5384 1c89 2D310000 		.4byte	.LASF1048
 5385 1c8d 0D       		.byte	0xd
 5386 1c8e 11       		.uleb128 0x11
 5387 1c8f EF000000 		.4byte	.LASF1049
 5388 1c93 14       		.byte	0x14
 5389 1c94 11       		.uleb128 0x11
 5390 1c95 13160000 		.4byte	.LASF1050
 5391 1c99 1A       		.byte	0x1a
 5392 1c9a 11       		.uleb128 0x11
 5393 1c9b B0230000 		.4byte	.LASF1051
 5394 1c9f 1B       		.byte	0x1b
 5395 1ca0 11       		.uleb128 0x11
 5396 1ca1 5A2D0000 		.4byte	.LASF1052
 5397 1ca5 00       		.byte	0
 5398 1ca6 11       		.uleb128 0x11
 5399 1ca7 535C0000 		.4byte	.LASF1053
 5400 1cab 01       		.byte	0x1
 5401 1cac 11       		.uleb128 0x11
 5402 1cad 99190000 		.4byte	.LASF1054
 5403 1cb1 02       		.byte	0x2
 5404 1cb2 11       		.uleb128 0x11
 5405 1cb3 4C2D0000 		.4byte	.LASF1055
 5406 1cb7 03       		.byte	0x3
 5407 1cb8 11       		.uleb128 0x11
 5408 1cb9 40410000 		.4byte	.LASF1056
 5409 1cbd 04       		.byte	0x4
 5410 1cbe 11       		.uleb128 0x11
 5411 1cbf 4B410000 		.4byte	.LASF1057
 5412 1cc3 05       		.byte	0x5
 5413 1cc4 11       		.uleb128 0x11
 5414 1cc5 0E6B0000 		.4byte	.LASF1058
 5415 1cc9 06       		.byte	0x6
 5416 1cca 11       		.uleb128 0x11
 5417 1ccb 13460000 		.4byte	.LASF1059
 5418 1ccf 07       		.byte	0x7
 5419 1cd0 11       		.uleb128 0x11
 5420 1cd1 46320000 		.4byte	.LASF1060
 5421 1cd5 08       		.byte	0x8
 5422 1cd6 11       		.uleb128 0x11
 5423 1cd7 D2440000 		.4byte	.LASF1061
 5424 1cdb 09       		.byte	0x9
 5425 1cdc 11       		.uleb128 0x11
 5426 1cdd 723F0000 		.4byte	.LASF1062
 5427 1ce1 0A       		.byte	0xa
 5428 1ce2 11       		.uleb128 0x11
 5429 1ce3 F1310000 		.4byte	.LASF1063
 5430 1ce7 0B       		.byte	0xb
 5431 1ce8 11       		.uleb128 0x11
 5432 1ce9 D3590000 		.4byte	.LASF1064
 5433 1ced 0C       		.byte	0xc
 5434 1cee 11       		.uleb128 0x11
 5435 1cef 09580000 		.4byte	.LASF1065
 5436 1cf3 0D       		.byte	0xd
 5437 1cf4 11       		.uleb128 0x11
ARM GAS  C:\Users\stijn\AppData\Local\Temp\ccD3lQ9e.s 			page 134


 5438 1cf5 9C160000 		.4byte	.LASF1066
 5439 1cf9 14       		.byte	0x14
 5440 1cfa 11       		.uleb128 0x11
 5441 1cfb 26740000 		.4byte	.LASF1067
 5442 1cff 1A       		.byte	0x1a
 5443 1d00 11       		.uleb128 0x11
 5444 1d01 84020000 		.4byte	.LASF1068
 5445 1d05 1B       		.byte	0x1b
 5446 1d06 11       		.uleb128 0x11
 5447 1d07 AC540000 		.4byte	.LASF1069
 5448 1d0b 00       		.byte	0
 5449 1d0c 11       		.uleb128 0x11
 5450 1d0d 15040000 		.4byte	.LASF1070
 5451 1d11 01       		.byte	0x1
 5452 1d12 11       		.uleb128 0x11
 5453 1d13 144C0000 		.4byte	.LASF1071
 5454 1d17 02       		.byte	0x2
 5455 1d18 11       		.uleb128 0x11
 5456 1d19 C4630000 		.4byte	.LASF1072
 5457 1d1d 03       		.byte	0x3
 5458 1d1e 11       		.uleb128 0x11
 5459 1d1f 25370000 		.4byte	.LASF1073
 5460 1d23 04       		.byte	0x4
 5461 1d24 11       		.uleb128 0x11
 5462 1d25 30370000 		.4byte	.LASF1074
 5463 1d29 05       		.byte	0x5
 5464 1d2a 11       		.uleb128 0x11
 5465 1d2b 7D130000 		.4byte	.LASF1075
 5466 1d2f 06       		.byte	0x6
 5467 1d30 11       		.uleb128 0x11
 5468 1d31 80260000 		.4byte	.LASF1076
 5469 1d35 07       		.byte	0x7
 5470 1d36 11       		.uleb128 0x11
 5471 1d37 535D0000 		.4byte	.LASF1077
 5472 1d3b 08       		.byte	0x8
 5473 1d3c 11       		.uleb128 0x11
 5474 1d3d 36380000 		.4byte	.LASF1078
 5475 1d41 09       		.byte	0x9
 5476 1d42 11       		.uleb128 0x11
 5477 1d43 880F0000 		.4byte	.LASF1079
 5478 1d47 0A       		.byte	0xa
 5479 1d48 11       		.uleb128 0x11
 5480 1d49 48510000 		.4byte	.LASF1080
 5481 1d4d 0B       		.byte	0xb
 5482 1d4e 11       		.uleb128 0x11
 5483 1d4f E21B0000 		.4byte	.LASF1081
 5484 1d53 0C       		.byte	0xc
 5485 1d54 11       		.uleb128 0x11
 5486 1d55 CF010000 		.4byte	.LASF1082
 5487 1d59 0D       		.byte	0xd
 5488 1d5a 11       		.uleb128 0x11
 5489 1d5b B91A0000 		.4byte	.LASF1083
 5490 1d5f 14       		.byte	0x14
 5491 1d60 11       		.uleb128 0x11
 5492 1d61 BA350000 		.4byte	.LASF1084
 5493 1d65 15       		.byte	0x15
 5494 1d66 11       		.uleb128 0x11
ARM GAS  C:\Users\stijn\AppData\Local\Temp\ccD3lQ9e.s 			page 135


 5495 1d67 3C5C0000 		.4byte	.LASF1085
 5496 1d6b 1B       		.byte	0x1b
 5497 1d6c 11       		.uleb128 0x11
 5498 1d6d 67600000 		.4byte	.LASF1086
 5499 1d71 00       		.byte	0
 5500 1d72 11       		.uleb128 0x11
 5501 1d73 0E4D0000 		.4byte	.LASF1087
 5502 1d77 01       		.byte	0x1
 5503 1d78 11       		.uleb128 0x11
 5504 1d79 1D080000 		.4byte	.LASF1088
 5505 1d7d 02       		.byte	0x2
 5506 1d7e 11       		.uleb128 0x11
 5507 1d7f E91F0000 		.4byte	.LASF1089
 5508 1d83 03       		.byte	0x3
 5509 1d84 11       		.uleb128 0x11
 5510 1d85 80380000 		.4byte	.LASF1090
 5511 1d89 04       		.byte	0x4
 5512 1d8a 11       		.uleb128 0x11
 5513 1d8b 8B380000 		.4byte	.LASF1091
 5514 1d8f 05       		.byte	0x5
 5515 1d90 11       		.uleb128 0x11
 5516 1d91 39110000 		.4byte	.LASF1092
 5517 1d95 06       		.byte	0x6
 5518 1d96 11       		.uleb128 0x11
 5519 1d97 A1320000 		.4byte	.LASF1093
 5520 1d9b 07       		.byte	0x7
 5521 1d9c 11       		.uleb128 0x11
 5522 1d9d F7210000 		.4byte	.LASF1094
 5523 1da1 08       		.byte	0x8
 5524 1da2 11       		.uleb128 0x11
 5525 1da3 C0330000 		.4byte	.LASF1095
 5526 1da7 09       		.byte	0x9
 5527 1da8 11       		.uleb128 0x11
 5528 1da9 58740000 		.4byte	.LASF1096
 5529 1dad 0A       		.byte	0xa
 5530 1dae 11       		.uleb128 0x11
 5531 1daf 2A6C0000 		.4byte	.LASF1097
 5532 1db3 0B       		.byte	0xb
 5533 1db4 11       		.uleb128 0x11
 5534 1db5 5C010000 		.4byte	.LASF1098
 5535 1db9 0C       		.byte	0xc
 5536 1dba 11       		.uleb128 0x11
 5537 1dbb 9F0E0000 		.4byte	.LASF1099
 5538 1dbf 0D       		.byte	0xd
 5539 1dc0 11       		.uleb128 0x11
 5540 1dc1 59000000 		.4byte	.LASF1100
 5541 1dc5 12       		.byte	0x12
 5542 1dc6 11       		.uleb128 0x11
 5543 1dc7 881C0000 		.4byte	.LASF1101
 5544 1dcb 13       		.byte	0x13
 5545 1dcc 11       		.uleb128 0x11
 5546 1dcd 6E1E0000 		.4byte	.LASF1102
 5547 1dd1 14       		.byte	0x14
 5548 1dd2 11       		.uleb128 0x11
 5549 1dd3 8A630000 		.4byte	.LASF1103
 5550 1dd7 18       		.byte	0x18
 5551 1dd8 11       		.uleb128 0x11
ARM GAS  C:\Users\stijn\AppData\Local\Temp\ccD3lQ9e.s 			page 136


 5552 1dd9 BE0A0000 		.4byte	.LASF1104
 5553 1ddd 00       		.byte	0
 5554 1dde 11       		.uleb128 0x11
 5555 1ddf 9D710000 		.4byte	.LASF1105
 5556 1de3 01       		.byte	0x1
 5557 1de4 11       		.uleb128 0x11
 5558 1de5 543B0000 		.4byte	.LASF1106
 5559 1de9 02       		.byte	0x2
 5560 1dea 11       		.uleb128 0x11
 5561 1deb B0430000 		.4byte	.LASF1107
 5562 1def 03       		.byte	0x3
 5563 1df0 11       		.uleb128 0x11
 5564 1df1 682C0000 		.4byte	.LASF1108
 5565 1df5 04       		.byte	0x4
 5566 1df6 11       		.uleb128 0x11
 5567 1df7 732C0000 		.4byte	.LASF1109
 5568 1dfb 05       		.byte	0x5
 5569 1dfc 11       		.uleb128 0x11
 5570 1dfd 06390000 		.4byte	.LASF1110
 5571 1e01 06       		.byte	0x6
 5572 1e02 11       		.uleb128 0x11
 5573 1e03 724B0000 		.4byte	.LASF1111
 5574 1e07 07       		.byte	0x7
 5575 1e08 11       		.uleb128 0x11
 5576 1e09 4C310000 		.4byte	.LASF1112
 5577 1e0d 08       		.byte	0x8
 5578 1e0e 11       		.uleb128 0x11
 5579 1e0f CC500000 		.4byte	.LASF1113
 5580 1e13 09       		.byte	0x9
 5581 1e14 11       		.uleb128 0x11
 5582 1e15 24450000 		.4byte	.LASF1114
 5583 1e19 0A       		.byte	0xa
 5584 1e1a 11       		.uleb128 0x11
 5585 1e1b 157A0000 		.4byte	.LASF1115
 5586 1e1f 0B       		.byte	0xb
 5587 1e20 11       		.uleb128 0x11
 5588 1e21 C3720000 		.4byte	.LASF1116
 5589 1e25 0C       		.byte	0xc
 5590 1e26 11       		.uleb128 0x11
 5591 1e27 42250000 		.4byte	.LASF1117
 5592 1e2b 0D       		.byte	0xd
 5593 1e2c 11       		.uleb128 0x11
 5594 1e2d 760F0000 		.4byte	.LASF1118
 5595 1e31 12       		.byte	0x12
 5596 1e32 11       		.uleb128 0x11
 5597 1e33 F02B0000 		.4byte	.LASF1119
 5598 1e37 13       		.byte	0x13
 5599 1e38 11       		.uleb128 0x11
 5600 1e39 D34D0000 		.4byte	.LASF1120
 5601 1e3d 14       		.byte	0x14
 5602 1e3e 11       		.uleb128 0x11
 5603 1e3f E03C0000 		.4byte	.LASF1121
 5604 1e43 18       		.byte	0x18
 5605 1e44 11       		.uleb128 0x11
 5606 1e45 B8300000 		.4byte	.LASF1122
 5607 1e49 00       		.byte	0
 5608 1e4a 11       		.uleb128 0x11
ARM GAS  C:\Users\stijn\AppData\Local\Temp\ccD3lQ9e.s 			page 137


 5609 1e4b 18190000 		.4byte	.LASF1123
 5610 1e4f 01       		.byte	0x1
 5611 1e50 11       		.uleb128 0x11
 5612 1e51 E56D0000 		.4byte	.LASF1124
 5613 1e55 02       		.byte	0x2
 5614 1e56 11       		.uleb128 0x11
 5615 1e57 F4670000 		.4byte	.LASF1125
 5616 1e5b 03       		.byte	0x3
 5617 1e5c 11       		.uleb128 0x11
 5618 1e5d 4F220000 		.4byte	.LASF1126
 5619 1e61 04       		.byte	0x4
 5620 1e62 11       		.uleb128 0x11
 5621 1e63 5A220000 		.4byte	.LASF1127
 5622 1e67 05       		.byte	0x5
 5623 1e68 11       		.uleb128 0x11
 5624 1e69 F25D0000 		.4byte	.LASF1128
 5625 1e6d 06       		.byte	0x6
 5626 1e6e 11       		.uleb128 0x11
 5627 1e6f EB700000 		.4byte	.LASF1129
 5628 1e73 07       		.byte	0x7
 5629 1e74 11       		.uleb128 0x11
 5630 1e75 3F390000 		.4byte	.LASF1130
 5631 1e79 08       		.byte	0x8
 5632 1e7a 11       		.uleb128 0x11
 5633 1e7b 07520000 		.4byte	.LASF1131
 5634 1e7f 09       		.byte	0x9
 5635 1e80 11       		.uleb128 0x11
 5636 1e81 B5140000 		.4byte	.LASF1132
 5637 1e85 0A       		.byte	0xa
 5638 1e86 11       		.uleb128 0x11
 5639 1e87 780C0000 		.4byte	.LASF1133
 5640 1e8b 0B       		.byte	0xb
 5641 1e8c 11       		.uleb128 0x11
 5642 1e8d A14D0000 		.4byte	.LASF1134
 5643 1e91 0C       		.byte	0xc
 5644 1e92 11       		.uleb128 0x11
 5645 1e93 534B0000 		.4byte	.LASF1135
 5646 1e97 0D       		.byte	0xd
 5647 1e98 11       		.uleb128 0x11
 5648 1e99 AC570000 		.4byte	.LASF1136
 5649 1e9d 0F       		.byte	0xf
 5650 1e9e 11       		.uleb128 0x11
 5651 1e9f 5B0E0000 		.4byte	.LASF1137
 5652 1ea3 12       		.byte	0x12
 5653 1ea4 11       		.uleb128 0x11
 5654 1ea5 52190000 		.4byte	.LASF1138
 5655 1ea9 14       		.byte	0x14
 5656 1eaa 11       		.uleb128 0x11
 5657 1eab 46580000 		.4byte	.LASF1139
 5658 1eaf 00       		.byte	0
 5659 1eb0 11       		.uleb128 0x11
 5660 1eb1 763D0000 		.4byte	.LASF1140
 5661 1eb5 01       		.byte	0x1
 5662 1eb6 11       		.uleb128 0x11
 5663 1eb7 94230000 		.4byte	.LASF1141
 5664 1ebb 02       		.byte	0x2
 5665 1ebc 11       		.uleb128 0x11
ARM GAS  C:\Users\stijn\AppData\Local\Temp\ccD3lQ9e.s 			page 138


 5666 1ebd 110F0000 		.4byte	.LASF1142
 5667 1ec1 03       		.byte	0x3
 5668 1ec2 11       		.uleb128 0x11
 5669 1ec3 ED160000 		.4byte	.LASF1143
 5670 1ec7 04       		.byte	0x4
 5671 1ec8 11       		.uleb128 0x11
 5672 1ec9 F8160000 		.4byte	.LASF1144
 5673 1ecd 05       		.byte	0x5
 5674 1ece 11       		.uleb128 0x11
 5675 1ecf 0E080000 		.4byte	.LASF1145
 5676 1ed3 06       		.byte	0x6
 5677 1ed4 11       		.uleb128 0x11
 5678 1ed5 4E1B0000 		.4byte	.LASF1146
 5679 1ed9 07       		.byte	0x7
 5680 1eda 11       		.uleb128 0x11
 5681 1edb 71600000 		.4byte	.LASF1147
 5682 1edf 08       		.byte	0x8
 5683 1ee0 11       		.uleb128 0x11
 5684 1ee1 9D280000 		.4byte	.LASF1148
 5685 1ee5 09       		.byte	0x9
 5686 1ee6 11       		.uleb128 0x11
 5687 1ee7 95610000 		.4byte	.LASF1149
 5688 1eeb 0A       		.byte	0xa
 5689 1eec 11       		.uleb128 0x11
 5690 1eed E60E0000 		.4byte	.LASF1150
 5691 1ef1 0B       		.byte	0xb
 5692 1ef2 11       		.uleb128 0x11
 5693 1ef3 1E730000 		.4byte	.LASF1151
 5694 1ef7 0C       		.byte	0xc
 5695 1ef8 11       		.uleb128 0x11
 5696 1ef9 900A0000 		.4byte	.LASF1152
 5697 1efd 0D       		.byte	0xd
 5698 1efe 11       		.uleb128 0x11
 5699 1eff 953B0000 		.4byte	.LASF1153
 5700 1f03 0F       		.byte	0xf
 5701 1f04 11       		.uleb128 0x11
 5702 1f05 76200000 		.4byte	.LASF1154
 5703 1f09 12       		.byte	0x12
 5704 1f0a 11       		.uleb128 0x11
 5705 1f0b A72A0000 		.4byte	.LASF1155
 5706 1f0f 14       		.byte	0x14
 5707 1f10 11       		.uleb128 0x11
 5708 1f11 83030000 		.4byte	.LASF1156
 5709 1f15 00       		.byte	0
 5710 1f16 11       		.uleb128 0x11
 5711 1f17 49610000 		.4byte	.LASF1157
 5712 1f1b 01       		.byte	0x1
 5713 1f1c 11       		.uleb128 0x11
 5714 1f1d 09070000 		.4byte	.LASF1158
 5715 1f21 02       		.byte	0x2
 5716 1f22 11       		.uleb128 0x11
 5717 1f23 0A690000 		.4byte	.LASF1159
 5718 1f27 03       		.byte	0x3
 5719 1f28 11       		.uleb128 0x11
 5720 1f29 A10C0000 		.4byte	.LASF1160
 5721 1f2d 04       		.byte	0x4
 5722 1f2e 11       		.uleb128 0x11
ARM GAS  C:\Users\stijn\AppData\Local\Temp\ccD3lQ9e.s 			page 139


 5723 1f2f AC0C0000 		.4byte	.LASF1161
 5724 1f33 05       		.byte	0x5
 5725 1f34 11       		.uleb128 0x11
 5726 1f35 4A2E0000 		.4byte	.LASF1162
 5727 1f39 06       		.byte	0x6
 5728 1f3a 11       		.uleb128 0x11
 5729 1f3b DE410000 		.4byte	.LASF1163
 5730 1f3f 07       		.byte	0x7
 5731 1f40 11       		.uleb128 0x11
 5732 1f41 06540000 		.4byte	.LASF1164
 5733 1f45 08       		.byte	0x8
 5734 1f46 11       		.uleb128 0x11
 5735 1f47 2B7B0000 		.4byte	.LASF1165
 5736 1f4b 09       		.byte	0x9
 5737 1f4c 11       		.uleb128 0x11
 5738 1f4d 99300000 		.4byte	.LASF1166
 5739 1f51 0A       		.byte	0xa
 5740 1f52 11       		.uleb128 0x11
 5741 1f53 2B2D0000 		.4byte	.LASF1167
 5742 1f57 0B       		.byte	0xb
 5743 1f58 11       		.uleb128 0x11
 5744 1f59 5A1D0000 		.4byte	.LASF1168
 5745 1f5d 0C       		.byte	0xc
 5746 1f5e 11       		.uleb128 0x11
 5747 1f5f FF1B0000 		.4byte	.LASF1169
 5748 1f63 0D       		.byte	0xd
 5749 1f64 11       		.uleb128 0x11
 5750 1f65 C7050000 		.4byte	.LASF1170
 5751 1f69 14       		.byte	0x14
 5752 1f6a 11       		.uleb128 0x11
 5753 1f6b C5280000 		.4byte	.LASF1171
 5754 1f6f 00       		.byte	0
 5755 1f70 11       		.uleb128 0x11
 5756 1f71 45080000 		.4byte	.LASF1172
 5757 1f75 01       		.byte	0x1
 5758 1f76 11       		.uleb128 0x11
 5759 1f77 D20C0000 		.4byte	.LASF1173
 5760 1f7b 02       		.byte	0x2
 5761 1f7c 11       		.uleb128 0x11
 5762 1f7d 49560000 		.4byte	.LASF1174
 5763 1f81 03       		.byte	0x3
 5764 1f82 11       		.uleb128 0x11
 5765 1f83 C1020000 		.4byte	.LASF1175
 5766 1f87 04       		.byte	0x4
 5767 1f88 11       		.uleb128 0x11
 5768 1f89 CC020000 		.4byte	.LASF1176
 5769 1f8d 05       		.byte	0x5
 5770 1f8e 11       		.uleb128 0x11
 5771 1f8f C0540000 		.4byte	.LASF1177
 5772 1f93 06       		.byte	0x6
 5773 1f94 11       		.uleb128 0x11
 5774 1f95 3D160000 		.4byte	.LASF1178
 5775 1f99 07       		.byte	0x7
 5776 1f9a 11       		.uleb128 0x11
 5777 1f9b 3C130000 		.4byte	.LASF1179
 5778 1f9f 08       		.byte	0x8
 5779 1fa0 11       		.uleb128 0x11
ARM GAS  C:\Users\stijn\AppData\Local\Temp\ccD3lQ9e.s 			page 140


 5780 1fa1 9B020000 		.4byte	.LASF1180
 5781 1fa5 09       		.byte	0x9
 5782 1fa6 11       		.uleb128 0x11
 5783 1fa7 7B010000 		.4byte	.LASF1181
 5784 1fab 0A       		.byte	0xa
 5785 1fac 11       		.uleb128 0x11
 5786 1fad F1360000 		.4byte	.LASF1182
 5787 1fb1 0B       		.byte	0xb
 5788 1fb2 11       		.uleb128 0x11
 5789 1fb3 19440000 		.4byte	.LASF1183
 5790 1fb7 0C       		.byte	0xc
 5791 1fb8 11       		.uleb128 0x11
 5792 1fb9 C1410000 		.4byte	.LASF1184
 5793 1fbd 0D       		.byte	0xd
 5794 1fbe 11       		.uleb128 0x11
 5795 1fbf 87560000 		.4byte	.LASF1185
 5796 1fc3 14       		.byte	0x14
 5797 1fc4 11       		.uleb128 0x11
 5798 1fc5 56500000 		.4byte	.LASF1186
 5799 1fc9 00       		.byte	0
 5800 1fca 11       		.uleb128 0x11
 5801 1fcb 7A2B0000 		.4byte	.LASF1187
 5802 1fcf 01       		.byte	0x1
 5803 1fd0 11       		.uleb128 0x11
 5804 1fd1 0C400000 		.4byte	.LASF1188
 5805 1fd5 02       		.byte	0x2
 5806 1fd6 11       		.uleb128 0x11
 5807 1fd7 827A0000 		.4byte	.LASF1189
 5808 1fdb 03       		.byte	0x3
 5809 1fdc 11       		.uleb128 0x11
 5810 1fdd 6B730000 		.4byte	.LASF1190
 5811 1fe1 04       		.byte	0x4
 5812 1fe2 11       		.uleb128 0x11
 5813 1fe3 23040000 		.4byte	.LASF1191
 5814 1fe7 05       		.byte	0x5
 5815 1fe8 11       		.uleb128 0x11
 5816 1fe9 D27A0000 		.4byte	.LASF1192
 5817 1fed 06       		.byte	0x6
 5818 1fee 11       		.uleb128 0x11
 5819 1fef 14110000 		.4byte	.LASF1193
 5820 1ff3 07       		.byte	0x7
 5821 1ff4 11       		.uleb128 0x11
 5822 1ff5 90700000 		.4byte	.LASF1194
 5823 1ff9 08       		.byte	0x8
 5824 1ffa 11       		.uleb128 0x11
 5825 1ffb 38270000 		.4byte	.LASF1195
 5826 1fff 09       		.byte	0x9
 5827 2000 11       		.uleb128 0x11
 5828 2001 B04D0000 		.4byte	.LASF1196
 5829 2005 0A       		.byte	0xa
 5830 2006 11       		.uleb128 0x11
 5831 2007 5B440000 		.4byte	.LASF1197
 5832 200b 0B       		.byte	0xb
 5833 200c 11       		.uleb128 0x11
 5834 200d 2F6B0000 		.4byte	.LASF1198
 5835 2011 0C       		.byte	0xc
 5836 2012 11       		.uleb128 0x11
ARM GAS  C:\Users\stijn\AppData\Local\Temp\ccD3lQ9e.s 			page 141


 5837 2013 71690000 		.4byte	.LASF1199
 5838 2017 0D       		.byte	0xd
 5839 2018 11       		.uleb128 0x11
 5840 2019 480F0000 		.4byte	.LASF1200
 5841 201d 14       		.byte	0x14
 5842 201e 11       		.uleb128 0x11
 5843 201f ED770000 		.4byte	.LASF1201
 5844 2023 00       		.byte	0
 5845 2024 11       		.uleb128 0x11
 5846 2025 EE4F0000 		.4byte	.LASF1202
 5847 2029 01       		.byte	0x1
 5848 202a 11       		.uleb128 0x11
 5849 202b AB710000 		.4byte	.LASF1203
 5850 202f 02       		.byte	0x2
 5851 2030 11       		.uleb128 0x11
 5852 2031 57210000 		.4byte	.LASF1204
 5853 2035 03       		.byte	0x3
 5854 2036 11       		.uleb128 0x11
 5855 2037 66690000 		.4byte	.LASF1205
 5856 203b 04       		.byte	0x4
 5857 203c 11       		.uleb128 0x11
 5858 203d 4E5B0000 		.4byte	.LASF1206
 5859 2041 05       		.byte	0x5
 5860 2042 11       		.uleb128 0x11
 5861 2043 DB240000 		.4byte	.LASF1207
 5862 2047 06       		.byte	0x6
 5863 2048 11       		.uleb128 0x11
 5864 2049 CF380000 		.4byte	.LASF1208
 5865 204d 07       		.byte	0x7
 5866 204e 11       		.uleb128 0x11
 5867 204f 89430000 		.4byte	.LASF1209
 5868 2053 08       		.byte	0x8
 5869 2054 11       		.uleb128 0x11
 5870 2055 13560000 		.4byte	.LASF1210
 5871 2059 09       		.byte	0x9
 5872 205a 11       		.uleb128 0x11
 5873 205b 691D0000 		.4byte	.LASF1211
 5874 205f 0A       		.byte	0xa
 5875 2060 11       		.uleb128 0x11
 5876 2061 2F180000 		.4byte	.LASF1212
 5877 2065 0B       		.byte	0xb
 5878 2066 11       		.uleb128 0x11
 5879 2067 97140000 		.4byte	.LASF1213
 5880 206b 0C       		.byte	0xc
 5881 206c 11       		.uleb128 0x11
 5882 206d C6120000 		.4byte	.LASF1214
 5883 2071 0D       		.byte	0xd
 5884 2072 11       		.uleb128 0x11
 5885 2073 A2700000 		.4byte	.LASF1215
 5886 2077 14       		.byte	0x14
 5887 2078 11       		.uleb128 0x11
 5888 2079 EC050000 		.4byte	.LASF1216
 5889 207d 00       		.byte	0
 5890 207e 11       		.uleb128 0x11
 5891 207f B81D0000 		.4byte	.LASF1217
 5892 2083 01       		.byte	0x1
 5893 2084 11       		.uleb128 0x11
ARM GAS  C:\Users\stijn\AppData\Local\Temp\ccD3lQ9e.s 			page 142


 5894 2085 592E0000 		.4byte	.LASF1218
 5895 2089 02       		.byte	0x2
 5896 208a 11       		.uleb128 0x11
 5897 208b 7C6C0000 		.4byte	.LASF1219
 5898 208f 03       		.byte	0x3
 5899 2090 11       		.uleb128 0x11
 5900 2091 FD420000 		.4byte	.LASF1220
 5901 2095 04       		.byte	0x4
 5902 2096 11       		.uleb128 0x11
 5903 2097 F56A0000 		.4byte	.LASF1221
 5904 209b 05       		.byte	0x5
 5905 209c 11       		.uleb128 0x11
 5906 209d D5220000 		.4byte	.LASF1222
 5907 20a1 06       		.byte	0x6
 5908 20a2 11       		.uleb128 0x11
 5909 20a3 FF140000 		.4byte	.LASF1223
 5910 20a7 07       		.byte	0x7
 5911 20a8 11       		.uleb128 0x11
 5912 20a9 995A0000 		.4byte	.LASF1224
 5913 20ad 08       		.byte	0x8
 5914 20ae 11       		.uleb128 0x11
 5915 20af 000D0000 		.4byte	.LASF1225
 5916 20b3 09       		.byte	0x9
 5917 20b4 11       		.uleb128 0x11
 5918 20b5 E4060000 		.4byte	.LASF1226
 5919 20b9 0A       		.byte	0xa
 5920 20ba 11       		.uleb128 0x11
 5921 20bb 1F2E0000 		.4byte	.LASF1227
 5922 20bf 0B       		.byte	0xb
 5923 20c0 11       		.uleb128 0x11
 5924 20c1 873B0000 		.4byte	.LASF1228
 5925 20c5 0C       		.byte	0xc
 5926 20c6 11       		.uleb128 0x11
 5927 20c7 FC370000 		.4byte	.LASF1229
 5928 20cb 0D       		.byte	0xd
 5929 20cc 11       		.uleb128 0x11
 5930 20cd 7A540000 		.4byte	.LASF1230
 5931 20d1 12       		.byte	0x12
 5932 20d2 11       		.uleb128 0x11
 5933 20d3 94720000 		.4byte	.LASF1231
 5934 20d7 13       		.byte	0x13
 5935 20d8 11       		.uleb128 0x11
 5936 20d9 1B3B0000 		.4byte	.LASF1232
 5937 20dd 14       		.byte	0x14
 5938 20de 11       		.uleb128 0x11
 5939 20df 79490000 		.4byte	.LASF1233
 5940 20e3 18       		.byte	0x18
 5941 20e4 11       		.uleb128 0x11
 5942 20e5 B1290000 		.4byte	.LASF1234
 5943 20e9 1B       		.byte	0x1b
 5944 20ea 11       		.uleb128 0x11
 5945 20eb AA2B0000 		.4byte	.LASF1235
 5946 20ef 00       		.byte	0
 5947 20f0 11       		.uleb128 0x11
 5948 20f1 B3410000 		.4byte	.LASF1236
 5949 20f5 01       		.byte	0x1
 5950 20f6 11       		.uleb128 0x11
ARM GAS  C:\Users\stijn\AppData\Local\Temp\ccD3lQ9e.s 			page 143


 5951 20f7 DB610000 		.4byte	.LASF1237
 5952 20fb 02       		.byte	0x2
 5953 20fc 11       		.uleb128 0x11
 5954 20fd B8120000 		.4byte	.LASF1238
 5955 2101 03       		.byte	0x3
 5956 2102 11       		.uleb128 0x11
 5957 2103 0E600000 		.4byte	.LASF1239
 5958 2107 04       		.byte	0x4
 5959 2108 11       		.uleb128 0x11
 5960 2109 19600000 		.4byte	.LASF1240
 5961 210d 05       		.byte	0x5
 5962 210e 11       		.uleb128 0x11
 5963 210f F6480000 		.4byte	.LASF1241
 5964 2113 06       		.byte	0x6
 5965 2114 11       		.uleb128 0x11
 5966 2115 DE5B0000 		.4byte	.LASF1242
 5967 2119 07       		.byte	0x7
 5968 211a 11       		.uleb128 0x11
 5969 211b 7D4C0000 		.4byte	.LASF1243
 5970 211f 08       		.byte	0x8
 5971 2120 11       		.uleb128 0x11
 5972 2121 56700000 		.4byte	.LASF1244
 5973 2125 09       		.byte	0x9
 5974 2126 11       		.uleb128 0x11
 5975 2127 E3520000 		.4byte	.LASF1245
 5976 212b 0A       		.byte	0xa
 5977 212c 11       		.uleb128 0x11
 5978 212d A53C0000 		.4byte	.LASF1246
 5979 2131 0B       		.byte	0xb
 5980 2132 11       		.uleb128 0x11
 5981 2133 0C5F0000 		.4byte	.LASF1247
 5982 2137 0C       		.byte	0xc
 5983 2138 11       		.uleb128 0x11
 5984 2139 CC1F0000 		.4byte	.LASF1248
 5985 213d 0D       		.byte	0xd
 5986 213e 11       		.uleb128 0x11
 5987 213f 10660000 		.4byte	.LASF1249
 5988 2143 12       		.byte	0x12
 5989 2144 11       		.uleb128 0x11
 5990 2145 AA050000 		.4byte	.LASF1250
 5991 2149 13       		.byte	0x13
 5992 214a 11       		.uleb128 0x11
 5993 214b 91650000 		.4byte	.LASF1251
 5994 214f 14       		.byte	0x14
 5995 2150 11       		.uleb128 0x11
 5996 2151 E4220000 		.4byte	.LASF1252
 5997 2155 18       		.byte	0x18
 5998 2156 11       		.uleb128 0x11
 5999 2157 94070000 		.4byte	.LASF1253
 6000 215b 1B       		.byte	0x1b
 6001 215c 11       		.uleb128 0x11
 6002 215d 03370000 		.4byte	.LASF1254
 6003 2161 1F       		.byte	0x1f
 6004 2162 11       		.uleb128 0x11
 6005 2163 F3520000 		.4byte	.LASF1255
 6006 2167 00       		.byte	0
 6007 2168 11       		.uleb128 0x11
ARM GAS  C:\Users\stijn\AppData\Local\Temp\ccD3lQ9e.s 			page 144


 6008 2169 B3650000 		.4byte	.LASF1256
 6009 216d 01       		.byte	0x1
 6010 216e 11       		.uleb128 0x11
 6011 216f 5C170000 		.4byte	.LASF1257
 6012 2173 02       		.byte	0x2
 6013 2174 11       		.uleb128 0x11
 6014 2175 EE370000 		.4byte	.LASF1258
 6015 2179 03       		.byte	0x3
 6016 217a 11       		.uleb128 0x11
 6017 217b CF540000 		.4byte	.LASF1259
 6018 217f 04       		.byte	0x4
 6019 2180 11       		.uleb128 0x11
 6020 2181 DA540000 		.4byte	.LASF1260
 6021 2185 05       		.byte	0x5
 6022 2186 11       		.uleb128 0x11
 6023 2187 4F6F0000 		.4byte	.LASF1261
 6024 218b 06       		.byte	0x6
 6025 218c 11       		.uleb128 0x11
 6026 218d DD050000 		.4byte	.LASF1262
 6027 2191 07       		.byte	0x7
 6028 2192 11       		.uleb128 0x11
 6029 2193 C9760000 		.4byte	.LASF1263
 6030 2197 08       		.byte	0x8
 6031 2198 11       		.uleb128 0x11
 6032 2199 89160000 		.4byte	.LASF1264
 6033 219d 09       		.byte	0x9
 6034 219e 11       		.uleb128 0x11
 6035 219f FC220000 		.4byte	.LASF1265
 6036 21a3 0A       		.byte	0xa
 6037 21a4 11       		.uleb128 0x11
 6038 21a5 C04A0000 		.4byte	.LASF1266
 6039 21a9 0B       		.byte	0xb
 6040 21aa 11       		.uleb128 0x11
 6041 21ab 57760000 		.4byte	.LASF1267
 6042 21af 0C       		.byte	0xc
 6043 21b0 11       		.uleb128 0x11
 6044 21b1 D4030000 		.4byte	.LASF1268
 6045 21b5 0D       		.byte	0xd
 6046 21b6 11       		.uleb128 0x11
 6047 21b7 20250000 		.4byte	.LASF1269
 6048 21bb 12       		.byte	0x12
 6049 21bc 11       		.uleb128 0x11
 6050 21bd A5610000 		.4byte	.LASF1270
 6051 21c1 14       		.byte	0x14
 6052 21c2 11       		.uleb128 0x11
 6053 21c3 C25C0000 		.4byte	.LASF1271
 6054 21c7 16       		.byte	0x16
 6055 21c8 11       		.uleb128 0x11
 6056 21c9 97620000 		.4byte	.LASF1272
 6057 21cd 1B       		.byte	0x1b
 6058 21ce 11       		.uleb128 0x11
 6059 21cf A07A0000 		.4byte	.LASF1273
 6060 21d3 00       		.byte	0
 6061 21d4 11       		.uleb128 0x11
 6062 21d5 130D0000 		.4byte	.LASF1274
 6063 21d9 01       		.byte	0x1
 6064 21da 11       		.uleb128 0x11
ARM GAS  C:\Users\stijn\AppData\Local\Temp\ccD3lQ9e.s 			page 145


 6065 21db AC600000 		.4byte	.LASF1275
 6066 21df 02       		.byte	0x2
 6067 21e0 11       		.uleb128 0x11
 6068 21e1 DC5A0000 		.4byte	.LASF1276
 6069 21e5 03       		.byte	0x3
 6070 21e6 11       		.uleb128 0x11
 6071 21e7 A0460000 		.4byte	.LASF1277
 6072 21eb 04       		.byte	0x4
 6073 21ec 11       		.uleb128 0x11
 6074 21ed C9490000 		.4byte	.LASF1278
 6075 21f1 05       		.byte	0x5
 6076 21f2 11       		.uleb128 0x11
 6077 21f3 26190000 		.4byte	.LASF1279
 6078 21f7 06       		.byte	0x6
 6079 21f8 11       		.uleb128 0x11
 6080 21f9 B42B0000 		.4byte	.LASF1280
 6081 21fd 07       		.byte	0x7
 6082 21fe 11       		.uleb128 0x11
 6083 21ff 97470000 		.4byte	.LASF1281
 6084 2203 08       		.byte	0x8
 6085 2204 11       		.uleb128 0x11
 6086 2205 CF480000 		.4byte	.LASF1282
 6087 2209 09       		.byte	0x9
 6088 220a 11       		.uleb128 0x11
 6089 220b 5E6F0000 		.4byte	.LASF1283
 6090 220f 0A       		.byte	0xa
 6091 2210 11       		.uleb128 0x11
 6092 2211 FD580000 		.4byte	.LASF1284
 6093 2215 0B       		.byte	0xb
 6094 2216 11       		.uleb128 0x11
 6095 2217 D62A0000 		.4byte	.LASF1285
 6096 221b 0C       		.byte	0xc
 6097 221c 11       		.uleb128 0x11
 6098 221d 08270000 		.4byte	.LASF1286
 6099 2221 0D       		.byte	0xd
 6100 2222 11       		.uleb128 0x11
 6101 2223 025D0000 		.4byte	.LASF1287
 6102 2227 12       		.byte	0x12
 6103 2228 11       		.uleb128 0x11
 6104 2229 8B5F0000 		.4byte	.LASF1288
 6105 222d 14       		.byte	0x14
 6106 222e 11       		.uleb128 0x11
 6107 222f 043B0000 		.4byte	.LASF1289
 6108 2233 16       		.byte	0x16
 6109 2234 11       		.uleb128 0x11
 6110 2235 9F400000 		.4byte	.LASF1290
 6111 2239 1B       		.byte	0x1b
 6112 223a 11       		.uleb128 0x11
 6113 223b 186F0000 		.4byte	.LASF1291
 6114 223f 1F       		.byte	0x1f
 6115 2240 11       		.uleb128 0x11
 6116 2241 FC790000 		.4byte	.LASF1292
 6117 2245 00       		.byte	0
 6118 2246 11       		.uleb128 0x11
 6119 2247 35300000 		.4byte	.LASF1293
 6120 224b 01       		.byte	0x1
 6121 224c 11       		.uleb128 0x11
ARM GAS  C:\Users\stijn\AppData\Local\Temp\ccD3lQ9e.s 			page 146


 6122 224d 1B010000 		.4byte	.LASF1294
 6123 2251 02       		.byte	0x2
 6124 2252 11       		.uleb128 0x11
 6125 2253 F8020000 		.4byte	.LASF1295
 6126 2257 03       		.byte	0x3
 6127 2258 11       		.uleb128 0x11
 6128 2259 DE210000 		.4byte	.LASF1296
 6129 225d 04       		.byte	0x4
 6130 225e 11       		.uleb128 0x11
 6131 225f E03F0000 		.4byte	.LASF1297
 6132 2263 05       		.byte	0x5
 6133 2264 11       		.uleb128 0x11
 6134 2265 823F0000 		.4byte	.LASF1298
 6135 2269 06       		.byte	0x6
 6136 226a 11       		.uleb128 0x11
 6137 226b D3510000 		.4byte	.LASF1299
 6138 226f 07       		.byte	0x7
 6139 2270 11       		.uleb128 0x11
 6140 2271 29170000 		.4byte	.LASF1300
 6141 2275 08       		.byte	0x8
 6142 2276 11       		.uleb128 0x11
 6143 2277 DF0C0000 		.4byte	.LASF1301
 6144 227b 09       		.byte	0x9
 6145 227c 11       		.uleb128 0x11
 6146 227d AB3F0000 		.4byte	.LASF1302
 6147 2281 0A       		.byte	0xa
 6148 2282 11       		.uleb128 0x11
 6149 2283 3B680000 		.4byte	.LASF1303
 6150 2287 0B       		.byte	0xb
 6151 2288 11       		.uleb128 0x11
 6152 2289 254F0000 		.4byte	.LASF1304
 6153 228d 0C       		.byte	0xc
 6154 228e 11       		.uleb128 0x11
 6155 228f 034B0000 		.4byte	.LASF1305
 6156 2293 0D       		.byte	0xd
 6157 2294 11       		.uleb128 0x11
 6158 2295 87740000 		.4byte	.LASF1306
 6159 2299 14       		.byte	0x14
 6160 229a 11       		.uleb128 0x11
 6161 229b 49620000 		.4byte	.LASF1307
 6162 229f 00       		.byte	0
 6163 22a0 11       		.uleb128 0x11
 6164 22a1 F8530000 		.4byte	.LASF1308
 6165 22a5 01       		.byte	0x1
 6166 22a6 11       		.uleb128 0x11
 6167 22a7 15330000 		.4byte	.LASF1309
 6168 22ab 02       		.byte	0x2
 6169 22ac 11       		.uleb128 0x11
 6170 22ad D6250000 		.4byte	.LASF1310
 6171 22b1 03       		.byte	0x3
 6172 22b2 11       		.uleb128 0x11
 6173 22b3 E8340000 		.4byte	.LASF1311
 6174 22b7 04       		.byte	0x4
 6175 22b8 11       		.uleb128 0x11
 6176 22b9 F3340000 		.4byte	.LASF1312
 6177 22bd 05       		.byte	0x5
 6178 22be 11       		.uleb128 0x11
ARM GAS  C:\Users\stijn\AppData\Local\Temp\ccD3lQ9e.s 			page 147


 6179 22bf C1650000 		.4byte	.LASF1313
 6180 22c3 06       		.byte	0x6
 6181 22c4 11       		.uleb128 0x11
 6182 22c5 30790000 		.4byte	.LASF1314
 6183 22c9 07       		.byte	0x7
 6184 22ca 11       		.uleb128 0x11
 6185 22cb 65760000 		.4byte	.LASF1315
 6186 22cf 08       		.byte	0x8
 6187 22d0 11       		.uleb128 0x11
 6188 22d1 2D0B0000 		.4byte	.LASF1316
 6189 22d5 09       		.byte	0x9
 6190 22d6 11       		.uleb128 0x11
 6191 22d7 B10F0000 		.4byte	.LASF1317
 6192 22db 0A       		.byte	0xa
 6193 22dc 11       		.uleb128 0x11
 6194 22dd 4F750000 		.4byte	.LASF1318
 6195 22e1 0B       		.byte	0xb
 6196 22e2 11       		.uleb128 0x11
 6197 22e3 31720000 		.4byte	.LASF1319
 6198 22e7 0C       		.byte	0xc
 6199 22e8 11       		.uleb128 0x11
 6200 22e9 FB6E0000 		.4byte	.LASF1320
 6201 22ed 0D       		.byte	0xd
 6202 22ee 11       		.uleb128 0x11
 6203 22ef 923D0000 		.4byte	.LASF1321
 6204 22f3 14       		.byte	0x14
 6205 22f4 11       		.uleb128 0x11
 6206 22f5 3F720000 		.4byte	.LASF1322
 6207 22f9 00       		.byte	0
 6208 22fa 11       		.uleb128 0x11
 6209 22fb D2780000 		.4byte	.LASF1323
 6210 22ff 01       		.byte	0x1
 6211 2300 11       		.uleb128 0x11
 6212 2301 22660000 		.4byte	.LASF1324
 6213 2305 02       		.byte	0x2
 6214 2306 11       		.uleb128 0x11
 6215 2307 D4490000 		.4byte	.LASF1325
 6216 230b 03       		.byte	0x3
 6217 230c 11       		.uleb128 0x11
 6218 230d 082A0000 		.4byte	.LASF1326
 6219 2311 04       		.byte	0x4
 6220 2312 11       		.uleb128 0x11
 6221 2313 132A0000 		.4byte	.LASF1327
 6222 2317 05       		.byte	0x5
 6223 2318 11       		.uleb128 0x11
 6224 2319 980F0000 		.4byte	.LASF1328
 6225 231d 06       		.byte	0x6
 6226 231e 11       		.uleb128 0x11
 6227 231f C61C0000 		.4byte	.LASF1329
 6228 2323 07       		.byte	0x7
 6229 2324 11       		.uleb128 0x11
 6230 2325 5F330000 		.4byte	.LASF1330
 6231 2329 08       		.byte	0x8
 6232 232a 11       		.uleb128 0x11
 6233 232b CD0B0000 		.4byte	.LASF1331
 6234 232f 09       		.byte	0x9
 6235 2330 11       		.uleb128 0x11
ARM GAS  C:\Users\stijn\AppData\Local\Temp\ccD3lQ9e.s 			page 148


 6236 2331 FB5B0000 		.4byte	.LASF1332
 6237 2335 0A       		.byte	0xa
 6238 2336 11       		.uleb128 0x11
 6239 2337 30070000 		.4byte	.LASF1333
 6240 233b 0B       		.byte	0xb
 6241 233c 11       		.uleb128 0x11
 6242 233d B4190000 		.4byte	.LASF1334
 6243 2341 0C       		.byte	0xc
 6244 2342 11       		.uleb128 0x11
 6245 2343 E7150000 		.4byte	.LASF1335
 6246 2347 0D       		.byte	0xd
 6247 2348 11       		.uleb128 0x11
 6248 2349 18420000 		.4byte	.LASF1336
 6249 234d 14       		.byte	0x14
 6250 234e 11       		.uleb128 0x11
 6251 234f EC1C0000 		.4byte	.LASF1337
 6252 2353 00       		.byte	0
 6253 2354 11       		.uleb128 0x11
 6254 2355 BE1F0000 		.4byte	.LASF1338
 6255 2359 01       		.byte	0x1
 6256 235a 11       		.uleb128 0x11
 6257 235b 552F0000 		.4byte	.LASF1339
 6258 235f 02       		.byte	0x2
 6259 2360 11       		.uleb128 0x11
 6260 2361 026E0000 		.4byte	.LASF1340
 6261 2365 03       		.byte	0x3
 6262 2366 11       		.uleb128 0x11
 6263 2367 A81F0000 		.4byte	.LASF1341
 6264 236b 04       		.byte	0x4
 6265 236c 11       		.uleb128 0x11
 6266 236d B31F0000 		.4byte	.LASF1342
 6267 2371 05       		.byte	0x5
 6268 2372 11       		.uleb128 0x11
 6269 2373 BB360000 		.4byte	.LASF1343
 6270 2377 06       		.byte	0x6
 6271 2378 11       		.uleb128 0x11
 6272 2379 2A4B0000 		.4byte	.LASF1344
 6273 237d 07       		.byte	0x7
 6274 237e 11       		.uleb128 0x11
 6275 237f 8E290000 		.4byte	.LASF1345
 6276 2383 08       		.byte	0x8
 6277 2384 11       		.uleb128 0x11
 6278 2385 6F3B0000 		.4byte	.LASF1346
 6279 2389 09       		.byte	0x9
 6280 238a 11       		.uleb128 0x11
 6281 238b 452B0000 		.4byte	.LASF1347
 6282 238f 0A       		.byte	0xa
 6283 2390 11       		.uleb128 0x11
 6284 2391 77510000 		.4byte	.LASF1348
 6285 2395 0B       		.byte	0xb
 6286 2396 11       		.uleb128 0x11
 6287 2397 DE380000 		.4byte	.LASF1349
 6288 239b 0C       		.byte	0xc
 6289 239c 11       		.uleb128 0x11
 6290 239d 4E3A0000 		.4byte	.LASF1350
 6291 23a1 0D       		.byte	0xd
 6292 23a2 11       		.uleb128 0x11
ARM GAS  C:\Users\stijn\AppData\Local\Temp\ccD3lQ9e.s 			page 149


 6293 23a3 1A370000 		.4byte	.LASF1351
 6294 23a7 00       		.byte	0
 6295 23a8 11       		.uleb128 0x11
 6296 23a9 E2590000 		.4byte	.LASF1352
 6297 23ad 01       		.byte	0x1
 6298 23ae 11       		.uleb128 0x11
 6299 23af 650A0000 		.4byte	.LASF1353
 6300 23b3 02       		.byte	0x2
 6301 23b4 11       		.uleb128 0x11
 6302 23b5 F12A0000 		.4byte	.LASF1354
 6303 23b9 03       		.byte	0x3
 6304 23ba 11       		.uleb128 0x11
 6305 23bb 510C0000 		.4byte	.LASF1355
 6306 23bf 04       		.byte	0x4
 6307 23c0 11       		.uleb128 0x11
 6308 23c1 5D0C0000 		.4byte	.LASF1356
 6309 23c5 05       		.byte	0x5
 6310 23c6 11       		.uleb128 0x11
 6311 23c7 3D490000 		.4byte	.LASF1357
 6312 23cb 06       		.byte	0x6
 6313 23cc 11       		.uleb128 0x11
 6314 23cd 615C0000 		.4byte	.LASF1358
 6315 23d1 07       		.byte	0x7
 6316 23d2 11       		.uleb128 0x11
 6317 23d3 A95B0000 		.4byte	.LASF1359
 6318 23d7 08       		.byte	0x8
 6319 23d8 11       		.uleb128 0x11
 6320 23d9 AE660000 		.4byte	.LASF1360
 6321 23dd 09       		.byte	0x9
 6322 23de 11       		.uleb128 0x11
 6323 23df D6710000 		.4byte	.LASF1361
 6324 23e3 0A       		.byte	0xa
 6325 23e4 11       		.uleb128 0x11
 6326 23e5 E82E0000 		.4byte	.LASF1362
 6327 23e9 0B       		.byte	0xb
 6328 23ea 11       		.uleb128 0x11
 6329 23eb 64780000 		.4byte	.LASF1363
 6330 23ef 0C       		.byte	0xc
 6331 23f0 11       		.uleb128 0x11
 6332 23f1 9E730000 		.4byte	.LASF1364
 6333 23f5 0D       		.byte	0xd
 6334 23f6 11       		.uleb128 0x11
 6335 23f7 C7230000 		.4byte	.LASF1365
 6336 23fb 12       		.byte	0x12
 6337 23fc 11       		.uleb128 0x11
 6338 23fd 56410000 		.4byte	.LASF1366
 6339 2401 13       		.byte	0x13
 6340 2402 11       		.uleb128 0x11
 6341 2403 8A6C0000 		.4byte	.LASF1367
 6342 2407 14       		.byte	0x14
 6343 2408 11       		.uleb128 0x11
 6344 2409 CC6D0000 		.4byte	.LASF1368
 6345 240d 18       		.byte	0x18
 6346 240e 11       		.uleb128 0x11
 6347 240f 113F0000 		.4byte	.LASF1369
 6348 2413 1B       		.byte	0x1b
 6349 2414 11       		.uleb128 0x11
ARM GAS  C:\Users\stijn\AppData\Local\Temp\ccD3lQ9e.s 			page 150


 6350 2415 B25D0000 		.4byte	.LASF1370
 6351 2419 00       		.byte	0
 6352 241a 11       		.uleb128 0x11
 6353 241b DF370000 		.4byte	.LASF1371
 6354 241f 01       		.byte	0x1
 6355 2420 11       		.uleb128 0x11
 6356 2421 4B3D0000 		.4byte	.LASF1372
 6357 2425 02       		.byte	0x2
 6358 2426 11       		.uleb128 0x11
 6359 2427 8D6A0000 		.4byte	.LASF1373
 6360 242b 03       		.byte	0x3
 6361 242c 11       		.uleb128 0x11
 6362 242d 6C020000 		.4byte	.LASF1374
 6363 2431 04       		.byte	0x4
 6364 2432 11       		.uleb128 0x11
 6365 2433 78020000 		.4byte	.LASF1375
 6366 2437 05       		.byte	0x5
 6367 2438 11       		.uleb128 0x11
 6368 2439 C86F0000 		.4byte	.LASF1376
 6369 243d 06       		.byte	0x6
 6370 243e 11       		.uleb128 0x11
 6371 243f 4A060000 		.4byte	.LASF1377
 6372 2443 07       		.byte	0x7
 6373 2444 11       		.uleb128 0x11
 6374 2445 6B3A0000 		.4byte	.LASF1378
 6375 2449 08       		.byte	0x8
 6376 244a 11       		.uleb128 0x11
 6377 244b 394B0000 		.4byte	.LASF1379
 6378 244f 09       		.byte	0x9
 6379 2450 11       		.uleb128 0x11
 6380 2451 83070000 		.4byte	.LASF1380
 6381 2455 0A       		.byte	0xa
 6382 2456 11       		.uleb128 0x11
 6383 2457 E63E0000 		.4byte	.LASF1381
 6384 245b 0B       		.byte	0xb
 6385 245c 11       		.uleb128 0x11
 6386 245d BF1E0000 		.4byte	.LASF1382
 6387 2461 0C       		.byte	0xc
 6388 2462 11       		.uleb128 0x11
 6389 2463 5D1B0000 		.4byte	.LASF1383
 6390 2467 0D       		.byte	0xd
 6391 2468 11       		.uleb128 0x11
 6392 2469 3D340000 		.4byte	.LASF1384
 6393 246d 12       		.byte	0x12
 6394 246e 11       		.uleb128 0x11
 6395 246f 19510000 		.4byte	.LASF1385
 6396 2473 13       		.byte	0x13
 6397 2474 11       		.uleb128 0x11
 6398 2475 9A480000 		.4byte	.LASF1386
 6399 2479 14       		.byte	0x14
 6400 247a 11       		.uleb128 0x11
 6401 247b E7460000 		.4byte	.LASF1387
 6402 247f 18       		.byte	0x18
 6403 2480 11       		.uleb128 0x11
 6404 2481 471C0000 		.4byte	.LASF1388
 6405 2485 1B       		.byte	0x1b
 6406 2486 11       		.uleb128 0x11
ARM GAS  C:\Users\stijn\AppData\Local\Temp\ccD3lQ9e.s 			page 151


 6407 2487 78070000 		.4byte	.LASF1389
 6408 248b 00       		.byte	0
 6409 248c 11       		.uleb128 0x11
 6410 248d 6F240000 		.4byte	.LASF1390
 6411 2491 01       		.byte	0x1
 6412 2492 11       		.uleb128 0x11
 6413 2493 A86F0000 		.4byte	.LASF1391
 6414 2497 02       		.byte	0x2
 6415 2498 11       		.uleb128 0x11
 6416 2499 49720000 		.4byte	.LASF1392
 6417 249d 03       		.byte	0x3
 6418 249e 11       		.uleb128 0x11
 6419 249f 3D730000 		.4byte	.LASF1393
 6420 24a3 04       		.byte	0x4
 6421 24a4 11       		.uleb128 0x11
 6422 24a5 49730000 		.4byte	.LASF1394
 6423 24a9 05       		.byte	0x5
 6424 24aa 11       		.uleb128 0x11
 6425 24ab BC200000 		.4byte	.LASF1395
 6426 24af 06       		.byte	0x6
 6427 24b0 11       		.uleb128 0x11
 6428 24b1 192C0000 		.4byte	.LASF1396
 6429 24b5 07       		.byte	0x7
 6430 24b6 11       		.uleb128 0x11
 6431 24b7 07790000 		.4byte	.LASF1397
 6432 24bb 08       		.byte	0x8
 6433 24bc 11       		.uleb128 0x11
 6434 24bd 86120000 		.4byte	.LASF1398
 6435 24c1 09       		.byte	0x9
 6436 24c2 11       		.uleb128 0x11
 6437 24c3 76190000 		.4byte	.LASF1399
 6438 24c7 0A       		.byte	0xa
 6439 24c8 11       		.uleb128 0x11
 6440 24c9 AD770000 		.4byte	.LASF1400
 6441 24cd 0B       		.byte	0xb
 6442 24ce 11       		.uleb128 0x11
 6443 24cf C1040000 		.4byte	.LASF1401
 6444 24d3 0C       		.byte	0xc
 6445 24d4 11       		.uleb128 0x11
 6446 24d5 A5030000 		.4byte	.LASF1402
 6447 24d9 0D       		.byte	0xd
 6448 24da 11       		.uleb128 0x11
 6449 24db 955B0000 		.4byte	.LASF1403
 6450 24df 12       		.byte	0x12
 6451 24e0 11       		.uleb128 0x11
 6452 24e1 9F3E0000 		.4byte	.LASF1404
 6453 24e5 14       		.byte	0x14
 6454 24e6 11       		.uleb128 0x11
 6455 24e7 BB210000 		.4byte	.LASF1405
 6456 24eb 1B       		.byte	0x1b
 6457 24ec 11       		.uleb128 0x11
 6458 24ed 312E0000 		.4byte	.LASF1406
 6459 24f1 00       		.byte	0
 6460 24f2 11       		.uleb128 0x11
 6461 24f3 AE480000 		.4byte	.LASF1407
 6462 24f7 01       		.byte	0x1
 6463 24f8 11       		.uleb128 0x11
ARM GAS  C:\Users\stijn\AppData\Local\Temp\ccD3lQ9e.s 			page 152


 6464 24f9 80250000 		.4byte	.LASF1408
 6465 24fd 02       		.byte	0x2
 6466 24fe 11       		.uleb128 0x11
 6467 24ff 0B1A0000 		.4byte	.LASF1409
 6468 2503 03       		.byte	0x3
 6469 2504 11       		.uleb128 0x11
 6470 2505 18690000 		.4byte	.LASF1410
 6471 2509 04       		.byte	0x4
 6472 250a 11       		.uleb128 0x11
 6473 250b 24690000 		.4byte	.LASF1411
 6474 250f 05       		.byte	0x5
 6475 2510 11       		.uleb128 0x11
 6476 2511 19400000 		.4byte	.LASF1412
 6477 2515 06       		.byte	0x6
 6478 2516 11       		.uleb128 0x11
 6479 2517 D4390000 		.4byte	.LASF1413
 6480 251b 07       		.byte	0x7
 6481 251c 11       		.uleb128 0x11
 6482 251d 166D0000 		.4byte	.LASF1414
 6483 2521 08       		.byte	0x8
 6484 2522 11       		.uleb128 0x11
 6485 2523 1F240000 		.4byte	.LASF1415
 6486 2527 09       		.byte	0x9
 6487 2528 11       		.uleb128 0x11
 6488 2529 27500000 		.4byte	.LASF1416
 6489 252d 0A       		.byte	0xa
 6490 252e 11       		.uleb128 0x11
 6491 252f 7E5A0000 		.4byte	.LASF1417
 6492 2533 0B       		.byte	0xb
 6493 2534 11       		.uleb128 0x11
 6494 2535 5C2A0000 		.4byte	.LASF1418
 6495 2539 0C       		.byte	0xc
 6496 253a 11       		.uleb128 0x11
 6497 253b 7C280000 		.4byte	.LASF1419
 6498 253f 0D       		.byte	0xd
 6499 2540 11       		.uleb128 0x11
 6500 2541 6D150000 		.4byte	.LASF1420
 6501 2545 12       		.byte	0x12
 6502 2546 11       		.uleb128 0x11
 6503 2547 F34D0000 		.4byte	.LASF1421
 6504 254b 14       		.byte	0x14
 6505 254c 11       		.uleb128 0x11
 6506 254d 2A540000 		.4byte	.LASF1422
 6507 2551 1B       		.byte	0x1b
 6508 2552 11       		.uleb128 0x11
 6509 2553 1A550000 		.4byte	.LASF1423
 6510 2557 00       		.byte	0
 6511 2558 11       		.uleb128 0x11
 6512 2559 9E6C0000 		.4byte	.LASF1424
 6513 255d 01       		.byte	0x1
 6514 255e 11       		.uleb128 0x11
 6515 255f BD580000 		.4byte	.LASF1425
 6516 2563 02       		.byte	0x2
 6517 2564 11       		.uleb128 0x11
 6518 2565 633F0000 		.4byte	.LASF1426
 6519 2569 03       		.byte	0x3
 6520 256a 11       		.uleb128 0x11
ARM GAS  C:\Users\stijn\AppData\Local\Temp\ccD3lQ9e.s 			page 153


 6521 256b 3C0F0000 		.4byte	.LASF1427
 6522 256f 04       		.byte	0x4
 6523 2570 11       		.uleb128 0x11
 6524 2571 413C0000 		.4byte	.LASF1428
 6525 2575 05       		.byte	0x5
 6526 2576 11       		.uleb128 0x11
 6527 2577 53660000 		.4byte	.LASF1429
 6528 257b 06       		.byte	0x6
 6529 257c 11       		.uleb128 0x11
 6530 257d A6790000 		.4byte	.LASF1430
 6531 2581 07       		.byte	0x7
 6532 2582 11       		.uleb128 0x11
 6533 2583 65550000 		.4byte	.LASF1431
 6534 2587 08       		.byte	0x8
 6535 2588 11       		.uleb128 0x11
 6536 2589 D10D0000 		.4byte	.LASF1432
 6537 258d 09       		.byte	0x9
 6538 258e 11       		.uleb128 0x11
 6539 258f DF3D0000 		.4byte	.LASF1433
 6540 2593 0A       		.byte	0xa
 6541 2594 11       		.uleb128 0x11
 6542 2595 B7680000 		.4byte	.LASF1434
 6543 2599 0B       		.byte	0xb
 6544 259a 11       		.uleb128 0x11
 6545 259b 7E710000 		.4byte	.LASF1435
 6546 259f 0C       		.byte	0xc
 6547 25a0 11       		.uleb128 0x11
 6548 25a1 AC4F0000 		.4byte	.LASF1436
 6549 25a5 0D       		.byte	0xd
 6550 25a6 11       		.uleb128 0x11
 6551 25a7 E3640000 		.4byte	.LASF1437
 6552 25ab 14       		.byte	0x14
 6553 25ac 11       		.uleb128 0x11
 6554 25ad 81180000 		.4byte	.LASF1438
 6555 25b1 15       		.byte	0x15
 6556 25b2 11       		.uleb128 0x11
 6557 25b3 5F7A0000 		.4byte	.LASF1439
 6558 25b7 15       		.byte	0x15
 6559 25b8 11       		.uleb128 0x11
 6560 25b9 24000000 		.4byte	.LASF1440
 6561 25bd 00       		.byte	0
 6562 25be 11       		.uleb128 0x11
 6563 25bf C0270000 		.4byte	.LASF1441
 6564 25c3 01       		.byte	0x1
 6565 25c4 11       		.uleb128 0x11
 6566 25c5 1F0F0000 		.4byte	.LASF1442
 6567 25c9 02       		.byte	0x2
 6568 25ca 11       		.uleb128 0x11
 6569 25cb 19630000 		.4byte	.LASF1443
 6570 25cf 03       		.byte	0x3
 6571 25d0 11       		.uleb128 0x11
 6572 25d1 88530000 		.4byte	.LASF1444
 6573 25d5 04       		.byte	0x4
 6574 25d6 11       		.uleb128 0x11
 6575 25d7 94530000 		.4byte	.LASF1445
 6576 25db 05       		.byte	0x5
 6577 25dc 11       		.uleb128 0x11
ARM GAS  C:\Users\stijn\AppData\Local\Temp\ccD3lQ9e.s 			page 154


 6578 25dd F80F0000 		.4byte	.LASF1446
 6579 25e1 06       		.byte	0x6
 6580 25e2 11       		.uleb128 0x11
 6581 25e3 38230000 		.4byte	.LASF1447
 6582 25e7 07       		.byte	0x7
 6583 25e8 11       		.uleb128 0x11
 6584 25e9 AD1C0000 		.4byte	.LASF1448
 6585 25ed 08       		.byte	0x8
 6586 25ee 11       		.uleb128 0x11
 6587 25ef E92D0000 		.4byte	.LASF1449
 6588 25f3 09       		.byte	0x9
 6589 25f4 11       		.uleb128 0x11
 6590 25f5 776D0000 		.4byte	.LASF1450
 6591 25f9 0A       		.byte	0xa
 6592 25fa 11       		.uleb128 0x11
 6593 25fb 7D760000 		.4byte	.LASF1451
 6594 25ff 0B       		.byte	0xb
 6595 2600 11       		.uleb128 0x11
 6596 2601 29780000 		.4byte	.LASF1452
 6597 2605 0C       		.byte	0xc
 6598 2606 11       		.uleb128 0x11
 6599 2607 9C750000 		.4byte	.LASF1453
 6600 260b 0D       		.byte	0xd
 6601 260c 11       		.uleb128 0x11
 6602 260d F5440000 		.4byte	.LASF1454
 6603 2611 14       		.byte	0x14
 6604 2612 11       		.uleb128 0x11
 6605 2613 E10F0000 		.4byte	.LASF1455
 6606 2617 15       		.byte	0x15
 6607 2618 11       		.uleb128 0x11
 6608 2619 6D7B0000 		.4byte	.LASF1456
 6609 261d 15       		.byte	0x15
 6610 261e 11       		.uleb128 0x11
 6611 261f 0F260000 		.4byte	.LASF1457
 6612 2623 00       		.byte	0
 6613 2624 11       		.uleb128 0x11
 6614 2625 F7380000 		.4byte	.LASF1458
 6615 2629 01       		.byte	0x1
 6616 262a 11       		.uleb128 0x11
 6617 262b 69410000 		.4byte	.LASF1459
 6618 262f 02       		.byte	0x2
 6619 2630 11       		.uleb128 0x11
 6620 2631 D5090000 		.4byte	.LASF1460
 6621 2635 03       		.byte	0x3
 6622 2636 11       		.uleb128 0x11
 6623 2637 61490000 		.4byte	.LASF1461
 6624 263b 04       		.byte	0x4
 6625 263c 11       		.uleb128 0x11
 6626 263d 6D490000 		.4byte	.LASF1462
 6627 2641 05       		.byte	0x5
 6628 2642 11       		.uleb128 0x11
 6629 2643 22360000 		.4byte	.LASF1463
 6630 2647 06       		.byte	0x6
 6631 2648 11       		.uleb128 0x11
 6632 2649 CF3D0000 		.4byte	.LASF1464
 6633 264d 07       		.byte	0x7
 6634 264e 11       		.uleb128 0x11
ARM GAS  C:\Users\stijn\AppData\Local\Temp\ccD3lQ9e.s 			page 155


 6635 264f 61350000 		.4byte	.LASF1465
 6636 2653 08       		.byte	0x8
 6637 2654 11       		.uleb128 0x11
 6638 2655 52290000 		.4byte	.LASF1466
 6639 2659 09       		.byte	0x9
 6640 265a 11       		.uleb128 0x11
 6641 265b 043D0000 		.4byte	.LASF1467
 6642 265f 0A       		.byte	0xa
 6643 2660 11       		.uleb128 0x11
 6644 2661 2C090000 		.4byte	.LASF1468
 6645 2665 0B       		.byte	0xb
 6646 2666 11       		.uleb128 0x11
 6647 2667 E2200000 		.4byte	.LASF1469
 6648 266b 0C       		.byte	0xc
 6649 266c 11       		.uleb128 0x11
 6650 266d 0E1F0000 		.4byte	.LASF1470
 6651 2671 0D       		.byte	0xd
 6652 2672 11       		.uleb128 0x11
 6653 2673 66130000 		.4byte	.LASF1471
 6654 2677 14       		.byte	0x14
 6655 2678 11       		.uleb128 0x11
 6656 2679 834D0000 		.4byte	.LASF1472
 6657 267d 00       		.byte	0
 6658 267e 11       		.uleb128 0x11
 6659 267f 2D5C0000 		.4byte	.LASF1473
 6660 2683 01       		.byte	0x1
 6661 2684 11       		.uleb128 0x11
 6662 2685 DE730000 		.4byte	.LASF1474
 6663 2689 02       		.byte	0x2
 6664 268a 11       		.uleb128 0x11
 6665 268b 3D2D0000 		.4byte	.LASF1475
 6666 268f 03       		.byte	0x3
 6667 2690 11       		.uleb128 0x11
 6668 2691 463F0000 		.4byte	.LASF1476
 6669 2695 04       		.byte	0x4
 6670 2696 11       		.uleb128 0x11
 6671 2697 7C1C0000 		.4byte	.LASF1477
 6672 269b 05       		.byte	0x5
 6673 269c 11       		.uleb128 0x11
 6674 269d 875C0000 		.4byte	.LASF1478
 6675 26a1 06       		.byte	0x6
 6676 26a2 11       		.uleb128 0x11
 6677 26a3 02680000 		.4byte	.LASF1479
 6678 26a7 07       		.byte	0x7
 6679 26a8 11       		.uleb128 0x11
 6680 26a9 EA240000 		.4byte	.LASF1480
 6681 26ad 08       		.byte	0x8
 6682 26ae 11       		.uleb128 0x11
 6683 26af 305E0000 		.4byte	.LASF1481
 6684 26b3 09       		.byte	0x9
 6685 26b4 11       		.uleb128 0x11
 6686 26b5 B70C0000 		.4byte	.LASF1482
 6687 26b9 0A       		.byte	0xa
 6688 26ba 11       		.uleb128 0x11
 6689 26bb 48230000 		.4byte	.LASF1483
 6690 26bf 0B       		.byte	0xb
 6691 26c0 11       		.uleb128 0x11
ARM GAS  C:\Users\stijn\AppData\Local\Temp\ccD3lQ9e.s 			page 156


 6692 26c1 4F470000 		.4byte	.LASF1484
 6693 26c5 0C       		.byte	0xc
 6694 26c6 11       		.uleb128 0x11
 6695 26c7 B8450000 		.4byte	.LASF1485
 6696 26cb 0D       		.byte	0xd
 6697 26cc 11       		.uleb128 0x11
 6698 26cd 1D590000 		.4byte	.LASF1486
 6699 26d1 00       		.byte	0
 6700 26d2 11       		.uleb128 0x11
 6701 26d3 0C290000 		.4byte	.LASF1487
 6702 26d7 01       		.byte	0x1
 6703 26d8 11       		.uleb128 0x11
 6704 26d9 55300000 		.4byte	.LASF1488
 6705 26dd 02       		.byte	0x2
 6706 26de 11       		.uleb128 0x11
 6707 26df DE770000 		.4byte	.LASF1489
 6708 26e3 03       		.byte	0x3
 6709 26e4 11       		.uleb128 0x11
 6710 26e5 913F0000 		.4byte	.LASF1490
 6711 26e9 04       		.byte	0x4
 6712 26ea 11       		.uleb128 0x11
 6713 26eb 88770000 		.4byte	.LASF1491
 6714 26ef 05       		.byte	0x5
 6715 26f0 11       		.uleb128 0x11
 6716 26f1 6E5A0000 		.4byte	.LASF1492
 6717 26f5 06       		.byte	0x6
 6718 26f6 11       		.uleb128 0x11
 6719 26f7 F26D0000 		.4byte	.LASF1493
 6720 26fb 07       		.byte	0x7
 6721 26fc 11       		.uleb128 0x11
 6722 26fd B8700000 		.4byte	.LASF1494
 6723 2701 08       		.byte	0x8
 6724 2702 11       		.uleb128 0x11
 6725 2703 F6120000 		.4byte	.LASF1495
 6726 2707 09       		.byte	0x9
 6727 2708 11       		.uleb128 0x11
 6728 2709 0A720000 		.4byte	.LASF1496
 6729 270d 0A       		.byte	0xa
 6730 270e 11       		.uleb128 0x11
 6731 270f AB6E0000 		.4byte	.LASF1497
 6732 2713 0B       		.byte	0xb
 6733 2714 11       		.uleb128 0x11
 6734 2715 34450000 		.4byte	.LASF1498
 6735 2719 0C       		.byte	0xc
 6736 271a 11       		.uleb128 0x11
 6737 271b D0430000 		.4byte	.LASF1499
 6738 271f 0D       		.byte	0xd
 6739 2720 11       		.uleb128 0x11
 6740 2721 8A0C0000 		.4byte	.LASF1500
 6741 2725 11       		.byte	0x11
 6742 2726 11       		.uleb128 0x11
 6743 2727 1D340000 		.4byte	.LASF1501
 6744 272b 12       		.byte	0x12
 6745 272c 11       		.uleb128 0x11
 6746 272d F4510000 		.4byte	.LASF1502
 6747 2731 13       		.byte	0x13
 6748 2732 11       		.uleb128 0x11
ARM GAS  C:\Users\stijn\AppData\Local\Temp\ccD3lQ9e.s 			page 157


 6749 2733 65610000 		.4byte	.LASF1503
 6750 2737 14       		.byte	0x14
 6751 2738 11       		.uleb128 0x11
 6752 2739 66530000 		.4byte	.LASF1504
 6753 273d 18       		.byte	0x18
 6754 273e 11       		.uleb128 0x11
 6755 273f 0A040000 		.4byte	.LASF1505
 6756 2743 00       		.byte	0
 6757 2744 11       		.uleb128 0x11
 6758 2745 FF4C0000 		.4byte	.LASF1506
 6759 2749 01       		.byte	0x1
 6760 274a 11       		.uleb128 0x11
 6761 274b FD630000 		.4byte	.LASF1507
 6762 274f 02       		.byte	0x2
 6763 2750 11       		.uleb128 0x11
 6764 2751 DA1F0000 		.4byte	.LASF1508
 6765 2755 03       		.byte	0x3
 6766 2756 11       		.uleb128 0x11
 6767 2757 8E340000 		.4byte	.LASF1509
 6768 275b 04       		.byte	0x4
 6769 275c 11       		.uleb128 0x11
 6770 275d 9A340000 		.4byte	.LASF1510
 6771 2761 05       		.byte	0x5
 6772 2762 11       		.uleb128 0x11
 6773 2763 E1470000 		.4byte	.LASF1511
 6774 2767 06       		.byte	0x6
 6775 2768 11       		.uleb128 0x11
 6776 2769 CB160000 		.4byte	.LASF1512
 6777 276d 07       		.byte	0x7
 6778 276e 11       		.uleb128 0x11
 6779 276f 47200000 		.4byte	.LASF1513
 6780 2773 08       		.byte	0x8
 6781 2774 11       		.uleb128 0x11
 6782 2775 64310000 		.4byte	.LASF1514
 6783 2779 09       		.byte	0x9
 6784 277a 11       		.uleb128 0x11
 6785 277b 64420000 		.4byte	.LASF1515
 6786 277f 0A       		.byte	0xa
 6787 2780 11       		.uleb128 0x11
 6788 2781 97000000 		.4byte	.LASF1516
 6789 2785 0B       		.byte	0xb
 6790 2786 11       		.uleb128 0x11
 6791 2787 4B6C0000 		.4byte	.LASF1517
 6792 278b 0C       		.byte	0xc
 6793 278c 11       		.uleb128 0x11
 6794 278d BF690000 		.4byte	.LASF1518
 6795 2791 0D       		.byte	0xd
 6796 2792 11       		.uleb128 0x11
 6797 2793 99210000 		.4byte	.LASF1519
 6798 2797 11       		.byte	0x11
 6799 2798 11       		.uleb128 0x11
 6800 2799 3B170000 		.4byte	.LASF1520
 6801 279d 12       		.byte	0x12
 6802 279e 11       		.uleb128 0x11
 6803 279f C2570000 		.4byte	.LASF1521
 6804 27a3 13       		.byte	0x13
 6805 27a4 11       		.uleb128 0x11
ARM GAS  C:\Users\stijn\AppData\Local\Temp\ccD3lQ9e.s 			page 158


 6806 27a5 B2130000 		.4byte	.LASF1522
 6807 27a9 14       		.byte	0x14
 6808 27aa 11       		.uleb128 0x11
 6809 27ab D52C0000 		.4byte	.LASF1523
 6810 27af 18       		.byte	0x18
 6811 27b0 11       		.uleb128 0x11
 6812 27b1 A6290000 		.4byte	.LASF1524
 6813 27b5 00       		.byte	0
 6814 27b6 11       		.uleb128 0x11
 6815 27b7 DC700000 		.4byte	.LASF1525
 6816 27bb 01       		.byte	0x1
 6817 27bc 11       		.uleb128 0x11
 6818 27bd A6190000 		.4byte	.LASF1526
 6819 27c1 02       		.byte	0x2
 6820 27c2 11       		.uleb128 0x11
 6821 27c3 A1430000 		.4byte	.LASF1527
 6822 27c7 03       		.byte	0x3
 6823 27c8 11       		.uleb128 0x11
 6824 27c9 EE2C0000 		.4byte	.LASF1528
 6825 27cd 04       		.byte	0x4
 6826 27ce 11       		.uleb128 0x11
 6827 27cf DC290000 		.4byte	.LASF1529
 6828 27d3 05       		.byte	0x5
 6829 27d4 11       		.uleb128 0x11
 6830 27d5 282A0000 		.4byte	.LASF1530
 6831 27d9 06       		.byte	0x6
 6832 27da 11       		.uleb128 0x11
 6833 27db A83D0000 		.4byte	.LASF1531
 6834 27df 07       		.byte	0x7
 6835 27e0 11       		.uleb128 0x11
 6836 27e1 CB3A0000 		.4byte	.LASF1532
 6837 27e5 08       		.byte	0x8
 6838 27e6 11       		.uleb128 0x11
 6839 27e7 0B2F0000 		.4byte	.LASF1533
 6840 27eb 09       		.byte	0x9
 6841 27ec 11       		.uleb128 0x11
 6842 27ed 72110000 		.4byte	.LASF1534
 6843 27f1 0A       		.byte	0xa
 6844 27f2 11       		.uleb128 0x11
 6845 27f3 AB5A0000 		.4byte	.LASF1535
 6846 27f7 0B       		.byte	0xb
 6847 27f8 11       		.uleb128 0x11
 6848 27f9 C5140000 		.4byte	.LASF1536
 6849 27fd 0C       		.byte	0xc
 6850 27fe 11       		.uleb128 0x11
 6851 27ff 09130000 		.4byte	.LASF1537
 6852 2803 0D       		.byte	0xd
 6853 2804 11       		.uleb128 0x11
 6854 2805 AE380000 		.4byte	.LASF1538
 6855 2809 11       		.byte	0x11
 6856 280a 11       		.uleb128 0x11
 6857 280b 6A500000 		.4byte	.LASF1539
 6858 280f 12       		.byte	0x12
 6859 2810 11       		.uleb128 0x11
 6860 2811 8E4D0000 		.4byte	.LASF1540
 6861 2815 14       		.byte	0x14
 6862 2816 11       		.uleb128 0x11
ARM GAS  C:\Users\stijn\AppData\Local\Temp\ccD3lQ9e.s 			page 159


 6863 2817 C1500000 		.4byte	.LASF1541
 6864 281b 00       		.byte	0
 6865 281c 11       		.uleb128 0x11
 6866 281d 09190000 		.4byte	.LASF1542
 6867 2821 01       		.byte	0x1
 6868 2822 11       		.uleb128 0x11
 6869 2823 214C0000 		.4byte	.LASF1543
 6870 2827 02       		.byte	0x2
 6871 2828 11       		.uleb128 0x11
 6872 2829 AD670000 		.4byte	.LASF1544
 6873 282d 03       		.byte	0x3
 6874 282e 11       		.uleb128 0x11
 6875 282f 3D1F0000 		.4byte	.LASF1545
 6876 2833 04       		.byte	0x4
 6877 2834 11       		.uleb128 0x11
 6878 2835 491F0000 		.4byte	.LASF1546
 6879 2839 05       		.byte	0x5
 6880 283a 11       		.uleb128 0x11
 6881 283b 8C500000 		.4byte	.LASF1547
 6882 283f 06       		.byte	0x6
 6883 2840 11       		.uleb128 0x11
 6884 2841 7C640000 		.4byte	.LASF1548
 6885 2845 07       		.byte	0x7
 6886 2846 11       		.uleb128 0x11
 6887 2847 0E500000 		.4byte	.LASF1549
 6888 284b 08       		.byte	0x8
 6889 284c 11       		.uleb128 0x11
 6890 284d C2610000 		.4byte	.LASF1550
 6891 2851 09       		.byte	0x9
 6892 2852 11       		.uleb128 0x11
 6893 2853 1F5E0000 		.4byte	.LASF1551
 6894 2857 0A       		.byte	0xa
 6895 2858 11       		.uleb128 0x11
 6896 2859 1A530000 		.4byte	.LASF1552
 6897 285d 0B       		.byte	0xb
 6898 285e 11       		.uleb128 0x11
 6899 285f 123C0000 		.4byte	.LASF1553
 6900 2863 0C       		.byte	0xc
 6901 2864 11       		.uleb128 0x11
 6902 2865 AC3A0000 		.4byte	.LASF1554
 6903 2869 0D       		.byte	0xd
 6904 286a 11       		.uleb128 0x11
 6905 286b 55520000 		.4byte	.LASF1555
 6906 286f 11       		.byte	0x11
 6907 2870 11       		.uleb128 0x11
 6908 2871 690B0000 		.4byte	.LASF1556
 6909 2875 12       		.byte	0x12
 6910 2876 11       		.uleb128 0x11
 6911 2877 D51C0000 		.4byte	.LASF1557
 6912 287b 14       		.byte	0x14
 6913 287c 11       		.uleb128 0x11
 6914 287d 0F210000 		.4byte	.LASF1558
 6915 2881 19       		.byte	0x19
 6916 2882 11       		.uleb128 0x11
 6917 2883 B7610000 		.4byte	.LASF1559
 6918 2887 00       		.byte	0
 6919 2888 11       		.uleb128 0x11
ARM GAS  C:\Users\stijn\AppData\Local\Temp\ccD3lQ9e.s 			page 160


 6920 2889 3C3D0000 		.4byte	.LASF1560
 6921 288d 01       		.byte	0x1
 6922 288e 11       		.uleb128 0x11
 6923 288f 2A030000 		.4byte	.LASF1561
 6924 2893 02       		.byte	0x2
 6925 2894 11       		.uleb128 0x11
 6926 2895 F80E0000 		.4byte	.LASF1562
 6927 2899 03       		.byte	0x3
 6928 289a 11       		.uleb128 0x11
 6929 289b 5B600000 		.4byte	.LASF1563
 6930 289f 04       		.byte	0x4
 6931 28a0 11       		.uleb128 0x11
 6932 28a1 3E140000 		.4byte	.LASF1564
 6933 28a5 05       		.byte	0x5
 6934 28a6 11       		.uleb128 0x11
 6935 28a7 C0770000 		.4byte	.LASF1565
 6936 28ab 06       		.byte	0x6
 6937 28ac 11       		.uleb128 0x11
 6938 28ad 3D0E0000 		.4byte	.LASF1566
 6939 28b1 07       		.byte	0x7
 6940 28b2 11       		.uleb128 0x11
 6941 28b3 65570000 		.4byte	.LASF1567
 6942 28b7 08       		.byte	0x8
 6943 28b8 11       		.uleb128 0x11
 6944 28b9 5A4C0000 		.4byte	.LASF1568
 6945 28bd 09       		.byte	0x9
 6946 28be 11       		.uleb128 0x11
 6947 28bf 832E0000 		.4byte	.LASF1569
 6948 28c3 0A       		.byte	0xa
 6949 28c4 11       		.uleb128 0x11
 6950 28c5 6B000000 		.4byte	.LASF1570
 6951 28c9 0B       		.byte	0xb
 6952 28ca 11       		.uleb128 0x11
 6953 28cb B4630000 		.4byte	.LASF1571
 6954 28cf 0C       		.byte	0xc
 6955 28d0 11       		.uleb128 0x11
 6956 28d1 39620000 		.4byte	.LASF1572
 6957 28d5 0D       		.byte	0xd
 6958 28d6 11       		.uleb128 0x11
 6959 28d7 29400000 		.4byte	.LASF1573
 6960 28db 11       		.byte	0x11
 6961 28dc 11       		.uleb128 0x11
 6962 28dd E4040000 		.4byte	.LASF1574
 6963 28e1 14       		.byte	0x14
 6964 28e2 11       		.uleb128 0x11
 6965 28e3 94770000 		.4byte	.LASF1575
 6966 28e7 19       		.byte	0x19
 6967 28e8 11       		.uleb128 0x11
 6968 28e9 B0210000 		.4byte	.LASF1576
 6969 28ed 00       		.byte	0
 6970 28ee 11       		.uleb128 0x11
 6971 28ef E8600000 		.4byte	.LASF1577
 6972 28f3 01       		.byte	0x1
 6973 28f4 11       		.uleb128 0x11
 6974 28f5 A1350000 		.4byte	.LASF1578
 6975 28f9 02       		.byte	0x2
 6976 28fa 11       		.uleb128 0x11
ARM GAS  C:\Users\stijn\AppData\Local\Temp\ccD3lQ9e.s 			page 161


 6977 28fb 686D0000 		.4byte	.LASF1579
 6978 28ff 03       		.byte	0x3
 6979 2900 11       		.uleb128 0x11
 6980 2901 C93B0000 		.4byte	.LASF1580
 6981 2905 04       		.byte	0x4
 6982 2906 11       		.uleb128 0x11
 6983 2907 D53B0000 		.4byte	.LASF1581
 6984 290b 05       		.byte	0x5
 6985 290c 11       		.uleb128 0x11
 6986 290d AC200000 		.4byte	.LASF1582
 6987 2911 06       		.byte	0x6
 6988 2912 11       		.uleb128 0x11
 6989 2913 B0330000 		.4byte	.LASF1583
 6990 2917 07       		.byte	0x7
 6991 2918 11       		.uleb128 0x11
 6992 2919 E2030000 		.4byte	.LASF1584
 6993 291d 08       		.byte	0x8
 6994 291e 11       		.uleb128 0x11
 6995 291f 9A2D0000 		.4byte	.LASF1585
 6996 2923 09       		.byte	0x9
 6997 2924 11       		.uleb128 0x11
 6998 2925 0D7B0000 		.4byte	.LASF1586
 6999 2929 0A       		.byte	0xa
 7000 292a 11       		.uleb128 0x11
 7001 292b 91390000 		.4byte	.LASF1587
 7002 292f 0B       		.byte	0xb
 7003 2930 11       		.uleb128 0x11
 7004 2931 C46C0000 		.4byte	.LASF1588
 7005 2935 0C       		.byte	0xc
 7006 2936 11       		.uleb128 0x11
 7007 2937 9F0A0000 		.4byte	.LASF1589
 7008 293b 0D       		.byte	0xd
 7009 293c 11       		.uleb128 0x11
 7010 293d F6010000 		.4byte	.LASF1590
 7011 2941 11       		.byte	0x11
 7012 2942 11       		.uleb128 0x11
 7013 2943 291B0000 		.4byte	.LASF1591
 7014 2947 14       		.byte	0x14
 7015 2948 11       		.uleb128 0x11
 7016 2949 17490000 		.4byte	.LASF1592
 7017 294d 00       		.byte	0
 7018 294e 11       		.uleb128 0x11
 7019 294f FF070000 		.4byte	.LASF1593
 7020 2953 01       		.byte	0x1
 7021 2954 11       		.uleb128 0x11
 7022 2955 85680000 		.4byte	.LASF1594
 7023 2959 02       		.byte	0x2
 7024 295a 11       		.uleb128 0x11
 7025 295b D8550000 		.4byte	.LASF1595
 7026 295f 03       		.byte	0x3
 7027 2960 11       		.uleb128 0x11
 7028 2961 3F000000 		.4byte	.LASF1596
 7029 2965 04       		.byte	0x4
 7030 2966 11       		.uleb128 0x11
 7031 2967 6E160000 		.4byte	.LASF1597
 7032 296b 05       		.byte	0x5
 7033 296c 11       		.uleb128 0x11
ARM GAS  C:\Users\stijn\AppData\Local\Temp\ccD3lQ9e.s 			page 162


 7034 296d 0F2B0000 		.4byte	.LASF1598
 7035 2971 06       		.byte	0x6
 7036 2972 11       		.uleb128 0x11
 7037 2973 355A0000 		.4byte	.LASF1599
 7038 2977 07       		.byte	0x7
 7039 2978 11       		.uleb128 0x11
 7040 2979 E14A0000 		.4byte	.LASF1600
 7041 297d 0A       		.byte	0xa
 7042 297e 11       		.uleb128 0x11
 7043 297f 2D470000 		.4byte	.LASF1601
 7044 2983 0B       		.byte	0xb
 7045 2984 11       		.uleb128 0x11
 7046 2985 F7320000 		.4byte	.LASF1602
 7047 2989 0C       		.byte	0xc
 7048 298a 11       		.uleb128 0x11
 7049 298b 3C310000 		.4byte	.LASF1603
 7050 298f 0D       		.byte	0xd
 7051 2990 11       		.uleb128 0x11
 7052 2991 DC400000 		.4byte	.LASF1604
 7053 2995 11       		.byte	0x11
 7054 2996 11       		.uleb128 0x11
 7055 2997 FB2F0000 		.4byte	.LASF1605
 7056 299b 14       		.byte	0x14
 7057 299c 11       		.uleb128 0x11
 7058 299d 09700000 		.4byte	.LASF1606
 7059 29a1 00       		.byte	0
 7060 29a2 11       		.uleb128 0x11
 7061 29a3 166C0000 		.4byte	.LASF1607
 7062 29a7 01       		.byte	0x1
 7063 29a8 11       		.uleb128 0x11
 7064 29a9 F81D0000 		.4byte	.LASF1608
 7065 29ad 02       		.byte	0x2
 7066 29ae 11       		.uleb128 0x11
 7067 29af 3D7A0000 		.4byte	.LASF1609
 7068 29b3 03       		.byte	0x3
 7069 29b4 11       		.uleb128 0x11
 7070 29b5 37710000 		.4byte	.LASF1610
 7071 29b9 04       		.byte	0x4
 7072 29ba 11       		.uleb128 0x11
 7073 29bb 43710000 		.4byte	.LASF1611
 7074 29bf 05       		.byte	0x5
 7075 29c0 11       		.uleb128 0x11
 7076 29c1 106E0000 		.4byte	.LASF1612
 7077 29c5 06       		.byte	0x6
 7078 29c6 11       		.uleb128 0x11
 7079 29c7 B1040000 		.4byte	.LASF1613
 7080 29cb 07       		.byte	0x7
 7081 29cc 11       		.uleb128 0x11
 7082 29cd 6C1B0000 		.4byte	.LASF1614
 7083 29d1 11       		.byte	0x11
 7084 29d2 11       		.uleb128 0x11
 7085 29d3 517B0000 		.4byte	.LASF1615
 7086 29d7 00       		.byte	0
 7087 29d8 11       		.uleb128 0x11
 7088 29d9 48210000 		.4byte	.LASF1616
 7089 29dd 01       		.byte	0x1
 7090 29de 11       		.uleb128 0x11
ARM GAS  C:\Users\stijn\AppData\Local\Temp\ccD3lQ9e.s 			page 163


 7091 29df 8C570000 		.4byte	.LASF1617
 7092 29e3 02       		.byte	0x2
 7093 29e4 11       		.uleb128 0x11
 7094 29e5 61480000 		.4byte	.LASF1618
 7095 29e9 03       		.byte	0x3
 7096 29ea 11       		.uleb128 0x11
 7097 29eb 66710000 		.4byte	.LASF1619
 7098 29ef 04       		.byte	0x4
 7099 29f0 11       		.uleb128 0x11
 7100 29f1 72710000 		.4byte	.LASF1620
 7101 29f5 05       		.byte	0x5
 7102 29f6 11       		.uleb128 0x11
 7103 29f7 3F790000 		.4byte	.LASF1621
 7104 29fb 06       		.byte	0x6
 7105 29fc 11       		.uleb128 0x11
 7106 29fd 26020000 		.4byte	.LASF1622
 7107 2a01 07       		.byte	0x7
 7108 2a02 11       		.uleb128 0x11
 7109 2a03 6E2D0000 		.4byte	.LASF1623
 7110 2a07 08       		.byte	0x8
 7111 2a08 11       		.uleb128 0x11
 7112 2a09 52090000 		.4byte	.LASF1624
 7113 2a0d 09       		.byte	0x9
 7114 2a0e 11       		.uleb128 0x11
 7115 2a0f 53040000 		.4byte	.LASF1625
 7116 2a13 0A       		.byte	0xa
 7117 2a14 11       		.uleb128 0x11
 7118 2a15 AB2F0000 		.4byte	.LASF1626
 7119 2a19 0B       		.byte	0xb
 7120 2a1a 11       		.uleb128 0x11
 7121 2a1b B0560000 		.4byte	.LASF1627
 7122 2a1f 0C       		.byte	0xc
 7123 2a20 11       		.uleb128 0x11
 7124 2a21 AB3B0000 		.4byte	.LASF1628
 7125 2a25 0D       		.byte	0xd
 7126 2a26 11       		.uleb128 0x11
 7127 2a27 7F520000 		.4byte	.LASF1629
 7128 2a2b 11       		.byte	0x11
 7129 2a2c 11       		.uleb128 0x11
 7130 2a2d 2D290000 		.4byte	.LASF1630
 7131 2a31 12       		.byte	0x12
 7132 2a32 11       		.uleb128 0x11
 7133 2a33 7F460000 		.4byte	.LASF1631
 7134 2a37 13       		.byte	0x13
 7135 2a38 11       		.uleb128 0x11
 7136 2a39 71680000 		.4byte	.LASF1632
 7137 2a3d 14       		.byte	0x14
 7138 2a3e 11       		.uleb128 0x11
 7139 2a3f 843A0000 		.4byte	.LASF1633
 7140 2a43 18       		.byte	0x18
 7141 2a44 11       		.uleb128 0x11
 7142 2a45 9F780000 		.4byte	.LASF1634
 7143 2a49 00       		.byte	0
 7144 2a4a 11       		.uleb128 0x11
 7145 2a4b 891D0000 		.4byte	.LASF1635
 7146 2a4f 01       		.byte	0x1
 7147 2a50 11       		.uleb128 0x11
ARM GAS  C:\Users\stijn\AppData\Local\Temp\ccD3lQ9e.s 			page 164


 7148 2a51 F70D0000 		.4byte	.LASF1636
 7149 2a55 02       		.byte	0x2
 7150 2a56 11       		.uleb128 0x11
 7151 2a57 3C6C0000 		.4byte	.LASF1637
 7152 2a5b 03       		.byte	0x3
 7153 2a5c 11       		.uleb128 0x11
 7154 2a5d 68670000 		.4byte	.LASF1638
 7155 2a61 04       		.byte	0x4
 7156 2a62 11       		.uleb128 0x11
 7157 2a63 74670000 		.4byte	.LASF1639
 7158 2a67 05       		.byte	0x5
 7159 2a68 11       		.uleb128 0x11
 7160 2a69 5F140000 		.4byte	.LASF1640
 7161 2a6d 06       		.byte	0x6
 7162 2a6e 11       		.uleb128 0x11
 7163 2a6f A0270000 		.4byte	.LASF1641
 7164 2a73 07       		.byte	0x7
 7165 2a74 11       		.uleb128 0x11
 7166 2a75 83090000 		.4byte	.LASF1642
 7167 2a79 08       		.byte	0x8
 7168 2a7a 11       		.uleb128 0x11
 7169 2a7b D7170000 		.4byte	.LASF1643
 7170 2a7f 09       		.byte	0x9
 7171 2a80 11       		.uleb128 0x11
 7172 2a81 45500000 		.4byte	.LASF1644
 7173 2a85 0A       		.byte	0xa
 7174 2a86 11       		.uleb128 0x11
 7175 2a87 EB3F0000 		.4byte	.LASF1645
 7176 2a8b 0B       		.byte	0xb
 7177 2a8c 11       		.uleb128 0x11
 7178 2a8d 6B010000 		.4byte	.LASF1646
 7179 2a91 0C       		.byte	0xc
 7180 2a92 11       		.uleb128 0x11
 7181 2a93 56690000 		.4byte	.LASF1647
 7182 2a97 0D       		.byte	0xd
 7183 2a98 11       		.uleb128 0x11
 7184 2a99 4A140000 		.4byte	.LASF1648
 7185 2a9d 11       		.byte	0x11
 7186 2a9e 11       		.uleb128 0x11
 7187 2a9f C1390000 		.4byte	.LASF1649
 7188 2aa3 12       		.byte	0x12
 7189 2aa4 11       		.uleb128 0x11
 7190 2aa5 9D560000 		.4byte	.LASF1650
 7191 2aa9 13       		.byte	0x13
 7192 2aaa 11       		.uleb128 0x11
 7193 2aab C2190000 		.4byte	.LASF1651
 7194 2aaf 14       		.byte	0x14
 7195 2ab0 11       		.uleb128 0x11
 7196 2ab1 8C130000 		.4byte	.LASF1652
 7197 2ab5 18       		.byte	0x18
 7198 2ab6 11       		.uleb128 0x11
 7199 2ab7 C84B0000 		.4byte	.LASF1653
 7200 2abb 00       		.byte	0
 7201 2abc 11       		.uleb128 0x11
 7202 2abd 77410000 		.4byte	.LASF1654
 7203 2ac1 01       		.byte	0x1
 7204 2ac2 11       		.uleb128 0x11
ARM GAS  C:\Users\stijn\AppData\Local\Temp\ccD3lQ9e.s 			page 165


 7205 2ac3 383F0000 		.4byte	.LASF1655
 7206 2ac7 02       		.byte	0x2
 7207 2ac8 11       		.uleb128 0x11
 7208 2ac9 9A120000 		.4byte	.LASF1656
 7209 2acd 03       		.byte	0x3
 7210 2ace 11       		.uleb128 0x11
 7211 2acf AA5C0000 		.4byte	.LASF1657
 7212 2ad3 04       		.byte	0x4
 7213 2ad4 11       		.uleb128 0x11
 7214 2ad5 B65C0000 		.4byte	.LASF1658
 7215 2ad9 05       		.byte	0x5
 7216 2ada 11       		.uleb128 0x11
 7217 2adb E13B0000 		.4byte	.LASF1659
 7218 2adf 06       		.byte	0x6
 7219 2ae0 11       		.uleb128 0x11
 7220 2ae1 154F0000 		.4byte	.LASF1660
 7221 2ae5 07       		.byte	0x7
 7222 2ae6 11       		.uleb128 0x11
 7223 2ae7 BD790000 		.4byte	.LASF1661
 7224 2aeb 08       		.byte	0x8
 7225 2aec 11       		.uleb128 0x11
 7226 2aed 06510000 		.4byte	.LASF1662
 7227 2af1 09       		.byte	0x9
 7228 2af2 11       		.uleb128 0x11
 7229 2af3 04200000 		.4byte	.LASF1663
 7230 2af7 0A       		.byte	0xa
 7231 2af8 11       		.uleb128 0x11
 7232 2af9 1C4D0000 		.4byte	.LASF1664
 7233 2afd 0B       		.byte	0xb
 7234 2afe 11       		.uleb128 0x11
 7235 2aff 28270000 		.4byte	.LASF1665
 7236 2b03 0C       		.byte	0xc
 7237 2b04 11       		.uleb128 0x11
 7238 2b05 70250000 		.4byte	.LASF1666
 7239 2b09 0D       		.byte	0xd
 7240 2b0a 11       		.uleb128 0x11
 7241 2b0b AD530000 		.4byte	.LASF1667
 7242 2b0f 11       		.byte	0x11
 7243 2b10 11       		.uleb128 0x11
 7244 2b11 78570000 		.4byte	.LASF1668
 7245 2b15 12       		.byte	0x12
 7246 2b16 11       		.uleb128 0x11
 7247 2b17 5E030000 		.4byte	.LASF1669
 7248 2b1b 14       		.byte	0x14
 7249 2b1c 11       		.uleb128 0x11
 7250 2b1d B8720000 		.4byte	.LASF1670
 7251 2b21 00       		.byte	0
 7252 2b22 11       		.uleb128 0x11
 7253 2b23 A4650000 		.4byte	.LASF1671
 7254 2b27 01       		.byte	0x1
 7255 2b28 11       		.uleb128 0x11
 7256 2b29 78720000 		.4byte	.LASF1672
 7257 2b2d 02       		.byte	0x2
 7258 2b2e 11       		.uleb128 0x11
 7259 2b2f 8F370000 		.4byte	.LASF1673
 7260 2b33 03       		.byte	0x3
 7261 2b34 11       		.uleb128 0x11
ARM GAS  C:\Users\stijn\AppData\Local\Temp\ccD3lQ9e.s 			page 166


 7262 2b35 BB510000 		.4byte	.LASF1674
 7263 2b39 04       		.byte	0x4
 7264 2b3a 11       		.uleb128 0x11
 7265 2b3b C7510000 		.4byte	.LASF1675
 7266 2b3f 05       		.byte	0x5
 7267 2b40 11       		.uleb128 0x11
 7268 2b41 D92D0000 		.4byte	.LASF1676
 7269 2b45 06       		.byte	0x6
 7270 2b46 11       		.uleb128 0x11
 7271 2b47 04750000 		.4byte	.LASF1677
 7272 2b4b 07       		.byte	0x7
 7273 2b4c 11       		.uleb128 0x11
 7274 2b4d D8360000 		.4byte	.LASF1678
 7275 2b51 08       		.byte	0x8
 7276 2b52 11       		.uleb128 0x11
 7277 2b53 BA470000 		.4byte	.LASF1679
 7278 2b57 09       		.byte	0x9
 7279 2b58 11       		.uleb128 0x11
 7280 2b59 966D0000 		.4byte	.LASF1680
 7281 2b5d 0A       		.byte	0xa
 7282 2b5e 11       		.uleb128 0x11
 7283 2b5f 521A0000 		.4byte	.LASF1681
 7284 2b63 0B       		.byte	0xb
 7285 2b64 11       		.uleb128 0x11
 7286 2b65 C80A0000 		.4byte	.LASF1682
 7287 2b69 0C       		.byte	0xc
 7288 2b6a 11       		.uleb128 0x11
 7289 2b6b 624B0000 		.4byte	.LASF1683
 7290 2b6f 0D       		.byte	0xd
 7291 2b70 11       		.uleb128 0x11
 7292 2b71 81150000 		.4byte	.LASF1684
 7293 2b75 11       		.byte	0x11
 7294 2b76 11       		.uleb128 0x11
 7295 2b77 89600000 		.4byte	.LASF1685
 7296 2b7b 12       		.byte	0x12
 7297 2b7c 11       		.uleb128 0x11
 7298 2b7d 8A550000 		.4byte	.LASF1686
 7299 2b81 14       		.byte	0x14
 7300 2b82 11       		.uleb128 0x11
 7301 2b83 AD1D0000 		.4byte	.LASF1687
 7302 2b87 00       		.byte	0
 7303 2b88 11       		.uleb128 0x11
 7304 2b89 F10C0000 		.4byte	.LASF1688
 7305 2b8d 01       		.byte	0x1
 7306 2b8e 11       		.uleb128 0x11
 7307 2b8f 0C650000 		.4byte	.LASF1689
 7308 2b93 02       		.byte	0x2
 7309 2b94 11       		.uleb128 0x11
 7310 2b95 CD5A0000 		.4byte	.LASF1690
 7311 2b99 03       		.byte	0x3
 7312 2b9a 11       		.uleb128 0x11
 7313 2b9b 5F470000 		.4byte	.LASF1691
 7314 2b9f 04       		.byte	0x4
 7315 2ba0 11       		.uleb128 0x11
 7316 2ba1 6B470000 		.4byte	.LASF1692
 7317 2ba5 05       		.byte	0x5
 7318 2ba6 11       		.uleb128 0x11
ARM GAS  C:\Users\stijn\AppData\Local\Temp\ccD3lQ9e.s 			page 167


 7319 2ba7 C92D0000 		.4byte	.LASF1693
 7320 2bab 06       		.byte	0x6
 7321 2bac 11       		.uleb128 0x11
 7322 2bad 061E0000 		.4byte	.LASF1694
 7323 2bb1 07       		.byte	0x7
 7324 2bb2 11       		.uleb128 0x11
 7325 2bb3 F6180000 		.4byte	.LASF1695
 7326 2bb7 08       		.byte	0x8
 7327 2bb8 11       		.uleb128 0x11
 7328 2bb9 C40E0000 		.4byte	.LASF1696
 7329 2bbd 09       		.byte	0x9
 7330 2bbe 11       		.uleb128 0x11
 7331 2bbf 2B3D0000 		.4byte	.LASF1697
 7332 2bc3 0A       		.byte	0xa
 7333 2bc4 11       		.uleb128 0x11
 7334 2bc5 AC690000 		.4byte	.LASF1698
 7335 2bc9 0B       		.byte	0xb
 7336 2bca 11       		.uleb128 0x11
 7337 2bcb 2D730000 		.4byte	.LASF1699
 7338 2bcf 0C       		.byte	0xc
 7339 2bd0 11       		.uleb128 0x11
 7340 2bd1 C6710000 		.4byte	.LASF1700
 7341 2bd5 0D       		.byte	0xd
 7342 2bd6 11       		.uleb128 0x11
 7343 2bd7 B83D0000 		.4byte	.LASF1701
 7344 2bdb 11       		.byte	0x11
 7345 2bdc 11       		.uleb128 0x11
 7346 2bdd AD6C0000 		.4byte	.LASF1702
 7347 2be1 14       		.byte	0x14
 7348 2be2 11       		.uleb128 0x11
 7349 2be3 AB500000 		.4byte	.LASF1703
 7350 2be7 15       		.byte	0x15
 7351 2be8 11       		.uleb128 0x11
 7352 2be9 14120000 		.4byte	.LASF1704
 7353 2bed 15       		.byte	0x15
 7354 2bee 11       		.uleb128 0x11
 7355 2bef AF350000 		.4byte	.LASF1705
 7356 2bf3 00       		.byte	0
 7357 2bf4 11       		.uleb128 0x11
 7358 2bf5 EC2F0000 		.4byte	.LASF1706
 7359 2bf9 01       		.byte	0x1
 7360 2bfa 11       		.uleb128 0x11
 7361 2bfb ED5B0000 		.4byte	.LASF1707
 7362 2bff 02       		.byte	0x2
 7363 2c00 11       		.uleb128 0x11
 7364 2c01 D7020000 		.4byte	.LASF1708
 7365 2c05 03       		.byte	0x3
 7366 2c06 11       		.uleb128 0x11
 7367 2c07 F83C0000 		.4byte	.LASF1709
 7368 2c0b 04       		.byte	0x4
 7369 2c0c 11       		.uleb128 0x11
 7370 2c0d F35F0000 		.4byte	.LASF1710
 7371 2c11 05       		.byte	0x5
 7372 2c12 11       		.uleb128 0x11
 7373 2c13 A8310000 		.4byte	.LASF1711
 7374 2c17 06       		.byte	0x6
 7375 2c18 11       		.uleb128 0x11
ARM GAS  C:\Users\stijn\AppData\Local\Temp\ccD3lQ9e.s 			page 168


 7376 2c19 A9440000 		.4byte	.LASF1712
 7377 2c1d 07       		.byte	0x7
 7378 2c1e 11       		.uleb128 0x11
 7379 2c1f 76660000 		.4byte	.LASF1713
 7380 2c23 08       		.byte	0x8
 7381 2c24 11       		.uleb128 0x11
 7382 2c25 10780000 		.4byte	.LASF1714
 7383 2c29 09       		.byte	0x9
 7384 2c2a 11       		.uleb128 0x11
 7385 2c2b 001B0000 		.4byte	.LASF1715
 7386 2c2f 0A       		.byte	0xa
 7387 2c30 11       		.uleb128 0x11
 7388 2c31 88580000 		.4byte	.LASF1716
 7389 2c35 0B       		.byte	0xb
 7390 2c36 11       		.uleb128 0x11
 7391 2c37 791D0000 		.4byte	.LASF1717
 7392 2c3b 0C       		.byte	0xc
 7393 2c3c 11       		.uleb128 0x11
 7394 2c3d 241C0000 		.4byte	.LASF1718
 7395 2c41 0D       		.byte	0xd
 7396 2c42 11       		.uleb128 0x11
 7397 2c43 63050000 		.4byte	.LASF1719
 7398 2c47 14       		.byte	0x14
 7399 2c48 11       		.uleb128 0x11
 7400 2c49 88400000 		.4byte	.LASF1720
 7401 2c4d 15       		.byte	0x15
 7402 2c4e 11       		.uleb128 0x11
 7403 2c4f BB520000 		.4byte	.LASF1721
 7404 2c53 15       		.byte	0x15
 7405 2c54 11       		.uleb128 0x11
 7406 2c55 8F6B0000 		.4byte	.LASF1722
 7407 2c59 00       		.byte	0
 7408 2c5a 11       		.uleb128 0x11
 7409 2c5b E1530000 		.4byte	.LASF1723
 7410 2c5f 01       		.byte	0x1
 7411 2c60 11       		.uleb128 0x11
 7412 2c61 9B110000 		.4byte	.LASF1724
 7413 2c65 02       		.byte	0x2
 7414 2c66 11       		.uleb128 0x11
 7415 2c67 8E250000 		.4byte	.LASF1725
 7416 2c6b 03       		.byte	0x3
 7417 2c6c 11       		.uleb128 0x11
 7418 2c6d 1C320000 		.4byte	.LASF1726
 7419 2c71 04       		.byte	0x4
 7420 2c72 11       		.uleb128 0x11
 7421 2c73 28320000 		.4byte	.LASF1727
 7422 2c77 05       		.byte	0x5
 7423 2c78 11       		.uleb128 0x11
 7424 2c79 78580000 		.4byte	.LASF1728
 7425 2c7d 06       		.byte	0x6
 7426 2c7e 11       		.uleb128 0x11
 7427 2c7f CA6B0000 		.4byte	.LASF1729
 7428 2c83 07       		.byte	0x7
 7429 2c84 11       		.uleb128 0x11
 7430 2c85 74360000 		.4byte	.LASF1730
 7431 2c89 08       		.byte	0x8
 7432 2c8a 11       		.uleb128 0x11
ARM GAS  C:\Users\stijn\AppData\Local\Temp\ccD3lQ9e.s 			page 169


 7433 2c8b 322B0000 		.4byte	.LASF1731
 7434 2c8f 09       		.byte	0x9
 7435 2c90 11       		.uleb128 0x11
 7436 2c91 28590000 		.4byte	.LASF1732
 7437 2c95 0A       		.byte	0xa
 7438 2c96 11       		.uleb128 0x11
 7439 2c97 D1040000 		.4byte	.LASF1733
 7440 2c9b 0B       		.byte	0xb
 7441 2c9c 11       		.uleb128 0x11
 7442 2c9d 3E440000 		.4byte	.LASF1734
 7443 2ca1 0C       		.byte	0xc
 7444 2ca2 11       		.uleb128 0x11
 7445 2ca3 16430000 		.4byte	.LASF1735
 7446 2ca7 0D       		.byte	0xd
 7447 2ca8 11       		.uleb128 0x11
 7448 2ca9 8C1B0000 		.4byte	.LASF1736
 7449 2cad 14       		.byte	0x14
 7450 2cae 11       		.uleb128 0x11
 7451 2caf B6150000 		.4byte	.LASF1737
 7452 2cb3 00       		.byte	0
 7453 2cb4 11       		.uleb128 0x11
 7454 2cb5 AF060000 		.4byte	.LASF1738
 7455 2cb9 01       		.byte	0x1
 7456 2cba 11       		.uleb128 0x11
 7457 2cbb 9B440000 		.4byte	.LASF1739
 7458 2cbf 02       		.byte	0x2
 7459 2cc0 11       		.uleb128 0x11
 7460 2cc1 A8490000 		.4byte	.LASF1740
 7461 2cc5 03       		.byte	0x3
 7462 2cc6 11       		.uleb128 0x11
 7463 2cc7 5D270000 		.4byte	.LASF1741
 7464 2ccb 04       		.byte	0x4
 7465 2ccc 11       		.uleb128 0x11
 7466 2ccd 69270000 		.4byte	.LASF1742
 7467 2cd1 05       		.byte	0x5
 7468 2cd2 11       		.uleb128 0x11
 7469 2cd3 44020000 		.4byte	.LASF1743
 7470 2cd7 06       		.byte	0x6
 7471 2cd8 11       		.uleb128 0x11
 7472 2cd9 5D260000 		.4byte	.LASF1744
 7473 2cdd 07       		.byte	0x7
 7474 2cde 11       		.uleb128 0x11
 7475 2cdf ED100000 		.4byte	.LASF1745
 7476 2ce3 08       		.byte	0x8
 7477 2ce4 11       		.uleb128 0x11
 7478 2ce5 BD2A0000 		.4byte	.LASF1746
 7479 2ce9 09       		.byte	0x9
 7480 2cea 11       		.uleb128 0x11
 7481 2ceb 47280000 		.4byte	.LASF1747
 7482 2cef 0A       		.byte	0xa
 7483 2cf0 11       		.uleb128 0x11
 7484 2cf1 04180000 		.4byte	.LASF1748
 7485 2cf5 0B       		.byte	0xb
 7486 2cf6 11       		.uleb128 0x11
 7487 2cf7 3E6B0000 		.4byte	.LASF1749
 7488 2cfb 0C       		.byte	0xc
 7489 2cfc 11       		.uleb128 0x11
ARM GAS  C:\Users\stijn\AppData\Local\Temp\ccD3lQ9e.s 			page 170


 7490 2cfd DF000000 		.4byte	.LASF1750
 7491 2d01 0D       		.byte	0xd
 7492 2d02 11       		.uleb128 0x11
 7493 2d03 04210000 		.4byte	.LASF1751
 7494 2d07 00       		.byte	0
 7495 2d08 11       		.uleb128 0x11
 7496 2d09 34460000 		.4byte	.LASF1752
 7497 2d0d 01       		.byte	0x1
 7498 2d0e 11       		.uleb128 0x11
 7499 2d0f 3E010000 		.4byte	.LASF1753
 7500 2d13 02       		.byte	0x2
 7501 2d14 11       		.uleb128 0x11
 7502 2d15 BE170000 		.4byte	.LASF1754
 7503 2d19 03       		.byte	0x3
 7504 2d1a 11       		.uleb128 0x11
 7505 2d1b 88270000 		.4byte	.LASF1755
 7506 2d1f 04       		.byte	0x4
 7507 2d20 11       		.uleb128 0x11
 7508 2d21 94270000 		.4byte	.LASF1756
 7509 2d25 05       		.byte	0x5
 7510 2d26 11       		.uleb128 0x11
 7511 2d27 2F000000 		.4byte	.LASF1757
 7512 2d2b 06       		.byte	0x6
 7513 2d2c 11       		.uleb128 0x11
 7514 2d2d 04120000 		.4byte	.LASF1758
 7515 2d31 07       		.byte	0x7
 7516 2d32 11       		.uleb128 0x11
 7517 2d33 CE1E0000 		.4byte	.LASF1759
 7518 2d37 08       		.byte	0x8
 7519 2d38 11       		.uleb128 0x11
 7520 2d39 0A140000 		.4byte	.LASF1760
 7521 2d3d 09       		.byte	0x9
 7522 2d3e 11       		.uleb128 0x11
 7523 2d3f 8A110000 		.4byte	.LASF1761
 7524 2d43 0A       		.byte	0xa
 7525 2d44 11       		.uleb128 0x11
 7526 2d45 6E6F0000 		.4byte	.LASF1762
 7527 2d49 0B       		.byte	0xb
 7528 2d4a 11       		.uleb128 0x11
 7529 2d4b 015E0000 		.4byte	.LASF1763
 7530 2d4f 0C       		.byte	0xc
 7531 2d50 11       		.uleb128 0x11
 7532 2d51 C9670000 		.4byte	.LASF1764
 7533 2d55 0D       		.byte	0xd
 7534 2d56 11       		.uleb128 0x11
 7535 2d57 28680000 		.4byte	.LASF1765
 7536 2d5b 12       		.byte	0x12
 7537 2d5c 11       		.uleb128 0x11
 7538 2d5d 1F0C0000 		.4byte	.LASF1766
 7539 2d61 13       		.byte	0x13
 7540 2d62 11       		.uleb128 0x11
 7541 2d63 514A0000 		.4byte	.LASF1767
 7542 2d67 14       		.byte	0x14
 7543 2d68 11       		.uleb128 0x11
 7544 2d69 93200000 		.4byte	.LASF1768
 7545 2d6d 18       		.byte	0x18
 7546 2d6e 11       		.uleb128 0x11
ARM GAS  C:\Users\stijn\AppData\Local\Temp\ccD3lQ9e.s 			page 171


 7547 2d6f B1640000 		.4byte	.LASF1769
 7548 2d73 00       		.byte	0
 7549 2d74 11       		.uleb128 0x11
 7550 2d75 E8760000 		.4byte	.LASF1770
 7551 2d79 01       		.byte	0x1
 7552 2d7a 11       		.uleb128 0x11
 7553 2d7b 51330000 		.4byte	.LASF1771
 7554 2d7f 02       		.byte	0x2
 7555 2d80 11       		.uleb128 0x11
 7556 2d81 8E2C0000 		.4byte	.LASF1772
 7557 2d85 03       		.byte	0x3
 7558 2d86 11       		.uleb128 0x11
 7559 2d87 F61C0000 		.4byte	.LASF1773
 7560 2d8b 04       		.byte	0x4
 7561 2d8c 11       		.uleb128 0x11
 7562 2d8d 021D0000 		.4byte	.LASF1774
 7563 2d91 05       		.byte	0x5
 7564 2d92 11       		.uleb128 0x11
 7565 2d93 E4250000 		.4byte	.LASF1775
 7566 2d97 06       		.byte	0x6
 7567 2d98 11       		.uleb128 0x11
 7568 2d99 A4390000 		.4byte	.LASF1776
 7569 2d9d 07       		.byte	0x7
 7570 2d9e 11       		.uleb128 0x11
 7571 2d9f BC6A0000 		.4byte	.LASF1777
 7572 2da3 08       		.byte	0x8
 7573 2da4 11       		.uleb128 0x11
 7574 2da5 B2160000 		.4byte	.LASF1778
 7575 2da9 09       		.byte	0x9
 7576 2daa 11       		.uleb128 0x11
 7577 2dab 495E0000 		.4byte	.LASF1779
 7578 2daf 0A       		.byte	0xa
 7579 2db0 11       		.uleb128 0x11
 7580 2db1 9D010000 		.4byte	.LASF1780
 7581 2db5 0B       		.byte	0xb
 7582 2db6 11       		.uleb128 0x11
 7583 2db7 67120000 		.4byte	.LASF1781
 7584 2dbb 0C       		.byte	0xc
 7585 2dbc 11       		.uleb128 0x11
 7586 2dbd CA100000 		.4byte	.LASF1782
 7587 2dc1 0D       		.byte	0xd
 7588 2dc2 11       		.uleb128 0x11
 7589 2dc3 C0590000 		.4byte	.LASF1783
 7590 2dc7 12       		.byte	0x12
 7591 2dc8 11       		.uleb128 0x11
 7592 2dc9 50180000 		.4byte	.LASF1784
 7593 2dcd 13       		.byte	0x13
 7594 2dce 11       		.uleb128 0x11
 7595 2dcf E8790000 		.4byte	.LASF1785
 7596 2dd3 14       		.byte	0x14
 7597 2dd4 11       		.uleb128 0x11
 7598 2dd5 90760000 		.4byte	.LASF1786
 7599 2dd9 18       		.byte	0x18
 7600 2dda 11       		.uleb128 0x11
 7601 2ddb 916E0000 		.4byte	.LASF1787
 7602 2ddf 00       		.byte	0
 7603 2de0 11       		.uleb128 0x11
ARM GAS  C:\Users\stijn\AppData\Local\Temp\ccD3lQ9e.s 			page 172


 7604 2de1 AE100000 		.4byte	.LASF1788
 7605 2de5 01       		.byte	0x1
 7606 2de6 11       		.uleb128 0x11
 7607 2de7 45660000 		.4byte	.LASF1789
 7608 2deb 02       		.byte	0x2
 7609 2dec 11       		.uleb128 0x11
 7610 2ded B85F0000 		.4byte	.LASF1790
 7611 2df1 03       		.byte	0x3
 7612 2df2 11       		.uleb128 0x11
 7613 2df3 2B120000 		.4byte	.LASF1791
 7614 2df7 04       		.byte	0x4
 7615 2df8 11       		.uleb128 0x11
 7616 2df9 27580000 		.4byte	.LASF1792
 7617 2dfd 05       		.byte	0x5
 7618 2dfe 11       		.uleb128 0x11
 7619 2dff DB300000 		.4byte	.LASF1793
 7620 2e03 06       		.byte	0x6
 7621 2e04 11       		.uleb128 0x11
 7622 2e05 1A5F0000 		.4byte	.LASF1794
 7623 2e09 07       		.byte	0x7
 7624 2e0a 11       		.uleb128 0x11
 7625 2e0b E4320000 		.4byte	.LASF1795
 7626 2e0f 08       		.byte	0x8
 7627 2e10 11       		.uleb128 0x11
 7628 2e11 7B0E0000 		.4byte	.LASF1796
 7629 2e15 09       		.byte	0x9
 7630 2e16 11       		.uleb128 0x11
 7631 2e17 942E0000 		.4byte	.LASF1797
 7632 2e1b 0A       		.byte	0xa
 7633 2e1c 11       		.uleb128 0x11
 7634 2e1d 16350000 		.4byte	.LASF1798
 7635 2e21 0B       		.byte	0xb
 7636 2e22 11       		.uleb128 0x11
 7637 2e23 F8390000 		.4byte	.LASF1799
 7638 2e27 0C       		.byte	0xc
 7639 2e28 11       		.uleb128 0x11
 7640 2e29 CF370000 		.4byte	.LASF1800
 7641 2e2d 0D       		.byte	0xd
 7642 2e2e 11       		.uleb128 0x11
 7643 2e2f E4390000 		.4byte	.LASF1801
 7644 2e33 12       		.byte	0x12
 7645 2e34 11       		.uleb128 0x11
 7646 2e35 15050000 		.4byte	.LASF1802
 7647 2e39 14       		.byte	0x14
 7648 2e3a 11       		.uleb128 0x11
 7649 2e3b AF470000 		.4byte	.LASF1803
 7650 2e3f 00       		.byte	0
 7651 2e40 11       		.uleb128 0x11
 7652 2e41 52350000 		.4byte	.LASF1804
 7653 2e45 01       		.byte	0x1
 7654 2e46 11       		.uleb128 0x11
 7655 2e47 72380000 		.4byte	.LASF1805
 7656 2e4b 02       		.byte	0x2
 7657 2e4c 11       		.uleb128 0x11
 7658 2e4d 87060000 		.4byte	.LASF1806
 7659 2e51 03       		.byte	0x3
 7660 2e52 11       		.uleb128 0x11
ARM GAS  C:\Users\stijn\AppData\Local\Temp\ccD3lQ9e.s 			page 173


 7661 2e53 2A080000 		.4byte	.LASF1807
 7662 2e57 04       		.byte	0x4
 7663 2e58 11       		.uleb128 0x11
 7664 2e59 59540000 		.4byte	.LASF1808
 7665 2e5d 05       		.byte	0x5
 7666 2e5e 11       		.uleb128 0x11
 7667 2e5f 5E5F0000 		.4byte	.LASF1809
 7668 2e63 06       		.byte	0x6
 7669 2e64 11       		.uleb128 0x11
 7670 2e65 08090000 		.4byte	.LASF1810
 7671 2e69 07       		.byte	0x7
 7672 2e6a 11       		.uleb128 0x11
 7673 2e6b 411D0000 		.4byte	.LASF1811
 7674 2e6f 08       		.byte	0x8
 7675 2e70 11       		.uleb128 0x11
 7676 2e71 812D0000 		.4byte	.LASF1812
 7677 2e75 09       		.byte	0x9
 7678 2e76 11       		.uleb128 0x11
 7679 2e77 5C7B0000 		.4byte	.LASF1813
 7680 2e7b 0A       		.byte	0xa
 7681 2e7c 11       		.uleb128 0x11
 7682 2e7d 9F5D0000 		.4byte	.LASF1814
 7683 2e81 0B       		.byte	0xb
 7684 2e82 11       		.uleb128 0x11
 7685 2e83 6E5F0000 		.4byte	.LASF1815
 7686 2e87 0C       		.byte	0xc
 7687 2e88 11       		.uleb128 0x11
 7688 2e89 84230000 		.4byte	.LASF1816
 7689 2e8d 0D       		.byte	0xd
 7690 2e8e 11       		.uleb128 0x11
 7691 2e8f 10710000 		.4byte	.LASF1817
 7692 2e93 12       		.byte	0x12
 7693 2e94 11       		.uleb128 0x11
 7694 2e95 6C6E0000 		.4byte	.LASF1818
 7695 2e99 14       		.byte	0x14
 7696 2e9a 11       		.uleb128 0x11
 7697 2e9b 3C2F0000 		.4byte	.LASF1819
 7698 2e9f 00       		.byte	0
 7699 2ea0 11       		.uleb128 0x11
 7700 2ea1 39590000 		.4byte	.LASF1820
 7701 2ea5 01       		.byte	0x1
 7702 2ea6 11       		.uleb128 0x11
 7703 2ea7 494F0000 		.4byte	.LASF1821
 7704 2eab 02       		.byte	0x2
 7705 2eac 11       		.uleb128 0x11
 7706 2ead 7A2A0000 		.4byte	.LASF1822
 7707 2eb1 03       		.byte	0x3
 7708 2eb2 11       		.uleb128 0x11
 7709 2eb3 AB090000 		.4byte	.LASF1823
 7710 2eb7 04       		.byte	0x4
 7711 2eb8 11       		.uleb128 0x11
 7712 2eb9 767A0000 		.4byte	.LASF1824
 7713 2ebd 05       		.byte	0x5
 7714 2ebe 11       		.uleb128 0x11
 7715 2ebf 5D100000 		.4byte	.LASF1825
 7716 2ec3 06       		.byte	0x6
 7717 2ec4 11       		.uleb128 0x11
ARM GAS  C:\Users\stijn\AppData\Local\Temp\ccD3lQ9e.s 			page 174


 7718 2ec5 FB2E0000 		.4byte	.LASF1826
 7719 2ec9 07       		.byte	0x7
 7720 2eca 11       		.uleb128 0x11
 7721 2ecb 33580000 		.4byte	.LASF1827
 7722 2ecf 08       		.byte	0x8
 7723 2ed0 11       		.uleb128 0x11
 7724 2ed1 A0420000 		.4byte	.LASF1828
 7725 2ed5 09       		.byte	0x9
 7726 2ed6 11       		.uleb128 0x11
 7727 2ed7 F24A0000 		.4byte	.LASF1829
 7728 2edb 0A       		.byte	0xa
 7729 2edc 11       		.uleb128 0x11
 7730 2edd 972B0000 		.4byte	.LASF1830
 7731 2ee1 0B       		.byte	0xb
 7732 2ee2 11       		.uleb128 0x11
 7733 2ee3 73090000 		.4byte	.LASF1831
 7734 2ee7 0C       		.byte	0xc
 7735 2ee8 11       		.uleb128 0x11
 7736 2ee9 C7070000 		.4byte	.LASF1832
 7737 2eed 0D       		.byte	0xd
 7738 2eee 11       		.uleb128 0x11
 7739 2eef E5450000 		.4byte	.LASF1833
 7740 2ef3 14       		.byte	0x14
 7741 2ef4 11       		.uleb128 0x11
 7742 2ef5 56590000 		.4byte	.LASF1834
 7743 2ef9 00       		.byte	0
 7744 2efa 11       		.uleb128 0x11
 7745 2efb E35D0000 		.4byte	.LASF1835
 7746 2eff 01       		.byte	0x1
 7747 2f00 11       		.uleb128 0x11
 7748 2f01 55050000 		.4byte	.LASF1836
 7749 2f05 02       		.byte	0x2
 7750 2f06 11       		.uleb128 0x11
 7751 2f07 304E0000 		.4byte	.LASF1837
 7752 2f0b 03       		.byte	0x3
 7753 2f0c 11       		.uleb128 0x11
 7754 2f0d 89610000 		.4byte	.LASF1838
 7755 2f11 04       		.byte	0x4
 7756 2f12 11       		.uleb128 0x11
 7757 2f13 8F6F0000 		.4byte	.LASF1839
 7758 2f17 05       		.byte	0x5
 7759 2f18 11       		.uleb128 0x11
 7760 2f19 46430000 		.4byte	.LASF1840
 7761 2f1d 06       		.byte	0x6
 7762 2f1e 11       		.uleb128 0x11
 7763 2f1f FA550000 		.4byte	.LASF1841
 7764 2f23 07       		.byte	0x7
 7765 2f24 11       		.uleb128 0x11
 7766 2f25 2F4D0000 		.4byte	.LASF1842
 7767 2f29 08       		.byte	0x8
 7768 2f2a 11       		.uleb128 0x11
 7769 2f2b 25570000 		.4byte	.LASF1843
 7770 2f2f 09       		.byte	0x9
 7771 2f30 11       		.uleb128 0x11
 7772 2f31 CF1A0000 		.4byte	.LASF1844
 7773 2f35 0A       		.byte	0xa
 7774 2f36 11       		.uleb128 0x11
ARM GAS  C:\Users\stijn\AppData\Local\Temp\ccD3lQ9e.s 			page 175


 7775 2f37 551F0000 		.4byte	.LASF1845
 7776 2f3b 0B       		.byte	0xb
 7777 2f3c 11       		.uleb128 0x11
 7778 2f3d 7B2F0000 		.4byte	.LASF1846
 7779 2f41 0C       		.byte	0xc
 7780 2f42 11       		.uleb128 0x11
 7781 2f43 022E0000 		.4byte	.LASF1847
 7782 2f47 0D       		.byte	0xd
 7783 2f48 11       		.uleb128 0x11
 7784 2f49 595B0000 		.4byte	.LASF1848
 7785 2f4d 14       		.byte	0x14
 7786 2f4e 11       		.uleb128 0x11
 7787 2f4f 93100000 		.4byte	.LASF1849
 7788 2f53 00       		.byte	0
 7789 2f54 11       		.uleb128 0x11
 7790 2f55 E8230000 		.4byte	.LASF1850
 7791 2f59 01       		.byte	0x1
 7792 2f5a 11       		.uleb128 0x11
 7793 2f5b 96380000 		.4byte	.LASF1851
 7794 2f5f 02       		.byte	0x2
 7795 2f60 11       		.uleb128 0x11
 7796 2f61 EA6B0000 		.4byte	.LASF1852
 7797 2f65 03       		.byte	0x3
 7798 2f66 11       		.uleb128 0x11
 7799 2f67 60650000 		.4byte	.LASF1853
 7800 2f6b 04       		.byte	0x4
 7801 2f6c 11       		.uleb128 0x11
 7802 2f6d 6C650000 		.4byte	.LASF1854
 7803 2f71 05       		.byte	0x5
 7804 2f72 11       		.uleb128 0x11
 7805 2f73 E4680000 		.4byte	.LASF1855
 7806 2f77 06       		.byte	0x6
 7807 2f78 11       		.uleb128 0x11
 7808 2f79 E7570000 		.4byte	.LASF1856
 7809 2f7d 07       		.byte	0x7
 7810 2f7e 11       		.uleb128 0x11
 7811 2f7f 13740000 		.4byte	.LASF1857
 7812 2f83 08       		.byte	0x8
 7813 2f84 11       		.uleb128 0x11
 7814 2f85 190B0000 		.4byte	.LASF1858
 7815 2f89 09       		.byte	0x9
 7816 2f8a 11       		.uleb128 0x11
 7817 2f8b 3F670000 		.4byte	.LASF1859
 7818 2f8f 0A       		.byte	0xa
 7819 2f90 11       		.uleb128 0x11
 7820 2f91 70480000 		.4byte	.LASF1860
 7821 2f95 0B       		.byte	0xb
 7822 2f96 11       		.uleb128 0x11
 7823 2f97 03550000 		.4byte	.LASF1861
 7824 2f9b 0C       		.byte	0xc
 7825 2f9c 11       		.uleb128 0x11
 7826 2f9d C2530000 		.4byte	.LASF1862
 7827 2fa1 0D       		.byte	0xd
 7828 2fa2 11       		.uleb128 0x11
 7829 2fa3 4F710000 		.4byte	.LASF1863
 7830 2fa7 14       		.byte	0x14
 7831 2fa8 11       		.uleb128 0x11
ARM GAS  C:\Users\stijn\AppData\Local\Temp\ccD3lQ9e.s 			page 176


 7832 2fa9 0A380000 		.4byte	.LASF1864
 7833 2fad 00       		.byte	0
 7834 2fae 11       		.uleb128 0x11
 7835 2faf F95A0000 		.4byte	.LASF1865
 7836 2fb3 01       		.byte	0x1
 7837 2fb4 11       		.uleb128 0x11
 7838 2fb5 006B0000 		.4byte	.LASF1866
 7839 2fb9 02       		.byte	0x2
 7840 2fba 11       		.uleb128 0x11
 7841 2fbb 43190000 		.4byte	.LASF1867
 7842 2fbf 03       		.byte	0x3
 7843 2fc0 11       		.uleb128 0x11
 7844 2fc1 565A0000 		.4byte	.LASF1868
 7845 2fc5 04       		.byte	0x4
 7846 2fc6 11       		.uleb128 0x11
 7847 2fc7 625A0000 		.4byte	.LASF1869
 7848 2fcb 05       		.byte	0x5
 7849 2fcc 11       		.uleb128 0x11
 7850 2fcd 49120000 		.4byte	.LASF1870
 7851 2fd1 06       		.byte	0x6
 7852 2fd2 11       		.uleb128 0x11
 7853 2fd3 9D250000 		.4byte	.LASF1871
 7854 2fd7 07       		.byte	0x7
 7855 2fd8 11       		.uleb128 0x11
 7856 2fd9 9F450000 		.4byte	.LASF1872
 7857 2fdd 08       		.byte	0x8
 7858 2fde 11       		.uleb128 0x11
 7859 2fdf A52E0000 		.4byte	.LASF1873
 7860 2fe3 09       		.byte	0x9
 7861 2fe4 11       		.uleb128 0x11
 7862 2fe5 61380000 		.4byte	.LASF1874
 7863 2fe9 0A       		.byte	0xa
 7864 2fea 11       		.uleb128 0x11
 7865 2feb E7550000 		.4byte	.LASF1875
 7866 2fef 0B       		.byte	0xb
 7867 2ff0 11       		.uleb128 0x11
 7868 2ff1 2C2F0000 		.4byte	.LASF1876
 7869 2ff5 0C       		.byte	0xc
 7870 2ff6 11       		.uleb128 0x11
 7871 2ff7 37550000 		.4byte	.LASF1877
 7872 2ffb 0D       		.byte	0xd
 7873 2ffc 00       		.byte	0
 7874 2ffd 0F       		.uleb128 0xf
 7875 2ffe F4540000 		.4byte	.LASF1878
 7876 3002 09       		.byte	0x9
 7877 3003 E009     		.2byte	0x9e0
 7878 3005 2D070000 		.4byte	0x72d
 7879 3009 0F       		.uleb128 0xf
 7880 300a 83110000 		.4byte	.LASF1879
 7881 300e 0A       		.byte	0xa
 7882 300f F601     		.2byte	0x1f6
 7883 3011 15300000 		.4byte	0x3015
 7884 3015 03       		.uleb128 0x3
 7885 3016 01       		.byte	0x1
 7886 3017 08       		.byte	0x8
 7887 3018 82560000 		.4byte	.LASF1880
 7888 301c 03       		.uleb128 0x3
ARM GAS  C:\Users\stijn\AppData\Local\Temp\ccD3lQ9e.s 			page 177


 7889 301d 04       		.byte	0x4
 7890 301e 04       		.byte	0x4
 7891 301f 12300000 		.4byte	.LASF1881
 7892 3023 03       		.uleb128 0x3
 7893 3024 08       		.byte	0x8
 7894 3025 04       		.byte	0x4
 7895 3026 671E0000 		.4byte	.LASF1882
 7896 302a 10       		.uleb128 0x10
 7897 302b 04       		.byte	0x4
 7898 302c 2C000000 		.4byte	0x2c
 7899 3030 01       		.byte	0x1
 7900 3031 C7       		.byte	0xc7
 7901 3032 46300000 		.4byte	0x3046
 7902 3036 11       		.uleb128 0x11
 7903 3037 F4250000 		.4byte	.LASF1883
 7904 303b 00       		.byte	0
 7905 303c 13       		.uleb128 0x13
 7906 303d 18540000 		.4byte	.LASF1884
 7907 3041 01005A00 		.4byte	0x5a0001
 7908 3045 00       		.byte	0
 7909 3046 04       		.uleb128 0x4
 7910 3047 D54C0000 		.4byte	.LASF1885
 7911 304b 01       		.byte	0x1
 7912 304c CA       		.byte	0xca
 7913 304d 2A300000 		.4byte	0x302a
 7914 3051 10       		.uleb128 0x10
 7915 3052 01       		.byte	0x1
 7916 3053 53000000 		.4byte	0x53
 7917 3057 01       		.byte	0x1
 7918 3058 CE       		.byte	0xce
 7919 3059 8E300000 		.4byte	0x308e
 7920 305d 11       		.uleb128 0x11
 7921 305e 5A240000 		.4byte	.LASF1886
 7922 3062 00       		.byte	0
 7923 3063 11       		.uleb128 0x11
 7924 3064 CC300000 		.4byte	.LASF1887
 7925 3068 01       		.byte	0x1
 7926 3069 11       		.uleb128 0x11
 7927 306a EB300000 		.4byte	.LASF1888
 7928 306e 02       		.byte	0x2
 7929 306f 11       		.uleb128 0x11
 7930 3070 58320000 		.4byte	.LASF1889
 7931 3074 03       		.byte	0x3
 7932 3075 11       		.uleb128 0x11
 7933 3076 A9300000 		.4byte	.LASF1890
 7934 307a 04       		.byte	0x4
 7935 307b 11       		.uleb128 0x11
 7936 307c C52C0000 		.4byte	.LASF1891
 7937 3080 05       		.byte	0x5
 7938 3081 11       		.uleb128 0x11
 7939 3082 092D0000 		.4byte	.LASF1892
 7940 3086 06       		.byte	0x6
 7941 3087 11       		.uleb128 0x11
 7942 3088 BE370000 		.4byte	.LASF1893
 7943 308c 07       		.byte	0x7
 7944 308d 00       		.byte	0
 7945 308e 04       		.uleb128 0x4
ARM GAS  C:\Users\stijn\AppData\Local\Temp\ccD3lQ9e.s 			page 178


 7946 308f 48480000 		.4byte	.LASF1894
 7947 3093 01       		.byte	0x1
 7948 3094 D7       		.byte	0xd7
 7949 3095 51300000 		.4byte	0x3051
 7950 3099 10       		.uleb128 0x10
 7951 309a 01       		.byte	0x1
 7952 309b 53000000 		.4byte	0x53
 7953 309f 01       		.byte	0x1
 7954 30a0 DD       		.byte	0xdd
 7955 30a1 B2300000 		.4byte	0x30b2
 7956 30a5 11       		.uleb128 0x11
 7957 30a6 8B2F0000 		.4byte	.LASF1895
 7958 30aa 00       		.byte	0
 7959 30ab 11       		.uleb128 0x11
 7960 30ac 8C280000 		.4byte	.LASF1896
 7961 30b0 01       		.byte	0x1
 7962 30b1 00       		.byte	0
 7963 30b2 04       		.uleb128 0x4
 7964 30b3 25220000 		.4byte	.LASF1897
 7965 30b7 01       		.byte	0x1
 7966 30b8 E0       		.byte	0xe0
 7967 30b9 99300000 		.4byte	0x3099
 7968 30bd 09       		.uleb128 0x9
 7969 30be 24       		.byte	0x24
 7970 30bf 01       		.byte	0x1
 7971 30c0 EF       		.byte	0xef
 7972 30c1 32310000 		.4byte	0x3132
 7973 30c5 0A       		.uleb128 0xa
 7974 30c6 6F757400 		.ascii	"out\000"
 7975 30ca 01       		.byte	0x1
 7976 30cb F1       		.byte	0xf1
 7977 30cc D5000000 		.4byte	0xd5
 7978 30d0 00       		.byte	0
 7979 30d1 0B       		.uleb128 0xb
 7980 30d2 28410000 		.4byte	.LASF1898
 7981 30d6 01       		.byte	0x1
 7982 30d7 F2       		.byte	0xf2
 7983 30d8 D5000000 		.4byte	0xd5
 7984 30dc 04       		.byte	0x4
 7985 30dd 0B       		.uleb128 0xb
 7986 30de 4A350000 		.4byte	.LASF1899
 7987 30e2 01       		.byte	0x1
 7988 30e3 F3       		.byte	0xf3
 7989 30e4 D5000000 		.4byte	0xd5
 7990 30e8 08       		.byte	0x8
 7991 30e9 0A       		.uleb128 0xa
 7992 30ea 63666700 		.ascii	"cfg\000"
 7993 30ee 01       		.byte	0x1
 7994 30ef F4       		.byte	0xf4
 7995 30f0 D5000000 		.4byte	0xd5
 7996 30f4 0C       		.byte	0xc
 7997 30f5 0B       		.uleb128 0xb
 7998 30f6 17100000 		.4byte	.LASF1900
 7999 30fa 01       		.byte	0x1
 8000 30fb F5       		.byte	0xf5
 8001 30fc D5000000 		.4byte	0xd5
 8002 3100 10       		.byte	0x10
ARM GAS  C:\Users\stijn\AppData\Local\Temp\ccD3lQ9e.s 			page 179


 8003 3101 0B       		.uleb128 0xb
 8004 3102 A9110000 		.4byte	.LASF1901
 8005 3106 01       		.byte	0x1
 8006 3107 F6       		.byte	0xf6
 8007 3108 D5000000 		.4byte	0xd5
 8008 310c 14       		.byte	0x14
 8009 310d 0B       		.uleb128 0xb
 8010 310e B6790000 		.4byte	.LASF1902
 8011 3112 01       		.byte	0x1
 8012 3113 F7       		.byte	0xf7
 8013 3114 D5000000 		.4byte	0xd5
 8014 3118 18       		.byte	0x18
 8015 3119 0B       		.uleb128 0xb
 8016 311a 064A0000 		.4byte	.LASF1903
 8017 311e 01       		.byte	0x1
 8018 311f F8       		.byte	0xf8
 8019 3120 D5000000 		.4byte	0xd5
 8020 3124 1C       		.byte	0x1c
 8021 3125 0B       		.uleb128 0xb
 8022 3126 EC380000 		.4byte	.LASF1904
 8023 312a 01       		.byte	0x1
 8024 312b F9       		.byte	0xf9
 8025 312c D5000000 		.4byte	0xd5
 8026 3130 20       		.byte	0x20
 8027 3131 00       		.byte	0
 8028 3132 04       		.uleb128 0x4
 8029 3133 A50B0000 		.4byte	.LASF1905
 8030 3137 01       		.byte	0x1
 8031 3138 FA       		.byte	0xfa
 8032 3139 BD300000 		.4byte	0x30bd
 8033 313d 09       		.uleb128 0x9
 8034 313e 34       		.byte	0x34
 8035 313f 01       		.byte	0x1
 8036 3140 FD       		.byte	0xfd
 8037 3141 EE310000 		.4byte	0x31ee
 8038 3145 0B       		.uleb128 0xb
 8039 3146 E01A0000 		.4byte	.LASF1906
 8040 314a 01       		.byte	0x1
 8041 314b FF       		.byte	0xff
 8042 314c D5000000 		.4byte	0xd5
 8043 3150 00       		.byte	0
 8044 3151 14       		.uleb128 0x14
 8045 3152 7E240000 		.4byte	.LASF1907
 8046 3156 01       		.byte	0x1
 8047 3157 0001     		.2byte	0x100
 8048 3159 D5000000 		.4byte	0xd5
 8049 315d 04       		.byte	0x4
 8050 315e 14       		.uleb128 0x14
 8051 315f 2C510000 		.4byte	.LASF1908
 8052 3163 01       		.byte	0x1
 8053 3164 0101     		.2byte	0x101
 8054 3166 FD2F0000 		.4byte	0x2ffd
 8055 316a 08       		.byte	0x8
 8056 316b 14       		.uleb128 0x14
 8057 316c 2E420000 		.4byte	.LASF1909
 8058 3170 01       		.byte	0x1
 8059 3171 0201     		.2byte	0x102
ARM GAS  C:\Users\stijn\AppData\Local\Temp\ccD3lQ9e.s 			page 180


 8060 3173 D5000000 		.4byte	0xd5
 8061 3177 0C       		.byte	0xc
 8062 3178 14       		.uleb128 0x14
 8063 3179 92480000 		.4byte	.LASF1910
 8064 317d 01       		.byte	0x1
 8065 317e 0301     		.2byte	0x103
 8066 3180 D5000000 		.4byte	0xd5
 8067 3184 10       		.byte	0x10
 8068 3185 14       		.uleb128 0x14
 8069 3186 D5310000 		.4byte	.LASF1911
 8070 318a 01       		.byte	0x1
 8071 318b 0401     		.2byte	0x104
 8072 318d D5000000 		.4byte	0xd5
 8073 3191 14       		.byte	0x14
 8074 3192 14       		.uleb128 0x14
 8075 3193 6D0F0000 		.4byte	.LASF1912
 8076 3197 01       		.byte	0x1
 8077 3198 0501     		.2byte	0x105
 8078 319a D5000000 		.4byte	0xd5
 8079 319e 18       		.byte	0x18
 8080 319f 14       		.uleb128 0x14
 8081 31a0 15380000 		.4byte	.LASF1913
 8082 31a4 01       		.byte	0x1
 8083 31a5 0601     		.2byte	0x106
 8084 31a7 D5000000 		.4byte	0xd5
 8085 31ab 1C       		.byte	0x1c
 8086 31ac 14       		.uleb128 0x14
 8087 31ad 941A0000 		.4byte	.LASF1914
 8088 31b1 01       		.byte	0x1
 8089 31b2 0701     		.2byte	0x107
 8090 31b4 D5000000 		.4byte	0xd5
 8091 31b8 20       		.byte	0x20
 8092 31b9 14       		.uleb128 0x14
 8093 31ba 66450000 		.4byte	.LASF1915
 8094 31be 01       		.byte	0x1
 8095 31bf 0801     		.2byte	0x108
 8096 31c1 D5000000 		.4byte	0xd5
 8097 31c5 24       		.byte	0x24
 8098 31c6 14       		.uleb128 0x14
 8099 31c7 EC730000 		.4byte	.LASF1916
 8100 31cb 01       		.byte	0x1
 8101 31cc 0901     		.2byte	0x109
 8102 31ce D5000000 		.4byte	0xd5
 8103 31d2 28       		.byte	0x28
 8104 31d3 14       		.uleb128 0x14
 8105 31d4 91490000 		.4byte	.LASF1917
 8106 31d8 01       		.byte	0x1
 8107 31d9 0A01     		.2byte	0x10a
 8108 31db D5000000 		.4byte	0xd5
 8109 31df 2C       		.byte	0x2c
 8110 31e0 14       		.uleb128 0x14
 8111 31e1 934B0000 		.4byte	.LASF1918
 8112 31e5 01       		.byte	0x1
 8113 31e6 0B01     		.2byte	0x10b
 8114 31e8 D5000000 		.4byte	0xd5
 8115 31ec 30       		.byte	0x30
 8116 31ed 00       		.byte	0
ARM GAS  C:\Users\stijn\AppData\Local\Temp\ccD3lQ9e.s 			page 181


 8117 31ee 0F       		.uleb128 0xf
 8118 31ef ED660000 		.4byte	.LASF1919
 8119 31f3 01       		.byte	0x1
 8120 31f4 0C01     		.2byte	0x10c
 8121 31f6 3D310000 		.4byte	0x313d
 8122 31fa 15       		.uleb128 0x15
 8123 31fb B7250000 		.4byte	.LASF1926
 8124 31ff 01       		.byte	0x1
 8125 3200 8202     		.2byte	0x282
 8126 3202 00000000 		.4byte	.LFB132
 8127 3206 BC000000 		.4byte	.LFE132-.LFB132
 8128 320a 01       		.uleb128 0x1
 8129 320b 9C       		.byte	0x9c
 8130 320c 6B320000 		.4byte	0x326b
 8131 3210 16       		.uleb128 0x16
 8132 3211 256C0000 		.4byte	.LASF1920
 8133 3215 01       		.byte	0x1
 8134 3216 8202     		.2byte	0x282
 8135 3218 6B320000 		.4byte	0x326b
 8136 321c 02       		.uleb128 0x2
 8137 321d 91       		.byte	0x91
 8138 321e 64       		.sleb128 -28
 8139 321f 16       		.uleb128 0x16
 8140 3220 FD110000 		.4byte	.LASF1921
 8141 3224 01       		.byte	0x1
 8142 3225 8202     		.2byte	0x282
 8143 3227 D5000000 		.4byte	0xd5
 8144 322b 02       		.uleb128 0x2
 8145 322c 91       		.byte	0x91
 8146 322d 60       		.sleb128 -32
 8147 322e 16       		.uleb128 0x16
 8148 322f CC440000 		.4byte	.LASF1922
 8149 3233 01       		.byte	0x1
 8150 3234 8202     		.2byte	0x282
 8151 3236 FD2F0000 		.4byte	0x2ffd
 8152 323a 02       		.uleb128 0x2
 8153 323b 91       		.byte	0x91
 8154 323c 5F       		.sleb128 -33
 8155 323d 17       		.uleb128 0x17
 8156 323e 343A0000 		.4byte	.LASF1923
 8157 3242 01       		.byte	0x1
 8158 3243 8402     		.2byte	0x284
 8159 3245 D5000000 		.4byte	0xd5
 8160 3249 02       		.uleb128 0x2
 8161 324a 91       		.byte	0x91
 8162 324b 74       		.sleb128 -12
 8163 324c 17       		.uleb128 0x17
 8164 324d 00470000 		.4byte	.LASF1924
 8165 3251 01       		.byte	0x1
 8166 3252 8502     		.2byte	0x285
 8167 3254 D5000000 		.4byte	0xd5
 8168 3258 02       		.uleb128 0x2
 8169 3259 91       		.byte	0x91
 8170 325a 6C       		.sleb128 -20
 8171 325b 17       		.uleb128 0x17
 8172 325c 5B0B0000 		.4byte	.LASF1925
 8173 3260 01       		.byte	0x1
ARM GAS  C:\Users\stijn\AppData\Local\Temp\ccD3lQ9e.s 			page 182


 8174 3261 8602     		.2byte	0x286
 8175 3263 71320000 		.4byte	0x3271
 8176 3267 02       		.uleb128 0x2
 8177 3268 91       		.byte	0x91
 8178 3269 70       		.sleb128 -16
 8179 326a 00       		.byte	0
 8180 326b 18       		.uleb128 0x18
 8181 326c 04       		.byte	0x4
 8182 326d D3060000 		.4byte	0x6d3
 8183 3271 18       		.uleb128 0x18
 8184 3272 04       		.byte	0x4
 8185 3273 31020000 		.4byte	0x231
 8186 3277 15       		.uleb128 0x15
 8187 3278 C51B0000 		.4byte	.LASF1927
 8188 327c 01       		.byte	0x1
 8189 327d 2503     		.2byte	0x325
 8190 327f 00000000 		.4byte	.LFB136
 8191 3283 54000000 		.4byte	.LFE136-.LFB136
 8192 3287 01       		.uleb128 0x1
 8193 3288 9C       		.byte	0x9c
 8194 3289 BB320000 		.4byte	0x32bb
 8195 328d 16       		.uleb128 0x16
 8196 328e 256C0000 		.4byte	.LASF1920
 8197 3292 01       		.byte	0x1
 8198 3293 2503     		.2byte	0x325
 8199 3295 6B320000 		.4byte	0x326b
 8200 3299 02       		.uleb128 0x2
 8201 329a 91       		.byte	0x91
 8202 329b 74       		.sleb128 -12
 8203 329c 16       		.uleb128 0x16
 8204 329d FD110000 		.4byte	.LASF1921
 8205 32a1 01       		.byte	0x1
 8206 32a2 2503     		.2byte	0x325
 8207 32a4 D5000000 		.4byte	0xd5
 8208 32a8 02       		.uleb128 0x2
 8209 32a9 91       		.byte	0x91
 8210 32aa 70       		.sleb128 -16
 8211 32ab 16       		.uleb128 0x16
 8212 32ac CC440000 		.4byte	.LASF1922
 8213 32b0 01       		.byte	0x1
 8214 32b1 2503     		.2byte	0x325
 8215 32b3 D5000000 		.4byte	0xd5
 8216 32b7 02       		.uleb128 0x2
 8217 32b8 91       		.byte	0x91
 8218 32b9 6C       		.sleb128 -20
 8219 32ba 00       		.byte	0
 8220 32bb 15       		.uleb128 0x15
 8221 32bc 3E1E0000 		.4byte	.LASF1928
 8222 32c0 01       		.byte	0x1
 8223 32c1 BF03     		.2byte	0x3bf
 8224 32c3 00000000 		.4byte	.LFB141
 8225 32c7 84000000 		.4byte	.LFE141-.LFB141
 8226 32cb 01       		.uleb128 0x1
 8227 32cc 9C       		.byte	0x9c
 8228 32cd 1D330000 		.4byte	0x331d
 8229 32d1 16       		.uleb128 0x16
 8230 32d2 256C0000 		.4byte	.LASF1920
ARM GAS  C:\Users\stijn\AppData\Local\Temp\ccD3lQ9e.s 			page 183


 8231 32d6 01       		.byte	0x1
 8232 32d7 BF03     		.2byte	0x3bf
 8233 32d9 6B320000 		.4byte	0x326b
 8234 32dd 02       		.uleb128 0x2
 8235 32de 91       		.byte	0x91
 8236 32df 6C       		.sleb128 -20
 8237 32e0 16       		.uleb128 0x16
 8238 32e1 FD110000 		.4byte	.LASF1921
 8239 32e5 01       		.byte	0x1
 8240 32e6 BF03     		.2byte	0x3bf
 8241 32e8 D5000000 		.4byte	0xd5
 8242 32ec 02       		.uleb128 0x2
 8243 32ed 91       		.byte	0x91
 8244 32ee 68       		.sleb128 -24
 8245 32ef 16       		.uleb128 0x16
 8246 32f0 CC440000 		.4byte	.LASF1922
 8247 32f4 01       		.byte	0x1
 8248 32f5 BF03     		.2byte	0x3bf
 8249 32f7 D5000000 		.4byte	0xd5
 8250 32fb 02       		.uleb128 0x2
 8251 32fc 91       		.byte	0x91
 8252 32fd 64       		.sleb128 -28
 8253 32fe 17       		.uleb128 0x17
 8254 32ff 00470000 		.4byte	.LASF1924
 8255 3303 01       		.byte	0x1
 8256 3304 C103     		.2byte	0x3c1
 8257 3306 D5000000 		.4byte	0xd5
 8258 330a 02       		.uleb128 0x2
 8259 330b 91       		.byte	0x91
 8260 330c 70       		.sleb128 -16
 8261 330d 17       		.uleb128 0x17
 8262 330e 05010000 		.4byte	.LASF1929
 8263 3312 01       		.byte	0x1
 8264 3313 C203     		.2byte	0x3c2
 8265 3315 D5000000 		.4byte	0xd5
 8266 3319 02       		.uleb128 0x2
 8267 331a 91       		.byte	0x91
 8268 331b 74       		.sleb128 -12
 8269 331c 00       		.byte	0
 8270 331d 15       		.uleb128 0x15
 8271 331e F96B0000 		.4byte	.LASF1930
 8272 3322 01       		.byte	0x1
 8273 3323 FF03     		.2byte	0x3ff
 8274 3325 00000000 		.4byte	.LFB143
 8275 3329 7C000000 		.4byte	.LFE143-.LFB143
 8276 332d 01       		.uleb128 0x1
 8277 332e 9C       		.byte	0x9c
 8278 332f 70330000 		.4byte	0x3370
 8279 3333 16       		.uleb128 0x16
 8280 3334 256C0000 		.4byte	.LASF1920
 8281 3338 01       		.byte	0x1
 8282 3339 FF03     		.2byte	0x3ff
 8283 333b 6B320000 		.4byte	0x326b
 8284 333f 02       		.uleb128 0x2
 8285 3340 91       		.byte	0x91
 8286 3341 6C       		.sleb128 -20
 8287 3342 16       		.uleb128 0x16
ARM GAS  C:\Users\stijn\AppData\Local\Temp\ccD3lQ9e.s 			page 184


 8288 3343 FD110000 		.4byte	.LASF1921
 8289 3347 01       		.byte	0x1
 8290 3348 FF03     		.2byte	0x3ff
 8291 334a D5000000 		.4byte	0xd5
 8292 334e 02       		.uleb128 0x2
 8293 334f 91       		.byte	0x91
 8294 3350 68       		.sleb128 -24
 8295 3351 16       		.uleb128 0x16
 8296 3352 CC440000 		.4byte	.LASF1922
 8297 3356 01       		.byte	0x1
 8298 3357 FF03     		.2byte	0x3ff
 8299 3359 D5000000 		.4byte	0xd5
 8300 335d 02       		.uleb128 0x2
 8301 335e 91       		.byte	0x91
 8302 335f 64       		.sleb128 -28
 8303 3360 17       		.uleb128 0x17
 8304 3361 00470000 		.4byte	.LASF1924
 8305 3365 01       		.byte	0x1
 8306 3366 0104     		.2byte	0x401
 8307 3368 D5000000 		.4byte	0xd5
 8308 336c 02       		.uleb128 0x2
 8309 336d 91       		.byte	0x91
 8310 336e 74       		.sleb128 -12
 8311 336f 00       		.byte	0
 8312 3370 15       		.uleb128 0x15
 8313 3371 4D3C0000 		.4byte	.LASF1931
 8314 3375 01       		.byte	0x1
 8315 3376 6506     		.2byte	0x665
 8316 3378 00000000 		.4byte	.LFB161
 8317 337c 5C000000 		.4byte	.LFE161-.LFB161
 8318 3380 01       		.uleb128 0x1
 8319 3381 9C       		.byte	0x9c
 8320 3382 C3330000 		.4byte	0x33c3
 8321 3386 16       		.uleb128 0x16
 8322 3387 256C0000 		.4byte	.LASF1920
 8323 338b 01       		.byte	0x1
 8324 338c 6506     		.2byte	0x665
 8325 338e 6B320000 		.4byte	0x326b
 8326 3392 02       		.uleb128 0x2
 8327 3393 91       		.byte	0x91
 8328 3394 6C       		.sleb128 -20
 8329 3395 16       		.uleb128 0x16
 8330 3396 FD110000 		.4byte	.LASF1921
 8331 339a 01       		.byte	0x1
 8332 339b 6506     		.2byte	0x665
 8333 339d D5000000 		.4byte	0xd5
 8334 33a1 02       		.uleb128 0x2
 8335 33a2 91       		.byte	0x91
 8336 33a3 68       		.sleb128 -24
 8337 33a4 16       		.uleb128 0x16
 8338 33a5 CC440000 		.4byte	.LASF1922
 8339 33a9 01       		.byte	0x1
 8340 33aa 6506     		.2byte	0x665
 8341 33ac D5000000 		.4byte	0xd5
 8342 33b0 02       		.uleb128 0x2
 8343 33b1 91       		.byte	0x91
 8344 33b2 64       		.sleb128 -28
ARM GAS  C:\Users\stijn\AppData\Local\Temp\ccD3lQ9e.s 			page 185


 8345 33b3 17       		.uleb128 0x17
 8346 33b4 00470000 		.4byte	.LASF1924
 8347 33b8 01       		.byte	0x1
 8348 33b9 6706     		.2byte	0x667
 8349 33bb D5000000 		.4byte	0xd5
 8350 33bf 02       		.uleb128 0x2
 8351 33c0 91       		.byte	0x91
 8352 33c1 74       		.sleb128 -12
 8353 33c2 00       		.byte	0
 8354 33c3 15       		.uleb128 0x15
 8355 33c4 06240000 		.4byte	.LASF1932
 8356 33c8 01       		.byte	0x1
 8357 33c9 E306     		.2byte	0x6e3
 8358 33cb 00000000 		.4byte	.LFB165
 8359 33cf 94000000 		.4byte	.LFE165-.LFB165
 8360 33d3 01       		.uleb128 0x1
 8361 33d4 9C       		.byte	0x9c
 8362 33d5 25340000 		.4byte	0x3425
 8363 33d9 16       		.uleb128 0x16
 8364 33da 256C0000 		.4byte	.LASF1920
 8365 33de 01       		.byte	0x1
 8366 33df E306     		.2byte	0x6e3
 8367 33e1 6B320000 		.4byte	0x326b
 8368 33e5 02       		.uleb128 0x2
 8369 33e6 91       		.byte	0x91
 8370 33e7 6C       		.sleb128 -20
 8371 33e8 16       		.uleb128 0x16
 8372 33e9 FD110000 		.4byte	.LASF1921
 8373 33ed 01       		.byte	0x1
 8374 33ee E306     		.2byte	0x6e3
 8375 33f0 D5000000 		.4byte	0xd5
 8376 33f4 02       		.uleb128 0x2
 8377 33f5 91       		.byte	0x91
 8378 33f6 68       		.sleb128 -24
 8379 33f7 16       		.uleb128 0x16
 8380 33f8 CC440000 		.4byte	.LASF1922
 8381 33fc 01       		.byte	0x1
 8382 33fd E306     		.2byte	0x6e3
 8383 33ff D5000000 		.4byte	0xd5
 8384 3403 02       		.uleb128 0x2
 8385 3404 91       		.byte	0x91
 8386 3405 64       		.sleb128 -28
 8387 3406 17       		.uleb128 0x17
 8388 3407 00470000 		.4byte	.LASF1924
 8389 340b 01       		.byte	0x1
 8390 340c E506     		.2byte	0x6e5
 8391 340e D5000000 		.4byte	0xd5
 8392 3412 02       		.uleb128 0x2
 8393 3413 91       		.byte	0x91
 8394 3414 70       		.sleb128 -16
 8395 3415 17       		.uleb128 0x17
 8396 3416 05010000 		.4byte	.LASF1929
 8397 341a 01       		.byte	0x1
 8398 341b E606     		.2byte	0x6e6
 8399 341d D5000000 		.4byte	0xd5
 8400 3421 02       		.uleb128 0x2
 8401 3422 91       		.byte	0x91
ARM GAS  C:\Users\stijn\AppData\Local\Temp\ccD3lQ9e.s 			page 186


 8402 3423 74       		.sleb128 -12
 8403 3424 00       		.byte	0
 8404 3425 19       		.uleb128 0x19
 8405 3426 8E0E0000 		.4byte	.LASF1936
 8406 342a 02       		.byte	0x2
 8407 342b 3C       		.byte	0x3c
 8408 342c 46300000 		.4byte	0x3046
 8409 3430 00000000 		.4byte	.LFB173
 8410 3434 C6020000 		.4byte	.LFE173-.LFB173
 8411 3438 01       		.uleb128 0x1
 8412 3439 9C       		.byte	0x9c
 8413 343a 9D340000 		.4byte	0x349d
 8414 343e 1A       		.uleb128 0x1a
 8415 343f 256C0000 		.4byte	.LASF1920
 8416 3443 02       		.byte	0x2
 8417 3444 3C       		.byte	0x3c
 8418 3445 6B320000 		.4byte	0x326b
 8419 3449 02       		.uleb128 0x2
 8420 344a 91       		.byte	0x91
 8421 344b 64       		.sleb128 -28
 8422 344c 1A       		.uleb128 0x1a
 8423 344d FD110000 		.4byte	.LASF1921
 8424 3451 02       		.byte	0x2
 8425 3452 3C       		.byte	0x3c
 8426 3453 D5000000 		.4byte	0xd5
 8427 3457 02       		.uleb128 0x2
 8428 3458 91       		.byte	0x91
 8429 3459 60       		.sleb128 -32
 8430 345a 1A       		.uleb128 0x1a
 8431 345b 5C080000 		.4byte	.LASF1933
 8432 345f 02       		.byte	0x2
 8433 3460 3C       		.byte	0x3c
 8434 3461 9D340000 		.4byte	0x349d
 8435 3465 02       		.uleb128 0x2
 8436 3466 91       		.byte	0x91
 8437 3467 5C       		.sleb128 -36
 8438 3468 1B       		.uleb128 0x1b
 8439 3469 DB200000 		.4byte	.LASF1934
 8440 346d 02       		.byte	0x2
 8441 346e 3E       		.byte	0x3e
 8442 346f 46300000 		.4byte	0x3046
 8443 3473 02       		.uleb128 0x2
 8444 3474 91       		.byte	0x91
 8445 3475 74       		.sleb128 -12
 8446 3476 1C       		.uleb128 0x1c
 8447 3477 20000000 		.4byte	.LBB2
 8448 347b 9C020000 		.4byte	.LBE2-.LBB2
 8449 347f 1B       		.uleb128 0x1b
 8450 3480 7B440000 		.4byte	.LASF1935
 8451 3484 02       		.byte	0x2
 8452 3485 42       		.byte	0x42
 8453 3486 D5000000 		.4byte	0xd5
 8454 348a 02       		.uleb128 0x2
 8455 348b 91       		.byte	0x91
 8456 348c 70       		.sleb128 -16
 8457 348d 1B       		.uleb128 0x1b
 8458 348e 00470000 		.4byte	.LASF1924
ARM GAS  C:\Users\stijn\AppData\Local\Temp\ccD3lQ9e.s 			page 187


 8459 3492 02       		.byte	0x2
 8460 3493 43       		.byte	0x43
 8461 3494 D5000000 		.4byte	0xd5
 8462 3498 02       		.uleb128 0x2
 8463 3499 91       		.byte	0x91
 8464 349a 6C       		.sleb128 -20
 8465 349b 00       		.byte	0
 8466 349c 00       		.byte	0
 8467 349d 18       		.uleb128 0x18
 8468 349e 04       		.byte	0x4
 8469 349f A3340000 		.4byte	0x34a3
 8470 34a3 06       		.uleb128 0x6
 8471 34a4 EE310000 		.4byte	0x31ee
 8472 34a8 19       		.uleb128 0x19
 8473 34a9 63080000 		.4byte	.LASF1937
 8474 34ad 02       		.byte	0x2
 8475 34ae 90       		.byte	0x90
 8476 34af 46300000 		.4byte	0x3046
 8477 34b3 00000000 		.4byte	.LFB174
 8478 34b7 60010000 		.4byte	.LFE174-.LFB174
 8479 34bb 01       		.uleb128 0x1
 8480 34bc 9C       		.byte	0x9c
 8481 34bd 12350000 		.4byte	0x3512
 8482 34c1 1A       		.uleb128 0x1a
 8483 34c2 256C0000 		.4byte	.LASF1920
 8484 34c6 02       		.byte	0x2
 8485 34c7 90       		.byte	0x90
 8486 34c8 6B320000 		.4byte	0x326b
 8487 34cc 02       		.uleb128 0x2
 8488 34cd 91       		.byte	0x91
 8489 34ce 64       		.sleb128 -28
 8490 34cf 1A       		.uleb128 0x1a
 8491 34d0 5C080000 		.4byte	.LASF1933
 8492 34d4 02       		.byte	0x2
 8493 34d5 90       		.byte	0x90
 8494 34d6 12350000 		.4byte	0x3512
 8495 34da 02       		.uleb128 0x2
 8496 34db 91       		.byte	0x91
 8497 34dc 60       		.sleb128 -32
 8498 34dd 1B       		.uleb128 0x1b
 8499 34de DB200000 		.4byte	.LASF1934
 8500 34e2 02       		.byte	0x2
 8501 34e3 92       		.byte	0x92
 8502 34e4 46300000 		.4byte	0x3046
 8503 34e8 02       		.uleb128 0x2
 8504 34e9 91       		.byte	0x91
 8505 34ea 74       		.sleb128 -12
 8506 34eb 1C       		.uleb128 0x1c
 8507 34ec 1E000000 		.4byte	.LBB3
 8508 34f0 2A010000 		.4byte	.LBE3-.LBB3
 8509 34f4 1B       		.uleb128 0x1b
 8510 34f5 343A0000 		.4byte	.LASF1923
 8511 34f9 02       		.byte	0x2
 8512 34fa 96       		.byte	0x96
 8513 34fb D5000000 		.4byte	0xd5
 8514 34ff 02       		.uleb128 0x2
 8515 3500 91       		.byte	0x91
ARM GAS  C:\Users\stijn\AppData\Local\Temp\ccD3lQ9e.s 			page 188


 8516 3501 70       		.sleb128 -16
 8517 3502 1B       		.uleb128 0x1b
 8518 3503 BC3E0000 		.4byte	.LASF1938
 8519 3507 02       		.byte	0x2
 8520 3508 97       		.byte	0x97
 8521 3509 71320000 		.4byte	0x3271
 8522 350d 02       		.uleb128 0x2
 8523 350e 91       		.byte	0x91
 8524 350f 6C       		.sleb128 -20
 8525 3510 00       		.byte	0
 8526 3511 00       		.byte	0
 8527 3512 18       		.uleb128 0x18
 8528 3513 04       		.byte	0x4
 8529 3514 18350000 		.4byte	0x3518
 8530 3518 06       		.uleb128 0x6
 8531 3519 32310000 		.4byte	0x3132
 8532 351d 1D       		.uleb128 0x1d
 8533 351e 86440000 		.4byte	.LASF1939
 8534 3522 02       		.byte	0x2
 8535 3523 D6       		.byte	0xd6
 8536 3524 00000000 		.4byte	.LFB175
 8537 3528 D4000000 		.4byte	.LFE175-.LFB175
 8538 352c 01       		.uleb128 0x1
 8539 352d 9C       		.byte	0x9c
 8540 352e 87350000 		.4byte	0x3587
 8541 3532 1A       		.uleb128 0x1a
 8542 3533 256C0000 		.4byte	.LASF1920
 8543 3537 02       		.byte	0x2
 8544 3538 D6       		.byte	0xd6
 8545 3539 6B320000 		.4byte	0x326b
 8546 353d 02       		.uleb128 0x2
 8547 353e 91       		.byte	0x91
 8548 353f 6C       		.sleb128 -20
 8549 3540 1A       		.uleb128 0x1a
 8550 3541 FD110000 		.4byte	.LASF1921
 8551 3545 02       		.byte	0x2
 8552 3546 D6       		.byte	0xd6
 8553 3547 D5000000 		.4byte	0xd5
 8554 354b 02       		.uleb128 0x2
 8555 354c 91       		.byte	0x91
 8556 354d 68       		.sleb128 -24
 8557 354e 1A       		.uleb128 0x1a
 8558 354f 7E240000 		.4byte	.LASF1907
 8559 3553 02       		.byte	0x2
 8560 3554 D6       		.byte	0xd6
 8561 3555 D5000000 		.4byte	0xd5
 8562 3559 02       		.uleb128 0x2
 8563 355a 91       		.byte	0x91
 8564 355b 64       		.sleb128 -28
 8565 355c 1A       		.uleb128 0x1a
 8566 355d E01A0000 		.4byte	.LASF1906
 8567 3561 02       		.byte	0x2
 8568 3562 D7       		.byte	0xd7
 8569 3563 D5000000 		.4byte	0xd5
 8570 3567 02       		.uleb128 0x2
 8571 3568 91       		.byte	0x91
 8572 3569 60       		.sleb128 -32
ARM GAS  C:\Users\stijn\AppData\Local\Temp\ccD3lQ9e.s 			page 189


 8573 356a 1A       		.uleb128 0x1a
 8574 356b 2C510000 		.4byte	.LASF1908
 8575 356f 02       		.byte	0x2
 8576 3570 D7       		.byte	0xd7
 8577 3571 FD2F0000 		.4byte	0x2ffd
 8578 3575 02       		.uleb128 0x2
 8579 3576 91       		.byte	0x91
 8580 3577 00       		.sleb128 0
 8581 3578 1B       		.uleb128 0x1b
 8582 3579 00470000 		.4byte	.LASF1924
 8583 357d 02       		.byte	0x2
 8584 357e DE       		.byte	0xde
 8585 357f D5000000 		.4byte	0xd5
 8586 3583 02       		.uleb128 0x2
 8587 3584 91       		.byte	0x91
 8588 3585 74       		.sleb128 -12
 8589 3586 00       		.byte	0
 8590 3587 1E       		.uleb128 0x1e
 8591 3588 4D490000 		.4byte	.LASF1940
 8592 358c 02       		.byte	0x2
 8593 358d F7       		.byte	0xf7
 8594 358e 00000000 		.4byte	.LFB176
 8595 3592 B0000000 		.4byte	.LFE176-.LFB176
 8596 3596 01       		.uleb128 0x1
 8597 3597 9C       		.byte	0x9c
 8598 3598 C7350000 		.4byte	0x35c7
 8599 359c 1A       		.uleb128 0x1a
 8600 359d 256C0000 		.4byte	.LASF1920
 8601 35a1 02       		.byte	0x2
 8602 35a2 F7       		.byte	0xf7
 8603 35a3 6B320000 		.4byte	0x326b
 8604 35a7 02       		.uleb128 0x2
 8605 35a8 91       		.byte	0x91
 8606 35a9 6C       		.sleb128 -20
 8607 35aa 1B       		.uleb128 0x1b
 8608 35ab 343A0000 		.4byte	.LASF1923
 8609 35af 02       		.byte	0x2
 8610 35b0 F9       		.byte	0xf9
 8611 35b1 D5000000 		.4byte	0xd5
 8612 35b5 02       		.uleb128 0x2
 8613 35b6 91       		.byte	0x91
 8614 35b7 74       		.sleb128 -12
 8615 35b8 1B       		.uleb128 0x1b
 8616 35b9 BC3E0000 		.4byte	.LASF1938
 8617 35bd 02       		.byte	0x2
 8618 35be FA       		.byte	0xfa
 8619 35bf 71320000 		.4byte	0x3271
 8620 35c3 02       		.uleb128 0x2
 8621 35c4 91       		.byte	0x91
 8622 35c5 70       		.sleb128 -16
 8623 35c6 00       		.byte	0
 8624 35c7 1F       		.uleb128 0x1f
 8625 35c8 981D0000 		.4byte	.LASF1941
 8626 35cc 02       		.byte	0x2
 8627 35cd 1E01     		.2byte	0x11e
 8628 35cf 00000000 		.4byte	.LFB177
 8629 35d3 F4000000 		.4byte	.LFE177-.LFB177
ARM GAS  C:\Users\stijn\AppData\Local\Temp\ccD3lQ9e.s 			page 190


 8630 35d7 01       		.uleb128 0x1
 8631 35d8 9C       		.byte	0x9c
 8632 35d9 1A360000 		.4byte	0x361a
 8633 35dd 16       		.uleb128 0x16
 8634 35de 9D310000 		.4byte	.LASF1942
 8635 35e2 02       		.byte	0x2
 8636 35e3 1E01     		.2byte	0x11e
 8637 35e5 22070000 		.4byte	0x722
 8638 35e9 02       		.uleb128 0x2
 8639 35ea 91       		.byte	0x91
 8640 35eb 6F       		.sleb128 -17
 8641 35ec 16       		.uleb128 0x16
 8642 35ed 7E630000 		.4byte	.LASF1943
 8643 35f1 02       		.byte	0x2
 8644 35f2 1E01     		.2byte	0x11e
 8645 35f4 8E300000 		.4byte	0x308e
 8646 35f8 02       		.uleb128 0x2
 8647 35f9 91       		.byte	0x91
 8648 35fa 6E       		.sleb128 -18
 8649 35fb 16       		.uleb128 0x16
 8650 35fc 0D050000 		.4byte	.LASF1944
 8651 3600 02       		.byte	0x2
 8652 3601 1F01     		.2byte	0x11f
 8653 3603 B2300000 		.4byte	0x30b2
 8654 3607 02       		.uleb128 0x2
 8655 3608 91       		.byte	0x91
 8656 3609 6D       		.sleb128 -19
 8657 360a 17       		.uleb128 0x17
 8658 360b BE2F0000 		.4byte	.LASF1945
 8659 360f 02       		.byte	0x2
 8660 3610 2501     		.2byte	0x125
 8661 3612 D5000000 		.4byte	0xd5
 8662 3616 02       		.uleb128 0x2
 8663 3617 91       		.byte	0x91
 8664 3618 74       		.sleb128 -12
 8665 3619 00       		.byte	0
 8666 361a 20       		.uleb128 0x20
 8667 361b 6A520000 		.4byte	.LASF1946
 8668 361f 02       		.byte	0x2
 8669 3620 4701     		.2byte	0x147
 8670 3622 8E300000 		.4byte	0x308e
 8671 3626 00000000 		.4byte	.LFB178
 8672 362a 84000000 		.4byte	.LFE178-.LFB178
 8673 362e 01       		.uleb128 0x1
 8674 362f 9C       		.byte	0x9c
 8675 3630 62360000 		.4byte	0x3662
 8676 3634 16       		.uleb128 0x16
 8677 3635 9D310000 		.4byte	.LASF1942
 8678 3639 02       		.byte	0x2
 8679 363a 4701     		.2byte	0x147
 8680 363c 22070000 		.4byte	0x722
 8681 3640 02       		.uleb128 0x2
 8682 3641 91       		.byte	0x91
 8683 3642 6F       		.sleb128 -17
 8684 3643 16       		.uleb128 0x16
 8685 3644 0D050000 		.4byte	.LASF1944
 8686 3648 02       		.byte	0x2
ARM GAS  C:\Users\stijn\AppData\Local\Temp\ccD3lQ9e.s 			page 191


 8687 3649 4701     		.2byte	0x147
 8688 364b B2300000 		.4byte	0x30b2
 8689 364f 02       		.uleb128 0x2
 8690 3650 91       		.byte	0x91
 8691 3651 6E       		.sleb128 -18
 8692 3652 17       		.uleb128 0x17
 8693 3653 13550000 		.4byte	.LASF1947
 8694 3657 02       		.byte	0x2
 8695 3658 4C01     		.2byte	0x14c
 8696 365a D5000000 		.4byte	0xd5
 8697 365e 02       		.uleb128 0x2
 8698 365f 91       		.byte	0x91
 8699 3660 74       		.sleb128 -12
 8700 3661 00       		.byte	0
 8701 3662 21       		.uleb128 0x21
 8702 3663 BB1B0000 		.4byte	.LASF1948
 8703 3667 07       		.byte	0x7
 8704 3668 A7       		.byte	0xa7
 8705 3669 6D360000 		.4byte	0x366d
 8706 366d 18       		.uleb128 0x18
 8707 366e 04       		.byte	0x4
 8708 366f 73360000 		.4byte	0x3673
 8709 3673 06       		.uleb128 0x6
 8710 3674 C8060000 		.4byte	0x6c8
 8711 3678 22       		.uleb128 0x22
 8712 3679 51390000 		.4byte	.LASF1949
 8713 367d 0B       		.byte	0xb
 8714 367e F907     		.2byte	0x7f9
 8715 3680 84360000 		.4byte	0x3684
 8716 3684 05       		.uleb128 0x5
 8717 3685 CA000000 		.4byte	0xca
 8718 3689 00       		.byte	0
 8719              		.section	.debug_abbrev,"",%progbits
 8720              	.Ldebug_abbrev0:
 8721 0000 01       		.uleb128 0x1
 8722 0001 11       		.uleb128 0x11
 8723 0002 01       		.byte	0x1
 8724 0003 25       		.uleb128 0x25
 8725 0004 0E       		.uleb128 0xe
 8726 0005 13       		.uleb128 0x13
 8727 0006 0B       		.uleb128 0xb
 8728 0007 03       		.uleb128 0x3
 8729 0008 0E       		.uleb128 0xe
 8730 0009 1B       		.uleb128 0x1b
 8731 000a 0E       		.uleb128 0xe
 8732 000b 55       		.uleb128 0x55
 8733 000c 17       		.uleb128 0x17
 8734 000d 11       		.uleb128 0x11
 8735 000e 01       		.uleb128 0x1
 8736 000f 10       		.uleb128 0x10
 8737 0010 17       		.uleb128 0x17
 8738 0011 00       		.byte	0
 8739 0012 00       		.byte	0
 8740 0013 02       		.uleb128 0x2
 8741 0014 24       		.uleb128 0x24
 8742 0015 00       		.byte	0
 8743 0016 0B       		.uleb128 0xb
ARM GAS  C:\Users\stijn\AppData\Local\Temp\ccD3lQ9e.s 			page 192


 8744 0017 0B       		.uleb128 0xb
 8745 0018 3E       		.uleb128 0x3e
 8746 0019 0B       		.uleb128 0xb
 8747 001a 03       		.uleb128 0x3
 8748 001b 08       		.uleb128 0x8
 8749 001c 00       		.byte	0
 8750 001d 00       		.byte	0
 8751 001e 03       		.uleb128 0x3
 8752 001f 24       		.uleb128 0x24
 8753 0020 00       		.byte	0
 8754 0021 0B       		.uleb128 0xb
 8755 0022 0B       		.uleb128 0xb
 8756 0023 3E       		.uleb128 0x3e
 8757 0024 0B       		.uleb128 0xb
 8758 0025 03       		.uleb128 0x3
 8759 0026 0E       		.uleb128 0xe
 8760 0027 00       		.byte	0
 8761 0028 00       		.byte	0
 8762 0029 04       		.uleb128 0x4
 8763 002a 16       		.uleb128 0x16
 8764 002b 00       		.byte	0
 8765 002c 03       		.uleb128 0x3
 8766 002d 0E       		.uleb128 0xe
 8767 002e 3A       		.uleb128 0x3a
 8768 002f 0B       		.uleb128 0xb
 8769 0030 3B       		.uleb128 0x3b
 8770 0031 0B       		.uleb128 0xb
 8771 0032 49       		.uleb128 0x49
 8772 0033 13       		.uleb128 0x13
 8773 0034 00       		.byte	0
 8774 0035 00       		.byte	0
 8775 0036 05       		.uleb128 0x5
 8776 0037 35       		.uleb128 0x35
 8777 0038 00       		.byte	0
 8778 0039 49       		.uleb128 0x49
 8779 003a 13       		.uleb128 0x13
 8780 003b 00       		.byte	0
 8781 003c 00       		.byte	0
 8782 003d 06       		.uleb128 0x6
 8783 003e 26       		.uleb128 0x26
 8784 003f 00       		.byte	0
 8785 0040 49       		.uleb128 0x49
 8786 0041 13       		.uleb128 0x13
 8787 0042 00       		.byte	0
 8788 0043 00       		.byte	0
 8789 0044 07       		.uleb128 0x7
 8790 0045 01       		.uleb128 0x1
 8791 0046 01       		.byte	0x1
 8792 0047 49       		.uleb128 0x49
 8793 0048 13       		.uleb128 0x13
 8794 0049 01       		.uleb128 0x1
 8795 004a 13       		.uleb128 0x13
 8796 004b 00       		.byte	0
 8797 004c 00       		.byte	0
 8798 004d 08       		.uleb128 0x8
 8799 004e 21       		.uleb128 0x21
 8800 004f 00       		.byte	0
ARM GAS  C:\Users\stijn\AppData\Local\Temp\ccD3lQ9e.s 			page 193


 8801 0050 49       		.uleb128 0x49
 8802 0051 13       		.uleb128 0x13
 8803 0052 2F       		.uleb128 0x2f
 8804 0053 0B       		.uleb128 0xb
 8805 0054 00       		.byte	0
 8806 0055 00       		.byte	0
 8807 0056 09       		.uleb128 0x9
 8808 0057 13       		.uleb128 0x13
 8809 0058 01       		.byte	0x1
 8810 0059 0B       		.uleb128 0xb
 8811 005a 0B       		.uleb128 0xb
 8812 005b 3A       		.uleb128 0x3a
 8813 005c 0B       		.uleb128 0xb
 8814 005d 3B       		.uleb128 0x3b
 8815 005e 0B       		.uleb128 0xb
 8816 005f 01       		.uleb128 0x1
 8817 0060 13       		.uleb128 0x13
 8818 0061 00       		.byte	0
 8819 0062 00       		.byte	0
 8820 0063 0A       		.uleb128 0xa
 8821 0064 0D       		.uleb128 0xd
 8822 0065 00       		.byte	0
 8823 0066 03       		.uleb128 0x3
 8824 0067 08       		.uleb128 0x8
 8825 0068 3A       		.uleb128 0x3a
 8826 0069 0B       		.uleb128 0xb
 8827 006a 3B       		.uleb128 0x3b
 8828 006b 0B       		.uleb128 0xb
 8829 006c 49       		.uleb128 0x49
 8830 006d 13       		.uleb128 0x13
 8831 006e 38       		.uleb128 0x38
 8832 006f 0B       		.uleb128 0xb
 8833 0070 00       		.byte	0
 8834 0071 00       		.byte	0
 8835 0072 0B       		.uleb128 0xb
 8836 0073 0D       		.uleb128 0xd
 8837 0074 00       		.byte	0
 8838 0075 03       		.uleb128 0x3
 8839 0076 0E       		.uleb128 0xe
 8840 0077 3A       		.uleb128 0x3a
 8841 0078 0B       		.uleb128 0xb
 8842 0079 3B       		.uleb128 0x3b
 8843 007a 0B       		.uleb128 0xb
 8844 007b 49       		.uleb128 0x49
 8845 007c 13       		.uleb128 0x13
 8846 007d 38       		.uleb128 0x38
 8847 007e 0B       		.uleb128 0xb
 8848 007f 00       		.byte	0
 8849 0080 00       		.byte	0
 8850 0081 0C       		.uleb128 0xc
 8851 0082 13       		.uleb128 0x13
 8852 0083 01       		.byte	0x1
 8853 0084 0B       		.uleb128 0xb
 8854 0085 05       		.uleb128 0x5
 8855 0086 3A       		.uleb128 0x3a
 8856 0087 0B       		.uleb128 0xb
 8857 0088 3B       		.uleb128 0x3b
ARM GAS  C:\Users\stijn\AppData\Local\Temp\ccD3lQ9e.s 			page 194


 8858 0089 0B       		.uleb128 0xb
 8859 008a 01       		.uleb128 0x1
 8860 008b 13       		.uleb128 0x13
 8861 008c 00       		.byte	0
 8862 008d 00       		.byte	0
 8863 008e 0D       		.uleb128 0xd
 8864 008f 0D       		.uleb128 0xd
 8865 0090 00       		.byte	0
 8866 0091 03       		.uleb128 0x3
 8867 0092 0E       		.uleb128 0xe
 8868 0093 3A       		.uleb128 0x3a
 8869 0094 0B       		.uleb128 0xb
 8870 0095 3B       		.uleb128 0x3b
 8871 0096 0B       		.uleb128 0xb
 8872 0097 49       		.uleb128 0x49
 8873 0098 13       		.uleb128 0x13
 8874 0099 38       		.uleb128 0x38
 8875 009a 05       		.uleb128 0x5
 8876 009b 00       		.byte	0
 8877 009c 00       		.byte	0
 8878 009d 0E       		.uleb128 0xe
 8879 009e 21       		.uleb128 0x21
 8880 009f 00       		.byte	0
 8881 00a0 49       		.uleb128 0x49
 8882 00a1 13       		.uleb128 0x13
 8883 00a2 2F       		.uleb128 0x2f
 8884 00a3 05       		.uleb128 0x5
 8885 00a4 00       		.byte	0
 8886 00a5 00       		.byte	0
 8887 00a6 0F       		.uleb128 0xf
 8888 00a7 16       		.uleb128 0x16
 8889 00a8 00       		.byte	0
 8890 00a9 03       		.uleb128 0x3
 8891 00aa 0E       		.uleb128 0xe
 8892 00ab 3A       		.uleb128 0x3a
 8893 00ac 0B       		.uleb128 0xb
 8894 00ad 3B       		.uleb128 0x3b
 8895 00ae 05       		.uleb128 0x5
 8896 00af 49       		.uleb128 0x49
 8897 00b0 13       		.uleb128 0x13
 8898 00b1 00       		.byte	0
 8899 00b2 00       		.byte	0
 8900 00b3 10       		.uleb128 0x10
 8901 00b4 04       		.uleb128 0x4
 8902 00b5 01       		.byte	0x1
 8903 00b6 0B       		.uleb128 0xb
 8904 00b7 0B       		.uleb128 0xb
 8905 00b8 49       		.uleb128 0x49
 8906 00b9 13       		.uleb128 0x13
 8907 00ba 3A       		.uleb128 0x3a
 8908 00bb 0B       		.uleb128 0xb
 8909 00bc 3B       		.uleb128 0x3b
 8910 00bd 0B       		.uleb128 0xb
 8911 00be 01       		.uleb128 0x1
 8912 00bf 13       		.uleb128 0x13
 8913 00c0 00       		.byte	0
 8914 00c1 00       		.byte	0
ARM GAS  C:\Users\stijn\AppData\Local\Temp\ccD3lQ9e.s 			page 195


 8915 00c2 11       		.uleb128 0x11
 8916 00c3 28       		.uleb128 0x28
 8917 00c4 00       		.byte	0
 8918 00c5 03       		.uleb128 0x3
 8919 00c6 0E       		.uleb128 0xe
 8920 00c7 1C       		.uleb128 0x1c
 8921 00c8 0B       		.uleb128 0xb
 8922 00c9 00       		.byte	0
 8923 00ca 00       		.byte	0
 8924 00cb 12       		.uleb128 0x12
 8925 00cc 04       		.uleb128 0x4
 8926 00cd 01       		.byte	0x1
 8927 00ce 0B       		.uleb128 0xb
 8928 00cf 0B       		.uleb128 0xb
 8929 00d0 49       		.uleb128 0x49
 8930 00d1 13       		.uleb128 0x13
 8931 00d2 3A       		.uleb128 0x3a
 8932 00d3 0B       		.uleb128 0xb
 8933 00d4 3B       		.uleb128 0x3b
 8934 00d5 05       		.uleb128 0x5
 8935 00d6 01       		.uleb128 0x1
 8936 00d7 13       		.uleb128 0x13
 8937 00d8 00       		.byte	0
 8938 00d9 00       		.byte	0
 8939 00da 13       		.uleb128 0x13
 8940 00db 28       		.uleb128 0x28
 8941 00dc 00       		.byte	0
 8942 00dd 03       		.uleb128 0x3
 8943 00de 0E       		.uleb128 0xe
 8944 00df 1C       		.uleb128 0x1c
 8945 00e0 06       		.uleb128 0x6
 8946 00e1 00       		.byte	0
 8947 00e2 00       		.byte	0
 8948 00e3 14       		.uleb128 0x14
 8949 00e4 0D       		.uleb128 0xd
 8950 00e5 00       		.byte	0
 8951 00e6 03       		.uleb128 0x3
 8952 00e7 0E       		.uleb128 0xe
 8953 00e8 3A       		.uleb128 0x3a
 8954 00e9 0B       		.uleb128 0xb
 8955 00ea 3B       		.uleb128 0x3b
 8956 00eb 05       		.uleb128 0x5
 8957 00ec 49       		.uleb128 0x49
 8958 00ed 13       		.uleb128 0x13
 8959 00ee 38       		.uleb128 0x38
 8960 00ef 0B       		.uleb128 0xb
 8961 00f0 00       		.byte	0
 8962 00f1 00       		.byte	0
 8963 00f2 15       		.uleb128 0x15
 8964 00f3 2E       		.uleb128 0x2e
 8965 00f4 01       		.byte	0x1
 8966 00f5 03       		.uleb128 0x3
 8967 00f6 0E       		.uleb128 0xe
 8968 00f7 3A       		.uleb128 0x3a
 8969 00f8 0B       		.uleb128 0xb
 8970 00f9 3B       		.uleb128 0x3b
 8971 00fa 05       		.uleb128 0x5
ARM GAS  C:\Users\stijn\AppData\Local\Temp\ccD3lQ9e.s 			page 196


 8972 00fb 27       		.uleb128 0x27
 8973 00fc 19       		.uleb128 0x19
 8974 00fd 11       		.uleb128 0x11
 8975 00fe 01       		.uleb128 0x1
 8976 00ff 12       		.uleb128 0x12
 8977 0100 06       		.uleb128 0x6
 8978 0101 40       		.uleb128 0x40
 8979 0102 18       		.uleb128 0x18
 8980 0103 9642     		.uleb128 0x2116
 8981 0105 19       		.uleb128 0x19
 8982 0106 01       		.uleb128 0x1
 8983 0107 13       		.uleb128 0x13
 8984 0108 00       		.byte	0
 8985 0109 00       		.byte	0
 8986 010a 16       		.uleb128 0x16
 8987 010b 05       		.uleb128 0x5
 8988 010c 00       		.byte	0
 8989 010d 03       		.uleb128 0x3
 8990 010e 0E       		.uleb128 0xe
 8991 010f 3A       		.uleb128 0x3a
 8992 0110 0B       		.uleb128 0xb
 8993 0111 3B       		.uleb128 0x3b
 8994 0112 05       		.uleb128 0x5
 8995 0113 49       		.uleb128 0x49
 8996 0114 13       		.uleb128 0x13
 8997 0115 02       		.uleb128 0x2
 8998 0116 18       		.uleb128 0x18
 8999 0117 00       		.byte	0
 9000 0118 00       		.byte	0
 9001 0119 17       		.uleb128 0x17
 9002 011a 34       		.uleb128 0x34
 9003 011b 00       		.byte	0
 9004 011c 03       		.uleb128 0x3
 9005 011d 0E       		.uleb128 0xe
 9006 011e 3A       		.uleb128 0x3a
 9007 011f 0B       		.uleb128 0xb
 9008 0120 3B       		.uleb128 0x3b
 9009 0121 05       		.uleb128 0x5
 9010 0122 49       		.uleb128 0x49
 9011 0123 13       		.uleb128 0x13
 9012 0124 02       		.uleb128 0x2
 9013 0125 18       		.uleb128 0x18
 9014 0126 00       		.byte	0
 9015 0127 00       		.byte	0
 9016 0128 18       		.uleb128 0x18
 9017 0129 0F       		.uleb128 0xf
 9018 012a 00       		.byte	0
 9019 012b 0B       		.uleb128 0xb
 9020 012c 0B       		.uleb128 0xb
 9021 012d 49       		.uleb128 0x49
 9022 012e 13       		.uleb128 0x13
 9023 012f 00       		.byte	0
 9024 0130 00       		.byte	0
 9025 0131 19       		.uleb128 0x19
 9026 0132 2E       		.uleb128 0x2e
 9027 0133 01       		.byte	0x1
 9028 0134 3F       		.uleb128 0x3f
ARM GAS  C:\Users\stijn\AppData\Local\Temp\ccD3lQ9e.s 			page 197


 9029 0135 19       		.uleb128 0x19
 9030 0136 03       		.uleb128 0x3
 9031 0137 0E       		.uleb128 0xe
 9032 0138 3A       		.uleb128 0x3a
 9033 0139 0B       		.uleb128 0xb
 9034 013a 3B       		.uleb128 0x3b
 9035 013b 0B       		.uleb128 0xb
 9036 013c 27       		.uleb128 0x27
 9037 013d 19       		.uleb128 0x19
 9038 013e 49       		.uleb128 0x49
 9039 013f 13       		.uleb128 0x13
 9040 0140 11       		.uleb128 0x11
 9041 0141 01       		.uleb128 0x1
 9042 0142 12       		.uleb128 0x12
 9043 0143 06       		.uleb128 0x6
 9044 0144 40       		.uleb128 0x40
 9045 0145 18       		.uleb128 0x18
 9046 0146 9642     		.uleb128 0x2116
 9047 0148 19       		.uleb128 0x19
 9048 0149 01       		.uleb128 0x1
 9049 014a 13       		.uleb128 0x13
 9050 014b 00       		.byte	0
 9051 014c 00       		.byte	0
 9052 014d 1A       		.uleb128 0x1a
 9053 014e 05       		.uleb128 0x5
 9054 014f 00       		.byte	0
 9055 0150 03       		.uleb128 0x3
 9056 0151 0E       		.uleb128 0xe
 9057 0152 3A       		.uleb128 0x3a
 9058 0153 0B       		.uleb128 0xb
 9059 0154 3B       		.uleb128 0x3b
 9060 0155 0B       		.uleb128 0xb
 9061 0156 49       		.uleb128 0x49
 9062 0157 13       		.uleb128 0x13
 9063 0158 02       		.uleb128 0x2
 9064 0159 18       		.uleb128 0x18
 9065 015a 00       		.byte	0
 9066 015b 00       		.byte	0
 9067 015c 1B       		.uleb128 0x1b
 9068 015d 34       		.uleb128 0x34
 9069 015e 00       		.byte	0
 9070 015f 03       		.uleb128 0x3
 9071 0160 0E       		.uleb128 0xe
 9072 0161 3A       		.uleb128 0x3a
 9073 0162 0B       		.uleb128 0xb
 9074 0163 3B       		.uleb128 0x3b
 9075 0164 0B       		.uleb128 0xb
 9076 0165 49       		.uleb128 0x49
 9077 0166 13       		.uleb128 0x13
 9078 0167 02       		.uleb128 0x2
 9079 0168 18       		.uleb128 0x18
 9080 0169 00       		.byte	0
 9081 016a 00       		.byte	0
 9082 016b 1C       		.uleb128 0x1c
 9083 016c 0B       		.uleb128 0xb
 9084 016d 01       		.byte	0x1
 9085 016e 11       		.uleb128 0x11
ARM GAS  C:\Users\stijn\AppData\Local\Temp\ccD3lQ9e.s 			page 198


 9086 016f 01       		.uleb128 0x1
 9087 0170 12       		.uleb128 0x12
 9088 0171 06       		.uleb128 0x6
 9089 0172 00       		.byte	0
 9090 0173 00       		.byte	0
 9091 0174 1D       		.uleb128 0x1d
 9092 0175 2E       		.uleb128 0x2e
 9093 0176 01       		.byte	0x1
 9094 0177 3F       		.uleb128 0x3f
 9095 0178 19       		.uleb128 0x19
 9096 0179 03       		.uleb128 0x3
 9097 017a 0E       		.uleb128 0xe
 9098 017b 3A       		.uleb128 0x3a
 9099 017c 0B       		.uleb128 0xb
 9100 017d 3B       		.uleb128 0x3b
 9101 017e 0B       		.uleb128 0xb
 9102 017f 27       		.uleb128 0x27
 9103 0180 19       		.uleb128 0x19
 9104 0181 11       		.uleb128 0x11
 9105 0182 01       		.uleb128 0x1
 9106 0183 12       		.uleb128 0x12
 9107 0184 06       		.uleb128 0x6
 9108 0185 40       		.uleb128 0x40
 9109 0186 18       		.uleb128 0x18
 9110 0187 9642     		.uleb128 0x2116
 9111 0189 19       		.uleb128 0x19
 9112 018a 01       		.uleb128 0x1
 9113 018b 13       		.uleb128 0x13
 9114 018c 00       		.byte	0
 9115 018d 00       		.byte	0
 9116 018e 1E       		.uleb128 0x1e
 9117 018f 2E       		.uleb128 0x2e
 9118 0190 01       		.byte	0x1
 9119 0191 3F       		.uleb128 0x3f
 9120 0192 19       		.uleb128 0x19
 9121 0193 03       		.uleb128 0x3
 9122 0194 0E       		.uleb128 0xe
 9123 0195 3A       		.uleb128 0x3a
 9124 0196 0B       		.uleb128 0xb
 9125 0197 3B       		.uleb128 0x3b
 9126 0198 0B       		.uleb128 0xb
 9127 0199 27       		.uleb128 0x27
 9128 019a 19       		.uleb128 0x19
 9129 019b 11       		.uleb128 0x11
 9130 019c 01       		.uleb128 0x1
 9131 019d 12       		.uleb128 0x12
 9132 019e 06       		.uleb128 0x6
 9133 019f 40       		.uleb128 0x40
 9134 01a0 18       		.uleb128 0x18
 9135 01a1 9742     		.uleb128 0x2117
 9136 01a3 19       		.uleb128 0x19
 9137 01a4 01       		.uleb128 0x1
 9138 01a5 13       		.uleb128 0x13
 9139 01a6 00       		.byte	0
 9140 01a7 00       		.byte	0
 9141 01a8 1F       		.uleb128 0x1f
 9142 01a9 2E       		.uleb128 0x2e
ARM GAS  C:\Users\stijn\AppData\Local\Temp\ccD3lQ9e.s 			page 199


 9143 01aa 01       		.byte	0x1
 9144 01ab 3F       		.uleb128 0x3f
 9145 01ac 19       		.uleb128 0x19
 9146 01ad 03       		.uleb128 0x3
 9147 01ae 0E       		.uleb128 0xe
 9148 01af 3A       		.uleb128 0x3a
 9149 01b0 0B       		.uleb128 0xb
 9150 01b1 3B       		.uleb128 0x3b
 9151 01b2 05       		.uleb128 0x5
 9152 01b3 27       		.uleb128 0x27
 9153 01b4 19       		.uleb128 0x19
 9154 01b5 11       		.uleb128 0x11
 9155 01b6 01       		.uleb128 0x1
 9156 01b7 12       		.uleb128 0x12
 9157 01b8 06       		.uleb128 0x6
 9158 01b9 40       		.uleb128 0x40
 9159 01ba 18       		.uleb128 0x18
 9160 01bb 9642     		.uleb128 0x2116
 9161 01bd 19       		.uleb128 0x19
 9162 01be 01       		.uleb128 0x1
 9163 01bf 13       		.uleb128 0x13
 9164 01c0 00       		.byte	0
 9165 01c1 00       		.byte	0
 9166 01c2 20       		.uleb128 0x20
 9167 01c3 2E       		.uleb128 0x2e
 9168 01c4 01       		.byte	0x1
 9169 01c5 3F       		.uleb128 0x3f
 9170 01c6 19       		.uleb128 0x19
 9171 01c7 03       		.uleb128 0x3
 9172 01c8 0E       		.uleb128 0xe
 9173 01c9 3A       		.uleb128 0x3a
 9174 01ca 0B       		.uleb128 0xb
 9175 01cb 3B       		.uleb128 0x3b
 9176 01cc 05       		.uleb128 0x5
 9177 01cd 27       		.uleb128 0x27
 9178 01ce 19       		.uleb128 0x19
 9179 01cf 49       		.uleb128 0x49
 9180 01d0 13       		.uleb128 0x13
 9181 01d1 11       		.uleb128 0x11
 9182 01d2 01       		.uleb128 0x1
 9183 01d3 12       		.uleb128 0x12
 9184 01d4 06       		.uleb128 0x6
 9185 01d5 40       		.uleb128 0x40
 9186 01d6 18       		.uleb128 0x18
 9187 01d7 9642     		.uleb128 0x2116
 9188 01d9 19       		.uleb128 0x19
 9189 01da 01       		.uleb128 0x1
 9190 01db 13       		.uleb128 0x13
 9191 01dc 00       		.byte	0
 9192 01dd 00       		.byte	0
 9193 01de 21       		.uleb128 0x21
 9194 01df 34       		.uleb128 0x34
 9195 01e0 00       		.byte	0
 9196 01e1 03       		.uleb128 0x3
 9197 01e2 0E       		.uleb128 0xe
 9198 01e3 3A       		.uleb128 0x3a
 9199 01e4 0B       		.uleb128 0xb
ARM GAS  C:\Users\stijn\AppData\Local\Temp\ccD3lQ9e.s 			page 200


 9200 01e5 3B       		.uleb128 0x3b
 9201 01e6 0B       		.uleb128 0xb
 9202 01e7 49       		.uleb128 0x49
 9203 01e8 13       		.uleb128 0x13
 9204 01e9 3F       		.uleb128 0x3f
 9205 01ea 19       		.uleb128 0x19
 9206 01eb 3C       		.uleb128 0x3c
 9207 01ec 19       		.uleb128 0x19
 9208 01ed 00       		.byte	0
 9209 01ee 00       		.byte	0
 9210 01ef 22       		.uleb128 0x22
 9211 01f0 34       		.uleb128 0x34
 9212 01f1 00       		.byte	0
 9213 01f2 03       		.uleb128 0x3
 9214 01f3 0E       		.uleb128 0xe
 9215 01f4 3A       		.uleb128 0x3a
 9216 01f5 0B       		.uleb128 0xb
 9217 01f6 3B       		.uleb128 0x3b
 9218 01f7 05       		.uleb128 0x5
 9219 01f8 49       		.uleb128 0x49
 9220 01f9 13       		.uleb128 0x13
 9221 01fa 3F       		.uleb128 0x3f
 9222 01fb 19       		.uleb128 0x19
 9223 01fc 3C       		.uleb128 0x3c
 9224 01fd 19       		.uleb128 0x19
 9225 01fe 00       		.byte	0
 9226 01ff 00       		.byte	0
 9227 0200 00       		.byte	0
 9228              		.section	.debug_aranges,"",%progbits
 9229 0000 74000000 		.4byte	0x74
 9230 0004 0200     		.2byte	0x2
 9231 0006 00000000 		.4byte	.Ldebug_info0
 9232 000a 04       		.byte	0x4
 9233 000b 00       		.byte	0
 9234 000c 0000     		.2byte	0
 9235 000e 0000     		.2byte	0
 9236 0010 00000000 		.4byte	.LFB132
 9237 0014 BC000000 		.4byte	.LFE132-.LFB132
 9238 0018 00000000 		.4byte	.LFB136
 9239 001c 54000000 		.4byte	.LFE136-.LFB136
 9240 0020 00000000 		.4byte	.LFB141
 9241 0024 84000000 		.4byte	.LFE141-.LFB141
 9242 0028 00000000 		.4byte	.LFB143
 9243 002c 7C000000 		.4byte	.LFE143-.LFB143
 9244 0030 00000000 		.4byte	.LFB161
 9245 0034 5C000000 		.4byte	.LFE161-.LFB161
 9246 0038 00000000 		.4byte	.LFB165
 9247 003c 94000000 		.4byte	.LFE165-.LFB165
 9248 0040 00000000 		.4byte	.LFB173
 9249 0044 C6020000 		.4byte	.LFE173-.LFB173
 9250 0048 00000000 		.4byte	.LFB174
 9251 004c 60010000 		.4byte	.LFE174-.LFB174
 9252 0050 00000000 		.4byte	.LFB175
 9253 0054 D4000000 		.4byte	.LFE175-.LFB175
 9254 0058 00000000 		.4byte	.LFB176
 9255 005c B0000000 		.4byte	.LFE176-.LFB176
 9256 0060 00000000 		.4byte	.LFB177
ARM GAS  C:\Users\stijn\AppData\Local\Temp\ccD3lQ9e.s 			page 201


 9257 0064 F4000000 		.4byte	.LFE177-.LFB177
 9258 0068 00000000 		.4byte	.LFB178
 9259 006c 84000000 		.4byte	.LFE178-.LFB178
 9260 0070 00000000 		.4byte	0
 9261 0074 00000000 		.4byte	0
 9262              		.section	.debug_ranges,"",%progbits
 9263              	.Ldebug_ranges0:
 9264 0000 00000000 		.4byte	.LFB132
 9265 0004 BC000000 		.4byte	.LFE132
 9266 0008 00000000 		.4byte	.LFB136
 9267 000c 54000000 		.4byte	.LFE136
 9268 0010 00000000 		.4byte	.LFB141
 9269 0014 84000000 		.4byte	.LFE141
 9270 0018 00000000 		.4byte	.LFB143
 9271 001c 7C000000 		.4byte	.LFE143
 9272 0020 00000000 		.4byte	.LFB161
 9273 0024 5C000000 		.4byte	.LFE161
 9274 0028 00000000 		.4byte	.LFB165
 9275 002c 94000000 		.4byte	.LFE165
 9276 0030 00000000 		.4byte	.LFB173
 9277 0034 C6020000 		.4byte	.LFE173
 9278 0038 00000000 		.4byte	.LFB174
 9279 003c 60010000 		.4byte	.LFE174
 9280 0040 00000000 		.4byte	.LFB175
 9281 0044 D4000000 		.4byte	.LFE175
 9282 0048 00000000 		.4byte	.LFB176
 9283 004c B0000000 		.4byte	.LFE176
 9284 0050 00000000 		.4byte	.LFB177
 9285 0054 F4000000 		.4byte	.LFE177
 9286 0058 00000000 		.4byte	.LFB178
 9287 005c 84000000 		.4byte	.LFE178
 9288 0060 00000000 		.4byte	0
 9289 0064 00000000 		.4byte	0
 9290              		.section	.debug_line,"",%progbits
 9291              	.Ldebug_line0:
 9292 0000 EB050000 		.section	.debug_str,"MS",%progbits,1
 9292      0200D002 
 9292      00000201 
 9292      FB0E0D00 
 9292      01010101 
 9293              	.LASF780:
 9294 0000 50355F37 		.ascii	"P5_7_DSI_DSI\000"
 9294      5F445349 
 9294      5F445349 
 9294      00
 9295              	.LASF47:
 9296 000d 6770696F 		.ascii	"gpioBase\000"
 9296      42617365 
 9296      00
 9297              	.LASF1:
 9298 0016 6C6F6E67 		.ascii	"long long int\000"
 9298      206C6F6E 
 9298      6720696E 
 9298      7400
 9299              	.LASF1440:
 9300 0024 5031305F 		.ascii	"P10_5_GPIO\000"
 9300      355F4750 
ARM GAS  C:\Users\stijn\AppData\Local\Temp\ccD3lQ9e.s 			page 202


 9300      494F00
 9301              	.LASF1757:
 9302 002f 5031335F 		.ascii	"P13_0_AMUXA_DSI\000"
 9302      305F414D 
 9302      5558415F 
 9302      44534900 
 9303              	.LASF1596:
 9304 003f 5031315F 		.ascii	"P11_6_AMUXA\000"
 9304      365F414D 
 9304      55584100 
 9305              	.LASF598:
 9306 004b 50335F35 		.ascii	"P3_5_GPIO_DSI\000"
 9306      5F475049 
 9306      4F5F4453 
 9306      4900
 9307              	.LASF1100:
 9308 0059 50385F30 		.ascii	"P8_0_SCB4_UART_RX\000"
 9308      5F534342 
 9308      345F5541 
 9308      52545F52 
 9308      5800
 9309              	.LASF1570:
 9310 006b 5031315F 		.ascii	"P11_4_CSD_CSD_TX_N\000"
 9310      345F4353 
 9310      445F4353 
 9310      445F5458 
 9310      5F4E00
 9311              	.LASF478:
 9312 007e 50325F36 		.ascii	"P2_6_GPIO\000"
 9312      5F475049 
 9312      4F00
 9313              	.LASF603:
 9314 0088 50335F35 		.ascii	"P3_5_AMUXA_DSI\000"
 9314      5F414D55 
 9314      58415F44 
 9314      534900
 9315              	.LASF1516:
 9316 0097 5031315F 		.ascii	"P11_1_CSD_CSD_TX_N\000"
 9316      315F4353 
 9316      445F4353 
 9316      445F5458 
 9316      5F4E00
 9317              	.LASF490:
 9318 00aa 50325F36 		.ascii	"P2_6_LCD_COM18\000"
 9318      5F4C4344 
 9318      5F434F4D 
 9318      313800
 9319              	.LASF189:
 9320 00b9 50305F31 		.ascii	"P0_1_GPIO_DSI\000"
 9320      5F475049 
 9320      4F5F4453 
 9320      4900
 9321              	.LASF966:
 9322 00c7 50375F30 		.ascii	"P7_0_PERI_TR_IO_INPUT14\000"
 9322      5F504552 
 9322      495F5452 
 9322      5F494F5F 
ARM GAS  C:\Users\stijn\AppData\Local\Temp\ccD3lQ9e.s 			page 203


 9322      494E5055 
 9323              	.LASF1750:
 9324 00df 5031325F 		.ascii	"P12_7_LCD_SEG30\000"
 9324      375F4C43 
 9324      445F5345 
 9324      47333000 
 9325              	.LASF1049:
 9326 00ef 50375F35 		.ascii	"P7_5_SCB4_SPI_SELECT2\000"
 9326      5F534342 
 9326      345F5350 
 9326      495F5345 
 9326      4C454354 
 9327              	.LASF1929:
 9328 0105 70696E4C 		.ascii	"pinLoc\000"
 9328      6F6300
 9329              	.LASF955:
 9330 010c 50375F30 		.ascii	"P7_0_AMUXA_DSI\000"
 9330      5F414D55 
 9330      58415F44 
 9330      534900
 9331              	.LASF1294:
 9332 011b 50395F34 		.ascii	"P9_4_DSI_DSI\000"
 9332      5F445349 
 9332      5F445349 
 9332      00
 9333              	.LASF378:
 9334 0128 50325F30 		.ascii	"P2_0_AMUXA\000"
 9334      5F414D55 
 9334      584100
 9335              	.LASF379:
 9336 0133 50325F30 		.ascii	"P2_0_AMUXB\000"
 9336      5F414D55 
 9336      584200
 9337              	.LASF1753:
 9338 013e 5031335F 		.ascii	"P13_0_DSI_DSI\000"
 9338      305F4453 
 9338      495F4453 
 9338      4900
 9339              	.LASF941:
 9340 014c 50365F37 		.ascii	"P6_7_CSD_CSD_TX\000"
 9340      5F435344 
 9340      5F435344 
 9340      5F545800 
 9341              	.LASF1098:
 9342 015c 50385F30 		.ascii	"P8_0_LCD_COM54\000"
 9342      5F4C4344 
 9342      5F434F4D 
 9342      353400
 9343              	.LASF1646:
 9344 016b 5031325F 		.ascii	"P12_1_LCD_COM24\000"
 9344      315F4C43 
 9344      445F434F 
 9344      4D323400 
 9345              	.LASF1181:
 9346 017b 50385F35 		.ascii	"P8_5_CSD_CSD_TX\000"
 9346      5F435344 
 9346      5F435344 
ARM GAS  C:\Users\stijn\AppData\Local\Temp\ccD3lQ9e.s 			page 204


 9346      5F545800 
 9347              	.LASF13:
 9348 018b 6C6F6E67 		.ascii	"long unsigned int\000"
 9348      20756E73 
 9348      69676E65 
 9348      6420696E 
 9348      7400
 9349              	.LASF1780:
 9350 019d 5031335F 		.ascii	"P13_1_CSD_CSD_TX_N\000"
 9350      315F4353 
 9350      445F4353 
 9350      445F5458 
 9350      5F4E00
 9351              	.LASF950:
 9352 01b0 50375F30 		.ascii	"P7_0_GPIO_DSI\000"
 9352      5F475049 
 9352      4F5F4453 
 9352      4900
 9353              	.LASF75:
 9354 01be 73797350 		.ascii	"sysPmSimoPresent\000"
 9354      6D53696D 
 9354      6F507265 
 9354      73656E74 
 9354      00
 9355              	.LASF1082:
 9356 01cf 50375F37 		.ascii	"P7_7_LCD_SEG53\000"
 9356      5F4C4344 
 9356      5F534547 
 9356      353300
 9357              	.LASF679:
 9358 01de 50355F31 		.ascii	"P5_1_TCPWM0_LINE_COMPL4\000"
 9358      5F544350 
 9358      574D305F 
 9358      4C494E45 
 9358      5F434F4D 
 9359              	.LASF1590:
 9360 01f6 5031315F 		.ascii	"P11_5_SMIF_SPI_DATA1\000"
 9360      355F534D 
 9360      49465F53 
 9360      50495F44 
 9360      41544131 
 9361              	.LASF826:
 9362 020b 50365F31 		.ascii	"P6_1_LCD_SEG39\000"
 9362      5F4C4344 
 9362      5F534547 
 9362      333900
 9363              	.LASF62:
 9364 021a 63707573 		.ascii	"cpussDwChNr\000"
 9364      73447743 
 9364      684E7200 
 9365              	.LASF1622:
 9366 0226 5031325F 		.ascii	"P12_0_AMUXB_DSI\000"
 9366      305F414D 
 9366      5558425F 
 9366      44534900 
 9367              	.LASF465:
 9368 0236 50325F35 		.ascii	"P2_5_DSI_GPIO\000"
ARM GAS  C:\Users\stijn\AppData\Local\Temp\ccD3lQ9e.s 			page 205


 9368      5F445349 
 9368      5F475049 
 9368      4F00
 9369              	.LASF1743:
 9370 0244 5031325F 		.ascii	"P12_7_AMUXA_DSI\000"
 9370      375F414D 
 9370      5558415F 
 9370      44534900 
 9371              	.LASF437:
 9372 0254 50325F33 		.ascii	"P2_3_TCPWM0_LINE_COMPL7\000"
 9372      5F544350 
 9372      574D305F 
 9372      4C494E45 
 9372      5F434F4D 
 9373              	.LASF1374:
 9374 026c 5031305F 		.ascii	"P10_1_AMUXA\000"
 9374      315F414D 
 9374      55584100 
 9375              	.LASF1375:
 9376 0278 5031305F 		.ascii	"P10_1_AMUXB\000"
 9376      315F414D 
 9376      55584200 
 9377              	.LASF1068:
 9378 0284 50375F36 		.ascii	"P7_6_CPUSS_TRACE_DATA1\000"
 9378      5F435055 
 9378      53535F54 
 9378      52414345 
 9378      5F444154 
 9379              	.LASF1180:
 9380 029b 50385F35 		.ascii	"P8_5_TCPWM1_LINE_COMPL18\000"
 9380      5F544350 
 9380      574D315F 
 9380      4C494E45 
 9380      5F434F4D 
 9381              	.LASF190:
 9382 02b4 50305F31 		.ascii	"P0_1_DSI_DSI\000"
 9382      5F445349 
 9382      5F445349 
 9382      00
 9383              	.LASF1175:
 9384 02c1 50385F35 		.ascii	"P8_5_AMUXA\000"
 9384      5F414D55 
 9384      584100
 9385              	.LASF1176:
 9386 02cc 50385F35 		.ascii	"P8_5_AMUXB\000"
 9386      5F414D55 
 9386      584200
 9387              	.LASF1708:
 9388 02d7 5031325F 		.ascii	"P12_5_DSI_GPIO\000"
 9388      355F4453 
 9388      495F4750 
 9388      494F00
 9389              	.LASF685:
 9390 02e6 50355F31 		.ascii	"P5_1_SCB5_UART_TX\000"
 9390      5F534342 
 9390      355F5541 
 9390      52545F54 
ARM GAS  C:\Users\stijn\AppData\Local\Temp\ccD3lQ9e.s 			page 206


 9390      5800
 9391              	.LASF1295:
 9392 02f8 50395F34 		.ascii	"P9_4_DSI_GPIO\000"
 9392      5F445349 
 9392      5F475049 
 9392      4F00
 9393              	.LASF209:
 9394 0306 50305F32 		.ascii	"P0_2_AMUXA\000"
 9394      5F414D55 
 9394      584100
 9395              	.LASF210:
 9396 0311 50305F32 		.ascii	"P0_2_AMUXB\000"
 9396      5F414D55 
 9396      584200
 9397              	.LASF779:
 9398 031c 50355F37 		.ascii	"P5_7_GPIO_DSI\000"
 9398      5F475049 
 9398      4F5F4453 
 9398      4900
 9399              	.LASF1561:
 9400 032a 5031315F 		.ascii	"P11_4_DSI_DSI\000"
 9400      345F4453 
 9400      495F4453 
 9400      4900
 9401              	.LASF469:
 9402 0338 50325F35 		.ascii	"P2_5_AMUXB_DSI\000"
 9402      5F414D55 
 9402      58425F44 
 9402      534900
 9403              	.LASF187:
 9404 0347 50305F30 		.ascii	"P0_0_PERI_TR_IO_INPUT0\000"
 9404      5F504552 
 9404      495F5452 
 9404      5F494F5F 
 9404      494E5055 
 9405              	.LASF1669:
 9406 035e 5031325F 		.ascii	"P12_2_SCB6_SPI_CLK\000"
 9406      325F5343 
 9406      42365F53 
 9406      50495F43 
 9406      4C4B00
 9407              	.LASF543:
 9408 0371 50335F31 		.ascii	"P3_1_SCB2_I2C_SDA\000"
 9408      5F534342 
 9408      325F4932 
 9408      435F5344 
 9408      4100
 9409              	.LASF1156:
 9410 0383 50385F34 		.ascii	"P8_4_GPIO\000"
 9410      5F475049 
 9410      4F00
 9411              	.LASF796:
 9412 038d 50365F30 		.ascii	"P6_0_DSI_GPIO\000"
 9412      5F445349 
 9412      5F475049 
 9412      4F00
 9413              	.LASF547:
ARM GAS  C:\Users\stijn\AppData\Local\Temp\ccD3lQ9e.s 			page 207


 9414 039b 50335F32 		.ascii	"P3_2_GPIO\000"
 9414      5F475049 
 9414      4F00
 9415              	.LASF1402:
 9416 03a5 5031305F 		.ascii	"P10_2_LCD_SEG10\000"
 9416      325F4C43 
 9416      445F5345 
 9416      47313000 
 9417              	.LASF181:
 9418 03b5 50305F30 		.ascii	"P0_0_CSD_CSD_TX\000"
 9418      5F435344 
 9418      5F435344 
 9418      5F545800 
 9419              	.LASF800:
 9420 03c5 50365F30 		.ascii	"P6_0_AMUXB_DSI\000"
 9420      5F414D55 
 9420      58425F44 
 9420      534900
 9421              	.LASF1268:
 9422 03d4 50395F32 		.ascii	"P9_2_LCD_SEG2\000"
 9422      5F4C4344 
 9422      5F534547 
 9422      3200
 9423              	.LASF1584:
 9424 03e2 5031315F 		.ascii	"P11_5_TCPWM0_LINE_COMPL3\000"
 9424      355F5443 
 9424      50574D30 
 9424      5F4C494E 
 9424      455F434F 
 9425              	.LASF937:
 9426 03fb 50365F37 		.ascii	"P6_7_AMUXA_DSI\000"
 9426      5F414D55 
 9426      58415F44 
 9426      534900
 9427              	.LASF1505:
 9428 040a 5031315F 		.ascii	"P11_1_GPIO\000"
 9428      315F4750 
 9428      494F00
 9429              	.LASF1070:
 9430 0415 50375F37 		.ascii	"P7_7_GPIO_DSI\000"
 9430      5F475049 
 9430      4F5F4453 
 9430      4900
 9431              	.LASF1191:
 9432 0423 50385F36 		.ascii	"P8_6_AMUXB\000"
 9432      5F414D55 
 9432      584200
 9433              	.LASF825:
 9434 042e 50365F31 		.ascii	"P6_1_LCD_COM39\000"
 9434      5F4C4344 
 9434      5F434F4D 
 9434      333900
 9435              	.LASF935:
 9436 043d 50365F37 		.ascii	"P6_7_AMUXA\000"
 9436      5F414D55 
 9436      584100
 9437              	.LASF936:
ARM GAS  C:\Users\stijn\AppData\Local\Temp\ccD3lQ9e.s 			page 208


 9438 0448 50365F37 		.ascii	"P6_7_AMUXB\000"
 9438      5F414D55 
 9438      584200
 9439              	.LASF1625:
 9440 0453 5031325F 		.ascii	"P12_0_CSD_CSD_TX\000"
 9440      305F4353 
 9440      445F4353 
 9440      445F5458 
 9440      00
 9441              	.LASF372:
 9442 0464 55534244 		.ascii	"USBDM_GPIO\000"
 9442      4D5F4750 
 9442      494F00
 9443              	.LASF196:
 9444 046f 50305F31 		.ascii	"P0_1_TCPWM0_LINE_COMPL0\000"
 9444      5F544350 
 9444      574D305F 
 9444      4C494E45 
 9444      5F434F4D 
 9445              	.LASF508:
 9446 0487 50325F37 		.ascii	"P2_7_BLESS_MXD_DPSLP_XTAL_EN\000"
 9446      5F424C45 
 9446      53535F4D 
 9446      58445F44 
 9446      50534C50 
 9447              	.LASF414:
 9448 04a4 50325F32 		.ascii	"P2_2_DSI_DSI\000"
 9448      5F445349 
 9448      5F445349 
 9448      00
 9449              	.LASF1613:
 9450 04b1 5031315F 		.ascii	"P11_7_AMUXB_DSI\000"
 9450      375F414D 
 9450      5558425F 
 9450      44534900 
 9451              	.LASF1401:
 9452 04c1 5031305F 		.ascii	"P10_2_LCD_COM10\000"
 9452      325F4C43 
 9452      445F434F 
 9452      4D313000 
 9453              	.LASF1733:
 9454 04d1 5031325F 		.ascii	"P12_6_CSD_CSD_TX_N\000"
 9454      365F4353 
 9454      445F4353 
 9454      445F5458 
 9454      5F4E00
 9455              	.LASF1574:
 9456 04e4 5031315F 		.ascii	"P11_4_SCB5_SPI_SELECT1\000"
 9456      345F5343 
 9456      42355F53 
 9456      50495F53 
 9456      454C4543 
 9457              	.LASF270:
 9458 04fb 50305F35 		.ascii	"P0_5_SRSS_EXT_CLK\000"
 9458      5F535253 
 9458      535F4558 
 9458      545F434C 
ARM GAS  C:\Users\stijn\AppData\Local\Temp\ccD3lQ9e.s 			page 209


 9458      4B00
 9459              	.LASF1944:
 9460 050d 616D7578 		.ascii	"amuxBus\000"
 9460      42757300 
 9461              	.LASF1802:
 9462 0515 5031335F 		.ascii	"P13_2_SCB6_SPI_CLK\000"
 9462      325F5343 
 9462      42365F53 
 9462      50495F43 
 9462      4C4B00
 9463              	.LASF526:
 9464 0528 50335F30 		.ascii	"P3_0_PERI_TR_IO_INPUT6\000"
 9464      5F504552 
 9464      495F5452 
 9464      5F494F5F 
 9464      494E5055 
 9465              	.LASF953:
 9466 053f 50375F30 		.ascii	"P7_0_AMUXA\000"
 9466      5F414D55 
 9466      584100
 9467              	.LASF954:
 9468 054a 50375F30 		.ascii	"P7_0_AMUXB\000"
 9468      5F414D55 
 9468      584200
 9469              	.LASF1836:
 9470 0555 5031335F 		.ascii	"P13_5_DSI_DSI\000"
 9470      355F4453 
 9470      495F4453 
 9470      4900
 9471              	.LASF1719:
 9472 0563 5031325F 		.ascii	"P12_5_SCB6_SPI_SELECT2\000"
 9472      355F5343 
 9472      42365F53 
 9472      50495F53 
 9472      454C4543 
 9473              	.LASF785:
 9474 057a 50355F37 		.ascii	"P5_7_AMUXB_DSI\000"
 9474      5F414D55 
 9474      58425F44 
 9474      534900
 9475              	.LASF677:
 9476 0589 50355F31 		.ascii	"P5_1_AMUXA_DSI\000"
 9476      5F414D55 
 9476      58415F44 
 9476      534900
 9477              	.LASF772:
 9478 0598 50355F36 		.ascii	"P5_6_CSD_CSD_TX_N\000"
 9478      5F435344 
 9478      5F435344 
 9478      5F54585F 
 9478      4E00
 9479              	.LASF1250:
 9480 05aa 50395F31 		.ascii	"P9_1_SCB2_I2C_SDA\000"
 9480      5F534342 
 9480      325F4932 
 9480      435F5344 
 9480      4100
ARM GAS  C:\Users\stijn\AppData\Local\Temp\ccD3lQ9e.s 			page 210


 9481              	.LASF68:
 9482 05bc 73727373 		.ascii	"srssNumPll\000"
 9482      4E756D50 
 9482      6C6C00
 9483              	.LASF1170:
 9484 05c7 50385F34 		.ascii	"P8_4_SCB4_SPI_SELECT1\000"
 9484      5F534342 
 9484      345F5350 
 9484      495F5345 
 9484      4C454354 
 9485              	.LASF1262:
 9486 05dd 50395F32 		.ascii	"P9_2_AMUXB_DSI\000"
 9486      5F414D55 
 9486      58425F44 
 9486      534900
 9487              	.LASF1216:
 9488 05ec 50395F30 		.ascii	"P9_0_GPIO\000"
 9488      5F475049 
 9488      4F00
 9489              	.LASF567:
 9490 05f6 50335F33 		.ascii	"P3_3_DSI_GPIO\000"
 9490      5F445349 
 9490      5F475049 
 9490      4F00
 9491              	.LASF753:
 9492 0604 50355F35 		.ascii	"P5_5_TCPWM1_LINE_COMPL6\000"
 9492      5F544350 
 9492      574D315F 
 9492      4C494E45 
 9492      5F434F4D 
 9493              	.LASF92:
 9494 061c 64775374 		.ascii	"dwStatusChIdxPos\000"
 9494      61747573 
 9494      43684964 
 9494      78506F73 
 9494      00
 9495              	.LASF631:
 9496 062d 50345F30 		.ascii	"P4_0_BLESS_MXD_DPSLP_RCB_CLK\000"
 9496      5F424C45 
 9496      53535F4D 
 9496      58445F44 
 9496      50534C50 
 9497              	.LASF1377:
 9498 064a 5031305F 		.ascii	"P10_1_AMUXB_DSI\000"
 9498      315F414D 
 9498      5558425F 
 9498      44534900 
 9499              	.LASF307:
 9500 065a 50315F31 		.ascii	"P1_1_SCB7_I2C_SDA\000"
 9500      5F534342 
 9500      375F4932 
 9500      435F5344 
 9500      4100
 9501              	.LASF596:
 9502 066c 50335F34 		.ascii	"P3_4_BLESS_MXD_ACT_TXD_RXD\000"
 9502      5F424C45 
 9502      53535F4D 
ARM GAS  C:\Users\stijn\AppData\Local\Temp\ccD3lQ9e.s 			page 211


 9502      58445F41 
 9502      43545F54 
 9503              	.LASF1806:
 9504 0687 5031335F 		.ascii	"P13_3_DSI_GPIO\000"
 9504      335F4453 
 9504      495F4750 
 9504      494F00
 9505              	.LASF1035:
 9506 0696 50375F35 		.ascii	"P7_5_GPIO\000"
 9506      5F475049 
 9506      4F00
 9507              	.LASF177:
 9508 06a0 50305F30 		.ascii	"P0_0_AMUXA_DSI\000"
 9508      5F414D55 
 9508      58415F44 
 9508      534900
 9509              	.LASF1738:
 9510 06af 5031325F 		.ascii	"P12_7_GPIO_DSI\000"
 9510      375F4750 
 9510      494F5F44 
 9510      534900
 9511              	.LASF996:
 9512 06be 50375F32 		.ascii	"P7_2_CSD_CSD_TX\000"
 9512      5F435344 
 9512      5F435344 
 9512      5F545800 
 9513              	.LASF695:
 9514 06ce 50355F32 		.ascii	"P5_2_AMUXA\000"
 9514      5F414D55 
 9514      584100
 9515              	.LASF696:
 9516 06d9 50355F32 		.ascii	"P5_2_AMUXB\000"
 9516      5F414D55 
 9516      584200
 9517              	.LASF1226:
 9518 06e4 50395F30 		.ascii	"P9_0_CSD_CSD_TX\000"
 9518      5F435344 
 9518      5F435344 
 9518      5F545800 
 9519              	.LASF743:
 9520 06f4 50355F34 		.ascii	"P5_4_AUDIOSS0_RX_SCK\000"
 9520      5F415544 
 9520      494F5353 
 9520      305F5258 
 9520      5F53434B 
 9521              	.LASF1158:
 9522 0709 50385F34 		.ascii	"P8_4_DSI_DSI\000"
 9522      5F445349 
 9522      5F445349 
 9522      00
 9523              	.LASF947:
 9524 0716 50365F37 		.ascii	"P6_7_CPUSS_SWJ_SWCLK_TCLK\000"
 9524      5F435055 
 9524      53535F53 
 9524      574A5F53 
 9524      57434C4B 
 9525              	.LASF1333:
ARM GAS  C:\Users\stijn\AppData\Local\Temp\ccD3lQ9e.s 			page 212


 9526 0730 50395F36 		.ascii	"P9_6_CSD_CSD_TX_N\000"
 9526      5F435344 
 9526      5F435344 
 9526      5F54585F 
 9526      4E00
 9527              	.LASF629:
 9528 0742 50345F30 		.ascii	"P4_0_SCB7_SPI_MOSI\000"
 9528      5F534342 
 9528      375F5350 
 9528      495F4D4F 
 9528      534900
 9529              	.LASF639:
 9530 0755 50345F31 		.ascii	"P4_1_AMUXB_DSI\000"
 9530      5F414D55 
 9530      58425F44 
 9530      534900
 9531              	.LASF36:
 9532 0764 504F5254 		.ascii	"PORT_SEL0\000"
 9532      5F53454C 
 9532      3000
 9533              	.LASF37:
 9534 076e 504F5254 		.ascii	"PORT_SEL1\000"
 9534      5F53454C 
 9534      3100
 9535              	.LASF1389:
 9536 0778 5031305F 		.ascii	"P10_2_GPIO\000"
 9536      325F4750 
 9536      494F00
 9537              	.LASF1380:
 9538 0783 5031305F 		.ascii	"P10_1_CSD_CSD_TX\000"
 9538      315F4353 
 9538      445F4353 
 9538      445F5458 
 9538      00
 9539              	.LASF1253:
 9540 0794 50395F31 		.ascii	"P9_1_CPUSS_TRACE_DATA2\000"
 9540      5F435055 
 9540      53535F54 
 9540      52414345 
 9540      5F444154 
 9541              	.LASF429:
 9542 07ab 50325F33 		.ascii	"P2_3_GPIO\000"
 9542      5F475049 
 9542      4F00
 9543              	.LASF216:
 9544 07b5 50305F32 		.ascii	"P0_2_CSD_CSD_TX_N\000"
 9544      5F435344 
 9544      5F435344 
 9544      5F54585F 
 9544      4E00
 9545              	.LASF1832:
 9546 07c7 5031335F 		.ascii	"P13_4_LCD_SEG35\000"
 9546      345F4C43 
 9546      445F5345 
 9546      47333500 
 9547              	.LASF368:
 9548 07d7 50315F35 		.ascii	"P1_5_CSD_CSD_TX_N\000"
ARM GAS  C:\Users\stijn\AppData\Local\Temp\ccD3lQ9e.s 			page 213


 9548      5F435344 
 9548      5F435344 
 9548      5F54585F 
 9548      4E00
 9549              	.LASF585:
 9550 07e9 50335F34 		.ascii	"P3_4_AMUXA\000"
 9550      5F414D55 
 9550      584100
 9551              	.LASF586:
 9552 07f4 50335F34 		.ascii	"P3_4_AMUXB\000"
 9552      5F414D55 
 9552      584200
 9553              	.LASF1593:
 9554 07ff 5031315F 		.ascii	"P11_6_GPIO_DSI\000"
 9554      365F4750 
 9554      494F5F44 
 9554      534900
 9555              	.LASF1145:
 9556 080e 50385F33 		.ascii	"P8_3_AMUXA_DSI\000"
 9556      5F414D55 
 9556      58415F44 
 9556      534900
 9557              	.LASF1088:
 9558 081d 50385F30 		.ascii	"P8_0_DSI_DSI\000"
 9558      5F445349 
 9558      5F445349 
 9558      00
 9559              	.LASF1807:
 9560 082a 5031335F 		.ascii	"P13_3_AMUXA\000"
 9560      335F414D 
 9560      55584100 
 9561              	.LASF442:
 9562 0836 50325F33 		.ascii	"P2_3_LCD_SEG15\000"
 9562      5F4C4344 
 9562      5F534547 
 9562      313500
 9563              	.LASF1172:
 9564 0845 50385F35 		.ascii	"P8_5_GPIO_DSI\000"
 9564      5F475049 
 9564      4F5F4453 
 9564      4900
 9565              	.LASF19:
 9566 0853 75696E74 		.ascii	"uint32_t\000"
 9566      33325F74 
 9566      00
 9567              	.LASF1933:
 9568 085c 636F6E66 		.ascii	"config\000"
 9568      696700
 9569              	.LASF1937:
 9570 0863 43795F47 		.ascii	"Cy_GPIO_Port_Init\000"
 9570      50494F5F 
 9570      506F7274 
 9570      5F496E69 
 9570      7400
 9571              	.LASF423:
 9572 0875 50325F32 		.ascii	"P2_2_CSD_CSD_TX_N\000"
 9572      5F435344 
ARM GAS  C:\Users\stijn\AppData\Local\Temp\ccD3lQ9e.s 			page 214


 9572      5F435344 
 9572      5F54585F 
 9572      4E00
 9573              	.LASF672:
 9574 0887 50355F31 		.ascii	"P5_1_GPIO_DSI\000"
 9574      5F475049 
 9574      4F5F4453 
 9574      4900
 9575              	.LASF496:
 9576 0895 50325F37 		.ascii	"P2_7_DSI_DSI\000"
 9576      5F445349 
 9576      5F445349 
 9576      00
 9577              	.LASF161:
 9578 08a2 4853494F 		.ascii	"HSIOM_SEL_ACT_10\000"
 9578      4D5F5345 
 9578      4C5F4143 
 9578      545F3130 
 9578      00
 9579              	.LASF162:
 9580 08b3 4853494F 		.ascii	"HSIOM_SEL_ACT_11\000"
 9580      4D5F5345 
 9580      4C5F4143 
 9580      545F3131 
 9580      00
 9581              	.LASF163:
 9582 08c4 4853494F 		.ascii	"HSIOM_SEL_ACT_12\000"
 9582      4D5F5345 
 9582      4C5F4143 
 9582      545F3132 
 9582      00
 9583              	.LASF164:
 9584 08d5 4853494F 		.ascii	"HSIOM_SEL_ACT_13\000"
 9584      4D5F5345 
 9584      4C5F4143 
 9584      545F3133 
 9584      00
 9585              	.LASF165:
 9586 08e6 4853494F 		.ascii	"HSIOM_SEL_ACT_14\000"
 9586      4D5F5345 
 9586      4C5F4143 
 9586      545F3134 
 9586      00
 9587              	.LASF166:
 9588 08f7 4853494F 		.ascii	"HSIOM_SEL_ACT_15\000"
 9588      4D5F5345 
 9588      4C5F4143 
 9588      545F3135 
 9588      00
 9589              	.LASF1810:
 9590 0908 5031335F 		.ascii	"P13_3_AMUXB_DSI\000"
 9590      335F414D 
 9590      5558425F 
 9590      44534900 
 9591              	.LASF110:
 9592 0918 6770696F 		.ascii	"gpioPrtCfgSioOffset\000"
 9592      50727443 
ARM GAS  C:\Users\stijn\AppData\Local\Temp\ccD3lQ9e.s 			page 215


 9592      66675369 
 9592      6F4F6666 
 9592      73657400 
 9593              	.LASF1468:
 9594 092c 5031305F 		.ascii	"P10_6_CSD_CSD_TX_N\000"
 9594      365F4353 
 9594      445F4353 
 9594      445F5458 
 9594      5F4E00
 9595              	.LASF340:
 9596 093f 50315F33 		.ascii	"P1_3_SCB7_UART_CTS\000"
 9596      5F534342 
 9596      375F5541 
 9596      52545F43 
 9596      545300
 9597              	.LASF1624:
 9598 0952 5031325F 		.ascii	"P12_0_TCPWM1_LINE4\000"
 9598      305F5443 
 9598      50574D31 
 9598      5F4C494E 
 9598      453400
 9599              	.LASF252:
 9600 0965 50305F34 		.ascii	"P0_4_LCD_SEG4\000"
 9600      5F4C4344 
 9600      5F534547 
 9600      3400
 9601              	.LASF1831:
 9602 0973 5031335F 		.ascii	"P13_4_LCD_COM35\000"
 9602      345F4C43 
 9602      445F434F 
 9602      4D333500 
 9603              	.LASF1642:
 9604 0983 5031325F 		.ascii	"P12_1_TCPWM0_LINE_COMPL4\000"
 9604      315F5443 
 9604      50574D30 
 9604      5F4C494E 
 9604      455F434F 
 9605              	.LASF553:
 9606 099c 50335F32 		.ascii	"P3_2_AMUXA_DSI\000"
 9606      5F414D55 
 9606      58415F44 
 9606      534900
 9607              	.LASF1823:
 9608 09ab 5031335F 		.ascii	"P13_4_AMUXA\000"
 9608      345F414D 
 9608      55584100 
 9609              	.LASF441:
 9610 09b7 50325F33 		.ascii	"P2_3_LCD_COM15\000"
 9610      5F4C4344 
 9610      5F434F4D 
 9610      313500
 9611              	.LASF39:
 9612 09c6 414D5558 		.ascii	"AMUX_SPLIT_CTL\000"
 9612      5F53504C 
 9612      49545F43 
 9612      544C00
 9613              	.LASF1460:
ARM GAS  C:\Users\stijn\AppData\Local\Temp\ccD3lQ9e.s 			page 216


 9614 09d5 5031305F 		.ascii	"P10_6_DSI_GPIO\000"
 9614      365F4453 
 9614      495F4750 
 9614      494F00
 9615              	.LASF41:
 9616 09e4 63707573 		.ascii	"cpussBase\000"
 9616      73426173 
 9616      6500
 9617              	.LASF2:
 9618 09ee 6C6F6E67 		.ascii	"long double\000"
 9618      20646F75 
 9618      626C6500 
 9619              	.LASF736:
 9620 09fa 50355F34 		.ascii	"P5_4_TCPWM1_LINE6\000"
 9620      5F544350 
 9620      574D315F 
 9620      4C494E45 
 9620      3600
 9621              	.LASF963:
 9622 0a0c 50375F30 		.ascii	"P7_0_SCB4_UART_RX\000"
 9622      5F534342 
 9622      345F5541 
 9622      52545F52 
 9622      5800
 9623              	.LASF1038:
 9624 0a1e 50375F35 		.ascii	"P7_5_DSI_GPIO\000"
 9624      5F445349 
 9624      5F475049 
 9624      4F00
 9625              	.LASF421:
 9626 0a2c 50325F32 		.ascii	"P2_2_TCPWM1_LINE16\000"
 9626      5F544350 
 9626      574D315F 
 9626      4C494E45 
 9626      313600
 9627              	.LASF1011:
 9628 0a3f 50375F33 		.ascii	"P7_3_TCPWM1_LINE_COMPL13\000"
 9628      5F544350 
 9628      574D315F 
 9628      4C494E45 
 9628      5F434F4D 
 9629              	.LASF869:
 9630 0a58 50365F34 		.ascii	"P6_4_DSI_DSI\000"
 9630      5F445349 
 9630      5F445349 
 9630      00
 9631              	.LASF1353:
 9632 0a65 5031305F 		.ascii	"P10_0_DSI_DSI\000"
 9632      305F4453 
 9632      495F4453 
 9632      4900
 9633              	.LASF635:
 9634 0a73 50345F31 		.ascii	"P4_1_DSI_GPIO\000"
 9634      5F445349 
 9634      5F475049 
 9634      4F00
 9635              	.LASF1031:
ARM GAS  C:\Users\stijn\AppData\Local\Temp\ccD3lQ9e.s 			page 217


 9636 0a81 50375F34 		.ascii	"P7_4_LCD_SEG50\000"
 9636      5F4C4344 
 9636      5F534547 
 9636      353000
 9637              	.LASF1152:
 9638 0a90 50385F33 		.ascii	"P8_3_LCD_SEG57\000"
 9638      5F4C4344 
 9638      5F534547 
 9638      353700
 9639              	.LASF1589:
 9640 0a9f 5031315F 		.ascii	"P11_5_LCD_SEG21\000"
 9640      355F4C43 
 9640      445F5345 
 9640      47323100 
 9641              	.LASF96:
 9642 0aaf 70657269 		.ascii	"periTrGrOffset\000"
 9642      54724772 
 9642      4F666673 
 9642      657400
 9643              	.LASF1104:
 9644 0abe 50385F31 		.ascii	"P8_1_GPIO\000"
 9644      5F475049 
 9644      4F00
 9645              	.LASF1682:
 9646 0ac8 5031325F 		.ascii	"P12_3_LCD_COM26\000"
 9646      335F4C43 
 9646      445F434F 
 9646      4D323600 
 9647              	.LASF309:
 9648 0ad8 50315F31 		.ascii	"P1_1_PERI_TR_IO_INPUT3\000"
 9648      5F504552 
 9648      495F5452 
 9648      5F494F5F 
 9648      494E5055 
 9649              	.LASF356:
 9650 0aef 50315F34 		.ascii	"P1_4_SCB7_SPI_SELECT1\000"
 9650      5F534342 
 9650      375F5350 
 9650      495F5345 
 9650      4C454354 
 9651              	.LASF98:
 9652 0b05 70657269 		.ascii	"periDivCmdDivSelMsk\000"
 9652      44697643 
 9652      6D644469 
 9652      7653656C 
 9652      4D736B00 
 9653              	.LASF1858:
 9654 0b19 5031335F 		.ascii	"P13_6_TCPWM1_LINE11\000"
 9654      365F5443 
 9654      50574D31 
 9654      5F4C494E 
 9654      45313100 
 9655              	.LASF1316:
 9656 0b2d 50395F35 		.ascii	"P9_5_TCPWM1_LINE_COMPL0\000"
 9656      5F544350 
 9656      574D315F 
 9656      4C494E45 
ARM GAS  C:\Users\stijn\AppData\Local\Temp\ccD3lQ9e.s 			page 218


 9656      5F434F4D 
 9657              	.LASF811:
 9658 0b45 50365F30 		.ascii	"P6_0_CPUSS_FAULT_OUT0\000"
 9658      5F435055 
 9658      53535F46 
 9658      41554C54 
 9658      5F4F5554 
 9659              	.LASF1925:
 9660 0b5b 706F7274 		.ascii	"portAddrHSIOM\000"
 9660      41646472 
 9660      4853494F 
 9660      4D00
 9661              	.LASF1556:
 9662 0b69 5031315F 		.ascii	"P11_3_SCB5_UART_CTS\000"
 9662      335F5343 
 9662      42355F55 
 9662      4152545F 
 9662      43545300 
 9663              	.LASF86:
 9664 0b7d 666C6173 		.ascii	"flashCtlMainWs3Freq\000"
 9664      6843746C 
 9664      4D61696E 
 9664      57733346 
 9664      72657100 
 9665              	.LASF913:
 9666 0b91 50365F36 		.ascii	"P6_6_GPIO\000"
 9666      5F475049 
 9666      4F00
 9667              	.LASF342:
 9668 0b9b 50315F34 		.ascii	"P1_4_GPIO\000"
 9668      5F475049 
 9668      4F00
 9669              	.LASF1905:
 9670 0ba5 63795F73 		.ascii	"cy_stc_gpio_prt_config_t\000"
 9670      74635F67 
 9670      70696F5F 
 9670      7072745F 
 9670      636F6E66 
 9671              	.LASF139:
 9672 0bbe 4853494F 		.ascii	"HSIOM_SEL_GPIO\000"
 9672      4D5F5345 
 9672      4C5F4750 
 9672      494F00
 9673              	.LASF1331:
 9674 0bcd 50395F36 		.ascii	"P9_6_TCPWM1_LINE1\000"
 9674      5F544350 
 9674      574D315F 
 9674      4C494E45 
 9674      3100
 9675              	.LASF266:
 9676 0bdf 50305F35 		.ascii	"P0_5_CSD_CSD_TX\000"
 9676      5F435344 
 9676      5F435344 
 9676      5F545800 
 9677              	.LASF447:
 9678 0bef 50325F34 		.ascii	"P2_4_GPIO_DSI\000"
 9678      5F475049 
ARM GAS  C:\Users\stijn\AppData\Local\Temp\ccD3lQ9e.s 			page 219


 9678      4F5F4453 
 9678      4900
 9679              	.LASF439:
 9680 0bfd 50325F33 		.ascii	"P2_3_CSD_CSD_TX\000"
 9680      5F435344 
 9680      5F435344 
 9680      5F545800 
 9681              	.LASF706:
 9682 0c0d 50355F32 		.ascii	"P5_2_SCB5_SPI_CLK\000"
 9682      5F534342 
 9682      355F5350 
 9682      495F434C 
 9682      4B00
 9683              	.LASF1766:
 9684 0c1f 5031335F 		.ascii	"P13_0_SCB6_I2C_SCL\000"
 9684      305F5343 
 9684      42365F49 
 9684      32435F53 
 9684      434C00
 9685              	.LASF642:
 9686 0c32 50345F31 		.ascii	"P4_1_CSD_CSD_TX\000"
 9686      5F435344 
 9686      5F435344 
 9686      5F545800 
 9687              	.LASF1030:
 9688 0c42 50375F34 		.ascii	"P7_4_LCD_COM50\000"
 9688      5F4C4344 
 9688      5F434F4D 
 9688      353000
 9689              	.LASF1355:
 9690 0c51 5031305F 		.ascii	"P10_0_AMUXA\000"
 9690      305F414D 
 9690      55584100 
 9691              	.LASF1356:
 9692 0c5d 5031305F 		.ascii	"P10_0_AMUXB\000"
 9692      305F414D 
 9692      55584200 
 9693              	.LASF419:
 9694 0c69 50325F32 		.ascii	"P2_2_AMUXB_DSI\000"
 9694      5F414D55 
 9694      58425F44 
 9694      534900
 9695              	.LASF1133:
 9696 0c78 50385F32 		.ascii	"P8_2_CSD_CSD_TX_N\000"
 9696      5F435344 
 9696      5F435344 
 9696      5F54585F 
 9696      4E00
 9697              	.LASF1500:
 9698 0c8a 5031315F 		.ascii	"P11_0_SMIF_SPI_SELECT2\000"
 9698      305F534D 
 9698      49465F53 
 9698      50495F53 
 9698      454C4543 
 9699              	.LASF1160:
 9700 0ca1 50385F34 		.ascii	"P8_4_AMUXA\000"
 9700      5F414D55 
ARM GAS  C:\Users\stijn\AppData\Local\Temp\ccD3lQ9e.s 			page 220


 9700      584100
 9701              	.LASF1161:
 9702 0cac 50385F34 		.ascii	"P8_4_AMUXB\000"
 9702      5F414D55 
 9702      584200
 9703              	.LASF1482:
 9704 0cb7 5031305F 		.ascii	"P10_7_CSD_CSD_TX\000"
 9704      375F4353 
 9704      445F4353 
 9704      445F5458 
 9704      00
 9705              	.LASF53:
 9706 0cc8 64775665 		.ascii	"dwVersion\000"
 9706      7273696F 
 9706      6E00
 9707              	.LASF1173:
 9708 0cd2 50385F35 		.ascii	"P8_5_DSI_DSI\000"
 9708      5F445349 
 9708      5F445349 
 9708      00
 9709              	.LASF1301:
 9710 0cdf 50395F34 		.ascii	"P9_4_TCPWM1_LINE0\000"
 9710      5F544350 
 9710      574D315F 
 9710      4C494E45 
 9710      3000
 9711              	.LASF1688:
 9712 0cf1 5031325F 		.ascii	"P12_4_GPIO_DSI\000"
 9712      345F4750 
 9712      494F5F44 
 9712      534900
 9713              	.LASF1225:
 9714 0d00 50395F30 		.ascii	"P9_0_TCPWM1_LINE20\000"
 9714      5F544350 
 9714      574D315F 
 9714      4C494E45 
 9714      323000
 9715              	.LASF1274:
 9716 0d13 50395F33 		.ascii	"P9_3_GPIO_DSI\000"
 9716      5F475049 
 9716      4F5F4453 
 9716      4900
 9717              	.LASF345:
 9718 0d21 50315F34 		.ascii	"P1_4_DSI_GPIO\000"
 9718      5F445349 
 9718      5F475049 
 9718      4F00
 9719              	.LASF573:
 9720 0d2f 50335F33 		.ascii	"P3_3_TCPWM1_LINE_COMPL20\000"
 9720      5F544350 
 9720      574D315F 
 9720      4C494E45 
 9720      5F434F4D 
 9721              	.LASF192:
 9722 0d48 50305F31 		.ascii	"P0_1_AMUXA\000"
 9722      5F414D55 
 9722      584100
ARM GAS  C:\Users\stijn\AppData\Local\Temp\ccD3lQ9e.s 			page 221


 9723              	.LASF193:
 9724 0d53 50305F31 		.ascii	"P0_1_AMUXB\000"
 9724      5F414D55 
 9724      584200
 9725              	.LASF61:
 9726 0d5e 63707573 		.ascii	"cpussIpcIrqNr\000"
 9726      73497063 
 9726      4972714E 
 9726      7200
 9727              	.LASF440:
 9728 0d6c 50325F33 		.ascii	"P2_3_CSD_CSD_TX_N\000"
 9728      5F435344 
 9728      5F435344 
 9728      5F54585F 
 9728      4E00
 9729              	.LASF649:
 9730 0d7e 50345F31 		.ascii	"P4_1_PERI_TR_IO_INPUT9\000"
 9730      5F504552 
 9730      495F5452 
 9730      5F494F5F 
 9730      494E5055 
 9731              	.LASF690:
 9732 0d95 50355F31 		.ascii	"P5_1_PERI_TR_IO_INPUT11\000"
 9732      5F504552 
 9732      495F5452 
 9732      5F494F5F 
 9732      494E5055 
 9733              	.LASF180:
 9734 0dad 50305F30 		.ascii	"P0_0_TCPWM1_LINE0\000"
 9734      5F544350 
 9734      574D315F 
 9734      4C494E45 
 9734      3000
 9735              	.LASF408:
 9736 0dbf 50325F31 		.ascii	"P2_1_SCB1_I2C_SDA\000"
 9736      5F534342 
 9736      315F4932 
 9736      435F5344 
 9736      4100
 9737              	.LASF1432:
 9738 0dd1 5031305F 		.ascii	"P10_4_TCPWM1_LINE0\000"
 9738      345F5443 
 9738      50574D31 
 9738      5F4C494E 
 9738      453000
 9739              	.LASF443:
 9740 0de4 50325F33 		.ascii	"P2_3_SCB1_UART_CTS\000"
 9740      5F534342 
 9740      315F5541 
 9740      52545F43 
 9740      545300
 9741              	.LASF1636:
 9742 0df7 5031325F 		.ascii	"P12_1_DSI_DSI\000"
 9742      315F4453 
 9742      495F4453 
 9742      4900
 9743              	.LASF116:
ARM GAS  C:\Users\stijn\AppData\Local\Temp\ccD3lQ9e.s 			page 222


 9744 0e05 63707573 		.ascii	"cpussTrimRamCtlOffset\000"
 9744      73547269 
 9744      6D52616D 
 9744      43746C4F 
 9744      66667365 
 9745              	.LASF705:
 9746 0e1b 50355F32 		.ascii	"P5_2_SCB5_UART_RTS\000"
 9746      5F534342 
 9746      355F5541 
 9746      52545F52 
 9746      545300
 9747              	.LASF757:
 9748 0e2e 50355F35 		.ascii	"P5_5_LCD_SEG35\000"
 9748      5F4C4344 
 9748      5F534547 
 9748      333500
 9749              	.LASF1566:
 9750 0e3d 5031315F 		.ascii	"P11_4_AMUXB_DSI\000"
 9750      345F414D 
 9750      5558425F 
 9750      44534900 
 9751              	.LASF323:
 9752 0e4d 50315F32 		.ascii	"P1_2_LCD_SEG8\000"
 9752      5F4C4344 
 9752      5F534547 
 9752      3800
 9753              	.LASF1137:
 9754 0e5b 50385F32 		.ascii	"P8_2_SCB4_UART_RTS\000"
 9754      5F534342 
 9754      345F5541 
 9754      52545F52 
 9754      545300
 9755              	.LASF1004:
 9756 0e6e 50375F33 		.ascii	"P7_3_DSI_DSI\000"
 9756      5F445349 
 9756      5F445349 
 9756      00
 9757              	.LASF1796:
 9758 0e7b 5031335F 		.ascii	"P13_2_TCPWM1_LINE9\000"
 9758      325F5443 
 9758      50574D31 
 9758      5F4C494E 
 9758      453900
 9759              	.LASF1936:
 9760 0e8e 43795F47 		.ascii	"Cy_GPIO_Pin_Init\000"
 9760      50494F5F 
 9760      50696E5F 
 9760      496E6974 
 9760      00
 9761              	.LASF1099:
 9762 0e9f 50385F30 		.ascii	"P8_0_LCD_SEG54\000"
 9762      5F4C4344 
 9762      5F534547 
 9762      353400
 9763              	.LASF917:
 9764 0eae 50365F36 		.ascii	"P6_6_AMUXA\000"
 9764      5F414D55 
ARM GAS  C:\Users\stijn\AppData\Local\Temp\ccD3lQ9e.s 			page 223


 9764      584100
 9765              	.LASF918:
 9766 0eb9 50365F36 		.ascii	"P6_6_AMUXB\000"
 9766      5F414D55 
 9766      584200
 9767              	.LASF1696:
 9768 0ec4 5031325F 		.ascii	"P12_4_TCPWM1_LINE6\000"
 9768      345F5443 
 9768      50574D31 
 9768      5F4C494E 
 9768      453600
 9769              	.LASF332:
 9770 0ed7 50315F33 		.ascii	"P1_3_AMUXA_DSI\000"
 9770      5F414D55 
 9770      58415F44 
 9770      534900
 9771              	.LASF1150:
 9772 0ee6 50385F33 		.ascii	"P8_3_CSD_CSD_TX_N\000"
 9772      5F435344 
 9772      5F435344 
 9772      5F54585F 
 9772      4E00
 9773              	.LASF1562:
 9774 0ef8 5031315F 		.ascii	"P11_4_DSI_GPIO\000"
 9774      345F4453 
 9774      495F4750 
 9774      494F00
 9775              	.LASF986:
 9776 0f07 50375F32 		.ascii	"P7_2_GPIO\000"
 9776      5F475049 
 9776      4F00
 9777              	.LASF1142:
 9778 0f11 50385F33 		.ascii	"P8_3_DSI_GPIO\000"
 9778      5F445349 
 9778      5F475049 
 9778      4F00
 9779              	.LASF1442:
 9780 0f1f 5031305F 		.ascii	"P10_5_DSI_DSI\000"
 9780      355F4453 
 9780      495F4453 
 9780      4900
 9781              	.LASF734:
 9782 0f2d 50355F34 		.ascii	"P5_4_AMUXB_DSI\000"
 9782      5F414D55 
 9782      58425F44 
 9782      534900
 9783              	.LASF1427:
 9784 0f3c 5031305F 		.ascii	"P10_4_AMUXA\000"
 9784      345F414D 
 9784      55584100 
 9785              	.LASF1200:
 9786 0f48 50385F36 		.ascii	"P8_6_SCB4_SPI_SELECT3\000"
 9786      5F534342 
 9786      345F5350 
 9786      495F5345 
 9786      4C454354 
 9787              	.LASF756:
ARM GAS  C:\Users\stijn\AppData\Local\Temp\ccD3lQ9e.s 			page 224


 9788 0f5e 50355F35 		.ascii	"P5_5_LCD_COM35\000"
 9788      5F4C4344 
 9788      5F434F4D 
 9788      333500
 9789              	.LASF1912:
 9790 0f6d 736C6577 		.ascii	"slewRate\000"
 9790      52617465 
 9790      00
 9791              	.LASF1118:
 9792 0f76 50385F31 		.ascii	"P8_1_SCB4_UART_TX\000"
 9792      5F534342 
 9792      345F5541 
 9792      52545F54 
 9792      5800
 9793              	.LASF1079:
 9794 0f88 50375F37 		.ascii	"P7_7_CSD_CSD_TX\000"
 9794      5F435344 
 9794      5F435344 
 9794      5F545800 
 9795              	.LASF1328:
 9796 0f98 50395F36 		.ascii	"P9_6_AMUXA_DSI\000"
 9796      5F414D55 
 9796      58415F44 
 9796      534900
 9797              	.LASF374:
 9798 0fa7 50325F30 		.ascii	"P2_0_GPIO\000"
 9798      5F475049 
 9798      4F00
 9799              	.LASF1317:
 9800 0fb1 50395F35 		.ascii	"P9_5_CSD_CSD_TX\000"
 9800      5F435344 
 9800      5F435344 
 9800      5F545800 
 9801              	.LASF914:
 9802 0fc1 50365F36 		.ascii	"P6_6_GPIO_DSI\000"
 9802      5F475049 
 9802      4F5F4453 
 9802      4900
 9803              	.LASF802:
 9804 0fcf 50365F30 		.ascii	"P6_0_TCPWM1_LINE8\000"
 9804      5F544350 
 9804      574D315F 
 9804      4C494E45 
 9804      3800
 9805              	.LASF1455:
 9806 0fe1 5031305F 		.ascii	"P10_5_AUDIOSS_PDM_DATA\000"
 9806      355F4155 
 9806      44494F53 
 9806      535F5044 
 9806      4D5F4441 
 9807              	.LASF1446:
 9808 0ff8 5031305F 		.ascii	"P10_5_AMUXA_DSI\000"
 9808      355F414D 
 9808      5558415F 
 9808      44534900 
 9809              	.LASF229:
 9810 1008 50305F33 		.ascii	"P0_3_AMUXB_DSI\000"
ARM GAS  C:\Users\stijn\AppData\Local\Temp\ccD3lQ9e.s 			page 225


 9810      5F414D55 
 9810      58425F44 
 9810      534900
 9811              	.LASF1900:
 9812 1017 63666749 		.ascii	"cfgIn\000"
 9812      6E00
 9813              	.LASF666:
 9814 101d 50355F30 		.ascii	"P5_0_SCB5_I2C_SCL\000"
 9814      5F534342 
 9814      355F4932 
 9814      435F5343 
 9814      4C00
 9815              	.LASF256:
 9816 102f 50305F35 		.ascii	"P0_5_GPIO\000"
 9816      5F475049 
 9816      4F00
 9817              	.LASF548:
 9818 1039 50335F32 		.ascii	"P3_2_GPIO_DSI\000"
 9818      5F475049 
 9818      4F5F4453 
 9818      4900
 9819              	.LASF476:
 9820 1047 50325F35 		.ascii	"P2_5_SCB1_SPI_SELECT2\000"
 9820      5F534342 
 9820      315F5350 
 9820      495F5345 
 9820      4C454354 
 9821              	.LASF1825:
 9822 105d 5031335F 		.ascii	"P13_4_AMUXA_DSI\000"
 9822      345F414D 
 9822      5558415F 
 9822      44534900 
 9823              	.LASF764:
 9824 106d 50355F36 		.ascii	"P5_6_DSI_GPIO\000"
 9824      5F445349 
 9824      5F475049 
 9824      4F00
 9825              	.LASF718:
 9826 107b 50355F33 		.ascii	"P5_3_TCPWM1_LINE_COMPL5\000"
 9826      5F544350 
 9826      574D315F 
 9826      4C494E45 
 9826      5F434F4D 
 9827              	.LASF1849:
 9828 1093 5031335F 		.ascii	"P13_6_GPIO\000"
 9828      365F4750 
 9828      494F00
 9829              	.LASF284:
 9830 109e 50315F30 		.ascii	"P1_0_CSD_CSD_TX\000"
 9830      5F435344 
 9830      5F435344 
 9830      5F545800 
 9831              	.LASF1788:
 9832 10ae 5031335F 		.ascii	"P13_2_GPIO_DSI\000"
 9832      325F4750 
 9832      494F5F44 
 9832      534900
ARM GAS  C:\Users\stijn\AppData\Local\Temp\ccD3lQ9e.s 			page 226


 9833              	.LASF328:
 9834 10bd 50315F33 		.ascii	"P1_3_DSI_DSI\000"
 9834      5F445349 
 9834      5F445349 
 9834      00
 9835              	.LASF1782:
 9836 10ca 5031335F 		.ascii	"P13_1_LCD_SEG32\000"
 9836      315F4C43 
 9836      445F5345 
 9836      47333200 
 9837              	.LASF308:
 9838 10da 50315F31 		.ascii	"P1_1_SCB7_SPI_MISO\000"
 9838      5F534342 
 9838      375F5350 
 9838      495F4D49 
 9838      534F00
 9839              	.LASF1745:
 9840 10ed 5031325F 		.ascii	"P12_7_TCPWM0_LINE_COMPL7\000"
 9840      375F5443 
 9840      50574D30 
 9840      5F4C494E 
 9840      455F434F 
 9841              	.LASF415:
 9842 1106 50325F32 		.ascii	"P2_2_DSI_GPIO\000"
 9842      5F445349 
 9842      5F475049 
 9842      4F00
 9843              	.LASF1193:
 9844 1114 50385F36 		.ascii	"P8_6_AMUXB_DSI\000"
 9844      5F414D55 
 9844      58425F44 
 9844      534900
 9845              	.LASF675:
 9846 1123 50355F31 		.ascii	"P5_1_AMUXA\000"
 9846      5F414D55 
 9846      584100
 9847              	.LASF676:
 9848 112e 50355F31 		.ascii	"P5_1_AMUXB\000"
 9848      5F414D55 
 9848      584200
 9849              	.LASF1092:
 9850 1139 50385F30 		.ascii	"P8_0_AMUXA_DSI\000"
 9850      5F414D55 
 9850      58415F44 
 9850      534900
 9851              	.LASF653:
 9852 1148 50355F30 		.ascii	"P5_0_DSI_DSI\000"
 9852      5F445349 
 9852      5F445349 
 9852      00
 9853              	.LASF387:
 9854 1155 50325F30 		.ascii	"P2_0_LCD_SEG12\000"
 9854      5F4C4344 
 9854      5F534547 
 9854      313200
 9855              	.LASF322:
 9856 1164 50315F32 		.ascii	"P1_2_LCD_COM8\000"
ARM GAS  C:\Users\stijn\AppData\Local\Temp\ccD3lQ9e.s 			page 227


 9856      5F4C4344 
 9856      5F434F4D 
 9856      3800
 9857              	.LASF1534:
 9858 1172 5031315F 		.ascii	"P11_2_CSD_CSD_TX\000"
 9858      325F4353 
 9858      445F4353 
 9858      445F5458 
 9858      00
 9859              	.LASF1879:
 9860 1183 63686172 		.ascii	"char_t\000"
 9860      5F7400
 9861              	.LASF1761:
 9862 118a 5031335F 		.ascii	"P13_0_CSD_CSD_TX\000"
 9862      305F4353 
 9862      445F4353 
 9862      445F5458 
 9862      00
 9863              	.LASF1724:
 9864 119b 5031325F 		.ascii	"P12_6_DSI_DSI\000"
 9864      365F4453 
 9864      495F4453 
 9864      4900
 9865              	.LASF1901:
 9866 11a9 6366674F 		.ascii	"cfgOut\000"
 9866      757400
 9867              	.LASF680:
 9868 11b0 50355F31 		.ascii	"P5_1_TCPWM1_LINE_COMPL4\000"
 9868      5F544350 
 9868      574D315F 
 9868      4C494E45 
 9868      5F434F4D 
 9869              	.LASF477:
 9870 11c8 50325F35 		.ascii	"P2_5_BLESS_MXD_DPSLP_ISOLATE_N\000"
 9870      5F424C45 
 9870      53535F4D 
 9870      58445F44 
 9870      50534C50 
 9871              	.LASF568:
 9872 11e7 50335F33 		.ascii	"P3_3_AMUXA\000"
 9872      5F414D55 
 9872      584100
 9873              	.LASF569:
 9874 11f2 50335F33 		.ascii	"P3_3_AMUXB\000"
 9874      5F414D55 
 9874      584200
 9875              	.LASF1921:
 9876 11fd 70696E4E 		.ascii	"pinNum\000"
 9876      756D00
 9877              	.LASF1758:
 9878 1204 5031335F 		.ascii	"P13_0_AMUXB_DSI\000"
 9878      305F414D 
 9878      5558425F 
 9878      44534900 
 9879              	.LASF1704:
 9880 1214 5031325F 		.ascii	"P12_4_AUDIOSS0_PDM_CLK\000"
 9880      345F4155 
ARM GAS  C:\Users\stijn\AppData\Local\Temp\ccD3lQ9e.s 			page 228


 9880      44494F53 
 9880      53305F50 
 9880      444D5F43 
 9881              	.LASF1791:
 9882 122b 5031335F 		.ascii	"P13_2_AMUXA\000"
 9882      325F414D 
 9882      55584100 
 9883              	.LASF350:
 9884 1237 50315F34 		.ascii	"P1_4_TCPWM0_LINE5\000"
 9884      5F544350 
 9884      574D305F 
 9884      4C494E45 
 9884      3500
 9885              	.LASF1870:
 9886 1249 5031335F 		.ascii	"P13_7_AMUXA_DSI\000"
 9886      375F414D 
 9886      5558415F 
 9886      44534900 
 9887              	.LASF257:
 9888 1259 50305F35 		.ascii	"P0_5_GPIO_DSI\000"
 9888      5F475049 
 9888      4F5F4453 
 9888      4900
 9889              	.LASF1781:
 9890 1267 5031335F 		.ascii	"P13_1_LCD_COM32\000"
 9890      315F4C43 
 9890      445F434F 
 9890      4D333200 
 9891              	.LASF604:
 9892 1277 50335F35 		.ascii	"P3_5_AMUXB_DSI\000"
 9892      5F414D55 
 9892      58425F44 
 9892      534900
 9893              	.LASF1398:
 9894 1286 5031305F 		.ascii	"P10_2_TCPWM1_LINE23\000"
 9894      325F5443 
 9894      50574D31 
 9894      5F4C494E 
 9894      45323300 
 9895              	.LASF1656:
 9896 129a 5031325F 		.ascii	"P12_2_DSI_GPIO\000"
 9896      325F4453 
 9896      495F4750 
 9896      494F00
 9897              	.LASF386:
 9898 12a9 50325F30 		.ascii	"P2_0_LCD_COM12\000"
 9898      5F4C4344 
 9898      5F434F4D 
 9898      313200
 9899              	.LASF1238:
 9900 12b8 50395F31 		.ascii	"P9_1_DSI_GPIO\000"
 9900      5F445349 
 9900      5F475049 
 9900      4F00
 9901              	.LASF1214:
 9902 12c6 50385F37 		.ascii	"P8_7_LCD_SEG61\000"
 9902      5F4C4344 
ARM GAS  C:\Users\stijn\AppData\Local\Temp\ccD3lQ9e.s 			page 229


 9902      5F534547 
 9902      363100
 9903              	.LASF981:
 9904 12d5 50375F31 		.ascii	"P7_1_LCD_SEG47\000"
 9904      5F4C4344 
 9904      5F534547 
 9904      343700
 9905              	.LASF789:
 9906 12e4 50355F37 		.ascii	"P5_7_CSD_CSD_TX_N\000"
 9906      5F435344 
 9906      5F435344 
 9906      5F54585F 
 9906      4E00
 9907              	.LASF1495:
 9908 12f6 5031315F 		.ascii	"P11_0_TCPWM1_LINE1\000"
 9908      305F5443 
 9908      50574D31 
 9908      5F4C494E 
 9908      453100
 9909              	.LASF1537:
 9910 1309 5031315F 		.ascii	"P11_2_LCD_SEG18\000"
 9910      325F4C43 
 9910      445F5345 
 9910      47313800 
 9911              	.LASF850:
 9912 1319 50365F33 		.ascii	"P6_3_GPIO\000"
 9912      5F475049 
 9912      4F00
 9913              	.LASF956:
 9914 1323 50375F30 		.ascii	"P7_0_AMUXB_DSI\000"
 9914      5F414D55 
 9914      58425F44 
 9914      534900
 9915              	.LASF292:
 9916 1332 50315F31 		.ascii	"P1_1_GPIO\000"
 9916      5F475049 
 9916      4F00
 9917              	.LASF1179:
 9918 133c 50385F35 		.ascii	"P8_5_TCPWM0_LINE_COMPL2\000"
 9918      5F544350 
 9918      574D305F 
 9918      4C494E45 
 9918      5F434F4D 
 9919              	.LASF589:
 9920 1354 50335F34 		.ascii	"P3_4_TCPWM0_LINE4\000"
 9920      5F544350 
 9920      574D305F 
 9920      4C494E45 
 9920      3400
 9921              	.LASF1471:
 9922 1366 5031305F 		.ascii	"P10_6_SCB1_SPI_SELECT3\000"
 9922      365F5343 
 9922      42315F53 
 9922      50495F53 
 9922      454C4543 
 9923              	.LASF1075:
 9924 137d 50375F37 		.ascii	"P7_7_AMUXA_DSI\000"
ARM GAS  C:\Users\stijn\AppData\Local\Temp\ccD3lQ9e.s 			page 230


 9924      5F414D55 
 9924      58415F44 
 9924      534900
 9925              	.LASF1652:
 9926 138c 5031325F 		.ascii	"P12_1_PERI_TR_IO_INPUT25\000"
 9926      315F5045 
 9926      52495F54 
 9926      525F494F 
 9926      5F494E50 
 9927              	.LASF583:
 9928 13a5 50335F34 		.ascii	"P3_4_DSI_DSI\000"
 9928      5F445349 
 9928      5F445349 
 9928      00
 9929              	.LASF1522:
 9930 13b2 5031315F 		.ascii	"P11_1_SCB5_SPI_MISO\000"
 9930      315F5343 
 9930      42355F53 
 9930      50495F4D 
 9930      49534F00 
 9931              	.LASF786:
 9932 13c6 50355F37 		.ascii	"P5_7_TCPWM0_LINE_COMPL7\000"
 9932      5F544350 
 9932      574D305F 
 9932      4C494E45 
 9932      5F434F4D 
 9933              	.LASF118:
 9934 13de 63707573 		.ascii	"cpussSysTickCtlOffset\000"
 9934      73537973 
 9934      5469636B 
 9934      43746C4F 
 9934      66667365 
 9935              	.LASF361:
 9936 13f4 50315F35 		.ascii	"P1_5_AMUXA\000"
 9936      5F414D55 
 9936      584100
 9937              	.LASF362:
 9938 13ff 50315F35 		.ascii	"P1_5_AMUXB\000"
 9938      5F414D55 
 9938      584200
 9939              	.LASF1760:
 9940 140a 5031335F 		.ascii	"P13_0_TCPWM1_LINE8\000"
 9940      305F5443 
 9940      50574D31 
 9940      5F4C494E 
 9940      453800
 9941              	.LASF578:
 9942 141d 50335F33 		.ascii	"P3_3_SCB2_UART_CTS\000"
 9942      5F534342 
 9942      325F5541 
 9942      52545F43 
 9942      545300
 9943              	.LASF1019:
 9944 1430 50375F34 		.ascii	"P7_4_GPIO_DSI\000"
 9944      5F475049 
 9944      4F5F4453 
 9944      4900
ARM GAS  C:\Users\stijn\AppData\Local\Temp\ccD3lQ9e.s 			page 231


 9945              	.LASF1564:
 9946 143e 5031315F 		.ascii	"P11_4_AMUXB\000"
 9946      345F414D 
 9946      55584200 
 9947              	.LASF1648:
 9948 144a 5031325F 		.ascii	"P12_1_SMIF_SPI_DATA5\000"
 9948      315F534D 
 9948      49465F53 
 9948      50495F44 
 9948      41544135 
 9949              	.LASF1640:
 9950 145f 5031325F 		.ascii	"P12_1_AMUXA_DSI\000"
 9950      315F414D 
 9950      5558415F 
 9950      44534900 
 9951              	.LASF668:
 9952 146f 50355F30 		.ascii	"P5_0_AUDIOSS_CLK_I2S_IF\000"
 9952      5F415544 
 9952      494F5353 
 9952      5F434C4B 
 9952      5F493253 
 9953              	.LASF877:
 9954 1487 50365F34 		.ascii	"P6_4_CSD_CSD_TX\000"
 9954      5F435344 
 9954      5F435344 
 9954      5F545800 
 9955              	.LASF1213:
 9956 1497 50385F37 		.ascii	"P8_7_LCD_COM61\000"
 9956      5F4C4344 
 9956      5F434F4D 
 9956      363100
 9957              	.LASF980:
 9958 14a6 50375F31 		.ascii	"P7_1_LCD_COM47\000"
 9958      5F4C4344 
 9958      5F434F4D 
 9958      343700
 9959              	.LASF1132:
 9960 14b5 50385F32 		.ascii	"P8_2_CSD_CSD_TX\000"
 9960      5F435344 
 9960      5F435344 
 9960      5F545800 
 9961              	.LASF1536:
 9962 14c5 5031315F 		.ascii	"P11_2_LCD_COM18\000"
 9962      325F4C43 
 9962      445F434F 
 9962      4D313800 
 9963              	.LASF484:
 9964 14d5 50325F36 		.ascii	"P2_6_AMUXA_DSI\000"
 9964      5F414D55 
 9964      58415F44 
 9964      534900
 9965              	.LASF970:
 9966 14e4 50375F31 		.ascii	"P7_1_DSI_DSI\000"
 9966      5F445349 
 9966      5F445349 
 9966      00
 9967              	.LASF614:
ARM GAS  C:\Users\stijn\AppData\Local\Temp\ccD3lQ9e.s 			page 232


 9968 14f1 50345F30 		.ascii	"P4_0_GPIO_DSI\000"
 9968      5F475049 
 9968      4F5F4453 
 9968      4900
 9969              	.LASF1223:
 9970 14ff 50395F30 		.ascii	"P9_0_AMUXB_DSI\000"
 9970      5F414D55 
 9970      58425F44 
 9970      534900
 9971              	.LASF527:
 9972 150e 50335F30 		.ascii	"P3_0_BLESS_MXD_DPSLP_DIG_LDO_EN\000"
 9972      5F424C45 
 9972      53535F4D 
 9972      58445F44 
 9972      50534C50 
 9973              	.LASF197:
 9974 152e 50305F31 		.ascii	"P0_1_TCPWM1_LINE_COMPL0\000"
 9974      5F544350 
 9974      574D315F 
 9974      4C494E45 
 9974      5F434F4D 
 9975              	.LASF402:
 9976 1546 50325F31 		.ascii	"P2_1_TCPWM1_LINE_COMPL15\000"
 9976      5F544350 
 9976      574D315F 
 9976      4C494E45 
 9976      5F434F4D 
 9977              	.LASF870:
 9978 155f 50365F34 		.ascii	"P6_4_DSI_GPIO\000"
 9978      5F445349 
 9978      5F475049 
 9978      4F00
 9979              	.LASF1420:
 9980 156d 5031305F 		.ascii	"P10_3_SCB1_UART_CTS\000"
 9980      335F5343 
 9980      42315F55 
 9980      4152545F 
 9980      43545300 
 9981              	.LASF1684:
 9982 1581 5031325F 		.ascii	"P12_3_SMIF_SPI_DATA7\000"
 9982      335F534D 
 9982      49465F53 
 9982      50495F44 
 9982      41544137 
 9983              	.LASF143:
 9984 1596 4853494F 		.ascii	"HSIOM_SEL_AMUXA\000"
 9984      4D5F5345 
 9984      4C5F414D 
 9984      55584100 
 9985              	.LASF144:
 9986 15a6 4853494F 		.ascii	"HSIOM_SEL_AMUXB\000"
 9986      4D5F5345 
 9986      4C5F414D 
 9986      55584200 
 9987              	.LASF1737:
 9988 15b6 5031325F 		.ascii	"P12_7_GPIO\000"
 9988      375F4750 
ARM GAS  C:\Users\stijn\AppData\Local\Temp\ccD3lQ9e.s 			page 233


 9988      494F00
 9989              	.LASF409:
 9990 15c1 50325F31 		.ascii	"P2_1_SCB1_SPI_MISO\000"
 9990      5F534342 
 9990      315F5350 
 9990      495F4D49 
 9990      534F00
 9991              	.LASF590:
 9992 15d4 50335F34 		.ascii	"P3_4_TCPWM1_LINE21\000"
 9992      5F544350 
 9992      574D315F 
 9992      4C494E45 
 9992      323100
 9993              	.LASF1335:
 9994 15e7 50395F36 		.ascii	"P9_6_LCD_SEG6\000"
 9994      5F4C4344 
 9994      5F534547 
 9994      3600
 9995              	.LASF546:
 9996 15f5 50335F31 		.ascii	"P3_1_BLESS_MXD_ACT_DBUS_RX_EN\000"
 9996      5F424C45 
 9996      53535F4D 
 9996      58445F41 
 9996      43545F44 
 9997              	.LASF1050:
 9998 1613 50375F35 		.ascii	"P7_5_BLESS_EXT_PA_TX_CTL_OUT\000"
 9998      5F424C45 
 9998      53535F45 
 9998      58545F50 
 9998      415F5458 
 9999              	.LASF746:
 10000 1630 50355F35 		.ascii	"P5_5_DSI_DSI\000"
 10000      5F445349 
 10000      5F445349 
 10000      00
 10001              	.LASF1178:
 10002 163d 50385F35 		.ascii	"P8_5_AMUXB_DSI\000"
 10002      5F414D55 
 10002      58425F44 
 10002      534900
 10003              	.LASF253:
 10004 164c 50305F34 		.ascii	"P0_4_SCB0_UART_RTS\000"
 10004      5F534342 
 10004      305F5541 
 10004      52545F52 
 10004      545300
 10005              	.LASF704:
 10006 165f 50355F32 		.ascii	"P5_2_LCD_SEG32\000"
 10006      5F4C4344 
 10006      5F534547 
 10006      333200
 10007              	.LASF1597:
 10008 166e 5031315F 		.ascii	"P11_6_AMUXB\000"
 10008      365F414D 
 10008      55584200 
 10009              	.LASF938:
 10010 167a 50365F37 		.ascii	"P6_7_AMUXB_DSI\000"
ARM GAS  C:\Users\stijn\AppData\Local\Temp\ccD3lQ9e.s 			page 234


 10010      5F414D55 
 10010      58425F44 
 10010      534900
 10011              	.LASF1264:
 10012 1689 50395F32 		.ascii	"P9_2_TCPWM1_LINE21\000"
 10012      5F544350 
 10012      574D315F 
 10012      4C494E45 
 10012      323100
 10013              	.LASF1066:
 10014 169c 50375F36 		.ascii	"P7_6_SCB4_SPI_SELECT3\000"
 10014      5F534342 
 10014      345F5350 
 10014      495F5345 
 10014      4C454354 
 10015              	.LASF1778:
 10016 16b2 5031335F 		.ascii	"P13_1_TCPWM1_LINE_COMPL8\000"
 10016      315F5443 
 10016      50574D31 
 10016      5F4C494E 
 10016      455F434F 
 10017              	.LASF1512:
 10018 16cb 5031315F 		.ascii	"P11_1_AMUXB_DSI\000"
 10018      315F414D 
 10018      5558425F 
 10018      44534900 
 10019              	.LASF233:
 10020 16db 50305F33 		.ascii	"P0_3_CSD_CSD_TX_N\000"
 10020      5F435344 
 10020      5F435344 
 10020      5F54585F 
 10020      4E00
 10021              	.LASF1143:
 10022 16ed 50385F33 		.ascii	"P8_3_AMUXA\000"
 10022      5F414D55 
 10022      584100
 10023              	.LASF1144:
 10024 16f8 50385F33 		.ascii	"P8_3_AMUXB\000"
 10024      5F414D55 
 10024      584200
 10025              	.LASF512:
 10026 1703 50335F30 		.ascii	"P3_0_DSI_GPIO\000"
 10026      5F445349 
 10026      5F475049 
 10026      4F00
 10027              	.LASF858:
 10028 1711 50365F33 		.ascii	"P6_3_TCPWM0_LINE_COMPL1\000"
 10028      5F544350 
 10028      574D305F 
 10028      4C494E45 
 10028      5F434F4D 
 10029              	.LASF1300:
 10030 1729 50395F34 		.ascii	"P9_4_TCPWM0_LINE7\000"
 10030      5F544350 
 10030      574D305F 
 10030      4C494E45 
 10030      3700
ARM GAS  C:\Users\stijn\AppData\Local\Temp\ccD3lQ9e.s 			page 235


 10031              	.LASF1520:
 10032 173b 5031315F 		.ascii	"P11_1_SCB5_UART_TX\000"
 10032      315F5343 
 10032      42355F55 
 10032      4152545F 
 10032      545800
 10033              	.LASF327:
 10034 174e 50315F33 		.ascii	"P1_3_GPIO_DSI\000"
 10034      5F475049 
 10034      4F5F4453 
 10034      4900
 10035              	.LASF1257:
 10036 175c 50395F32 		.ascii	"P9_2_DSI_DSI\000"
 10036      5F445349 
 10036      5F445349 
 10036      00
 10037              	.LASF175:
 10038 1769 50305F30 		.ascii	"P0_0_AMUXA\000"
 10038      5F414D55 
 10038      584100
 10039              	.LASF176:
 10040 1774 50305F30 		.ascii	"P0_0_AMUXB\000"
 10040      5F414D55 
 10040      584200
 10041              	.LASF57:
 10042 177f 69706356 		.ascii	"ipcVersion\000"
 10042      65727369 
 10042      6F6E00
 10043              	.LASF100:
 10044 178a 70657269 		.ascii	"periDivCmdPaDivSelPos\000"
 10044      44697643 
 10044      6D645061 
 10044      44697653 
 10044      656C506F 
 10045              	.LASF58:
 10046 17a0 70657269 		.ascii	"periVersion\000"
 10046      56657273 
 10046      696F6E00 
 10047              	.LASF179:
 10048 17ac 50305F30 		.ascii	"P0_0_TCPWM0_LINE0\000"
 10048      5F544350 
 10048      574D305F 
 10048      4C494E45 
 10048      3000
 10049              	.LASF1754:
 10050 17be 5031335F 		.ascii	"P13_0_DSI_GPIO\000"
 10050      305F4453 
 10050      495F4750 
 10050      494F00
 10051              	.LASF5:
 10052 17cd 5F5F7569 		.ascii	"__uint8_t\000"
 10052      6E74385F 
 10052      7400
 10053              	.LASF1643:
 10054 17d7 5031325F 		.ascii	"P12_1_TCPWM1_LINE_COMPL4\000"
 10054      315F5443 
 10054      50574D31 
ARM GAS  C:\Users\stijn\AppData\Local\Temp\ccD3lQ9e.s 			page 236


 10054      5F4C494E 
 10054      455F434F 
 10055              	.LASF760:
 10056 17f0 50355F35 		.ascii	"P5_5_AUDIOSS0_RX_WS\000"
 10056      5F415544 
 10056      494F5353 
 10056      305F5258 
 10056      5F575300 
 10057              	.LASF1748:
 10058 1804 5031325F 		.ascii	"P12_7_CSD_CSD_TX_N\000"
 10058      375F4353 
 10058      445F4353 
 10058      445F5458 
 10058      5F4E00
 10059              	.LASF909:
 10060 1817 50365F35 		.ascii	"P6_5_PERI_TR_IO_OUTPUT1\000"
 10060      5F504552 
 10060      495F5452 
 10060      5F494F5F 
 10060      4F555450 
 10061              	.LASF1212:
 10062 182f 50385F37 		.ascii	"P8_7_CSD_CSD_TX_N\000"
 10062      5F435344 
 10062      5F435344 
 10062      5F54585F 
 10062      4E00
 10063              	.LASF280:
 10064 1841 50315F30 		.ascii	"P1_0_AMUXA_DSI\000"
 10064      5F414D55 
 10064      58415F44 
 10064      534900
 10065              	.LASF1784:
 10066 1850 5031335F 		.ascii	"P13_1_SCB6_I2C_SDA\000"
 10066      315F5343 
 10066      42365F49 
 10066      32435F53 
 10066      444100
 10067              	.LASF727:
 10068 1863 50355F34 		.ascii	"P5_4_GPIO\000"
 10068      5F475049 
 10068      4F00
 10069              	.LASF205:
 10070 186d 50305F32 		.ascii	"P0_2_GPIO\000"
 10070      5F475049 
 10070      4F00
 10071              	.LASF778:
 10072 1877 50355F37 		.ascii	"P5_7_GPIO\000"
 10072      5F475049 
 10072      4F00
 10073              	.LASF1438:
 10074 1881 5031305F 		.ascii	"P10_4_AUDIOSS_PDM_CLK\000"
 10074      345F4155 
 10074      44494F53 
 10074      535F5044 
 10074      4D5F434C 
 10075              	.LASF678:
 10076 1897 50355F31 		.ascii	"P5_1_AMUXB_DSI\000"
ARM GAS  C:\Users\stijn\AppData\Local\Temp\ccD3lQ9e.s 			page 237


 10076      5F414D55 
 10076      58425F44 
 10076      534900
 10077              	.LASF382:
 10078 18a6 50325F30 		.ascii	"P2_0_TCPWM0_LINE6\000"
 10078      5F544350 
 10078      574D305F 
 10078      4C494E45 
 10078      3600
 10079              	.LASF940:
 10080 18b8 50365F37 		.ascii	"P6_7_TCPWM1_LINE_COMPL11\000"
 10080      5F544350 
 10080      574D315F 
 10080      4C494E45 
 10080      5F434F4D 
 10081              	.LASF703:
 10082 18d1 50355F32 		.ascii	"P5_2_LCD_COM32\000"
 10082      5F4C4344 
 10082      5F434F4D 
 10082      333200
 10083              	.LASF894:
 10084 18e0 50365F35 		.ascii	"P6_5_AMUXA\000"
 10084      5F414D55 
 10084      584100
 10085              	.LASF895:
 10086 18eb 50365F35 		.ascii	"P6_5_AMUXB\000"
 10086      5F414D55 
 10086      584200
 10087              	.LASF1695:
 10088 18f6 5031325F 		.ascii	"P12_4_TCPWM0_LINE6\000"
 10088      345F5443 
 10088      50574D30 
 10088      5F4C494E 
 10088      453600
 10089              	.LASF1542:
 10090 1909 5031315F 		.ascii	"P11_3_GPIO_DSI\000"
 10090      335F4750 
 10090      494F5F44 
 10090      534900
 10091              	.LASF1123:
 10092 1918 50385F32 		.ascii	"P8_2_GPIO_DSI\000"
 10092      5F475049 
 10092      4F5F4453 
 10092      4900
 10093              	.LASF1279:
 10094 1926 50395F33 		.ascii	"P9_3_AMUXA_DSI\000"
 10094      5F414D55 
 10094      58415F44 
 10094      534900
 10095              	.LASF225:
 10096 1935 50305F33 		.ascii	"P0_3_DSI_GPIO\000"
 10096      5F445349 
 10096      5F475049 
 10096      4F00
 10097              	.LASF1867:
 10098 1943 5031335F 		.ascii	"P13_7_DSI_GPIO\000"
 10098      375F4453 
ARM GAS  C:\Users\stijn\AppData\Local\Temp\ccD3lQ9e.s 			page 238


 10098      495F4750 
 10098      494F00
 10099              	.LASF1138:
 10100 1952 50385F32 		.ascii	"P8_2_SCB4_SPI_CLK\000"
 10100      5F534342 
 10100      345F5350 
 10100      495F434C 
 10100      4B00
 10101              	.LASF861:
 10102 1964 50365F33 		.ascii	"P6_3_CSD_CSD_TX_N\000"
 10102      5F435344 
 10102      5F435344 
 10102      5F54585F 
 10102      4E00
 10103              	.LASF1399:
 10104 1976 5031305F 		.ascii	"P10_2_CSD_CSD_TX\000"
 10104      325F4353 
 10104      445F4353 
 10104      445F5458 
 10104      00
 10105              	.LASF621:
 10106 1987 50345F30 		.ascii	"P4_0_TCPWM0_LINE5\000"
 10106      5F544350 
 10106      574D305F 
 10106      4C494E45 
 10106      3500
 10107              	.LASF1054:
 10108 1999 50375F36 		.ascii	"P7_6_DSI_DSI\000"
 10108      5F445349 
 10108      5F445349 
 10108      00
 10109              	.LASF1526:
 10110 19a6 5031315F 		.ascii	"P11_2_DSI_DSI\000"
 10110      325F4453 
 10110      495F4453 
 10110      4900
 10111              	.LASF1334:
 10112 19b4 50395F36 		.ascii	"P9_6_LCD_COM6\000"
 10112      5F4C4344 
 10112      5F434F4D 
 10112      3600
 10113              	.LASF1651:
 10114 19c2 5031325F 		.ascii	"P12_1_SCB6_SPI_MISO\000"
 10114      315F5343 
 10114      42365F53 
 10114      50495F4D 
 10114      49534F00 
 10115              	.LASF948:
 10116 19d6 50365F37 		.ascii	"P6_7_SCB8_SPI_SELECT0\000"
 10116      5F534342 
 10116      385F5350 
 10116      495F5345 
 10116      4C454354 
 10117              	.LASF367:
 10118 19ec 50315F35 		.ascii	"P1_5_CSD_CSD_TX\000"
 10118      5F435344 
 10118      5F435344 
ARM GAS  C:\Users\stijn\AppData\Local\Temp\ccD3lQ9e.s 			page 239


 10118      5F545800 
 10119              	.LASF178:
 10120 19fc 50305F30 		.ascii	"P0_0_AMUXB_DSI\000"
 10120      5F414D55 
 10120      58425F44 
 10120      534900
 10121              	.LASF1409:
 10122 1a0b 5031305F 		.ascii	"P10_3_DSI_GPIO\000"
 10122      335F4453 
 10122      495F4750 
 10122      494F00
 10123              	.LASF574:
 10124 1a1a 50335F33 		.ascii	"P3_3_CSD_CSD_TX\000"
 10124      5F435344 
 10124      5F435344 
 10124      5F545800 
 10125              	.LASF681:
 10126 1a2a 50355F31 		.ascii	"P5_1_CSD_CSD_TX\000"
 10126      5F435344 
 10126      5F435344 
 10126      5F545800 
 10127              	.LASF334:
 10128 1a3a 50315F33 		.ascii	"P1_3_TCPWM0_LINE_COMPL4\000"
 10128      5F544350 
 10128      574D305F 
 10128      4C494E45 
 10128      5F434F4D 
 10129              	.LASF1681:
 10130 1a52 5031325F 		.ascii	"P12_3_CSD_CSD_TX_N\000"
 10130      335F4353 
 10130      445F4353 
 10130      445F5458 
 10130      5F4E00
 10131              	.LASF201:
 10132 1a65 50305F31 		.ascii	"P0_1_LCD_SEG1\000"
 10132      5F4C4344 
 10132      5F534547 
 10132      3100
 10133              	.LASF577:
 10134 1a73 50335F33 		.ascii	"P3_3_LCD_SEG23\000"
 10134      5F4C4344 
 10134      5F534547 
 10134      323300
 10135              	.LASF801:
 10136 1a82 50365F30 		.ascii	"P6_0_TCPWM0_LINE0\000"
 10136      5F544350 
 10136      574D305F 
 10136      4C494E45 
 10136      3000
 10137              	.LASF1914:
 10138 1a94 76726567 		.ascii	"vregEn\000"
 10138      456E00
 10139              	.LASF563:
 10140 1a9b 50335F32 		.ascii	"P3_2_BLESS_MXD_ACT_DBUS_TX_EN\000"
 10140      5F424C45 
 10140      53535F4D 
 10140      58445F41 
ARM GAS  C:\Users\stijn\AppData\Local\Temp\ccD3lQ9e.s 			page 240


 10140      43545F44 
 10141              	.LASF1083:
 10142 1ab9 50375F37 		.ascii	"P7_7_SCB3_SPI_SELECT1\000"
 10142      5F534342 
 10142      335F5350 
 10142      495F5345 
 10142      4C454354 
 10143              	.LASF1844:
 10144 1acf 5031335F 		.ascii	"P13_5_CSD_CSD_TX\000"
 10144      355F4353 
 10144      445F4353 
 10144      445F5458 
 10144      00
 10145              	.LASF1906:
 10146 1ae0 6F757456 		.ascii	"outVal\000"
 10146      616C00
 10147              	.LASF503:
 10148 1ae7 50325F37 		.ascii	"P2_7_TCPWM1_LINE_COMPL18\000"
 10148      5F544350 
 10148      574D315F 
 10148      4C494E45 
 10148      5F434F4D 
 10149              	.LASF1715:
 10150 1b00 5031325F 		.ascii	"P12_5_CSD_CSD_TX\000"
 10150      355F4353 
 10150      445F4353 
 10150      445F5458 
 10150      00
 10151              	.LASF640:
 10152 1b11 50345F31 		.ascii	"P4_1_TCPWM0_LINE_COMPL5\000"
 10152      5F544350 
 10152      574D305F 
 10152      4C494E45 
 10152      5F434F4D 
 10153              	.LASF1591:
 10154 1b29 5031315F 		.ascii	"P11_5_SCB5_SPI_SELECT2\000"
 10154      355F5343 
 10154      42355F53 
 10154      50495F53 
 10154      454C4543 
 10155              	.LASF989:
 10156 1b40 50375F32 		.ascii	"P7_2_DSI_GPIO\000"
 10156      5F445349 
 10156      5F475049 
 10156      4F00
 10157              	.LASF1146:
 10158 1b4e 50385F33 		.ascii	"P8_3_AMUXB_DSI\000"
 10158      5F414D55 
 10158      58425F44 
 10158      534900
 10159              	.LASF1383:
 10160 1b5d 5031305F 		.ascii	"P10_1_LCD_SEG9\000"
 10160      315F4C43 
 10160      445F5345 
 10160      473900
 10161              	.LASF1614:
 10162 1b6c 5031315F 		.ascii	"P11_7_SMIF_SPI_CLK\000"
ARM GAS  C:\Users\stijn\AppData\Local\Temp\ccD3lQ9e.s 			page 241


 10162      375F534D 
 10162      49465F53 
 10162      50495F43 
 10162      4C4B00
 10163              	.LASF376:
 10164 1b7f 50325F30 		.ascii	"P2_0_DSI_DSI\000"
 10164      5F445349 
 10164      5F445349 
 10164      00
 10165              	.LASF1736:
 10166 1b8c 5031325F 		.ascii	"P12_6_SCB6_SPI_SELECT3\000"
 10166      365F5343 
 10166      42365F53 
 10166      50495F53 
 10166      454C4543 
 10167              	.LASF745:
 10168 1ba3 50355F35 		.ascii	"P5_5_GPIO_DSI\000"
 10168      5F475049 
 10168      4F5F4453 
 10168      4900
 10169              	.LASF793:
 10170 1bb1 50365F30 		.ascii	"P6_0_GPIO\000"
 10170      5F475049 
 10170      4F00
 10171              	.LASF1948:
 10172 1bbb 63795F64 		.ascii	"cy_device\000"
 10172      65766963 
 10172      6500
 10173              	.LASF1927:
 10174 1bc5 43795F47 		.ascii	"Cy_GPIO_Write\000"
 10174      50494F5F 
 10174      57726974 
 10174      6500
 10175              	.LASF576:
 10176 1bd3 50335F33 		.ascii	"P3_3_LCD_COM23\000"
 10176      5F4C4344 
 10176      5F434F4D 
 10176      323300
 10177              	.LASF1081:
 10178 1be2 50375F37 		.ascii	"P7_7_LCD_COM53\000"
 10178      5F4C4344 
 10178      5F434F4D 
 10178      353300
 10179              	.LASF394:
 10180 1bf1 50325F31 		.ascii	"P2_1_GPIO_DSI\000"
 10180      5F475049 
 10180      4F5F4453 
 10180      4900
 10181              	.LASF1169:
 10182 1bff 50385F34 		.ascii	"P8_4_LCD_SEG58\000"
 10182      5F4C4344 
 10182      5F534547 
 10182      353800
 10183              	.LASF655:
 10184 1c0e 50355F30 		.ascii	"P5_0_AMUXA\000"
 10184      5F414D55 
 10184      584100
ARM GAS  C:\Users\stijn\AppData\Local\Temp\ccD3lQ9e.s 			page 242


 10185              	.LASF656:
 10186 1c19 50355F30 		.ascii	"P5_0_AMUXB\000"
 10186      5F414D55 
 10186      584200
 10187              	.LASF1718:
 10188 1c24 5031325F 		.ascii	"P12_5_LCD_SEG28\000"
 10188      355F4C43 
 10188      445F5345 
 10188      47323800 
 10189              	.LASF1027:
 10190 1c34 50375F34 		.ascii	"P7_4_TCPWM1_LINE14\000"
 10190      5F544350 
 10190      574D315F 
 10190      4C494E45 
 10190      313400
 10191              	.LASF1388:
 10192 1c47 5031305F 		.ascii	"P10_1_CPUSS_TRACE_DATA2\000"
 10192      315F4350 
 10192      5553535F 
 10192      54524143 
 10192      455F4441 
 10193              	.LASF122:
 10194 1c5f 63707573 		.ascii	"cpussRam0Ctl0\000"
 10194      7352616D 
 10194      3043746C 
 10194      3000
 10195              	.LASF554:
 10196 1c6d 50335F32 		.ascii	"P3_2_AMUXB_DSI\000"
 10196      5F414D55 
 10196      58425F44 
 10196      534900
 10197              	.LASF1477:
 10198 1c7c 5031305F 		.ascii	"P10_7_AMUXB\000"
 10198      375F414D 
 10198      55584200 
 10199              	.LASF1101:
 10200 1c88 50385F30 		.ascii	"P8_0_SCB4_I2C_SCL\000"
 10200      5F534342 
 10200      345F4932 
 10200      435F5343 
 10200      4C00
 10201              	.LASF544:
 10202 1c9a 50335F31 		.ascii	"P3_1_SCB2_SPI_MISO\000"
 10202      5F534342 
 10202      325F5350 
 10202      495F4D49 
 10202      534F00
 10203              	.LASF1448:
 10204 1cad 5031305F 		.ascii	"P10_5_TCPWM0_LINE_COMPL0\000"
 10204      355F5443 
 10204      50574D30 
 10204      5F4C494E 
 10204      455F434F 
 10205              	.LASF1329:
 10206 1cc6 50395F36 		.ascii	"P9_6_AMUXB_DSI\000"
 10206      5F414D55 
 10206      58425F44 
ARM GAS  C:\Users\stijn\AppData\Local\Temp\ccD3lQ9e.s 			page 243


 10206      534900
 10207              	.LASF1557:
 10208 1cd5 5031315F 		.ascii	"P11_3_SCB5_SPI_SELECT0\000"
 10208      335F5343 
 10208      42355F53 
 10208      50495F53 
 10208      454C4543 
 10209              	.LASF1337:
 10210 1cec 50395F37 		.ascii	"P9_7_GPIO\000"
 10210      5F475049 
 10210      4F00
 10211              	.LASF1773:
 10212 1cf6 5031335F 		.ascii	"P13_1_AMUXA\000"
 10212      315F414D 
 10212      55584100 
 10213              	.LASF1774:
 10214 1d02 5031335F 		.ascii	"P13_1_AMUXB\000"
 10214      315F414D 
 10214      55584200 
 10215              	.LASF1024:
 10216 1d0e 50375F34 		.ascii	"P7_4_AMUXA_DSI\000"
 10216      5F414D55 
 10216      58415F44 
 10216      534900
 10217              	.LASF355:
 10218 1d1d 50315F34 		.ascii	"P1_4_LCD_SEG10\000"
 10218      5F4C4344 
 10218      5F534547 
 10218      313000
 10219              	.LASF241:
 10220 1d2c 50305F34 		.ascii	"P0_4_DSI_DSI\000"
 10220      5F445349 
 10220      5F445349 
 10220      00
 10221              	.LASF30:
 10222 1d39 4346475F 		.ascii	"CFG_OUT\000"
 10222      4F555400 
 10223              	.LASF1811:
 10224 1d41 5031335F 		.ascii	"P13_3_TCPWM0_LINE_COMPL1\000"
 10224      335F5443 
 10224      50574D30 
 10224      5F4C494E 
 10224      455F434F 
 10225              	.LASF1168:
 10226 1d5a 50385F34 		.ascii	"P8_4_LCD_COM58\000"
 10226      5F4C4344 
 10226      5F434F4D 
 10226      353800
 10227              	.LASF1211:
 10228 1d69 50385F37 		.ascii	"P8_7_CSD_CSD_TX\000"
 10228      5F435344 
 10228      5F435344 
 10228      5F545800 
 10229              	.LASF1717:
 10230 1d79 5031325F 		.ascii	"P12_5_LCD_COM28\000"
 10230      355F4C43 
 10230      445F434F 
ARM GAS  C:\Users\stijn\AppData\Local\Temp\ccD3lQ9e.s 			page 244


 10230      4D323800 
 10231              	.LASF1635:
 10232 1d89 5031325F 		.ascii	"P12_1_GPIO_DSI\000"
 10232      315F4750 
 10232      494F5F44 
 10232      534900
 10233              	.LASF1941:
 10234 1d98 43795F47 		.ascii	"Cy_GPIO_SetAmuxSplit\000"
 10234      50494F5F 
 10234      53657441 
 10234      6D757853 
 10234      706C6974 
 10235              	.LASF1687:
 10236 1dad 5031325F 		.ascii	"P12_4_GPIO\000"
 10236      345F4750 
 10236      494F00
 10237              	.LASF1217:
 10238 1db8 50395F30 		.ascii	"P9_0_GPIO_DSI\000"
 10238      5F475049 
 10238      4F5F4453 
 10238      4900
 10239              	.LASF295:
 10240 1dc6 50315F31 		.ascii	"P1_1_DSI_GPIO\000"
 10240      5F445349 
 10240      5F475049 
 10240      4F00
 10241              	.LASF551:
 10242 1dd4 50335F32 		.ascii	"P3_2_AMUXA\000"
 10242      5F414D55 
 10242      584100
 10243              	.LASF552:
 10244 1ddf 50335F32 		.ascii	"P3_2_AMUXB\000"
 10244      5F414D55 
 10244      584200
 10245              	.LASF200:
 10246 1dea 50305F31 		.ascii	"P0_1_LCD_COM1\000"
 10246      5F4C4344 
 10246      5F434F4D 
 10246      3100
 10247              	.LASF1608:
 10248 1df8 5031315F 		.ascii	"P11_7_DSI_DSI\000"
 10248      375F4453 
 10248      495F4453 
 10248      4900
 10249              	.LASF1694:
 10250 1e06 5031325F 		.ascii	"P12_4_AMUXB_DSI\000"
 10250      345F414D 
 10250      5558425F 
 10250      44534900 
 10251              	.LASF667:
 10252 1e16 50355F30 		.ascii	"P5_0_SCB5_SPI_MOSI\000"
 10252      5F534342 
 10252      355F5350 
 10252      495F4D4F 
 10252      534900
 10253              	.LASF119:
 10254 1e29 63707573 		.ascii	"cpussCm0NmiCtlOffset\000"
ARM GAS  C:\Users\stijn\AppData\Local\Temp\ccD3lQ9e.s 			page 245


 10254      73436D30 
 10254      4E6D6943 
 10254      746C4F66 
 10254      66736574 
 10255              	.LASF1928:
 10256 1e3e 43795F47 		.ascii	"Cy_GPIO_SetDrivemode\000"
 10256      50494F5F 
 10256      53657444 
 10256      72697665 
 10256      6D6F6465 
 10257              	.LASF87:
 10258 1e53 666C6173 		.ascii	"flashCtlMainWs4Freq\000"
 10258      6843746C 
 10258      4D61696E 
 10258      57733446 
 10258      72657100 
 10259              	.LASF1882:
 10260 1e67 646F7562 		.ascii	"double\000"
 10260      6C6500
 10261              	.LASF1102:
 10262 1e6e 50385F30 		.ascii	"P8_0_SCB4_SPI_MOSI\000"
 10262      5F534342 
 10262      345F5350 
 10262      495F4D4F 
 10262      534900
 10263              	.LASF435:
 10264 1e81 50325F33 		.ascii	"P2_3_AMUXA_DSI\000"
 10264      5F414D55 
 10264      58415F44 
 10264      534900
 10265              	.LASF634:
 10266 1e90 50345F31 		.ascii	"P4_1_DSI_DSI\000"
 10266      5F445349 
 10266      5F445349 
 10266      00
 10267              	.LASF832:
 10268 1e9d 50365F31 		.ascii	"P6_1_SCB8_SPI_MISO\000"
 10268      5F534342 
 10268      385F5350 
 10268      495F4D49 
 10268      534F00
 10269              	.LASF354:
 10270 1eb0 50315F34 		.ascii	"P1_4_LCD_COM10\000"
 10270      5F4C4344 
 10270      5F434F4D 
 10270      313000
 10271              	.LASF1382:
 10272 1ebf 5031305F 		.ascii	"P10_1_LCD_COM9\000"
 10272      315F4C43 
 10272      445F434F 
 10272      4D3900
 10273              	.LASF1759:
 10274 1ece 5031335F 		.ascii	"P13_0_TCPWM0_LINE0\000"
 10274      305F5443 
 10274      50574D30 
 10274      5F4C494E 
 10274      453000
ARM GAS  C:\Users\stijn\AppData\Local\Temp\ccD3lQ9e.s 			page 246


 10275              	.LASF21:
 10276 1ee1 4F55545F 		.ascii	"OUT_CLR\000"
 10276      434C5200 
 10277              	.LASF346:
 10278 1ee9 50315F34 		.ascii	"P1_4_AMUXA\000"
 10278      5F414D55 
 10278      584100
 10279              	.LASF347:
 10280 1ef4 50315F34 		.ascii	"P1_4_AMUXB\000"
 10280      5F414D55 
 10280      584200
 10281              	.LASF903:
 10282 1eff 50365F35 		.ascii	"P6_5_LCD_SEG43\000"
 10282      5F4C4344 
 10282      5F534547 
 10282      343300
 10283              	.LASF1470:
 10284 1f0e 5031305F 		.ascii	"P10_6_LCD_SEG14\000"
 10284      365F4C43 
 10284      445F5345 
 10284      47313400 
 10285              	.LASF846:
 10286 1f1e 50365F32 		.ascii	"P6_2_LCD_SEG40\000"
 10286      5F4C4344 
 10286      5F534547 
 10286      343000
 10287              	.LASF215:
 10288 1f2d 50305F32 		.ascii	"P0_2_CSD_CSD_TX\000"
 10288      5F435344 
 10288      5F435344 
 10288      5F545800 
 10289              	.LASF1545:
 10290 1f3d 5031315F 		.ascii	"P11_3_AMUXA\000"
 10290      335F414D 
 10290      55584100 
 10291              	.LASF1546:
 10292 1f49 5031315F 		.ascii	"P11_3_AMUXB\000"
 10292      335F414D 
 10292      55584200 
 10293              	.LASF1845:
 10294 1f55 5031335F 		.ascii	"P13_5_CSD_CSD_TX_N\000"
 10294      355F4353 
 10294      445F4353 
 10294      445F5458 
 10294      5F4E00
 10295              	.LASF384:
 10296 1f68 50325F30 		.ascii	"P2_0_CSD_CSD_TX\000"
 10296      5F435344 
 10296      5F435344 
 10296      5F545800 
 10297              	.LASF686:
 10298 1f78 50355F31 		.ascii	"P5_1_SCB5_I2C_SDA\000"
 10298      5F534342 
 10298      355F4932 
 10298      435F5344 
 10298      4100
 10299              	.LASF1033:
ARM GAS  C:\Users\stijn\AppData\Local\Temp\ccD3lQ9e.s 			page 247


 10300 1f8a 50375F34 		.ascii	"P7_4_BLESS_EXT_LNA_RX_CTL_OUT\000"
 10300      5F424C45 
 10300      53535F45 
 10300      58545F4C 
 10300      4E415F52 
 10301              	.LASF1341:
 10302 1fa8 50395F37 		.ascii	"P9_7_AMUXA\000"
 10302      5F414D55 
 10302      584100
 10303              	.LASF1342:
 10304 1fb3 50395F37 		.ascii	"P9_7_AMUXB\000"
 10304      5F414D55 
 10304      584200
 10305              	.LASF1338:
 10306 1fbe 50395F37 		.ascii	"P9_7_GPIO_DSI\000"
 10306      5F475049 
 10306      4F5F4453 
 10306      4900
 10307              	.LASF1248:
 10308 1fcc 50395F31 		.ascii	"P9_1_LCD_SEG1\000"
 10308      5F4C4344 
 10308      5F534547 
 10308      3100
 10309              	.LASF1508:
 10310 1fda 5031315F 		.ascii	"P11_1_DSI_GPIO\000"
 10310      315F4453 
 10310      495F4750 
 10310      494F00
 10311              	.LASF1089:
 10312 1fe9 50385F30 		.ascii	"P8_0_DSI_GPIO\000"
 10312      5F445349 
 10312      5F475049 
 10312      4F00
 10313              	.LASF464:
 10314 1ff7 50325F35 		.ascii	"P2_5_DSI_DSI\000"
 10314      5F445349 
 10314      5F445349 
 10314      00
 10315              	.LASF1663:
 10316 2004 5031325F 		.ascii	"P12_2_CSD_CSD_TX\000"
 10316      325F4353 
 10316      445F4353 
 10316      445F5458 
 10316      00
 10317              	.LASF851:
 10318 2015 50365F33 		.ascii	"P6_3_GPIO_DSI\000"
 10318      5F475049 
 10318      4F5F4453 
 10318      4900
 10319              	.LASF874:
 10320 2023 50365F34 		.ascii	"P6_4_AMUXB_DSI\000"
 10320      5F414D55 
 10320      58425F44 
 10320      534900
 10321              	.LASF99:
 10322 2032 70657269 		.ascii	"periDivCmdTypeSelPos\000"
 10322      44697643 
ARM GAS  C:\Users\stijn\AppData\Local\Temp\ccD3lQ9e.s 			page 248


 10322      6D645479 
 10322      70655365 
 10322      6C506F73 
 10323              	.LASF1513:
 10324 2047 5031315F 		.ascii	"P11_1_TCPWM0_LINE_COMPL1\000"
 10324      315F5443 
 10324      50574D30 
 10324      5F4C494E 
 10324      455F434F 
 10325              	.LASF371:
 10326 2060 50315F35 		.ascii	"P1_5_SCB7_SPI_SELECT2\000"
 10326      5F534342 
 10326      375F5350 
 10326      495F5345 
 10326      4C454354 
 10327              	.LASF1154:
 10328 2076 50385F33 		.ascii	"P8_3_SCB4_UART_CTS\000"
 10328      5F534342 
 10328      345F5541 
 10328      52545F43 
 10328      545300
 10329              	.LASF671:
 10330 2089 50355F31 		.ascii	"P5_1_GPIO\000"
 10330      5F475049 
 10330      4F00
 10331              	.LASF1768:
 10332 2093 5031335F 		.ascii	"P13_0_PERI_TR_IO_INPUT26\000"
 10332      305F5045 
 10332      52495F54 
 10332      525F494F 
 10332      5F494E50 
 10333              	.LASF1582:
 10334 20ac 5031315F 		.ascii	"P11_5_AMUXA_DSI\000"
 10334      355F414D 
 10334      5558415F 
 10334      44534900 
 10335              	.LASF1395:
 10336 20bc 5031305F 		.ascii	"P10_2_AMUXA_DSI\000"
 10336      325F414D 
 10336      5558415F 
 10336      44534900 
 10337              	.LASF902:
 10338 20cc 50365F35 		.ascii	"P6_5_LCD_COM43\000"
 10338      5F4C4344 
 10338      5F434F4D 
 10338      343300
 10339              	.LASF1934:
 10340 20db 73746174 		.ascii	"status\000"
 10340      757300
 10341              	.LASF1469:
 10342 20e2 5031305F 		.ascii	"P10_6_LCD_COM14\000"
 10342      365F4C43 
 10342      445F434F 
 10342      4D313400 
 10343              	.LASF882:
 10344 20f2 50365F34 		.ascii	"P6_4_SCB6_UART_RX\000"
 10344      5F534342 
ARM GAS  C:\Users\stijn\AppData\Local\Temp\ccD3lQ9e.s 			page 249


 10344      365F5541 
 10344      52545F52 
 10344      5800
 10345              	.LASF1751:
 10346 2104 5031335F 		.ascii	"P13_0_GPIO\000"
 10346      305F4750 
 10346      494F00
 10347              	.LASF1558:
 10348 210f 5031315F 		.ascii	"P11_3_PERI_TR_IO_OUTPUT0\000"
 10348      335F5045 
 10348      52495F54 
 10348      525F494F 
 10348      5F4F5554 
 10349              	.LASF835:
 10350 2128 50365F32 		.ascii	"P6_2_DSI_DSI\000"
 10350      5F445349 
 10350      5F445349 
 10350      00
 10351              	.LASF945:
 10352 2135 50365F37 		.ascii	"P6_7_SCB6_UART_CTS\000"
 10352      5F534342 
 10352      365F5541 
 10352      52545F43 
 10352      545300
 10353              	.LASF1616:
 10354 2148 5031325F 		.ascii	"P12_0_GPIO_DSI\000"
 10354      305F4750 
 10354      494F5F44 
 10354      534900
 10355              	.LASF1204:
 10356 2157 50385F37 		.ascii	"P8_7_DSI_GPIO\000"
 10356      5F445349 
 10356      5F475049 
 10356      4F00
 10357              	.LASF90:
 10358 2165 64774368 		.ascii	"dwChCtlPrioPos\000"
 10358      43746C50 
 10358      72696F50 
 10358      6F7300
 10359              	.LASF831:
 10360 2174 50365F31 		.ascii	"P6_1_CPUSS_FAULT_OUT1\000"
 10360      5F435055 
 10360      53535F46 
 10360      41554C54 
 10360      5F4F5554 
 10361              	.LASF333:
 10362 218a 50315F33 		.ascii	"P1_3_AMUXB_DSI\000"
 10362      5F414D55 
 10362      58425F44 
 10362      534900
 10363              	.LASF1519:
 10364 2199 5031315F 		.ascii	"P11_1_SMIF_SPI_SELECT1\000"
 10364      315F534D 
 10364      49465F53 
 10364      50495F53 
 10364      454C4543 
 10365              	.LASF1576:
ARM GAS  C:\Users\stijn\AppData\Local\Temp\ccD3lQ9e.s 			page 250


 10366 21b0 5031315F 		.ascii	"P11_5_GPIO\000"
 10366      355F4750 
 10366      494F00
 10367              	.LASF1405:
 10368 21bb 5031305F 		.ascii	"P10_2_CPUSS_TRACE_DATA1\000"
 10368      325F4350 
 10368      5553535F 
 10368      54524143 
 10368      455F4441 
 10369              	.LASF60:
 10370 21d3 63707573 		.ascii	"cpussIpcNr\000"
 10370      73497063 
 10370      4E7200
 10371              	.LASF1296:
 10372 21de 50395F34 		.ascii	"P9_4_AMUXA\000"
 10372      5F414D55 
 10372      584100
 10373              	.LASF712:
 10374 21e9 50355F33 		.ascii	"P5_3_DSI_GPIO\000"
 10374      5F445349 
 10374      5F475049 
 10374      4F00
 10375              	.LASF1094:
 10376 21f7 50385F30 		.ascii	"P8_0_TCPWM0_LINE0\000"
 10376      5F544350 
 10376      574D305F 
 10376      4C494E45 
 10376      3000
 10377              	.LASF71:
 10378 2209 736D6966 		.ascii	"smifDeviceNr\000"
 10378      44657669 
 10378      63654E72 
 10378      00
 10379              	.LASF750:
 10380 2216 50355F35 		.ascii	"P5_5_AMUXA_DSI\000"
 10380      5F414D55 
 10380      58415F44 
 10380      534900
 10381              	.LASF1897:
 10382 2225 63795F65 		.ascii	"cy_en_gpio_amuxselect_t\000"
 10382      6E5F6770 
 10382      696F5F61 
 10382      6D757873 
 10382      656C6563 
 10383              	.LASF930:
 10384 223d 50365F36 		.ascii	"P6_6_SCB8_SPI_CLK\000"
 10384      5F534342 
 10384      385F5350 
 10384      495F434C 
 10384      4B00
 10385              	.LASF1126:
 10386 224f 50385F32 		.ascii	"P8_2_AMUXA\000"
 10386      5F414D55 
 10386      584100
 10387              	.LASF1127:
 10388 225a 50385F32 		.ascii	"P8_2_AMUXB\000"
 10388      5F414D55 
ARM GAS  C:\Users\stijn\AppData\Local\Temp\ccD3lQ9e.s 			page 251


 10388      584200
 10389              	.LASF771:
 10390 2265 50355F36 		.ascii	"P5_6_CSD_CSD_TX\000"
 10390      5F435344 
 10390      5F435344 
 10390      5F545800 
 10391              	.LASF1028:
 10392 2275 50375F34 		.ascii	"P7_4_CSD_CSD_TX\000"
 10392      5F435344 
 10392      5F435344 
 10392      5F545800 
 10393              	.LASF1952:
 10394 2285 433A5C55 		.ascii	"C:\\Users\\stijn\\OneDrive\\Documenten\\PSoC Creato"
 10394      73657273 
 10394      5C737469 
 10394      6A6E5C4F 
 10394      6E654472 
 10395 22b3 725C4144 		.ascii	"r\\ADC Klodden\\RTOS_I2C_Test.cydsn\000"
 10395      43204B6C 
 10395      6F646465 
 10395      6E5C5254 
 10395      4F535F49 
 10396              	.LASF1222:
 10397 22d5 50395F30 		.ascii	"P9_0_AMUXA_DSI\000"
 10397      5F414D55 
 10397      58415F44 
 10397      534900
 10398              	.LASF1252:
 10399 22e4 50395F31 		.ascii	"P9_1_PERI_TR_IO_INPUT19\000"
 10399      5F504552 
 10399      495F5452 
 10399      5F494F5F 
 10399      494E5055 
 10400              	.LASF1265:
 10401 22fc 50395F32 		.ascii	"P9_2_CSD_CSD_TX\000"
 10401      5F435344 
 10401      5F435344 
 10401      5F545800 
 10402              	.LASF366:
 10403 230c 50315F35 		.ascii	"P1_5_TCPWM1_LINE_COMPL14\000"
 10403      5F544350 
 10403      574D315F 
 10403      4C494E45 
 10403      5F434F4D 
 10404              	.LASF622:
 10405 2325 50345F30 		.ascii	"P4_0_TCPWM1_LINE22\000"
 10405      5F544350 
 10405      574D315F 
 10405      4C494E45 
 10405      323200
 10406              	.LASF1447:
 10407 2338 5031305F 		.ascii	"P10_5_AMUXB_DSI\000"
 10407      355F414D 
 10407      5558425F 
 10407      44534900 
 10408              	.LASF1483:
 10409 2348 5031305F 		.ascii	"P10_7_CSD_CSD_TX_N\000"
ARM GAS  C:\Users\stijn\AppData\Local\Temp\ccD3lQ9e.s 			page 252


 10409      375F4353 
 10409      445F4353 
 10409      445F5458 
 10409      5F4E00
 10410              	.LASF103:
 10411 235b 70657269 		.ascii	"periDiv16CtlOffset\000"
 10411      44697631 
 10411      3643746C 
 10411      4F666673 
 10411      657400
 10412              	.LASF871:
 10413 236e 50365F34 		.ascii	"P6_4_AMUXA\000"
 10413      5F414D55 
 10413      584100
 10414              	.LASF872:
 10415 2379 50365F34 		.ascii	"P6_4_AMUXB\000"
 10415      5F414D55 
 10415      584200
 10416              	.LASF1816:
 10417 2384 5031335F 		.ascii	"P13_3_LCD_SEG34\000"
 10417      335F4C43 
 10417      445F5345 
 10417      47333400 
 10418              	.LASF1141:
 10419 2394 50385F33 		.ascii	"P8_3_DSI_DSI\000"
 10419      5F445349 
 10419      5F445349 
 10419      00
 10420              	.LASF245:
 10421 23a1 50305F34 		.ascii	"P0_4_AMUXA_DSI\000"
 10421      5F414D55 
 10421      58415F44 
 10421      534900
 10422              	.LASF1051:
 10423 23b0 50375F35 		.ascii	"P7_5_CPUSS_TRACE_DATA2\000"
 10423      5F435055 
 10423      53535F54 
 10423      52414345 
 10423      5F444154 
 10424              	.LASF1365:
 10425 23c7 5031305F 		.ascii	"P10_0_SCB1_UART_RX\000"
 10425      305F5343 
 10425      42315F55 
 10425      4152545F 
 10425      525800
 10426              	.LASF206:
 10427 23da 50305F32 		.ascii	"P0_2_GPIO_DSI\000"
 10427      5F475049 
 10427      4F5F4453 
 10427      4900
 10428              	.LASF1850:
 10429 23e8 5031335F 		.ascii	"P13_6_GPIO_DSI\000"
 10429      365F4750 
 10429      494F5F44 
 10429      534900
 10430              	.LASF522:
 10431 23f7 50335F30 		.ascii	"P3_0_LCD_SEG20\000"
ARM GAS  C:\Users\stijn\AppData\Local\Temp\ccD3lQ9e.s 			page 253


 10431      5F4C4344 
 10431      5F534547 
 10431      323000
 10432              	.LASF1932:
 10433 2406 43795F47 		.ascii	"Cy_GPIO_SetInterruptEdge\000"
 10433      50494F5F 
 10433      53657449 
 10433      6E746572 
 10433      72757074 
 10434              	.LASF1415:
 10435 241f 5031305F 		.ascii	"P10_3_TCPWM1_LINE_COMPL23\000"
 10435      335F5443 
 10435      50574D31 
 10435      5F4C494E 
 10435      455F434F 
 10436              	.LASF787:
 10437 2439 50355F37 		.ascii	"P5_7_TCPWM1_LINE_COMPL7\000"
 10437      5F544350 
 10437      574D315F 
 10437      4C494E45 
 10437      5F434F4D 
 10438              	.LASF89:
 10439 2451 64774368 		.ascii	"dwChSize\000"
 10439      53697A65 
 10439      00
 10440              	.LASF1886:
 10441 245a 43595F47 		.ascii	"CY_GPIO_AMUX_OPENALL\000"
 10441      50494F5F 
 10441      414D5558 
 10441      5F4F5045 
 10441      4E414C4C 
 10442              	.LASF1390:
 10443 246f 5031305F 		.ascii	"P10_2_GPIO_DSI\000"
 10443      325F4750 
 10443      494F5F44 
 10443      534900
 10444              	.LASF1907:
 10445 247e 64726976 		.ascii	"driveMode\000"
 10445      654D6F64 
 10445      6500
 10446              	.LASF43:
 10447 2488 70657269 		.ascii	"periBase\000"
 10447      42617365 
 10447      00
 10448              	.LASF887:
 10449 2491 50365F34 		.ascii	"P6_4_CPUSS_SWJ_SWO_TDO\000"
 10449      5F435055 
 10449      53535F53 
 10449      574A5F53 
 10449      574F5F54 
 10450              	.LASF969:
 10451 24a8 50375F31 		.ascii	"P7_1_GPIO_DSI\000"
 10451      5F475049 
 10451      4F5F4453 
 10451      4900
 10452              	.LASF847:
 10453 24b6 50365F32 		.ascii	"P6_2_SCB3_UART_RTS\000"
ARM GAS  C:\Users\stijn\AppData\Local\Temp\ccD3lQ9e.s 			page 254


 10453      5F534342 
 10453      335F5541 
 10453      52545F52 
 10453      545300
 10454              	.LASF250:
 10455 24c9 50305F34 		.ascii	"P0_4_CSD_CSD_TX_N\000"
 10455      5F435344 
 10455      5F435344 
 10455      5F54585F 
 10455      4E00
 10456              	.LASF1207:
 10457 24db 50385F37 		.ascii	"P8_7_AMUXA_DSI\000"
 10457      5F414D55 
 10457      58415F44 
 10457      534900
 10458              	.LASF1480:
 10459 24ea 5031305F 		.ascii	"P10_7_TCPWM0_LINE_COMPL1\000"
 10459      375F5443 
 10459      50574D30 
 10459      5F4C494E 
 10459      455F434F 
 10460              	.LASF507:
 10461 2503 50325F37 		.ascii	"P2_7_LCD_SEG19\000"
 10461      5F4C4344 
 10461      5F534547 
 10461      313900
 10462              	.LASF481:
 10463 2512 50325F36 		.ascii	"P2_6_DSI_GPIO\000"
 10463      5F445349 
 10463      5F475049 
 10463      4F00
 10464              	.LASF1269:
 10465 2520 50395F32 		.ascii	"P9_2_SCB2_UART_RTS\000"
 10465      5F534342 
 10465      325F5541 
 10465      52545F52 
 10465      545300
 10466              	.LASF521:
 10467 2533 50335F30 		.ascii	"P3_0_LCD_COM20\000"
 10467      5F4C4344 
 10467      5F434F4D 
 10467      323000
 10468              	.LASF1117:
 10469 2542 50385F31 		.ascii	"P8_1_LCD_SEG55\000"
 10469      5F4C4344 
 10469      5F534547 
 10469      353500
 10470              	.LASF457:
 10471 2551 50325F34 		.ascii	"P2_4_CSD_CSD_TX_N\000"
 10471      5F435344 
 10471      5F435344 
 10471      5F54585F 
 10471      4E00
 10472              	.LASF933:
 10473 2563 50365F37 		.ascii	"P6_7_DSI_DSI\000"
 10473      5F445349 
 10473      5F445349 
ARM GAS  C:\Users\stijn\AppData\Local\Temp\ccD3lQ9e.s 			page 255


 10473      00
 10474              	.LASF1666:
 10475 2570 5031325F 		.ascii	"P12_2_LCD_SEG25\000"
 10475      325F4C43 
 10475      445F5345 
 10475      47323500 
 10476              	.LASF1408:
 10477 2580 5031305F 		.ascii	"P10_3_DSI_DSI\000"
 10477      335F4453 
 10477      495F4453 
 10477      4900
 10478              	.LASF1725:
 10479 258e 5031325F 		.ascii	"P12_6_DSI_GPIO\000"
 10479      365F4453 
 10479      495F4750 
 10479      494F00
 10480              	.LASF1871:
 10481 259d 5031335F 		.ascii	"P13_7_AMUXB_DSI\000"
 10481      375F414D 
 10481      5558425F 
 10481      44534900 
 10482              	.LASF494:
 10483 25ad 50325F37 		.ascii	"P2_7_GPIO\000"
 10483      5F475049 
 10483      4F00
 10484              	.LASF1926:
 10485 25b7 43795F47 		.ascii	"Cy_GPIO_SetHSIOM\000"
 10485      50494F5F 
 10485      53657448 
 10485      53494F4D 
 10485      00
 10486              	.LASF52:
 10487 25c8 63727970 		.ascii	"cryptoVersion\000"
 10487      746F5665 
 10487      7273696F 
 10487      6E00
 10488              	.LASF1310:
 10489 25d6 50395F35 		.ascii	"P9_5_DSI_GPIO\000"
 10489      5F445349 
 10489      5F475049 
 10489      4F00
 10490              	.LASF1775:
 10491 25e4 5031335F 		.ascii	"P13_1_AMUXA_DSI\000"
 10491      315F414D 
 10491      5558415F 
 10491      44534900 
 10492              	.LASF1883:
 10493 25f4 43595F47 		.ascii	"CY_GPIO_SUCCESS\000"
 10493      50494F5F 
 10493      53554343 
 10493      45535300 
 10494              	.LASF8:
 10495 2604 5F5F7569 		.ascii	"__uint16_t\000"
 10495      6E743136 
 10495      5F7400
 10496              	.LASF1457:
 10497 260f 5031305F 		.ascii	"P10_6_GPIO\000"
ARM GAS  C:\Users\stijn\AppData\Local\Temp\ccD3lQ9e.s 			page 256


 10497      365F4750 
 10497      494F00
 10498              	.LASF816:
 10499 261a 50365F31 		.ascii	"P6_1_DSI_GPIO\000"
 10499      5F445349 
 10499      5F475049 
 10499      4F00
 10500              	.LASF109:
 10501 2628 6770696F 		.ascii	"gpioPrtCfgOutOffset\000"
 10501      50727443 
 10501      66674F75 
 10501      744F6666 
 10501      73657400 
 10502              	.LASF761:
 10503 263c 50355F36 		.ascii	"P5_6_GPIO\000"
 10503      5F475049 
 10503      4F00
 10504              	.LASF101:
 10505 2646 70657269 		.ascii	"periDivCmdPaTypeSelPos\000"
 10505      44697643 
 10505      6D645061 
 10505      54797065 
 10505      53656C50 
 10506              	.LASF1744:
 10507 265d 5031325F 		.ascii	"P12_7_AMUXB_DSI\000"
 10507      375F414D 
 10507      5558425F 
 10507      44534900 
 10508              	.LASF319:
 10509 266d 50315F32 		.ascii	"P1_2_TCPWM1_LINE12\000"
 10509      5F544350 
 10509      574D315F 
 10509      4C494E45 
 10509      313200
 10510              	.LASF1076:
 10511 2680 50375F37 		.ascii	"P7_7_AMUXB_DSI\000"
 10511      5F414D55 
 10511      58425F44 
 10511      534900
 10512              	.LASF542:
 10513 268f 50335F31 		.ascii	"P3_1_SCB2_UART_TX\000"
 10513      5F534342 
 10513      325F5541 
 10513      52545F54 
 10513      5800
 10514              	.LASF445:
 10515 26a1 50325F33 		.ascii	"P2_3_BLESS_MXD_DPSLP_RESET_N\000"
 10515      5F424C45 
 10515      53535F4D 
 10515      58445F44 
 10515      50534C50 
 10516              	.LASF492:
 10517 26be 50325F36 		.ascii	"P2_6_SCB1_SPI_SELECT3\000"
 10517      5F534342 
 10517      315F5350 
 10517      495F5345 
 10517      4C454354 
ARM GAS  C:\Users\stijn\AppData\Local\Temp\ccD3lQ9e.s 			page 257


 10518              	.LASF974:
 10519 26d4 50375F31 		.ascii	"P7_1_AMUXA_DSI\000"
 10519      5F414D55 
 10519      58415F44 
 10519      534900
 10520              	.LASF770:
 10521 26e3 50355F36 		.ascii	"P5_6_TCPWM1_LINE7\000"
 10521      5F544350 
 10521      574D315F 
 10521      4C494E45 
 10521      3700
 10522              	.LASF221:
 10523 26f5 50305F32 		.ascii	"P0_2_SCB0_SPI_MOSI\000"
 10523      5F534342 
 10523      305F5350 
 10523      495F4D4F 
 10523      534900
 10524              	.LASF1286:
 10525 2708 50395F33 		.ascii	"P9_3_LCD_SEG3\000"
 10525      5F4C4344 
 10525      5F534547 
 10525      3300
 10526              	.LASF102:
 10527 2716 70657269 		.ascii	"periDiv8CtlOffset\000"
 10527      44697638 
 10527      43746C4F 
 10527      66667365 
 10527      7400
 10528              	.LASF1665:
 10529 2728 5031325F 		.ascii	"P12_2_LCD_COM25\000"
 10529      325F4C43 
 10529      445F434F 
 10529      4D323500 
 10530              	.LASF1195:
 10531 2738 50385F36 		.ascii	"P8_6_TCPWM1_LINE19\000"
 10531      5F544350 
 10531      574D315F 
 10531      4C494E45 
 10531      313900
 10532              	.LASF878:
 10533 274b 50365F34 		.ascii	"P6_4_CSD_CSD_TX_N\000"
 10533      5F435344 
 10533      5F435344 
 10533      5F54585F 
 10533      4E00
 10534              	.LASF1741:
 10535 275d 5031325F 		.ascii	"P12_7_AMUXA\000"
 10535      375F414D 
 10535      55584100 
 10536              	.LASF1742:
 10537 2769 5031325F 		.ascii	"P12_7_AMUXB\000"
 10537      375F414D 
 10537      55584200 
 10538              	.LASF138:
 10539 2775 63795F65 		.ascii	"cy_en_amux_split_t\000"
 10539      6E5F616D 
 10539      75785F73 
ARM GAS  C:\Users\stijn\AppData\Local\Temp\ccD3lQ9e.s 			page 258


 10539      706C6974 
 10539      5F7400
 10540              	.LASF1755:
 10541 2788 5031335F 		.ascii	"P13_0_AMUXA\000"
 10541      305F414D 
 10541      55584100 
 10542              	.LASF1756:
 10543 2794 5031335F 		.ascii	"P13_0_AMUXB\000"
 10543      305F414D 
 10543      55584200 
 10544              	.LASF1641:
 10545 27a0 5031325F 		.ascii	"P12_1_AMUXB_DSI\000"
 10545      315F414D 
 10545      5558425F 
 10545      44534900 
 10546              	.LASF472:
 10547 27b0 50325F35 		.ascii	"P2_5_CSD_CSD_TX\000"
 10547      5F435344 
 10547      5F435344 
 10547      5F545800 
 10548              	.LASF1441:
 10549 27c0 5031305F 		.ascii	"P10_5_GPIO_DSI\000"
 10549      355F4750 
 10549      494F5F44 
 10549      534900
 10550              	.LASF823:
 10551 27cf 50365F31 		.ascii	"P6_1_CSD_CSD_TX\000"
 10551      5F435344 
 10551      5F435344 
 10551      5F545800 
 10552              	.LASF485:
 10553 27df 50325F36 		.ascii	"P2_6_AMUXB_DSI\000"
 10553      5F414D55 
 10553      58425F44 
 10553      534900
 10554              	.LASF380:
 10555 27ee 50325F30 		.ascii	"P2_0_AMUXA_DSI\000"
 10555      5F414D55 
 10555      58415F44 
 10555      534900
 10556              	.LASF294:
 10557 27fd 50315F31 		.ascii	"P1_1_DSI_DSI\000"
 10557      5F445349 
 10557      5F445349 
 10557      00
 10558              	.LASF912:
 10559 280a 50365F35 		.ascii	"P6_5_SRSS_DDFT_PIN_IN1\000"
 10559      5F535253 
 10559      535F4444 
 10559      46545F50 
 10559      494E5F49 
 10560              	.LASF275:
 10561 2821 50315F30 		.ascii	"P1_0_GPIO_DSI\000"
 10561      5F475049 
 10561      4F5F4453 
 10561      4900
 10562              	.LASF859:
ARM GAS  C:\Users\stijn\AppData\Local\Temp\ccD3lQ9e.s 			page 259


 10563 282f 50365F33 		.ascii	"P6_3_TCPWM1_LINE_COMPL9\000"
 10563      5F544350 
 10563      574D315F 
 10563      4C494E45 
 10563      5F434F4D 
 10564              	.LASF1747:
 10565 2847 5031325F 		.ascii	"P12_7_CSD_CSD_TX\000"
 10565      375F4353 
 10565      445F4353 
 10565      445F5458 
 10565      00
 10566              	.LASF532:
 10567 2858 50335F31 		.ascii	"P3_1_AMUXA\000"
 10567      5F414D55 
 10567      584100
 10568              	.LASF533:
 10569 2863 50335F31 		.ascii	"P3_1_AMUXB\000"
 10569      5F414D55 
 10569      584200
 10570              	.LASF54:
 10571 286e 666C6173 		.ascii	"flashcVersion\000"
 10571      68635665 
 10571      7273696F 
 10571      6E00
 10572              	.LASF1419:
 10573 287c 5031305F 		.ascii	"P10_3_LCD_SEG11\000"
 10573      335F4C43 
 10573      445F5345 
 10573      47313100 
 10574              	.LASF1896:
 10575 288c 43595F47 		.ascii	"CY_GPIO_AMUXBUSB\000"
 10575      50494F5F 
 10575      414D5558 
 10575      42555342 
 10575      00
 10576              	.LASF1148:
 10577 289d 50385F33 		.ascii	"P8_3_TCPWM1_LINE_COMPL17\000"
 10577      5F544350 
 10577      574D315F 
 10577      4C494E45 
 10577      5F434F4D 
 10578              	.LASF820:
 10579 28b6 50365F31 		.ascii	"P6_1_AMUXB_DSI\000"
 10579      5F414D55 
 10579      58425F44 
 10579      534900
 10580              	.LASF1171:
 10581 28c5 50385F35 		.ascii	"P8_5_GPIO\000"
 10581      5F475049 
 10581      4F00
 10582              	.LASF910:
 10583 28cf 50365F35 		.ascii	"P6_5_CPUSS_SWJ_SWDOE_TDI\000"
 10583      5F435055 
 10583      53535F53 
 10583      574A5F53 
 10583      57444F45 
 10584              	.LASF650:
ARM GAS  C:\Users\stijn\AppData\Local\Temp\ccD3lQ9e.s 			page 260


 10585 28e8 50345F31 		.ascii	"P4_1_BLESS_MXD_DPSLP_RCB_LE\000"
 10585      5F424C45 
 10585      53535F4D 
 10585      58445F44 
 10585      50534C50 
 10586              	.LASF31:
 10587 2904 4346475F 		.ascii	"CFG_SIO\000"
 10587      53494F00 
 10588              	.LASF1487:
 10589 290c 5031315F 		.ascii	"P11_0_GPIO_DSI\000"
 10589      305F4750 
 10589      494F5F44 
 10589      534900
 10590              	.LASF214:
 10591 291b 50305F32 		.ascii	"P0_2_TCPWM1_LINE1\000"
 10591      5F544350 
 10591      574D315F 
 10591      4C494E45 
 10591      3100
 10592              	.LASF1630:
 10593 292d 5031325F 		.ascii	"P12_0_SCB6_UART_RX\000"
 10593      305F5343 
 10593      42365F55 
 10593      4152545F 
 10593      525800
 10594              	.LASF646:
 10595 2940 50345F31 		.ascii	"P4_1_SCB7_UART_TX\000"
 10595      5F534342 
 10595      375F5541 
 10595      52545F54 
 10595      5800
 10596              	.LASF1466:
 10597 2952 5031305F 		.ascii	"P10_6_TCPWM1_LINE2\000"
 10597      365F5443 
 10597      50574D31 
 10597      5F4C494E 
 10597      453200
 10598              	.LASF330:
 10599 2965 50315F33 		.ascii	"P1_3_AMUXA\000"
 10599      5F414D55 
 10599      584100
 10600              	.LASF331:
 10601 2970 50315F33 		.ascii	"P1_3_AMUXB\000"
 10601      5F414D55 
 10601      584200
 10602              	.LASF907:
 10603 297b 50365F35 		.ascii	"P6_5_SCB6_SPI_MISO\000"
 10603      5F534342 
 10603      365F5350 
 10603      495F4D49 
 10603      534F00
 10604              	.LASF1345:
 10605 298e 50395F37 		.ascii	"P9_7_TCPWM0_LINE_COMPL0\000"
 10605      5F544350 
 10605      574D305F 
 10605      4C494E45 
 10605      5F434F4D 
ARM GAS  C:\Users\stijn\AppData\Local\Temp\ccD3lQ9e.s 			page 261


 10606              	.LASF1524:
 10607 29a6 5031315F 		.ascii	"P11_2_GPIO\000"
 10607      325F4750 
 10607      494F00
 10608              	.LASF1234:
 10609 29b1 50395F30 		.ascii	"P9_0_CPUSS_TRACE_DATA3\000"
 10609      5F435055 
 10609      53535F54 
 10609      52414345 
 10609      5F444154 
 10610              	.LASF742:
 10611 29c8 50355F34 		.ascii	"P5_4_AUDIOSS_RX_SCK\000"
 10611      5F415544 
 10611      494F5353 
 10611      5F52585F 
 10611      53434B00 
 10612              	.LASF1529:
 10613 29dc 5031315F 		.ascii	"P11_2_AMUXB\000"
 10613      325F414D 
 10613      55584200 
 10614              	.LASF584:
 10615 29e8 50335F34 		.ascii	"P3_4_DSI_GPIO\000"
 10615      5F445349 
 10615      5F475049 
 10615      4F00
 10616              	.LASF285:
 10617 29f6 50315F30 		.ascii	"P1_0_CSD_CSD_TX_N\000"
 10617      5F435344 
 10617      5F435344 
 10617      5F54585F 
 10617      4E00
 10618              	.LASF1326:
 10619 2a08 50395F36 		.ascii	"P9_6_AMUXA\000"
 10619      5F414D55 
 10619      584100
 10620              	.LASF1327:
 10621 2a13 50395F36 		.ascii	"P9_6_AMUXB\000"
 10621      5F414D55 
 10621      584200
 10622              	.LASF564:
 10623 2a1e 50335F33 		.ascii	"P3_3_GPIO\000"
 10623      5F475049 
 10623      4F00
 10624              	.LASF1530:
 10625 2a28 5031315F 		.ascii	"P11_2_AMUXA_DSI\000"
 10625      325F414D 
 10625      5558415F 
 10625      44534900 
 10626              	.LASF845:
 10627 2a38 50365F32 		.ascii	"P6_2_LCD_COM40\000"
 10627      5F4C4344 
 10627      5F434F4D 
 10627      343000
 10628              	.LASF113:
 10629 2a47 63707573 		.ascii	"cpussCm4StatusOffset\000"
 10629      73436D34 
 10629      53746174 
ARM GAS  C:\Users\stijn\AppData\Local\Temp\ccD3lQ9e.s 			page 262


 10629      75734F66 
 10629      66736574 
 10630              	.LASF1418:
 10631 2a5c 5031305F 		.ascii	"P10_3_LCD_COM11\000"
 10631      335F4C43 
 10631      445F434F 
 10631      4D313100 
 10632              	.LASF174:
 10633 2a6c 50305F30 		.ascii	"P0_0_DSI_GPIO\000"
 10633      5F445349 
 10633      5F475049 
 10633      4F00
 10634              	.LASF1822:
 10635 2a7a 5031335F 		.ascii	"P13_4_DSI_GPIO\000"
 10635      345F4453 
 10635      495F4750 
 10635      494F00
 10636              	.LASF721:
 10637 2a89 50355F33 		.ascii	"P5_3_LCD_COM33\000"
 10637      5F4C4344 
 10637      5F434F4D 
 10637      333300
 10638              	.LASF819:
 10639 2a98 50365F31 		.ascii	"P6_1_AMUXA_DSI\000"
 10639      5F414D55 
 10639      58415F44 
 10639      534900
 10640              	.LASF1155:
 10641 2aa7 50385F33 		.ascii	"P8_3_SCB4_SPI_SELECT0\000"
 10641      5F534342 
 10641      345F5350 
 10641      495F5345 
 10641      4C454354 
 10642              	.LASF1746:
 10643 2abd 5031325F 		.ascii	"P12_7_TCPWM1_LINE_COMPL7\000"
 10643      375F5443 
 10643      50574D31 
 10643      5F4C494E 
 10643      455F434F 
 10644              	.LASF1285:
 10645 2ad6 50395F33 		.ascii	"P9_3_LCD_COM3\000"
 10645      5F4C4344 
 10645      5F434F4D 
 10645      3300
 10646              	.LASF549:
 10647 2ae4 50335F32 		.ascii	"P3_2_DSI_DSI\000"
 10647      5F445349 
 10647      5F445349 
 10647      00
 10648              	.LASF1354:
 10649 2af1 5031305F 		.ascii	"P10_0_DSI_GPIO\000"
 10649      305F4453 
 10649      495F4750 
 10649      494F00
 10650              	.LASF281:
 10651 2b00 50315F30 		.ascii	"P1_0_AMUXB_DSI\000"
 10651      5F414D55 
ARM GAS  C:\Users\stijn\AppData\Local\Temp\ccD3lQ9e.s 			page 263


 10651      58425F44 
 10651      534900
 10652              	.LASF1598:
 10653 2b0f 5031315F 		.ascii	"P11_6_AMUXA_DSI\000"
 10653      365F414D 
 10653      5558415F 
 10653      44534900 
 10654              	.LASF759:
 10655 2b1f 50355F35 		.ascii	"P5_5_AUDIOSS_RX_WS\000"
 10655      5F415544 
 10655      494F5353 
 10655      5F52585F 
 10655      575300
 10656              	.LASF1731:
 10657 2b32 5031325F 		.ascii	"P12_6_TCPWM1_LINE7\000"
 10657      365F5443 
 10657      50574D31 
 10657      5F4C494E 
 10657      453700
 10658              	.LASF1347:
 10659 2b45 50395F37 		.ascii	"P9_7_CSD_CSD_TX\000"
 10659      5F435344 
 10659      5F435344 
 10659      5F545800 
 10660              	.LASF520:
 10661 2b55 50335F30 		.ascii	"P3_0_CSD_CSD_TX_N\000"
 10661      5F435344 
 10661      5F435344 
 10661      5F54585F 
 10661      4E00
 10662              	.LASF1000:
 10663 2b67 50375F32 		.ascii	"P7_2_SCB4_UART_RTS\000"
 10663      5F534342 
 10663      345F5541 
 10663      52545F52 
 10663      545300
 10664              	.LASF1187:
 10665 2b7a 50385F36 		.ascii	"P8_6_GPIO_DSI\000"
 10665      5F475049 
 10665      4F5F4453 
 10665      4900
 10666              	.LASF697:
 10667 2b88 50355F32 		.ascii	"P5_2_AMUXA_DSI\000"
 10667      5F414D55 
 10667      58415F44 
 10667      534900
 10668              	.LASF1830:
 10669 2b97 5031335F 		.ascii	"P13_4_CSD_CSD_TX_N\000"
 10669      345F4353 
 10669      445F4353 
 10669      445F5458 
 10669      5F4E00
 10670              	.LASF1235:
 10671 2baa 50395F31 		.ascii	"P9_1_GPIO\000"
 10671      5F475049 
 10671      4F00
 10672              	.LASF1280:
ARM GAS  C:\Users\stijn\AppData\Local\Temp\ccD3lQ9e.s 			page 264


 10673 2bb4 50395F33 		.ascii	"P9_3_AMUXB_DSI\000"
 10673      5F414D55 
 10673      58425F44 
 10673      534900
 10674              	.LASF692:
 10675 2bc3 50355F32 		.ascii	"P5_2_GPIO_DSI\000"
 10675      5F475049 
 10675      4F5F4453 
 10675      4900
 10676              	.LASF51:
 10677 2bd1 63707573 		.ascii	"cpussVersion\000"
 10677      73566572 
 10677      73696F6E 
 10677      00
 10678              	.LASF662:
 10679 2bde 50355F30 		.ascii	"P5_0_CSD_CSD_TX_N\000"
 10679      5F435344 
 10679      5F435344 
 10679      5F54585F 
 10679      4E00
 10680              	.LASF1119:
 10681 2bf0 50385F31 		.ascii	"P8_1_SCB4_I2C_SDA\000"
 10681      5F534342 
 10681      345F4932 
 10681      435F5344 
 10681      4100
 10682              	.LASF291:
 10683 2c02 50315F30 		.ascii	"P1_0_PERI_TR_IO_INPUT2\000"
 10683      5F504552 
 10683      495F5452 
 10683      5F494F5F 
 10683      494E5055 
 10684              	.LASF1396:
 10685 2c19 5031305F 		.ascii	"P10_2_AMUXB_DSI\000"
 10685      325F414D 
 10685      5558425F 
 10685      44534900 
 10686              	.LASF140:
 10687 2c29 4853494F 		.ascii	"HSIOM_SEL_GPIO_DSI\000"
 10687      4D5F5345 
 10687      4C5F4750 
 10687      494F5F44 
 10687      534900
 10688              	.LASF842:
 10689 2c3c 50365F32 		.ascii	"P6_2_TCPWM1_LINE9\000"
 10689      5F544350 
 10689      574D315F 
 10689      4C494E45 
 10689      3900
 10690              	.LASF121:
 10691 2c4e 63707573 		.ascii	"cpussRomCtl\000"
 10691      73526F6D 
 10691      43746C00 
 10692              	.LASF269:
 10693 2c5a 50305F35 		.ascii	"P0_5_LCD_SEG5\000"
 10693      5F4C4344 
 10693      5F534547 
ARM GAS  C:\Users\stijn\AppData\Local\Temp\ccD3lQ9e.s 			page 265


 10693      3500
 10694              	.LASF1108:
 10695 2c68 50385F31 		.ascii	"P8_1_AMUXA\000"
 10695      5F414D55 
 10695      584100
 10696              	.LASF1109:
 10697 2c73 50385F31 		.ascii	"P8_1_AMUXB\000"
 10697      5F414D55 
 10697      584200
 10698              	.LASF320:
 10699 2c7e 50315F32 		.ascii	"P1_2_CSD_CSD_TX\000"
 10699      5F435344 
 10699      5F435344 
 10699      5F545800 
 10700              	.LASF1772:
 10701 2c8e 5031335F 		.ascii	"P13_1_DSI_GPIO\000"
 10701      315F4453 
 10701      495F4750 
 10701      494F00
 10702              	.LASF519:
 10703 2c9d 50335F30 		.ascii	"P3_0_CSD_CSD_TX\000"
 10703      5F435344 
 10703      5F435344 
 10703      5F545800 
 10704              	.LASF1043:
 10705 2cad 50375F35 		.ascii	"P7_5_TCPWM0_LINE_COMPL6\000"
 10705      5F544350 
 10705      574D305F 
 10705      4C494E45 
 10705      5F434F4D 
 10706              	.LASF1891:
 10707 2cc5 43595F47 		.ascii	"CY_GPIO_AMUX_GL\000"
 10707      50494F5F 
 10707      414D5558 
 10707      5F474C00 
 10708              	.LASF1523:
 10709 2cd5 5031315F 		.ascii	"P11_1_PERI_TR_IO_INPUT23\000"
 10709      315F5045 
 10709      52495F54 
 10709      525F494F 
 10709      5F494E50 
 10710              	.LASF1528:
 10711 2cee 5031315F 		.ascii	"P11_2_AMUXA\000"
 10711      325F414D 
 10711      55584100 
 10712              	.LASF194:
 10713 2cfa 50305F31 		.ascii	"P0_1_AMUXA_DSI\000"
 10713      5F414D55 
 10713      58415F44 
 10713      534900
 10714              	.LASF1892:
 10715 2d09 43595F47 		.ascii	"CY_GPIO_AMUX_GR\000"
 10715      50494F5F 
 10715      414D5558 
 10715      5F475200 
 10716              	.LASF960:
 10717 2d19 50375F30 		.ascii	"P7_0_CSD_CSD_TX_N\000"
ARM GAS  C:\Users\stijn\AppData\Local\Temp\ccD3lQ9e.s 			page 266


 10717      5F435344 
 10717      5F435344 
 10717      5F54585F 
 10717      4E00
 10718              	.LASF1167:
 10719 2d2b 50385F34 		.ascii	"P8_4_CSD_CSD_TX_N\000"
 10719      5F435344 
 10719      5F435344 
 10719      5F54585F 
 10719      4E00
 10720              	.LASF1475:
 10721 2d3d 5031305F 		.ascii	"P10_7_DSI_GPIO\000"
 10721      375F4453 
 10721      495F4750 
 10721      494F00
 10722              	.LASF1055:
 10723 2d4c 50375F36 		.ascii	"P7_6_DSI_GPIO\000"
 10723      5F445349 
 10723      5F475049 
 10723      4F00
 10724              	.LASF1052:
 10725 2d5a 50375F36 		.ascii	"P7_6_GPIO\000"
 10725      5F475049 
 10725      4F00
 10726              	.LASF446:
 10727 2d64 50325F34 		.ascii	"P2_4_GPIO\000"
 10727      5F475049 
 10727      4F00
 10728              	.LASF1623:
 10729 2d6e 5031325F 		.ascii	"P12_0_TCPWM0_LINE4\000"
 10729      305F5443 
 10729      50574D30 
 10729      5F4C494E 
 10729      453400
 10730              	.LASF1812:
 10731 2d81 5031335F 		.ascii	"P13_3_TCPWM1_LINE_COMPL9\000"
 10731      335F5443 
 10731      50574D31 
 10731      5F4C494E 
 10731      455F434F 
 10732              	.LASF1585:
 10733 2d9a 5031315F 		.ascii	"P11_5_TCPWM1_LINE_COMPL3\000"
 10733      355F5443 
 10733      50574D31 
 10733      5F4C494E 
 10733      455F434F 
 10734              	.LASF854:
 10735 2db3 50365F33 		.ascii	"P6_3_AMUXA\000"
 10735      5F414D55 
 10735      584100
 10736              	.LASF855:
 10737 2dbe 50365F33 		.ascii	"P6_3_AMUXB\000"
 10737      5F414D55 
 10737      584200
 10738              	.LASF1693:
 10739 2dc9 5031325F 		.ascii	"P12_4_AMUXA_DSI\000"
 10739      345F414D 
ARM GAS  C:\Users\stijn\AppData\Local\Temp\ccD3lQ9e.s 			page 267


 10739      5558415F 
 10739      44534900 
 10740              	.LASF1676:
 10741 2dd9 5031325F 		.ascii	"P12_3_AMUXA_DSI\000"
 10741      335F414D 
 10741      5558415F 
 10741      44534900 
 10742              	.LASF1449:
 10743 2de9 5031305F 		.ascii	"P10_5_TCPWM1_LINE_COMPL0\000"
 10743      355F5443 
 10743      50574D31 
 10743      5F4C494E 
 10743      455F434F 
 10744              	.LASF1847:
 10745 2e02 5031335F 		.ascii	"P13_5_LCD_SEG36\000"
 10745      355F4C43 
 10745      445F5345 
 10745      47333600 
 10746              	.LASF711:
 10747 2e12 50355F33 		.ascii	"P5_3_DSI_DSI\000"
 10747      5F445349 
 10747      5F445349 
 10747      00
 10748              	.LASF1227:
 10749 2e1f 50395F30 		.ascii	"P9_0_CSD_CSD_TX_N\000"
 10749      5F435344 
 10749      5F435344 
 10749      5F54585F 
 10749      4E00
 10750              	.LASF1406:
 10751 2e31 5031305F 		.ascii	"P10_3_GPIO\000"
 10751      335F4750 
 10751      494F00
 10752              	.LASF69:
 10753 2e3c 73727373 		.ascii	"srssNumHfroot\000"
 10753      4E756D48 
 10753      66726F6F 
 10753      7400
 10754              	.LASF1162:
 10755 2e4a 50385F34 		.ascii	"P8_4_AMUXA_DSI\000"
 10755      5F414D55 
 10755      58415F44 
 10755      534900
 10756              	.LASF1218:
 10757 2e59 50395F30 		.ascii	"P9_0_DSI_DSI\000"
 10757      5F445349 
 10757      5F445349 
 10757      00
 10758              	.LASF40:
 10759 2e66 4853494F 		.ascii	"HSIOM_V1_Type\000"
 10759      4D5F5631 
 10759      5F547970 
 10759      6500
 10760              	.LASF459:
 10761 2e74 50325F34 		.ascii	"P2_4_LCD_SEG16\000"
 10761      5F4C4344 
 10761      5F534547 
ARM GAS  C:\Users\stijn\AppData\Local\Temp\ccD3lQ9e.s 			page 268


 10761      313600
 10762              	.LASF1569:
 10763 2e83 5031315F 		.ascii	"P11_4_CSD_CSD_TX\000"
 10763      345F4353 
 10763      445F4353 
 10763      445F5458 
 10763      00
 10764              	.LASF1797:
 10765 2e94 5031335F 		.ascii	"P13_2_CSD_CSD_TX\000"
 10765      325F4353 
 10765      445F4353 
 10765      445F5458 
 10765      00
 10766              	.LASF1873:
 10767 2ea5 5031335F 		.ascii	"P13_7_TCPWM1_LINE_COMPL11\000"
 10767      375F5443 
 10767      50574D31 
 10767      5F4C494E 
 10767      455F434F 
 10768              	.LASF79:
 10769 2ebf 666C6173 		.ascii	"flashPipeRequired\000"
 10769      68506970 
 10769      65526571 
 10769      75697265 
 10769      6400
 10770              	.LASF630:
 10771 2ed1 50345F30 		.ascii	"P4_0_PERI_TR_IO_INPUT8\000"
 10771      5F504552 
 10771      495F5452 
 10771      5F494F5F 
 10771      494E5055 
 10772              	.LASF1362:
 10773 2ee8 5031305F 		.ascii	"P10_0_CSD_CSD_TX_N\000"
 10773      305F4353 
 10773      445F4353 
 10773      445F5458 
 10773      5F4E00
 10774              	.LASF1826:
 10775 2efb 5031335F 		.ascii	"P13_4_AMUXB_DSI\000"
 10775      345F414D 
 10775      5558425F 
 10775      44534900 
 10776              	.LASF1533:
 10777 2f0b 5031315F 		.ascii	"P11_2_TCPWM1_LINE2\000"
 10777      325F5443 
 10777      50574D31 
 10777      5F4C494E 
 10777      453200
 10778              	.LASF123:
 10779 2f1e 63707573 		.ascii	"cpussRam1Ctl0\000"
 10779      7352616D 
 10779      3143746C 
 10779      3000
 10780              	.LASF1876:
 10781 2f2c 5031335F 		.ascii	"P13_7_LCD_COM38\000"
 10781      375F4C43 
 10781      445F434F 
ARM GAS  C:\Users\stijn\AppData\Local\Temp\ccD3lQ9e.s 			page 269


 10781      4D333800 
 10782              	.LASF1819:
 10783 2f3c 5031335F 		.ascii	"P13_4_GPIO\000"
 10783      345F4750 
 10783      494F00
 10784              	.LASF463:
 10785 2f47 50325F35 		.ascii	"P2_5_GPIO_DSI\000"
 10785      5F475049 
 10785      4F5F4453 
 10785      4900
 10786              	.LASF1339:
 10787 2f55 50395F37 		.ascii	"P9_7_DSI_DSI\000"
 10787      5F445349 
 10787      5F445349 
 10787      00
 10788              	.LASF669:
 10789 2f62 50355F30 		.ascii	"P5_0_AUDIOSS0_CLK_I2S_IF\000"
 10789      5F415544 
 10789      494F5353 
 10789      305F434C 
 10789      4B5F4932 
 10790              	.LASF1846:
 10791 2f7b 5031335F 		.ascii	"P13_5_LCD_COM36\000"
 10791      355F4C43 
 10791      445F434F 
 10791      4D333600 
 10792              	.LASF1895:
 10793 2f8b 43595F47 		.ascii	"CY_GPIO_AMUXBUSA\000"
 10793      50494F5F 
 10793      414D5558 
 10793      42555341 
 10793      00
 10794              	.LASF570:
 10795 2f9c 50335F33 		.ascii	"P3_3_AMUXA_DSI\000"
 10795      5F414D55 
 10795      58415F44 
 10795      534900
 10796              	.LASF1626:
 10797 2fab 5031325F 		.ascii	"P12_0_CSD_CSD_TX_N\000"
 10797      305F4353 
 10797      445F4353 
 10797      445F5458 
 10797      5F4E00
 10798              	.LASF1945:
 10799 2fbe 746D7052 		.ascii	"tmpReg\000"
 10799      656700
 10800              	.LASF458:
 10801 2fc5 50325F34 		.ascii	"P2_4_LCD_COM16\000"
 10801      5F4C4344 
 10801      5F434F4D 
 10801      313600
 10802              	.LASF470:
 10803 2fd4 50325F35 		.ascii	"P2_5_TCPWM0_LINE_COMPL0\000"
 10803      5F544350 
 10803      574D305F 
 10803      4C494E45 
 10803      5F434F4D 
ARM GAS  C:\Users\stijn\AppData\Local\Temp\ccD3lQ9e.s 			page 270


 10804              	.LASF1706:
 10805 2fec 5031325F 		.ascii	"P12_5_GPIO_DSI\000"
 10805      355F4750 
 10805      494F5F44 
 10805      534900
 10806              	.LASF1605:
 10807 2ffb 5031315F 		.ascii	"P11_6_SCB5_SPI_SELECT3\000"
 10807      365F5343 
 10807      42355F53 
 10807      50495F53 
 10807      454C4543 
 10808              	.LASF1881:
 10809 3012 666C6F61 		.ascii	"float\000"
 10809      7400
 10810              	.LASF1025:
 10811 3018 50375F34 		.ascii	"P7_4_AMUXB_DSI\000"
 10811      5F414D55 
 10811      58425F44 
 10811      534900
 10812              	.LASF77:
 10813 3027 63727970 		.ascii	"cryptoMemSize\000"
 10813      746F4D65 
 10813      6D53697A 
 10813      6500
 10814              	.LASF1293:
 10815 3035 50395F34 		.ascii	"P9_4_GPIO_DSI\000"
 10815      5F475049 
 10815      4F5F4453 
 10815      4900
 10816              	.LASF905:
 10817 3043 50365F35 		.ascii	"P6_5_SCB6_UART_TX\000"
 10817      5F534342 
 10817      365F5541 
 10817      52545F54 
 10817      5800
 10818              	.LASF1488:
 10819 3055 5031315F 		.ascii	"P11_0_DSI_DSI\000"
 10819      305F4453 
 10819      495F4453 
 10819      4900
 10820              	.LASF923:
 10821 3063 50365F36 		.ascii	"P6_6_CSD_CSD_TX\000"
 10821      5F435344 
 10821      5F435344 
 10821      5F545800 
 10822              	.LASF268:
 10823 3073 50305F35 		.ascii	"P0_5_LCD_COM5\000"
 10823      5F4C4344 
 10823      5F434F4D 
 10823      3500
 10824              	.LASF717:
 10825 3081 50355F33 		.ascii	"P5_3_TCPWM0_LINE_COMPL5\000"
 10825      5F544350 
 10825      574D305F 
 10825      4C494E45 
 10825      5F434F4D 
 10826              	.LASF1166:
ARM GAS  C:\Users\stijn\AppData\Local\Temp\ccD3lQ9e.s 			page 271


 10827 3099 50385F34 		.ascii	"P8_4_CSD_CSD_TX\000"
 10827      5F435344 
 10827      5F435344 
 10827      5F545800 
 10828              	.LASF1890:
 10829 30a9 43595F47 		.ascii	"CY_GPIO_AMUX_G\000"
 10829      50494F5F 
 10829      414D5558 
 10829      5F4700
 10830              	.LASF1122:
 10831 30b8 50385F32 		.ascii	"P8_2_GPIO\000"
 10831      5F475049 
 10831      4F00
 10832              	.LASF509:
 10833 30c2 50335F30 		.ascii	"P3_0_GPIO\000"
 10833      5F475049 
 10833      4F00
 10834              	.LASF1887:
 10835 30cc 43595F47 		.ascii	"CY_GPIO_AMUX_L\000"
 10835      50494F5F 
 10835      414D5558 
 10835      5F4C00
 10836              	.LASF1793:
 10837 30db 5031335F 		.ascii	"P13_2_AMUXA_DSI\000"
 10837      325F414D 
 10837      5558415F 
 10837      44534900 
 10838              	.LASF1888:
 10839 30eb 43595F47 		.ascii	"CY_GPIO_AMUX_R\000"
 10839      50494F5F 
 10839      414D5558 
 10839      5F5200
 10840              	.LASF794:
 10841 30fa 50365F30 		.ascii	"P6_0_GPIO_DSI\000"
 10841      5F475049 
 10841      4F5F4453 
 10841      4900
 10842              	.LASF689:
 10843 3108 50355F31 		.ascii	"P5_1_AUDIOSS0_TX_SCK\000"
 10843      5F415544 
 10843      494F5353 
 10843      305F5458 
 10843      5F53434B 
 10844              	.LASF82:
 10845 311d 666C6173 		.ascii	"flashEraseDelay\000"
 10845      68457261 
 10845      73654465 
 10845      6C617900 
 10846              	.LASF1048:
 10847 312d 50375F35 		.ascii	"P7_5_LCD_SEG51\000"
 10847      5F4C4344 
 10847      5F534547 
 10847      353100
 10848              	.LASF1603:
 10849 313c 5031315F 		.ascii	"P11_6_LCD_SEG22\000"
 10849      365F4C43 
 10849      445F5345 
ARM GAS  C:\Users\stijn\AppData\Local\Temp\ccD3lQ9e.s 			page 272


 10849      47323200 
 10850              	.LASF1112:
 10851 314c 50385F31 		.ascii	"P8_1_TCPWM0_LINE_COMPL0\000"
 10851      5F544350 
 10851      574D305F 
 10851      4C494E45 
 10851      5F434F4D 
 10852              	.LASF1514:
 10853 3164 5031315F 		.ascii	"P11_1_TCPWM1_LINE_COMPL1\000"
 10853      315F5443 
 10853      50574D31 
 10853      5F4C494E 
 10853      455F434F 
 10854              	.LASF769:
 10855 317d 50355F36 		.ascii	"P5_6_TCPWM0_LINE7\000"
 10855      5F544350 
 10855      574D305F 
 10855      4C494E45 
 10855      3700
 10856              	.LASF360:
 10857 318f 50315F35 		.ascii	"P1_5_DSI_GPIO\000"
 10857      5F445349 
 10857      5F475049 
 10857      4F00
 10858              	.LASF1942:
 10859 319d 73776974 		.ascii	"switchCtrl\000"
 10859      63684374 
 10859      726C00
 10860              	.LASF1711:
 10861 31a8 5031325F 		.ascii	"P12_5_AMUXA_DSI\000"
 10861      355F414D 
 10861      5558415F 
 10861      44534900 
 10862              	.LASF339:
 10863 31b8 50315F33 		.ascii	"P1_3_LCD_SEG9\000"
 10863      5F4C4344 
 10863      5F534547 
 10863      3900
 10864              	.LASF436:
 10865 31c6 50325F33 		.ascii	"P2_3_AMUXB_DSI\000"
 10865      5F414D55 
 10865      58425F44 
 10865      534900
 10866              	.LASF1911:
 10867 31d5 76747269 		.ascii	"vtrip\000"
 10867      7000
 10868              	.LASF498:
 10869 31db 50325F37 		.ascii	"P2_7_AMUXA\000"
 10869      5F414D55 
 10869      584100
 10870              	.LASF499:
 10871 31e6 50325F37 		.ascii	"P2_7_AMUXB\000"
 10871      5F414D55 
 10871      584200
 10872              	.LASF1063:
 10873 31f1 50375F36 		.ascii	"P7_6_CSD_CSD_TX_N\000"
 10873      5F435344 
ARM GAS  C:\Users\stijn\AppData\Local\Temp\ccD3lQ9e.s 			page 273


 10873      5F435344 
 10873      5F54585F 
 10873      4E00
 10874              	.LASF977:
 10875 3203 50375F31 		.ascii	"P7_1_TCPWM1_LINE_COMPL12\000"
 10875      5F544350 
 10875      574D315F 
 10875      4C494E45 
 10875      5F434F4D 
 10876              	.LASF1726:
 10877 321c 5031325F 		.ascii	"P12_6_AMUXA\000"
 10877      365F414D 
 10877      55584100 
 10878              	.LASF1727:
 10879 3228 5031325F 		.ascii	"P12_6_AMUXB\000"
 10879      365F414D 
 10879      55584200 
 10880              	.LASF38:
 10881 3234 4853494F 		.ascii	"HSIOM_PRT_V1_Type\000"
 10881      4D5F5052 
 10881      545F5631 
 10881      5F547970 
 10881      6500
 10882              	.LASF1060:
 10883 3246 50375F36 		.ascii	"P7_6_TCPWM0_LINE7\000"
 10883      5F544350 
 10883      574D305F 
 10883      4C494E45 
 10883      3700
 10884              	.LASF1889:
 10885 3258 43595F47 		.ascii	"CY_GPIO_AMUX_LR\000"
 10885      50494F5F 
 10885      414D5558 
 10885      5F4C5200 
 10886              	.LASF724:
 10887 3268 50355F33 		.ascii	"P5_3_SCB5_SPI_SELECT0\000"
 10887      5F534342 
 10887      355F5350 
 10887      495F5345 
 10887      4C454354 
 10888              	.LASF896:
 10889 327e 50365F35 		.ascii	"P6_5_AMUXA_DSI\000"
 10889      5F414D55 
 10889      58415F44 
 10889      534900
 10890              	.LASF931:
 10891 328d 50365F37 		.ascii	"P6_7_GPIO\000"
 10891      5F475049 
 10891      4F00
 10892              	.LASF357:
 10893 3297 50315F35 		.ascii	"P1_5_GPIO\000"
 10893      5F475049 
 10893      4F00
 10894              	.LASF1093:
 10895 32a1 50385F30 		.ascii	"P8_0_AMUXB_DSI\000"
 10895      5F414D55 
 10895      58425F44 
ARM GAS  C:\Users\stijn\AppData\Local\Temp\ccD3lQ9e.s 			page 274


 10895      534900
 10896              	.LASF455:
 10897 32b0 50325F34 		.ascii	"P2_4_TCPWM1_LINE17\000"
 10897      5F544350 
 10897      574D315F 
 10897      4C494E45 
 10897      313700
 10898              	.LASF1047:
 10899 32c3 50375F35 		.ascii	"P7_5_LCD_COM51\000"
 10899      5F4C4344 
 10899      5F434F4D 
 10899      353100
 10900              	.LASF267:
 10901 32d2 50305F35 		.ascii	"P0_5_CSD_CSD_TX_N\000"
 10901      5F435344 
 10901      5F435344 
 10901      5F54585F 
 10901      4E00
 10902              	.LASF1795:
 10903 32e4 5031335F 		.ascii	"P13_2_TCPWM0_LINE1\000"
 10903      325F5443 
 10903      50574D30 
 10903      5F4C494E 
 10903      453100
 10904              	.LASF1602:
 10905 32f7 5031315F 		.ascii	"P11_6_LCD_COM22\000"
 10905      365F4C43 
 10905      445F434F 
 10905      4D323200 
 10906              	.LASF654:
 10907 3307 50355F30 		.ascii	"P5_0_DSI_GPIO\000"
 10907      5F445349 
 10907      5F475049 
 10907      4F00
 10908              	.LASF1309:
 10909 3315 50395F35 		.ascii	"P9_5_DSI_DSI\000"
 10909      5F445349 
 10909      5F445349 
 10909      00
 10910              	.LASF929:
 10911 3322 50365F36 		.ascii	"P6_6_CPUSS_SWJ_SWDIO_TMS\000"
 10911      5F435055 
 10911      53535F53 
 10911      574A5F53 
 10911      5744494F 
 10912              	.LASF513:
 10913 333b 50335F30 		.ascii	"P3_0_AMUXA\000"
 10913      5F414D55 
 10913      584100
 10914              	.LASF514:
 10915 3346 50335F30 		.ascii	"P3_0_AMUXB\000"
 10915      5F414D55 
 10915      584200
 10916              	.LASF1771:
 10917 3351 5031335F 		.ascii	"P13_1_DSI_DSI\000"
 10917      315F4453 
 10917      495F4453 
ARM GAS  C:\Users\stijn\AppData\Local\Temp\ccD3lQ9e.s 			page 275


 10917      4900
 10918              	.LASF1330:
 10919 335f 50395F36 		.ascii	"P9_6_TCPWM0_LINE0\000"
 10919      5F544350 
 10919      574D305F 
 10919      4C494E45 
 10919      3000
 10920              	.LASF1010:
 10921 3371 50375F33 		.ascii	"P7_3_TCPWM0_LINE_COMPL5\000"
 10921      5F544350 
 10921      574D305F 
 10921      4C494E45 
 10921      5F434F4D 
 10922              	.LASF774:
 10923 3389 50355F36 		.ascii	"P5_6_LCD_SEG36\000"
 10923      5F4C4344 
 10923      5F534547 
 10923      333600
 10924              	.LASF670:
 10925 3398 50355F30 		.ascii	"P5_0_PERI_TR_IO_INPUT10\000"
 10925      5F504552 
 10925      495F5452 
 10925      5F494F5F 
 10925      494E5055 
 10926              	.LASF1583:
 10927 33b0 5031315F 		.ascii	"P11_5_AMUXB_DSI\000"
 10927      355F414D 
 10927      5558425F 
 10927      44534900 
 10928              	.LASF1095:
 10929 33c0 50385F30 		.ascii	"P8_0_TCPWM1_LINE16\000"
 10929      5F544350 
 10929      574D315F 
 10929      4C494E45 
 10929      313600
 10930              	.LASF932:
 10931 33d3 50365F37 		.ascii	"P6_7_GPIO_DSI\000"
 10931      5F475049 
 10931      4F5F4453 
 10931      4900
 10932              	.LASF473:
 10933 33e1 50325F35 		.ascii	"P2_5_CSD_CSD_TX_N\000"
 10933      5F435344 
 10933      5F435344 
 10933      5F54585F 
 10933      4E00
 10934              	.LASF213:
 10935 33f3 50305F32 		.ascii	"P0_2_TCPWM0_LINE1\000"
 10935      5F544350 
 10935      574D305F 
 10935      4C494E45 
 10935      3100
 10936              	.LASF230:
 10937 3405 50305F33 		.ascii	"P0_3_TCPWM0_LINE_COMPL1\000"
 10937      5F544350 
 10937      574D305F 
 10937      4C494E45 
ARM GAS  C:\Users\stijn\AppData\Local\Temp\ccD3lQ9e.s 			page 276


 10937      5F434F4D 
 10938              	.LASF1501:
 10939 341d 5031315F 		.ascii	"P11_0_SCB5_UART_RX\000"
 10939      305F5343 
 10939      42355F55 
 10939      4152545F 
 10939      525800
 10940              	.LASF1037:
 10941 3430 50375F35 		.ascii	"P7_5_DSI_DSI\000"
 10941      5F445349 
 10941      5F445349 
 10941      00
 10942              	.LASF1384:
 10943 343d 5031305F 		.ascii	"P10_1_SCB1_UART_TX\000"
 10943      315F5343 
 10943      42315F55 
 10943      4152545F 
 10943      545800
 10944              	.LASF348:
 10945 3450 50315F34 		.ascii	"P1_4_AMUXA_DSI\000"
 10945      5F414D55 
 10945      58415F44 
 10945      534900
 10946              	.LASF537:
 10947 345f 50335F31 		.ascii	"P3_1_TCPWM1_LINE_COMPL19\000"
 10947      5F544350 
 10947      574D315F 
 10947      4C494E45 
 10947      5F434F4D 
 10948              	.LASF117:
 10949 3478 63707573 		.ascii	"cpussTrimRomCtlOffset\000"
 10949      73547269 
 10949      6D526F6D 
 10949      43746C4F 
 10949      66667365 
 10950              	.LASF1509:
 10951 348e 5031315F 		.ascii	"P11_1_AMUXA\000"
 10951      315F414D 
 10951      55584100 
 10952              	.LASF1510:
 10953 349a 5031315F 		.ascii	"P11_1_AMUXB\000"
 10953      315F414D 
 10953      55584200 
 10954              	.LASF565:
 10955 34a6 50335F33 		.ascii	"P3_3_GPIO_DSI\000"
 10955      5F475049 
 10955      4F5F4453 
 10955      4900
 10956              	.LASF626:
 10957 34b4 50345F30 		.ascii	"P4_0_LCD_SEG26\000"
 10957      5F4C4344 
 10957      5F534547 
 10957      323600
 10958              	.LASF536:
 10959 34c3 50335F31 		.ascii	"P3_1_TCPWM0_LINE_COMPL2\000"
 10959      5F544350 
 10959      574D305F 
ARM GAS  C:\Users\stijn\AppData\Local\Temp\ccD3lQ9e.s 			page 277


 10959      4C494E45 
 10959      5F434F4D 
 10960              	.LASF207:
 10961 34db 50305F32 		.ascii	"P0_2_DSI_DSI\000"
 10961      5F445349 
 10961      5F445349 
 10961      00
 10962              	.LASF1311:
 10963 34e8 50395F35 		.ascii	"P9_5_AMUXA\000"
 10963      5F414D55 
 10963      584100
 10964              	.LASF1312:
 10965 34f3 50395F35 		.ascii	"P9_5_AMUXB\000"
 10965      5F414D55 
 10965      584200
 10966              	.LASF273:
 10967 34fe 50305F35 		.ascii	"P0_5_PERI_TR_IO_OUTPUT1\000"
 10967      5F504552 
 10967      495F5452 
 10967      5F494F5F 
 10967      4F555450 
 10968              	.LASF1798:
 10969 3516 5031335F 		.ascii	"P13_2_CSD_CSD_TX_N\000"
 10969      325F4353 
 10969      445F4353 
 10969      445F5458 
 10969      5F4E00
 10970              	.LASF420:
 10971 3529 50325F32 		.ascii	"P2_2_TCPWM0_LINE7\000"
 10971      5F544350 
 10971      574D305F 
 10971      4C494E45 
 10971      3700
 10972              	.LASF773:
 10973 353b 50355F36 		.ascii	"P5_6_LCD_COM36\000"
 10973      5F4C4344 
 10973      5F434F4D 
 10973      333600
 10974              	.LASF1899:
 10975 354a 696E7472 		.ascii	"intrCfg\000"
 10975      43666700 
 10976              	.LASF1804:
 10977 3552 5031335F 		.ascii	"P13_3_GPIO_DSI\000"
 10977      335F4750 
 10977      494F5F44 
 10977      534900
 10978              	.LASF1465:
 10979 3561 5031305F 		.ascii	"P10_6_TCPWM0_LINE1\000"
 10979      365F5443 
 10979      50574D30 
 10979      5F4C494E 
 10979      453100
 10980              	.LASF410:
 10981 3574 50325F31 		.ascii	"P2_1_PERI_TR_IO_INPUT5\000"
 10981      5F504552 
 10981      495F5452 
 10981      5F494F5F 
ARM GAS  C:\Users\stijn\AppData\Local\Temp\ccD3lQ9e.s 			page 278


 10981      494E5055 
 10982              	.LASF314:
 10983 358b 50315F32 		.ascii	"P1_2_AMUXA\000"
 10983      5F414D55 
 10983      584100
 10984              	.LASF315:
 10985 3596 50315F32 		.ascii	"P1_2_AMUXB\000"
 10985      5F414D55 
 10985      584200
 10986              	.LASF1578:
 10987 35a1 5031315F 		.ascii	"P11_5_DSI_DSI\000"
 10987      355F4453 
 10987      495F4453 
 10987      4900
 10988              	.LASF1705:
 10989 35af 5031325F 		.ascii	"P12_5_GPIO\000"
 10989      355F4750 
 10989      494F00
 10990              	.LASF1084:
 10991 35ba 50375F37 		.ascii	"P7_7_CPUSS_CLK_FM_PUMP\000"
 10991      5F435055 
 10991      53535F43 
 10991      4C4B5F46 
 10991      4D5F5055 
 10992              	.LASF922:
 10993 35d1 50365F36 		.ascii	"P6_6_TCPWM1_LINE11\000"
 10993      5F544350 
 10993      574D315F 
 10993      4C494E45 
 10993      313100
 10994              	.LASF751:
 10995 35e4 50355F35 		.ascii	"P5_5_AMUXB_DSI\000"
 10995      5F414D55 
 10995      58425F44 
 10995      534900
 10996              	.LASF810:
 10997 35f3 50365F30 		.ascii	"P6_0_SCB3_SPI_MOSI\000"
 10997      5F534342 
 10997      335F5350 
 10997      495F4D4F 
 10997      534900
 10998              	.LASF338:
 10999 3606 50315F33 		.ascii	"P1_3_LCD_COM9\000"
 10999      5F4C4344 
 10999      5F434F4D 
 10999      3900
 11000              	.LASF781:
 11001 3614 50355F37 		.ascii	"P5_7_DSI_GPIO\000"
 11001      5F445349 
 11001      5F475049 
 11001      4F00
 11002              	.LASF1463:
 11003 3622 5031305F 		.ascii	"P10_6_AMUXA_DSI\000"
 11003      365F414D 
 11003      5558415F 
 11003      44534900 
 11004              	.LASF904:
ARM GAS  C:\Users\stijn\AppData\Local\Temp\ccD3lQ9e.s 			page 279


 11005 3632 50365F35 		.ascii	"P6_5_SCB8_I2C_SDA\000"
 11005      5F534342 
 11005      385F4932 
 11005      435F5344 
 11005      4100
 11006              	.LASF1002:
 11007 3644 50375F33 		.ascii	"P7_3_GPIO\000"
 11007      5F475049 
 11007      4F00
 11008              	.LASF393:
 11009 364e 50325F31 		.ascii	"P2_1_GPIO\000"
 11009      5F475049 
 11009      4F00
 11010              	.LASF607:
 11011 3658 50335F35 		.ascii	"P3_5_CSD_CSD_TX\000"
 11011      5F435344 
 11011      5F435344 
 11011      5F545800 
 11012              	.LASF26:
 11013 3668 494E5452 		.ascii	"INTR_MASKED\000"
 11013      5F4D4153 
 11013      4B454400 
 11014              	.LASF1730:
 11015 3674 5031325F 		.ascii	"P12_6_TCPWM0_LINE7\000"
 11015      365F5443 
 11015      50574D30 
 11015      5F4C494E 
 11015      453700
 11016              	.LASF719:
 11017 3687 50355F33 		.ascii	"P5_3_CSD_CSD_TX\000"
 11017      5F435344 
 11017      5F435344 
 11017      5F545800 
 11018              	.LASF765:
 11019 3697 50355F36 		.ascii	"P5_6_AMUXA\000"
 11019      5F414D55 
 11019      584100
 11020              	.LASF27:
 11021 36a2 494E5452 		.ascii	"INTR_SET\000"
 11021      5F534554 
 11021      00
 11022              	.LASF978:
 11023 36ab 50375F31 		.ascii	"P7_1_CSD_CSD_TX\000"
 11023      5F435344 
 11023      5F435344 
 11023      5F545800 
 11024              	.LASF1343:
 11025 36bb 50395F37 		.ascii	"P9_7_AMUXA_DSI\000"
 11025      5F414D55 
 11025      58415F44 
 11025      534900
 11026              	.LASF432:
 11027 36ca 50325F33 		.ascii	"P2_3_DSI_GPIO\000"
 11027      5F445349 
 11027      5F475049 
 11027      4F00
 11028              	.LASF1678:
ARM GAS  C:\Users\stijn\AppData\Local\Temp\ccD3lQ9e.s 			page 280


 11029 36d8 5031325F 		.ascii	"P12_3_TCPWM0_LINE_COMPL5\000"
 11029      335F5443 
 11029      50574D30 
 11029      5F4C494E 
 11029      455F434F 
 11030              	.LASF1182:
 11031 36f1 50385F35 		.ascii	"P8_5_CSD_CSD_TX_N\000"
 11031      5F435344 
 11031      5F435344 
 11031      5F54585F 
 11031      4E00
 11032              	.LASF1254:
 11033 3703 50395F31 		.ascii	"P9_1_SRSS_DDFT_PIN_IN0\000"
 11033      5F535253 
 11033      535F4444 
 11033      46545F50 
 11033      494E5F49 
 11034              	.LASF1351:
 11035 371a 5031305F 		.ascii	"P10_0_GPIO\000"
 11035      305F4750 
 11035      494F00
 11036              	.LASF1073:
 11037 3725 50375F37 		.ascii	"P7_7_AMUXA\000"
 11037      5F414D55 
 11037      584100
 11038              	.LASF1074:
 11039 3730 50375F37 		.ascii	"P7_7_AMUXB\000"
 11039      5F414D55 
 11039      584200
 11040              	.LASF93:
 11041 373b 64775374 		.ascii	"dwStatusChIdxMsk\000"
 11041      61747573 
 11041      43684964 
 11041      784D736B 
 11041      00
 11042              	.LASF648:
 11043 374c 50345F31 		.ascii	"P4_1_SCB7_SPI_MISO\000"
 11043      5F534342 
 11043      375F5350 
 11043      495F4D49 
 11043      534F00
 11044              	.LASF628:
 11045 375f 50345F30 		.ascii	"P4_0_SCB7_I2C_SCL\000"
 11045      5F534342 
 11045      375F4932 
 11045      435F5343 
 11045      4C00
 11046              	.LASF625:
 11047 3771 50345F30 		.ascii	"P4_0_LCD_COM26\000"
 11047      5F4C4344 
 11047      5F434F4D 
 11047      323600
 11048              	.LASF246:
 11049 3780 50305F34 		.ascii	"P0_4_AMUXB_DSI\000"
 11049      5F414D55 
 11049      58425F44 
 11049      534900
ARM GAS  C:\Users\stijn\AppData\Local\Temp\ccD3lQ9e.s 			page 281


 11050              	.LASF1673:
 11051 378f 5031325F 		.ascii	"P12_3_DSI_GPIO\000"
 11051      335F4453 
 11051      495F4750 
 11051      494F00
 11052              	.LASF431:
 11053 379e 50325F33 		.ascii	"P2_3_DSI_DSI\000"
 11053      5F445349 
 11053      5F445349 
 11053      00
 11054              	.LASF9:
 11055 37ab 73686F72 		.ascii	"short unsigned int\000"
 11055      7420756E 
 11055      7369676E 
 11055      65642069 
 11055      6E7400
 11056              	.LASF1893:
 11057 37be 43595F47 		.ascii	"CY_GPIO_AMUX_GLR\000"
 11057      50494F5F 
 11057      414D5558 
 11057      5F474C52 
 11057      00
 11058              	.LASF1800:
 11059 37cf 5031335F 		.ascii	"P13_2_LCD_SEG33\000"
 11059      325F4C43 
 11059      445F5345 
 11059      47333300 
 11060              	.LASF1371:
 11061 37df 5031305F 		.ascii	"P10_1_GPIO_DSI\000"
 11061      315F4750 
 11061      494F5F44 
 11061      534900
 11062              	.LASF1258:
 11063 37ee 50395F32 		.ascii	"P9_2_DSI_GPIO\000"
 11063      5F445349 
 11063      5F475049 
 11063      4F00
 11064              	.LASF1229:
 11065 37fc 50395F30 		.ascii	"P9_0_LCD_SEG0\000"
 11065      5F4C4344 
 11065      5F534547 
 11065      3000
 11066              	.LASF1864:
 11067 380a 5031335F 		.ascii	"P13_7_GPIO\000"
 11067      375F4750 
 11067      494F00
 11068              	.LASF1913:
 11069 3815 64726976 		.ascii	"driveSel\000"
 11069      6553656C 
 11069      00
 11070              	.LASF605:
 11071 381e 50335F35 		.ascii	"P3_5_TCPWM0_LINE_COMPL4\000"
 11071      5F544350 
 11071      574D305F 
 11071      4C494E45 
 11071      5F434F4D 
 11072              	.LASF1078:
ARM GAS  C:\Users\stijn\AppData\Local\Temp\ccD3lQ9e.s 			page 282


 11073 3836 50375F37 		.ascii	"P7_7_TCPWM1_LINE_COMPL15\000"
 11073      5F544350 
 11073      574D315F 
 11073      4C494E45 
 11073      5F434F4D 
 11074              	.LASF841:
 11075 384f 50365F32 		.ascii	"P6_2_TCPWM0_LINE1\000"
 11075      5F544350 
 11075      574D305F 
 11075      4C494E45 
 11075      3100
 11076              	.LASF1874:
 11077 3861 5031335F 		.ascii	"P13_7_CSD_CSD_TX\000"
 11077      375F4353 
 11077      445F4353 
 11077      445F5458 
 11077      00
 11078              	.LASF1805:
 11079 3872 5031335F 		.ascii	"P13_3_DSI_DSI\000"
 11079      335F4453 
 11079      495F4453 
 11079      4900
 11080              	.LASF1090:
 11081 3880 50385F30 		.ascii	"P8_0_AMUXA\000"
 11081      5F414D55 
 11081      584100
 11082              	.LASF1091:
 11083 388b 50385F30 		.ascii	"P8_0_AMUXB\000"
 11083      5F414D55 
 11083      584200
 11084              	.LASF1851:
 11085 3896 5031335F 		.ascii	"P13_6_DSI_DSI\000"
 11085      365F4453 
 11085      495F4453 
 11085      4900
 11086              	.LASF34:
 11087 38a4 52455345 		.ascii	"RESERVED1\000"
 11087      52564544 
 11087      3100
 11088              	.LASF1538:
 11089 38ae 5031315F 		.ascii	"P11_2_SMIF_SPI_SELECT0\000"
 11089      325F534D 
 11089      49465F53 
 11089      50495F53 
 11089      454C4543 
 11090              	.LASF6:
 11091 38c5 5F5F696E 		.ascii	"__int16_t\000"
 11091      7431365F 
 11091      7400
 11092              	.LASF1208:
 11093 38cf 50385F37 		.ascii	"P8_7_AMUXB_DSI\000"
 11093      5F414D55 
 11093      58425F44 
 11093      534900
 11094              	.LASF1349:
 11095 38de 50395F37 		.ascii	"P9_7_LCD_COM7\000"
 11095      5F4C4344 
ARM GAS  C:\Users\stijn\AppData\Local\Temp\ccD3lQ9e.s 			page 283


 11095      5F434F4D 
 11095      3700
 11096              	.LASF1904:
 11097 38ec 73656C31 		.ascii	"sel1Active\000"
 11097      41637469 
 11097      766500
 11098              	.LASF1458:
 11099 38f7 5031305F 		.ascii	"P10_6_GPIO_DSI\000"
 11099      365F4750 
 11099      494F5F44 
 11099      534900
 11100              	.LASF1110:
 11101 3906 50385F31 		.ascii	"P8_1_AMUXA_DSI\000"
 11101      5F414D55 
 11101      58415F44 
 11101      534900
 11102              	.LASF795:
 11103 3915 50365F30 		.ascii	"P6_0_DSI_DSI\000"
 11103      5F445349 
 11103      5F445349 
 11103      00
 11104              	.LASF406:
 11105 3922 50325F31 		.ascii	"P2_1_LCD_SEG13\000"
 11105      5F4C4344 
 11105      5F534547 
 11105      313300
 11106              	.LASF1036:
 11107 3931 50375F35 		.ascii	"P7_5_GPIO_DSI\000"
 11107      5F475049 
 11107      4F5F4453 
 11107      4900
 11108              	.LASF1130:
 11109 393f 50385F32 		.ascii	"P8_2_TCPWM0_LINE1\000"
 11109      5F544350 
 11109      574D305F 
 11109      4C494E45 
 11109      3100
 11110              	.LASF1949:
 11111 3951 49544D5F 		.ascii	"ITM_RxBuffer\000"
 11111      52784275 
 11111      66666572 
 11111      00
 11112              	.LASF303:
 11113 395e 50315F31 		.ascii	"P1_1_CSD_CSD_TX_N\000"
 11113      5F435344 
 11113      5F435344 
 11113      5F54585F 
 11113      4E00
 11114              	.LASF633:
 11115 3970 50345F31 		.ascii	"P4_1_GPIO_DSI\000"
 11115      5F475049 
 11115      4F5F4453 
 11115      4900
 11116              	.LASF876:
 11117 397e 50365F34 		.ascii	"P6_4_TCPWM1_LINE10\000"
 11117      5F544350 
 11117      574D315F 
ARM GAS  C:\Users\stijn\AppData\Local\Temp\ccD3lQ9e.s 			page 284


 11117      4C494E45 
 11117      313000
 11118              	.LASF1587:
 11119 3991 5031315F 		.ascii	"P11_5_CSD_CSD_TX_N\000"
 11119      355F4353 
 11119      445F4353 
 11119      445F5458 
 11119      5F4E00
 11120              	.LASF1776:
 11121 39a4 5031335F 		.ascii	"P13_1_AMUXB_DSI\000"
 11121      315F414D 
 11121      5558425F 
 11121      44534900 
 11122              	.LASF988:
 11123 39b4 50375F32 		.ascii	"P7_2_DSI_DSI\000"
 11123      5F445349 
 11123      5F445349 
 11123      00
 11124              	.LASF1649:
 11125 39c1 5031325F 		.ascii	"P12_1_SCB6_UART_TX\000"
 11125      315F5343 
 11125      42365F55 
 11125      4152545F 
 11125      545800
 11126              	.LASF1413:
 11127 39d4 5031305F 		.ascii	"P10_3_AMUXB_DSI\000"
 11127      335F414D 
 11127      5558425F 
 11127      44534900 
 11128              	.LASF1801:
 11129 39e4 5031335F 		.ascii	"P13_2_SCB6_UART_RTS\000"
 11129      325F5343 
 11129      42365F55 
 11129      4152545F 
 11129      52545300 
 11130              	.LASF1799:
 11131 39f8 5031335F 		.ascii	"P13_2_LCD_COM33\000"
 11131      325F4C43 
 11131      445F434F 
 11131      4D333300 
 11132              	.LASF928:
 11133 3a08 50365F36 		.ascii	"P6_6_SCB6_SPI_CLK\000"
 11133      5F534342 
 11133      365F5350 
 11133      495F434C 
 11133      4B00
 11134              	.LASF837:
 11135 3a1a 50365F32 		.ascii	"P6_2_AMUXA\000"
 11135      5F414D55 
 11135      584100
 11136              	.LASF515:
 11137 3a25 50335F30 		.ascii	"P3_0_AMUXA_DSI\000"
 11137      5F414D55 
 11137      58415F44 
 11137      534900
 11138              	.LASF1923:
 11139 3a34 706F7274 		.ascii	"portNum\000"
ARM GAS  C:\Users\stijn\AppData\Local\Temp\ccD3lQ9e.s 			page 285


 11139      4E756D00 
 11140              	.LASF539:
 11141 3a3c 50335F31 		.ascii	"P3_1_CSD_CSD_TX_N\000"
 11141      5F435344 
 11141      5F435344 
 11141      5F54585F 
 11141      4E00
 11142              	.LASF1350:
 11143 3a4e 50395F37 		.ascii	"P9_7_LCD_SEG7\000"
 11143      5F4C4344 
 11143      5F534547 
 11143      3700
 11144              	.LASF405:
 11145 3a5c 50325F31 		.ascii	"P2_1_LCD_COM13\000"
 11145      5F4C4344 
 11145      5F434F4D 
 11145      313300
 11146              	.LASF1378:
 11147 3a6b 5031305F 		.ascii	"P10_1_TCPWM0_LINE_COMPL6\000"
 11147      315F5443 
 11147      50574D30 
 11147      5F4C494E 
 11147      455F434F 
 11148              	.LASF1633:
 11149 3a84 5031325F 		.ascii	"P12_0_PERI_TR_IO_INPUT24\000"
 11149      305F5045 
 11149      52495F54 
 11149      525F494F 
 11149      5F494E50 
 11150              	.LASF999:
 11151 3a9d 50375F32 		.ascii	"P7_2_LCD_SEG48\000"
 11151      5F4C4344 
 11151      5F534547 
 11151      343800
 11152              	.LASF1554:
 11153 3aac 5031315F 		.ascii	"P11_3_LCD_SEG19\000"
 11153      335F4C43 
 11153      445F5345 
 11153      47313900 
 11154              	.LASF975:
 11155 3abc 50375F31 		.ascii	"P7_1_AMUXB_DSI\000"
 11155      5F414D55 
 11155      58425F44 
 11155      534900
 11156              	.LASF1532:
 11157 3acb 5031315F 		.ascii	"P11_2_TCPWM0_LINE2\000"
 11157      325F5443 
 11157      50574D30 
 11157      5F4C494E 
 11157      453200
 11158              	.LASF72:
 11159 3ade 70617373 		.ascii	"passSarChannels\000"
 11159      53617243 
 11159      68616E6E 
 11159      656C7300 
 11160              	.LASF893:
 11161 3aee 50365F35 		.ascii	"P6_5_DSI_GPIO\000"
ARM GAS  C:\Users\stijn\AppData\Local\Temp\ccD3lQ9e.s 			page 286


 11161      5F445349 
 11161      5F475049 
 11161      4F00
 11162              	.LASF15:
 11163 3afc 75696E74 		.ascii	"uint8_t\000"
 11163      385F7400 
 11164              	.LASF1289:
 11165 3b04 50395F33 		.ascii	"P9_3_PASS_DSI_CTB_CMP1\000"
 11165      5F504153 
 11165      535F4453 
 11165      495F4354 
 11165      425F434D 
 11166              	.LASF1232:
 11167 3b1b 50395F30 		.ascii	"P9_0_SCB2_SPI_MOSI\000"
 11167      5F534342 
 11167      325F5350 
 11167      495F4D4F 
 11167      534900
 11168              	.LASF867:
 11169 3b2e 50365F34 		.ascii	"P6_4_GPIO\000"
 11169      5F475049 
 11169      4F00
 11170              	.LASF682:
 11171 3b38 50355F31 		.ascii	"P5_1_CSD_CSD_TX_N\000"
 11171      5F435344 
 11171      5F435344 
 11171      5F54585F 
 11171      4E00
 11172              	.LASF310:
 11173 3b4a 50315F32 		.ascii	"P1_2_GPIO\000"
 11173      5F475049 
 11173      4F00
 11174              	.LASF1106:
 11175 3b54 50385F31 		.ascii	"P8_1_DSI_DSI\000"
 11175      5F445349 
 11175      5F445349 
 11175      00
 11176              	.LASF531:
 11177 3b61 50335F31 		.ascii	"P3_1_DSI_GPIO\000"
 11177      5F445349 
 11177      5F475049 
 11177      4F00
 11178              	.LASF1346:
 11179 3b6f 50395F37 		.ascii	"P9_7_TCPWM1_LINE_COMPL1\000"
 11179      5F544350 
 11179      574D315F 
 11179      4C494E45 
 11179      5F434F4D 
 11180              	.LASF1228:
 11181 3b87 50395F30 		.ascii	"P9_0_LCD_COM0\000"
 11181      5F4C4344 
 11181      5F434F4D 
 11181      3000
 11182              	.LASF1153:
 11183 3b95 50385F33 		.ascii	"P8_3_LPCOMP_DSI_COMP1\000"
 11183      5F4C5043 
 11183      4F4D505F 
ARM GAS  C:\Users\stijn\AppData\Local\Temp\ccD3lQ9e.s 			page 287


 11183      4453495F 
 11183      434F4D50 
 11184              	.LASF1628:
 11185 3bab 5031325F 		.ascii	"P12_0_LCD_SEG23\000"
 11185      305F4C43 
 11185      445F5345 
 11185      47323300 
 11186              	.LASF343:
 11187 3bbb 50315F34 		.ascii	"P1_4_GPIO_DSI\000"
 11187      5F475049 
 11187      4F5F4453 
 11187      4900
 11188              	.LASF1580:
 11189 3bc9 5031315F 		.ascii	"P11_5_AMUXA\000"
 11189      355F414D 
 11189      55584100 
 11190              	.LASF1581:
 11191 3bd5 5031315F 		.ascii	"P11_5_AMUXB\000"
 11191      355F414D 
 11191      55584200 
 11192              	.LASF1659:
 11193 3be1 5031325F 		.ascii	"P12_2_AMUXA_DSI\000"
 11193      325F414D 
 11193      5558415F 
 11193      44534900 
 11194              	.LASF381:
 11195 3bf1 50325F30 		.ascii	"P2_0_AMUXB_DSI\000"
 11195      5F414D55 
 11195      58425F44 
 11195      534900
 11196              	.LASF979:
 11197 3c00 50375F31 		.ascii	"P7_1_CSD_CSD_TX_N\000"
 11197      5F435344 
 11197      5F435344 
 11197      5F54585F 
 11197      4E00
 11198              	.LASF1553:
 11199 3c12 5031315F 		.ascii	"P11_3_LCD_COM19\000"
 11199      335F4C43 
 11199      445F434F 
 11199      4D313900 
 11200              	.LASF500:
 11201 3c22 50325F37 		.ascii	"P2_7_AMUXA_DSI\000"
 11201      5F414D55 
 11201      58415F44 
 11201      534900
 11202              	.LASF701:
 11203 3c31 50355F32 		.ascii	"P5_2_CSD_CSD_TX\000"
 11203      5F435344 
 11203      5F435344 
 11203      5F545800 
 11204              	.LASF1428:
 11205 3c41 5031305F 		.ascii	"P10_4_AMUXB\000"
 11205      345F414D 
 11205      55584200 
 11206              	.LASF1931:
 11207 3c4d 43795F47 		.ascii	"Cy_GPIO_SetInterruptMask\000"
ARM GAS  C:\Users\stijn\AppData\Local\Temp\ccD3lQ9e.s 			page 288


 11207      50494F5F 
 11207      53657449 
 11207      6E746572 
 11207      72757074 
 11208              	.LASF249:
 11209 3c66 50305F34 		.ascii	"P0_4_CSD_CSD_TX\000"
 11209      5F435344 
 11209      5F435344 
 11209      5F545800 
 11210              	.LASF422:
 11211 3c76 50325F32 		.ascii	"P2_2_CSD_CSD_TX\000"
 11211      5F435344 
 11211      5F435344 
 11211      5F545800 
 11212              	.LASF839:
 11213 3c86 50365F32 		.ascii	"P6_2_AMUXA_DSI\000"
 11213      5F414D55 
 11213      58415F44 
 11213      534900
 11214              	.LASF623:
 11215 3c95 50345F30 		.ascii	"P4_0_CSD_CSD_TX\000"
 11215      5F435344 
 11215      5F435344 
 11215      5F545800 
 11216              	.LASF1246:
 11217 3ca5 50395F31 		.ascii	"P9_1_CSD_CSD_TX_N\000"
 11217      5F435344 
 11217      5F435344 
 11217      5F54585F 
 11217      4E00
 11218              	.LASF965:
 11219 3cb7 50375F30 		.ascii	"P7_0_SCB4_SPI_MOSI\000"
 11219      5F534342 
 11219      345F5350 
 11219      495F4D4F 
 11219      534900
 11220              	.LASF482:
 11221 3cca 50325F36 		.ascii	"P2_6_AMUXA\000"
 11221      5F414D55 
 11221      584100
 11222              	.LASF483:
 11223 3cd5 50325F36 		.ascii	"P2_6_AMUXB\000"
 11223      5F414D55 
 11223      584200
 11224              	.LASF1121:
 11225 3ce0 50385F31 		.ascii	"P8_1_PERI_TR_IO_INPUT17\000"
 11225      5F504552 
 11225      495F5452 
 11225      5F494F5F 
 11225      494E5055 
 11226              	.LASF1709:
 11227 3cf8 5031325F 		.ascii	"P12_5_AMUXA\000"
 11227      355F414D 
 11227      55584100 
 11228              	.LASF1467:
 11229 3d04 5031305F 		.ascii	"P10_6_CSD_CSD_TX\000"
 11229      365F4353 
ARM GAS  C:\Users\stijn\AppData\Local\Temp\ccD3lQ9e.s 			page 289


 11229      445F4353 
 11229      445F5458 
 11229      00
 11230              	.LASF48:
 11231 3d15 70617373 		.ascii	"passBase\000"
 11231      42617365 
 11231      00
 11232              	.LASF892:
 11233 3d1e 50365F35 		.ascii	"P6_5_DSI_DSI\000"
 11233      5F445349 
 11233      5F445349 
 11233      00
 11234              	.LASF1697:
 11235 3d2b 5031325F 		.ascii	"P12_4_CSD_CSD_TX\000"
 11235      345F4353 
 11235      445F4353 
 11235      445F5458 
 11235      00
 11236              	.LASF1560:
 11237 3d3c 5031315F 		.ascii	"P11_4_GPIO_DSI\000"
 11237      345F4750 
 11237      494F5F44 
 11237      534900
 11238              	.LASF1372:
 11239 3d4b 5031305F 		.ascii	"P10_1_DSI_DSI\000"
 11239      315F4453 
 11239      495F4453 
 11239      4900
 11240              	.LASF4:
 11241 3d59 756E7369 		.ascii	"unsigned char\000"
 11241      676E6564 
 11241      20636861 
 11241      7200
 11242              	.LASF722:
 11243 3d67 50355F33 		.ascii	"P5_3_LCD_SEG33\000"
 11243      5F4C4344 
 11243      5F534547 
 11243      333300
 11244              	.LASF1140:
 11245 3d76 50385F33 		.ascii	"P8_3_GPIO_DSI\000"
 11245      5F475049 
 11245      4F5F4453 
 11245      4900
 11246              	.LASF242:
 11247 3d84 50305F34 		.ascii	"P0_4_DSI_GPIO\000"
 11247      5F445349 
 11247      5F475049 
 11247      4F00
 11248              	.LASF1321:
 11249 3d92 50395F35 		.ascii	"P9_5_SCB2_SPI_SELECT2\000"
 11249      5F534342 
 11249      325F5350 
 11249      495F5345 
 11249      4C454354 
 11250              	.LASF1531:
 11251 3da8 5031315F 		.ascii	"P11_2_AMUXB_DSI\000"
 11251      325F414D 
ARM GAS  C:\Users\stijn\AppData\Local\Temp\ccD3lQ9e.s 			page 290


 11251      5558425F 
 11251      44534900 
 11252              	.LASF1701:
 11253 3db8 5031325F 		.ascii	"P12_4_SMIF_SPI_SELECT3\000"
 11253      345F534D 
 11253      49465F53 
 11253      50495F53 
 11253      454C4543 
 11254              	.LASF1464:
 11255 3dcf 5031305F 		.ascii	"P10_6_AMUXB_DSI\000"
 11255      365F414D 
 11255      5558425F 
 11255      44534900 
 11256              	.LASF1433:
 11257 3ddf 5031305F 		.ascii	"P10_4_CSD_CSD_TX\000"
 11257      345F4353 
 11257      445F4353 
 11257      445F5458 
 11257      00
 11258              	.LASF147:
 11259 3df0 4853494F 		.ascii	"HSIOM_SEL_ACT_0\000"
 11259      4D5F5345 
 11259      4C5F4143 
 11259      545F3000 
 11260              	.LASF148:
 11261 3e00 4853494F 		.ascii	"HSIOM_SEL_ACT_1\000"
 11261      4D5F5345 
 11261      4C5F4143 
 11261      545F3100 
 11262              	.LASF149:
 11263 3e10 4853494F 		.ascii	"HSIOM_SEL_ACT_2\000"
 11263      4D5F5345 
 11263      4C5F4143 
 11263      545F3200 
 11264              	.LASF150:
 11265 3e20 4853494F 		.ascii	"HSIOM_SEL_ACT_3\000"
 11265      4D5F5345 
 11265      4C5F4143 
 11265      545F3300 
 11266              	.LASF155:
 11267 3e30 4853494F 		.ascii	"HSIOM_SEL_ACT_4\000"
 11267      4D5F5345 
 11267      4C5F4143 
 11267      545F3400 
 11268              	.LASF156:
 11269 3e40 4853494F 		.ascii	"HSIOM_SEL_ACT_5\000"
 11269      4D5F5345 
 11269      4C5F4143 
 11269      545F3500 
 11270              	.LASF157:
 11271 3e50 4853494F 		.ascii	"HSIOM_SEL_ACT_6\000"
 11271      4D5F5345 
 11271      4C5F4143 
 11271      545F3600 
 11272              	.LASF158:
 11273 3e60 4853494F 		.ascii	"HSIOM_SEL_ACT_7\000"
 11273      4D5F5345 
ARM GAS  C:\Users\stijn\AppData\Local\Temp\ccD3lQ9e.s 			page 291


 11273      4C5F4143 
 11273      545F3700 
 11274              	.LASF159:
 11275 3e70 4853494F 		.ascii	"HSIOM_SEL_ACT_8\000"
 11275      4D5F5345 
 11275      4C5F4143 
 11275      545F3800 
 11276              	.LASF160:
 11277 3e80 4853494F 		.ascii	"HSIOM_SEL_ACT_9\000"
 11277      4D5F5345 
 11277      4C5F4143 
 11277      545F3900 
 11278              	.LASF298:
 11279 3e90 50315F31 		.ascii	"P1_1_AMUXA_DSI\000"
 11279      5F414D55 
 11279      58415F44 
 11279      534900
 11280              	.LASF1404:
 11281 3e9f 5031305F 		.ascii	"P10_2_SCB1_SPI_CLK\000"
 11281      325F5343 
 11281      42315F53 
 11281      50495F43 
 11281      4C4B00
 11282              	.LASF949:
 11283 3eb2 50375F30 		.ascii	"P7_0_GPIO\000"
 11283      5F475049 
 11283      4F00
 11284              	.LASF1938:
 11285 3ebc 62617365 		.ascii	"baseHSIOM\000"
 11285      4853494F 
 11285      4D00
 11286              	.LASF883:
 11287 3ec6 50365F34 		.ascii	"P6_4_SCB6_I2C_SCL\000"
 11287      5F534342 
 11287      365F4932 
 11287      435F5343 
 11287      4C00
 11288              	.LASF218:
 11289 3ed8 50305F32 		.ascii	"P0_2_LCD_SEG2\000"
 11289      5F4C4344 
 11289      5F534547 
 11289      3200
 11290              	.LASF1381:
 11291 3ee6 5031305F 		.ascii	"P10_1_CSD_CSD_TX_N\000"
 11291      315F4353 
 11291      445F4353 
 11291      445F5458 
 11291      5F4E00
 11292              	.LASF886:
 11293 3ef9 50365F34 		.ascii	"P6_4_PERI_TR_IO_OUTPUT0\000"
 11293      5F504552 
 11293      495F5452 
 11293      5F494F5F 
 11293      4F555450 
 11294              	.LASF1369:
 11295 3f11 5031305F 		.ascii	"P10_0_CPUSS_TRACE_DATA3\000"
 11295      305F4350 
ARM GAS  C:\Users\stijn\AppData\Local\Temp\ccD3lQ9e.s 			page 292


 11295      5553535F 
 11295      54524143 
 11295      455F4441 
 11296              	.LASF506:
 11297 3f29 50325F37 		.ascii	"P2_7_LCD_COM19\000"
 11297      5F4C4344 
 11297      5F434F4D 
 11297      313900
 11298              	.LASF1655:
 11299 3f38 5031325F 		.ascii	"P12_2_DSI_DSI\000"
 11299      325F4453 
 11299      495F4453 
 11299      4900
 11300              	.LASF1476:
 11301 3f46 5031305F 		.ascii	"P10_7_AMUXA\000"
 11301      375F414D 
 11301      55584100 
 11302              	.LASF78:
 11303 3f52 666C6173 		.ascii	"flashRwwRequired\000"
 11303      68527777 
 11303      52657175 
 11303      69726564 
 11303      00
 11304              	.LASF1426:
 11305 3f63 5031305F 		.ascii	"P10_4_DSI_GPIO\000"
 11305      345F4453 
 11305      495F4750 
 11305      494F00
 11306              	.LASF1062:
 11307 3f72 50375F36 		.ascii	"P7_6_CSD_CSD_TX\000"
 11307      5F435344 
 11307      5F435344 
 11307      5F545800 
 11308              	.LASF1298:
 11309 3f82 50395F34 		.ascii	"P9_4_AMUXA_DSI\000"
 11309      5F414D55 
 11309      58415F44 
 11309      534900
 11310              	.LASF1490:
 11311 3f91 5031315F 		.ascii	"P11_0_AMUXA\000"
 11311      305F414D 
 11311      55584100 
 11312              	.LASF1005:
 11313 3f9d 50375F33 		.ascii	"P7_3_DSI_GPIO\000"
 11313      5F445349 
 11313      5F475049 
 11313      4F00
 11314              	.LASF1302:
 11315 3fab 50395F34 		.ascii	"P9_4_CSD_CSD_TX\000"
 11315      5F435344 
 11315      5F435344 
 11315      5F545800 
 11316              	.LASF866:
 11317 3fbb 50365F33 		.ascii	"P6_3_SCB8_SPI_SELECT0\000"
 11317      5F534342 
 11317      385F5350 
 11317      495F5345 
ARM GAS  C:\Users\stijn\AppData\Local\Temp\ccD3lQ9e.s 			page 293


 11317      4C454354 
 11318              	.LASF698:
 11319 3fd1 50355F32 		.ascii	"P5_2_AMUXB_DSI\000"
 11319      5F414D55 
 11319      58425F44 
 11319      534900
 11320              	.LASF1297:
 11321 3fe0 50395F34 		.ascii	"P9_4_AMUXB\000"
 11321      5F414D55 
 11321      584200
 11322              	.LASF1645:
 11323 3feb 5031325F 		.ascii	"P12_1_CSD_CSD_TX_N\000"
 11323      315F4353 
 11323      445F4353 
 11323      445F5458 
 11323      5F4E00
 11324              	.LASF762:
 11325 3ffe 50355F36 		.ascii	"P5_6_GPIO_DSI\000"
 11325      5F475049 
 11325      4F5F4453 
 11325      4900
 11326              	.LASF1188:
 11327 400c 50385F36 		.ascii	"P8_6_DSI_DSI\000"
 11327      5F445349 
 11327      5F445349 
 11327      00
 11328              	.LASF1412:
 11329 4019 5031305F 		.ascii	"P10_3_AMUXA_DSI\000"
 11329      335F414D 
 11329      5558415F 
 11329      44534900 
 11330              	.LASF1573:
 11331 4029 5031315F 		.ascii	"P11_4_SMIF_SPI_DATA2\000"
 11331      345F534D 
 11331      49465F53 
 11331      50495F44 
 11331      41544132 
 11332              	.LASF744:
 11333 403e 50355F35 		.ascii	"P5_5_GPIO\000"
 11333      5F475049 
 11333      4F00
 11334              	.LASF222:
 11335 4048 50305F33 		.ascii	"P0_3_GPIO\000"
 11335      5F475049 
 11335      4F00
 11336              	.LASF296:
 11337 4052 50315F31 		.ascii	"P1_1_AMUXA\000"
 11337      5F414D55 
 11337      584100
 11338              	.LASF297:
 11339 405d 50315F31 		.ascii	"P1_1_AMUXB\000"
 11339      5F414D55 
 11339      584200
 11340              	.LASF660:
 11341 4068 50355F30 		.ascii	"P5_0_TCPWM1_LINE4\000"
 11341      5F544350 
 11341      574D315F 
ARM GAS  C:\Users\stijn\AppData\Local\Temp\ccD3lQ9e.s 			page 294


 11341      4C494E45 
 11341      3400
 11342              	.LASF413:
 11343 407a 50325F32 		.ascii	"P2_2_GPIO_DSI\000"
 11343      5F475049 
 11343      4F5F4453 
 11343      4900
 11344              	.LASF1720:
 11345 4088 5031325F 		.ascii	"P12_5_AUDIOSS_PDM_DATA\000"
 11345      355F4155 
 11345      44494F53 
 11345      535F5044 
 11345      4D5F4441 
 11346              	.LASF1290:
 11347 409f 50395F33 		.ascii	"P9_3_CPUSS_TRACE_DATA0\000"
 11347      5F435055 
 11347      53535F54 
 11347      52414345 
 11347      5F444154 
 11348              	.LASF958:
 11349 40b6 50375F30 		.ascii	"P7_0_TCPWM1_LINE12\000"
 11349      5F544350 
 11349      574D315F 
 11349      4C494E45 
 11349      313200
 11350              	.LASF518:
 11351 40c9 50335F30 		.ascii	"P3_0_TCPWM1_LINE19\000"
 11351      5F544350 
 11351      574D315F 
 11351      4C494E45 
 11351      313900
 11352              	.LASF1604:
 11353 40dc 5031315F 		.ascii	"P11_6_SMIF_SPI_DATA0\000"
 11353      365F534D 
 11353      49465F53 
 11353      50495F44 
 11353      41544130 
 11354              	.LASF998:
 11355 40f1 50375F32 		.ascii	"P7_2_LCD_COM48\000"
 11355      5F4C4344 
 11355      5F434F4D 
 11355      343800
 11356              	.LASF195:
 11357 4100 50305F31 		.ascii	"P0_1_AMUXB_DSI\000"
 11357      5F414D55 
 11357      58425F44 
 11357      534900
 11358              	.LASF899:
 11359 410f 50365F35 		.ascii	"P6_5_TCPWM1_LINE_COMPL10\000"
 11359      5F544350 
 11359      574D315F 
 11359      4C494E45 
 11359      5F434F4D 
 11360              	.LASF1898:
 11361 4128 696E7472 		.ascii	"intrMask\000"
 11361      4D61736B 
 11361      00
ARM GAS  C:\Users\stijn\AppData\Local\Temp\ccD3lQ9e.s 			page 295


 11362              	.LASF594:
 11363 4131 50335F34 		.ascii	"P3_4_LCD_SEG24\000"
 11363      5F4C4344 
 11363      5F534547 
 11363      323400
 11364              	.LASF1056:
 11365 4140 50375F36 		.ascii	"P7_6_AMUXA\000"
 11365      5F414D55 
 11365      584100
 11366              	.LASF1057:
 11367 414b 50375F36 		.ascii	"P7_6_AMUXB\000"
 11367      5F414D55 
 11367      584200
 11368              	.LASF1366:
 11369 4156 5031305F 		.ascii	"P10_0_SCB1_I2C_SCL\000"
 11369      305F5343 
 11369      42315F49 
 11369      32435F53 
 11369      434C00
 11370              	.LASF1459:
 11371 4169 5031305F 		.ascii	"P10_6_DSI_DSI\000"
 11371      365F4453 
 11371      495F4453 
 11371      4900
 11372              	.LASF1654:
 11373 4177 5031325F 		.ascii	"P12_2_GPIO_DSI\000"
 11373      325F4750 
 11373      494F5F44 
 11373      534900
 11374              	.LASF112:
 11375 4186 63707573 		.ascii	"cpussCm4ClockCtlOffset\000"
 11375      73436D34 
 11375      436C6F63 
 11375      6B43746C 
 11375      4F666673 
 11376              	.LASF91:
 11377 419d 64774368 		.ascii	"dwChCtlPreemptablePos\000"
 11377      43746C50 
 11377      7265656D 
 11377      70746162 
 11377      6C65506F 
 11378              	.LASF1236:
 11379 41b3 50395F31 		.ascii	"P9_1_GPIO_DSI\000"
 11379      5F475049 
 11379      4F5F4453 
 11379      4900
 11380              	.LASF1184:
 11381 41c1 50385F35 		.ascii	"P8_5_LCD_SEG59\000"
 11381      5F4C4344 
 11381      5F534547 
 11381      353900
 11382              	.LASF313:
 11383 41d0 50315F32 		.ascii	"P1_2_DSI_GPIO\000"
 11383      5F445349 
 11383      5F475049 
 11383      4F00
 11384              	.LASF1163:
ARM GAS  C:\Users\stijn\AppData\Local\Temp\ccD3lQ9e.s 			page 296


 11385 41de 50385F34 		.ascii	"P8_4_AMUXB_DSI\000"
 11385      5F414D55 
 11385      58425F44 
 11385      534900
 11386              	.LASF489:
 11387 41ed 50325F36 		.ascii	"P2_6_CSD_CSD_TX_N\000"
 11387      5F435344 
 11387      5F435344 
 11387      5F54585F 
 11387      4E00
 11388              	.LASF471:
 11389 41ff 50325F35 		.ascii	"P2_5_TCPWM1_LINE_COMPL17\000"
 11389      5F544350 
 11389      574D315F 
 11389      4C494E45 
 11389      5F434F4D 
 11390              	.LASF1336:
 11391 4218 50395F36 		.ascii	"P9_6_SCB2_SPI_SELECT3\000"
 11391      5F534342 
 11391      325F5350 
 11391      495F5345 
 11391      4C454354 
 11392              	.LASF1909:
 11393 422e 696E7445 		.ascii	"intEdge\000"
 11393      64676500 
 11394              	.LASF888:
 11395 4236 50365F34 		.ascii	"P6_4_SCB8_SPI_MOSI\000"
 11395      5F534342 
 11395      385F5350 
 11395      495F4D4F 
 11395      534900
 11396              	.LASF217:
 11397 4249 50305F32 		.ascii	"P0_2_LCD_COM2\000"
 11397      5F4C4344 
 11397      5F434F4D 
 11397      3200
 11398              	.LASF511:
 11399 4257 50335F30 		.ascii	"P3_0_DSI_DSI\000"
 11399      5F445349 
 11399      5F445349 
 11399      00
 11400              	.LASF1515:
 11401 4264 5031315F 		.ascii	"P11_1_CSD_CSD_TX\000"
 11401      315F4353 
 11401      445F4353 
 11401      445F5458 
 11401      00
 11402              	.LASF580:
 11403 4275 50335F33 		.ascii	"P3_3_BLESS_MXD_ACT_BPKTCTL\000"
 11403      5F424C45 
 11403      53535F4D 
 11403      58445F41 
 11403      43545F42 
 11404              	.LASF504:
 11405 4290 50325F37 		.ascii	"P2_7_CSD_CSD_TX\000"
 11405      5F435344 
 11405      5F435344 
ARM GAS  C:\Users\stijn\AppData\Local\Temp\ccD3lQ9e.s 			page 297


 11405      5F545800 
 11406              	.LASF1828:
 11407 42a0 5031335F 		.ascii	"P13_4_TCPWM1_LINE10\000"
 11407      345F5443 
 11407      50574D31 
 11407      5F4C494E 
 11407      45313000 
 11408              	.LASF593:
 11409 42b4 50335F34 		.ascii	"P3_4_LCD_COM24\000"
 11409      5F4C4344 
 11409      5F434F4D 
 11409      323400
 11410              	.LASF461:
 11411 42c3 50325F34 		.ascii	"P2_4_BLESS_MXD_DPSLP_CLK_EN\000"
 11411      5F424C45 
 11411      53535F4D 
 11411      58445F44 
 11411      50534C50 
 11412              	.LASF145:
 11413 42df 4853494F 		.ascii	"HSIOM_SEL_AMUXA_DSI\000"
 11413      4D5F5345 
 11413      4C5F414D 
 11413      5558415F 
 11413      44534900 
 11414              	.LASF813:
 11415 42f3 50365F31 		.ascii	"P6_1_GPIO\000"
 11415      5F475049 
 11415      4F00
 11416              	.LASF1220:
 11417 42fd 50395F30 		.ascii	"P9_0_AMUXA\000"
 11417      5F414D55 
 11417      584100
 11418              	.LASF124:
 11419 4308 63707573 		.ascii	"cpussRam2Ctl0\000"
 11419      7352616D 
 11419      3243746C 
 11419      3000
 11420              	.LASF1735:
 11421 4316 5031325F 		.ascii	"P12_6_LCD_SEG29\000"
 11421      365F4C43 
 11421      445F5345 
 11421      47323900 
 11422              	.LASF287:
 11423 4326 50315F30 		.ascii	"P1_0_LCD_SEG6\000"
 11423      5F4C4344 
 11423      5F534547 
 11423      3600
 11424              	.LASF185:
 11425 4334 50305F30 		.ascii	"P0_0_SRSS_EXT_CLK\000"
 11425      5F535253 
 11425      535F4558 
 11425      545F434C 
 11425      4B00
 11426              	.LASF1840:
 11427 4346 5031335F 		.ascii	"P13_5_AMUXA_DSI\000"
 11427      355F414D 
 11427      5558415F 
ARM GAS  C:\Users\stijn\AppData\Local\Temp\ccD3lQ9e.s 			page 298


 11427      44534900 
 11428              	.LASF571:
 11429 4356 50335F33 		.ascii	"P3_3_AMUXB_DSI\000"
 11429      5F414D55 
 11429      58425F44 
 11429      534900
 11430              	.LASF609:
 11431 4365 50335F35 		.ascii	"P3_5_LCD_COM25\000"
 11431      5F4C4344 
 11431      5F434F4D 
 11431      323500
 11432              	.LASF66:
 11433 4374 63707573 		.ascii	"cpussNotConnectedIrq\000"
 11433      734E6F74 
 11433      436F6E6E 
 11433      65637465 
 11433      64497271 
 11434              	.LASF1209:
 11435 4389 50385F37 		.ascii	"P8_7_TCPWM0_LINE_COMPL3\000"
 11435      5F544350 
 11435      574D305F 
 11435      4C494E45 
 11435      5F434F4D 
 11436              	.LASF1527:
 11437 43a1 5031315F 		.ascii	"P11_2_DSI_GPIO\000"
 11437      325F4453 
 11437      495F4750 
 11437      494F00
 11438              	.LASF1107:
 11439 43b0 50385F31 		.ascii	"P8_1_DSI_GPIO\000"
 11439      5F445349 
 11439      5F475049 
 11439      4F00
 11440              	.LASF924:
 11441 43be 50365F36 		.ascii	"P6_6_CSD_CSD_TX_N\000"
 11441      5F435344 
 11441      5F435344 
 11441      5F54585F 
 11441      4E00
 11442              	.LASF1499:
 11443 43d0 5031315F 		.ascii	"P11_0_LCD_SEG16\000"
 11443      305F4C43 
 11443      445F5345 
 11443      47313600 
 11444              	.LASF868:
 11445 43e0 50365F34 		.ascii	"P6_4_GPIO_DSI\000"
 11445      5F475049 
 11445      4F5F4453 
 11445      4900
 11446              	.LASF1041:
 11447 43ee 50375F35 		.ascii	"P7_5_AMUXA_DSI\000"
 11447      5F414D55 
 11447      58415F44 
 11447      534900
 11448              	.LASF370:
 11449 43fd 50315F35 		.ascii	"P1_5_LCD_SEG11\000"
 11449      5F4C4344 
ARM GAS  C:\Users\stijn\AppData\Local\Temp\ccD3lQ9e.s 			page 299


 11449      5F534547 
 11449      313100
 11450              	.LASF344:
 11451 440c 50315F34 		.ascii	"P1_4_DSI_DSI\000"
 11451      5F445349 
 11451      5F445349 
 11451      00
 11452              	.LASF1183:
 11453 4419 50385F35 		.ascii	"P8_5_LCD_COM59\000"
 11453      5F4C4344 
 11453      5F434F4D 
 11453      353900
 11454              	.LASF817:
 11455 4428 50365F31 		.ascii	"P6_1_AMUXA\000"
 11455      5F414D55 
 11455      584100
 11456              	.LASF818:
 11457 4433 50365F31 		.ascii	"P6_1_AMUXB\000"
 11457      5F414D55 
 11457      584200
 11458              	.LASF1734:
 11459 443e 5031325F 		.ascii	"P12_6_LCD_COM29\000"
 11459      365F4C43 
 11459      445F434F 
 11459      4D323900 
 11460              	.LASF673:
 11461 444e 50355F31 		.ascii	"P5_1_DSI_DSI\000"
 11461      5F445349 
 11461      5F445349 
 11461      00
 11462              	.LASF1197:
 11463 445b 50385F36 		.ascii	"P8_6_CSD_CSD_TX_N\000"
 11463      5F435344 
 11463      5F435344 
 11463      5F54585F 
 11463      4E00
 11464              	.LASF510:
 11465 446d 50335F30 		.ascii	"P3_0_GPIO_DSI\000"
 11465      5F475049 
 11465      4F5F4453 
 11465      4900
 11466              	.LASF1935:
 11467 447b 6D61736B 		.ascii	"maskCfgOut\000"
 11467      4366674F 
 11467      757400
 11468              	.LASF1939:
 11469 4486 43795F47 		.ascii	"Cy_GPIO_Pin_FastInit\000"
 11469      50494F5F 
 11469      50696E5F 
 11469      46617374 
 11469      496E6974 
 11470              	.LASF1739:
 11471 449b 5031325F 		.ascii	"P12_7_DSI_DSI\000"
 11471      375F4453 
 11471      495F4453 
 11471      4900
 11472              	.LASF1712:
ARM GAS  C:\Users\stijn\AppData\Local\Temp\ccD3lQ9e.s 			page 300


 11473 44a9 5031325F 		.ascii	"P12_5_AMUXB_DSI\000"
 11473      355F414D 
 11473      5558425F 
 11473      44534900 
 11474              	.LASF12:
 11475 44b9 5F5F7569 		.ascii	"__uint32_t\000"
 11475      6E743332 
 11475      5F7400
 11476              	.LASF23:
 11477 44c4 4F55545F 		.ascii	"OUT_INV\000"
 11477      494E5600 
 11478              	.LASF1922:
 11479 44cc 76616C75 		.ascii	"value\000"
 11479      6500
 11480              	.LASF1061:
 11481 44d2 50375F36 		.ascii	"P7_6_TCPWM1_LINE15\000"
 11481      5F544350 
 11481      574D315F 
 11481      4C494E45 
 11481      313500
 11482              	.LASF860:
 11483 44e5 50365F33 		.ascii	"P6_3_CSD_CSD_TX\000"
 11483      5F435344 
 11483      5F435344 
 11483      5F545800 
 11484              	.LASF1454:
 11485 44f5 5031305F 		.ascii	"P10_5_SCB1_SPI_SELECT2\000"
 11485      355F5343 
 11485      42315F53 
 11485      50495F53 
 11485      454C4543 
 11486              	.LASF231:
 11487 450c 50305F33 		.ascii	"P0_3_TCPWM1_LINE_COMPL1\000"
 11487      5F544350 
 11487      574D315F 
 11487      4C494E45 
 11487      5F434F4D 
 11488              	.LASF1114:
 11489 4524 50385F31 		.ascii	"P8_1_CSD_CSD_TX\000"
 11489      5F435344 
 11489      5F435344 
 11489      5F545800 
 11490              	.LASF1498:
 11491 4534 5031315F 		.ascii	"P11_0_LCD_COM16\000"
 11491      305F4C43 
 11491      445F434F 
 11491      4D313600 
 11492              	.LASF723:
 11493 4544 50355F33 		.ascii	"P5_3_SCB5_UART_CTS\000"
 11493      5F534342 
 11493      355F5541 
 11493      52545F43 
 11493      545300
 11494              	.LASF452:
 11495 4557 50325F34 		.ascii	"P2_4_AMUXA_DSI\000"
 11495      5F414D55 
 11495      58415F44 
ARM GAS  C:\Users\stijn\AppData\Local\Temp\ccD3lQ9e.s 			page 301


 11495      534900
 11496              	.LASF1915:
 11497 4566 69627566 		.ascii	"ibufMode\000"
 11497      4D6F6465 
 11497      00
 11498              	.LASF369:
 11499 456f 50315F35 		.ascii	"P1_5_LCD_COM11\000"
 11499      5F4C4344 
 11499      5F434F4D 
 11499      313100
 11500              	.LASF647:
 11501 457e 50345F31 		.ascii	"P4_1_SCB7_I2C_SDA\000"
 11501      5F534342 
 11501      375F4932 
 11501      435F5344 
 11501      4100
 11502              	.LASF926:
 11503 4590 50365F36 		.ascii	"P6_6_LCD_SEG44\000"
 11503      5F4C4344 
 11503      5F534547 
 11503      343400
 11504              	.LASF1872:
 11505 459f 5031335F 		.ascii	"P13_7_TCPWM0_LINE_COMPL3\000"
 11505      375F5443 
 11505      50574D30 
 11505      5F4C494E 
 11505      455F434F 
 11506              	.LASF1485:
 11507 45b8 5031305F 		.ascii	"P10_7_LCD_SEG15\000"
 11507      375F4C43 
 11507      445F5345 
 11507      47313500 
 11508              	.LASF730:
 11509 45c8 50355F34 		.ascii	"P5_4_DSI_GPIO\000"
 11509      5F445349 
 11509      5F475049 
 11509      4F00
 11510              	.LASF897:
 11511 45d6 50365F35 		.ascii	"P6_5_AMUXB_DSI\000"
 11511      5F414D55 
 11511      58425F44 
 11511      534900
 11512              	.LASF1833:
 11513 45e5 5031335F 		.ascii	"P13_4_SCB6_SPI_SELECT1\000"
 11513      345F5343 
 11513      42365F53 
 11513      50495F53 
 11513      454C4543 
 11514              	.LASF1034:
 11515 45fc 50375F34 		.ascii	"P7_4_CPUSS_TRACE_DATA3\000"
 11515      5F435055 
 11515      53535F54 
 11515      52414345 
 11515      5F444154 
 11516              	.LASF1059:
 11517 4613 50375F36 		.ascii	"P7_6_AMUXB_DSI\000"
 11517      5F414D55 
ARM GAS  C:\Users\stijn\AppData\Local\Temp\ccD3lQ9e.s 			page 302


 11517      58425F44 
 11517      534900
 11518              	.LASF219:
 11519 4622 50305F32 		.ascii	"P0_2_SCB0_UART_RX\000"
 11519      5F534342 
 11519      305F5541 
 11519      52545F52 
 11519      5800
 11520              	.LASF1752:
 11521 4634 5031335F 		.ascii	"P13_0_GPIO_DSI\000"
 11521      305F4750 
 11521      494F5F44 
 11521      534900
 11522              	.LASF248:
 11523 4643 50305F34 		.ascii	"P0_4_TCPWM1_LINE2\000"
 11523      5F544350 
 11523      574D315F 
 11523      4C494E45 
 11523      3200
 11524              	.LASF377:
 11525 4655 50325F30 		.ascii	"P2_0_DSI_GPIO\000"
 11525      5F445349 
 11525      5F475049 
 11525      4F00
 11526              	.LASF599:
 11527 4663 50335F35 		.ascii	"P3_5_DSI_DSI\000"
 11527      5F445349 
 11527      5F445349 
 11527      00
 11528              	.LASF664:
 11529 4670 50355F30 		.ascii	"P5_0_LCD_SEG30\000"
 11529      5F4C4344 
 11529      5F534547 
 11529      333000
 11530              	.LASF1631:
 11531 467f 5031325F 		.ascii	"P12_0_SCB6_I2C_SCL\000"
 11531      305F5343 
 11531      42365F49 
 11531      32435F53 
 11531      434C00
 11532              	.LASF286:
 11533 4692 50315F30 		.ascii	"P1_0_LCD_COM6\000"
 11533      5F4C4344 
 11533      5F434F4D 
 11533      3600
 11534              	.LASF1277:
 11535 46a0 50395F33 		.ascii	"P9_3_AMUXA\000"
 11535      5F414D55 
 11535      584100
 11536              	.LASF321:
 11537 46ab 50315F32 		.ascii	"P1_2_CSD_CSD_TX_N\000"
 11537      5F435344 
 11537      5F435344 
 11537      5F54585F 
 11537      4E00
 11538              	.LASF898:
 11539 46bd 50365F35 		.ascii	"P6_5_TCPWM0_LINE_COMPL2\000"
ARM GAS  C:\Users\stijn\AppData\Local\Temp\ccD3lQ9e.s 			page 303


 11539      5F544350 
 11539      574D305F 
 11539      4C494E45 
 11539      5F434F4D 
 11540              	.LASF627:
 11541 46d5 50345F30 		.ascii	"P4_0_SCB7_UART_RX\000"
 11541      5F534342 
 11541      375F5541 
 11541      52545F52 
 11541      5800
 11542              	.LASF1387:
 11543 46e7 5031305F 		.ascii	"P10_1_PERI_TR_IO_INPUT21\000"
 11543      315F5045 
 11543      52495F54 
 11543      525F494F 
 11543      5F494E50 
 11544              	.LASF1924:
 11545 4700 74656D70 		.ascii	"tempReg\000"
 11545      52656700 
 11546              	.LASF466:
 11547 4708 50325F35 		.ascii	"P2_5_AMUXA\000"
 11547      5F414D55 
 11547      584100
 11548              	.LASF467:
 11549 4713 50325F35 		.ascii	"P2_5_AMUXB\000"
 11549      5F414D55 
 11549      584200
 11550              	.LASF925:
 11551 471e 50365F36 		.ascii	"P6_6_LCD_COM44\000"
 11551      5F4C4344 
 11551      5F434F4D 
 11551      343400
 11552              	.LASF1601:
 11553 472d 5031315F 		.ascii	"P11_6_CSD_CSD_TX_N\000"
 11553      365F4353 
 11553      445F4353 
 11553      445F5458 
 11553      5F4E00
 11554              	.LASF349:
 11555 4740 50315F34 		.ascii	"P1_4_AMUXB_DSI\000"
 11555      5F414D55 
 11555      58425F44 
 11555      534900
 11556              	.LASF1484:
 11557 474f 5031305F 		.ascii	"P10_7_LCD_COM15\000"
 11557      375F4C43 
 11557      445F434F 
 11557      4D313500 
 11558              	.LASF1691:
 11559 475f 5031325F 		.ascii	"P12_4_AMUXA\000"
 11559      345F414D 
 11559      55584100 
 11560              	.LASF1692:
 11561 476b 5031325F 		.ascii	"P12_4_AMUXB\000"
 11561      345F414D 
 11561      55584200 
 11562              	.LASF691:
ARM GAS  C:\Users\stijn\AppData\Local\Temp\ccD3lQ9e.s 			page 304


 11563 4777 50355F32 		.ascii	"P5_2_GPIO\000"
 11563      5F475049 
 11563      4F00
 11564              	.LASF55:
 11565 4781 6770696F 		.ascii	"gpioVersion\000"
 11565      56657273 
 11565      696F6E00 
 11566              	.LASF171:
 11567 478d 50305F30 		.ascii	"P0_0_GPIO\000"
 11567      5F475049 
 11567      4F00
 11568              	.LASF1281:
 11569 4797 50395F33 		.ascii	"P9_3_TCPWM0_LINE_COMPL5\000"
 11569      5F544350 
 11569      574D305F 
 11569      4C494E45 
 11569      5F434F4D 
 11570              	.LASF1803:
 11571 47af 5031335F 		.ascii	"P13_3_GPIO\000"
 11571      335F4750 
 11571      494F00
 11572              	.LASF1679:
 11573 47ba 5031325F 		.ascii	"P12_3_TCPWM1_LINE_COMPL5\000"
 11573      335F5443 
 11573      50574D31 
 11573      5F4C494E 
 11573      455F434F 
 11574              	.LASF223:
 11575 47d3 50305F33 		.ascii	"P0_3_GPIO_DSI\000"
 11575      5F475049 
 11575      4F5F4453 
 11575      4900
 11576              	.LASF1511:
 11577 47e1 5031315F 		.ascii	"P11_1_AMUXA_DSI\000"
 11577      315F414D 
 11577      5558415F 
 11577      44534900 
 11578              	.LASF493:
 11579 47f1 50325F36 		.ascii	"P2_6_BLESS_MXD_DPSLP_ACT_LDO_EN\000"
 11579      5F424C45 
 11579      53535F4D 
 11579      58445F44 
 11579      50534C50 
 11580              	.LASF558:
 11581 4811 50335F32 		.ascii	"P3_2_CSD_CSD_TX_N\000"
 11581      5F435344 
 11581      5F435344 
 11581      5F54585F 
 11581      4E00
 11582              	.LASF741:
 11583 4823 50355F34 		.ascii	"P5_4_SCB5_SPI_SELECT1\000"
 11583      5F534342 
 11583      355F5350 
 11583      495F5345 
 11583      4C454354 
 11584              	.LASF767:
 11585 4839 50355F36 		.ascii	"P5_6_AMUXA_DSI\000"
ARM GAS  C:\Users\stijn\AppData\Local\Temp\ccD3lQ9e.s 			page 305


 11585      5F414D55 
 11585      58415F44 
 11585      534900
 11586              	.LASF1894:
 11587 4848 63795F65 		.ascii	"cy_en_gpio_amuxconnect_t\000"
 11587      6E5F6770 
 11587      696F5F61 
 11587      6D757863 
 11587      6F6E6E65 
 11588              	.LASF1618:
 11589 4861 5031325F 		.ascii	"P12_0_DSI_GPIO\000"
 11589      305F4453 
 11589      495F4750 
 11589      494F00
 11590              	.LASF1860:
 11591 4870 5031335F 		.ascii	"P13_6_CSD_CSD_TX_N\000"
 11591      365F4353 
 11591      445F4353 
 11591      445F5458 
 11591      5F4E00
 11592              	.LASF663:
 11593 4883 50355F30 		.ascii	"P5_0_LCD_COM30\000"
 11593      5F4C4344 
 11593      5F434F4D 
 11593      333000
 11594              	.LASF1910:
 11595 4892 696E744D 		.ascii	"intMask\000"
 11595      61736B00 
 11596              	.LASF1386:
 11597 489a 5031305F 		.ascii	"P10_1_SCB1_SPI_MISO\000"
 11597      315F5343 
 11597      42315F53 
 11597      50495F4D 
 11597      49534F00 
 11598              	.LASF1407:
 11599 48ae 5031305F 		.ascii	"P10_3_GPIO_DSI\000"
 11599      335F4750 
 11599      494F5F44 
 11599      534900
 11600              	.LASF808:
 11601 48bd 50365F30 		.ascii	"P6_0_SCB3_UART_RX\000"
 11601      5F534342 
 11601      335F5541 
 11601      52545F52 
 11601      5800
 11602              	.LASF1282:
 11603 48cf 50395F33 		.ascii	"P9_3_TCPWM1_LINE_COMPL21\000"
 11603      5F544350 
 11603      574D315F 
 11603      4C494E45 
 11603      5F434F4D 
 11604              	.LASF987:
 11605 48e8 50375F32 		.ascii	"P7_2_GPIO_DSI\000"
 11605      5F475049 
 11605      4F5F4453 
 11605      4900
 11606              	.LASF1241:
ARM GAS  C:\Users\stijn\AppData\Local\Temp\ccD3lQ9e.s 			page 306


 11607 48f6 50395F31 		.ascii	"P9_1_AMUXA_DSI\000"
 11607      5F414D55 
 11607      58415F44 
 11607      534900
 11608              	.LASF702:
 11609 4905 50355F32 		.ascii	"P5_2_CSD_CSD_TX_N\000"
 11609      5F435344 
 11609      5F435344 
 11609      5F54585F 
 11609      4E00
 11610              	.LASF1592:
 11611 4917 5031315F 		.ascii	"P11_6_GPIO\000"
 11611      365F4750 
 11611      494F00
 11612              	.LASF763:
 11613 4922 50355F36 		.ascii	"P5_6_DSI_DSI\000"
 11613      5F445349 
 11613      5F445349 
 11613      00
 11614              	.LASF497:
 11615 492f 50325F37 		.ascii	"P2_7_DSI_GPIO\000"
 11615      5F445349 
 11615      5F475049 
 11615      4F00
 11616              	.LASF1357:
 11617 493d 5031305F 		.ascii	"P10_0_AMUXA_DSI\000"
 11617      305F414D 
 11617      5558415F 
 11617      44534900 
 11618              	.LASF1940:
 11619 494d 43795F47 		.ascii	"Cy_GPIO_Port_Deinit\000"
 11619      50494F5F 
 11619      506F7274 
 11619      5F446569 
 11619      6E697400 
 11620              	.LASF1461:
 11621 4961 5031305F 		.ascii	"P10_6_AMUXA\000"
 11621      365F414D 
 11621      55584100 
 11622              	.LASF1462:
 11623 496d 5031305F 		.ascii	"P10_6_AMUXB\000"
 11623      365F414D 
 11623      55584200 
 11624              	.LASF1233:
 11625 4979 50395F30 		.ascii	"P9_0_PERI_TR_IO_INPUT18\000"
 11625      5F504552 
 11625      495F5452 
 11625      5F494F5F 
 11625      494E5055 
 11626              	.LASF1917:
 11627 4991 76726566 		.ascii	"vrefSel\000"
 11627      53656C00 
 11628              	.LASF262:
 11629 4999 50305F35 		.ascii	"P0_5_AMUXA_DSI\000"
 11629      5F414D55 
 11629      58415F44 
 11629      534900
ARM GAS  C:\Users\stijn\AppData\Local\Temp\ccD3lQ9e.s 			page 307


 11630              	.LASF1740:
 11631 49a8 5031325F 		.ascii	"P12_7_DSI_GPIO\000"
 11631      375F4453 
 11631      495F4750 
 11631      494F00
 11632              	.LASF997:
 11633 49b7 50375F32 		.ascii	"P7_2_CSD_CSD_TX_N\000"
 11633      5F435344 
 11633      5F435344 
 11633      5F54585F 
 11633      4E00
 11634              	.LASF1278:
 11635 49c9 50395F33 		.ascii	"P9_3_AMUXB\000"
 11635      5F414D55 
 11635      584200
 11636              	.LASF1325:
 11637 49d4 50395F36 		.ascii	"P9_6_DSI_GPIO\000"
 11637      5F445349 
 11637      5F475049 
 11637      4F00
 11638              	.LASF777:
 11639 49e2 50355F36 		.ascii	"P5_6_AUDIOSS0_RX_SDI\000"
 11639      5F415544 
 11639      494F5353 
 11639      305F5258 
 11639      5F534449 
 11640              	.LASF619:
 11641 49f7 50345F30 		.ascii	"P4_0_AMUXA_DSI\000"
 11641      5F414D55 
 11641      58415F44 
 11641      534900
 11642              	.LASF1903:
 11643 4a06 73656C30 		.ascii	"sel0Active\000"
 11643      41637469 
 11643      766500
 11644              	.LASF365:
 11645 4a11 50315F35 		.ascii	"P1_5_TCPWM0_LINE_COMPL5\000"
 11645      5F544350 
 11645      574D305F 
 11645      4C494E45 
 11645      5F434F4D 
 11646              	.LASF352:
 11647 4a29 50315F34 		.ascii	"P1_4_CSD_CSD_TX\000"
 11647      5F435344 
 11647      5F435344 
 11647      5F545800 
 11648              	.LASF976:
 11649 4a39 50375F31 		.ascii	"P7_1_TCPWM0_LINE_COMPL4\000"
 11649      5F544350 
 11649      574D305F 
 11649      4C494E45 
 11649      5F434F4D 
 11650              	.LASF1767:
 11651 4a51 5031335F 		.ascii	"P13_0_SCB6_SPI_MOSI\000"
 11651      305F5343 
 11651      42365F53 
 11651      50495F4D 
ARM GAS  C:\Users\stijn\AppData\Local\Temp\ccD3lQ9e.s 			page 308


 11651      4F534900 
 11652              	.LASF557:
 11653 4a65 50335F32 		.ascii	"P3_2_CSD_CSD_TX\000"
 11653      5F435344 
 11653      5F435344 
 11653      5F545800 
 11654              	.LASF278:
 11655 4a75 50315F30 		.ascii	"P1_0_AMUXA\000"
 11655      5F414D55 
 11655      584100
 11656              	.LASF279:
 11657 4a80 50315F30 		.ascii	"P1_0_AMUXB\000"
 11657      5F414D55 
 11657      584200
 11658              	.LASF661:
 11659 4a8b 50355F30 		.ascii	"P5_0_CSD_CSD_TX\000"
 11659      5F435344 
 11659      5F435344 
 11659      5F545800 
 11660              	.LASF836:
 11661 4a9b 50365F32 		.ascii	"P6_2_DSI_GPIO\000"
 11661      5F445349 
 11661      5F475049 
 11661      4F00
 11662              	.LASF889:
 11663 4aa9 50365F34 		.ascii	"P6_4_SRSS_DDFT_PIN_IN0\000"
 11663      5F535253 
 11663      535F4444 
 11663      46545F50 
 11663      494E5F49 
 11664              	.LASF1266:
 11665 4ac0 50395F32 		.ascii	"P9_2_CSD_CSD_TX_N\000"
 11665      5F435344 
 11665      5F435344 
 11665      5F54585F 
 11665      4E00
 11666              	.LASF541:
 11667 4ad2 50335F31 		.ascii	"P3_1_LCD_SEG21\000"
 11667      5F4C4344 
 11667      5F534547 
 11667      323100
 11668              	.LASF1600:
 11669 4ae1 5031315F 		.ascii	"P11_6_CSD_CSD_TX\000"
 11669      365F4353 
 11669      445F4353 
 11669      445F5458 
 11669      00
 11670              	.LASF1829:
 11671 4af2 5031335F 		.ascii	"P13_4_CSD_CSD_TX\000"
 11671      345F4353 
 11671      445F4353 
 11671      445F5458 
 11671      00
 11672              	.LASF1305:
 11673 4b03 50395F34 		.ascii	"P9_4_LCD_SEG4\000"
 11673      5F4C4344 
 11673      5F534547 
ARM GAS  C:\Users\stijn\AppData\Local\Temp\ccD3lQ9e.s 			page 309


 11673      3400
 11674              	.LASF335:
 11675 4b11 50315F33 		.ascii	"P1_3_TCPWM1_LINE_COMPL12\000"
 11675      5F544350 
 11675      574D315F 
 11675      4C494E45 
 11675      5F434F4D 
 11676              	.LASF1344:
 11677 4b2a 50395F37 		.ascii	"P9_7_AMUXB_DSI\000"
 11677      5F414D55 
 11677      58425F44 
 11677      534900
 11678              	.LASF1379:
 11679 4b39 5031305F 		.ascii	"P10_1_TCPWM1_LINE_COMPL22\000"
 11679      315F5443 
 11679      50574D31 
 11679      5F4C494E 
 11679      455F434F 
 11680              	.LASF1135:
 11681 4b53 50385F32 		.ascii	"P8_2_LCD_SEG56\000"
 11681      5F4C4344 
 11681      5F534547 
 11681      353600
 11682              	.LASF1683:
 11683 4b62 5031325F 		.ascii	"P12_3_LCD_SEG26\000"
 11683      335F4C43 
 11683      445F5345 
 11683      47323600 
 11684              	.LASF1111:
 11685 4b72 50385F31 		.ascii	"P8_1_AMUXB_DSI\000"
 11685      5F414D55 
 11685      58425F44 
 11685      534900
 11686              	.LASF283:
 11687 4b81 50315F30 		.ascii	"P1_0_TCPWM1_LINE3\000"
 11687      5F544350 
 11687      574D315F 
 11687      4C494E45 
 11687      3300
 11688              	.LASF1918:
 11689 4b93 766F6853 		.ascii	"vohSel\000"
 11689      656C00
 11690              	.LASF173:
 11691 4b9a 50305F30 		.ascii	"P0_0_DSI_DSI\000"
 11691      5F445349 
 11691      5F445349 
 11691      00
 11692              	.LASF1039:
 11693 4ba7 50375F35 		.ascii	"P7_5_AMUXA\000"
 11693      5F414D55 
 11693      584100
 11694              	.LASF1040:
 11695 4bb2 50375F35 		.ascii	"P7_5_AMUXB\000"
 11695      5F414D55 
 11695      584200
 11696              	.LASF88:
 11697 4bbd 64774368 		.ascii	"dwChOffset\000"
ARM GAS  C:\Users\stijn\AppData\Local\Temp\ccD3lQ9e.s 			page 310


 11697      4F666673 
 11697      657400
 11698              	.LASF1653:
 11699 4bc8 5031325F 		.ascii	"P12_2_GPIO\000"
 11699      325F4750 
 11699      494F00
 11700              	.LASF76:
 11701 4bd3 70726F74 		.ascii	"protBusMasterMask\000"
 11701      4275734D 
 11701      61737465 
 11701      724D6173 
 11701      6B00
 11702              	.LASF540:
 11703 4be5 50335F31 		.ascii	"P3_1_LCD_COM21\000"
 11703      5F4C4344 
 11703      5F434F4D 
 11703      323100
 11704              	.LASF901:
 11705 4bf4 50365F35 		.ascii	"P6_5_CSD_CSD_TX_N\000"
 11705      5F435344 
 11705      5F435344 
 11705      5F54585F 
 11705      4E00
 11706              	.LASF293:
 11707 4c06 50315F31 		.ascii	"P1_1_GPIO_DSI\000"
 11707      5F475049 
 11707      4F5F4453 
 11707      4900
 11708              	.LASF1071:
 11709 4c14 50375F37 		.ascii	"P7_7_DSI_DSI\000"
 11709      5F445349 
 11709      5F445349 
 11709      00
 11710              	.LASF1543:
 11711 4c21 5031315F 		.ascii	"P11_3_DSI_DSI\000"
 11711      335F4453 
 11711      495F4453 
 11711      4900
 11712              	.LASF579:
 11713 4c2f 50335F33 		.ascii	"P3_3_SCB2_SPI_SELECT0\000"
 11713      5F534342 
 11713      325F5350 
 11713      495F5345 
 11713      4C454354 
 11714              	.LASF106:
 11715 4c45 6770696F 		.ascii	"gpioPrtIntrCfgOffset\000"
 11715      50727449 
 11715      6E747243 
 11715      66674F66 
 11715      66736574 
 11716              	.LASF1568:
 11717 4c5a 5031315F 		.ascii	"P11_4_TCPWM1_LINE3\000"
 11717      345F5443 
 11717      50574D31 
 11717      5F4C494E 
 11717      453300
 11718              	.LASF94:
ARM GAS  C:\Users\stijn\AppData\Local\Temp\ccD3lQ9e.s 			page 311


 11719 4c6d 70657269 		.ascii	"periTrCmdOffset\000"
 11719      5472436D 
 11719      644F6666 
 11719      73657400 
 11720              	.LASF1243:
 11721 4c7d 50395F31 		.ascii	"P9_1_TCPWM0_LINE_COMPL4\000"
 11721      5F544350 
 11721      574D305F 
 11721      4C494E45 
 11721      5F434F4D 
 11722              	.LASF56:
 11723 4c95 6873696F 		.ascii	"hsiomVersion\000"
 11723      6D566572 
 11723      73696F6E 
 11723      00
 11724              	.LASF516:
 11725 4ca2 50335F30 		.ascii	"P3_0_AMUXB_DSI\000"
 11725      5F414D55 
 11725      58425F44 
 11725      534900
 11726              	.LASF906:
 11727 4cb1 50365F35 		.ascii	"P6_5_SCB6_I2C_SDA\000"
 11727      5F534342 
 11727      365F4932 
 11727      435F5344 
 11727      4100
 11728              	.LASF982:
 11729 4cc3 50375F31 		.ascii	"P7_1_SCB4_UART_TX\000"
 11729      5F534342 
 11729      345F5541 
 11729      52545F54 
 11729      5800
 11730              	.LASF1885:
 11731 4cd5 63795F65 		.ascii	"cy_en_gpio_status_t\000"
 11731      6E5F6770 
 11731      696F5F73 
 11731      74617475 
 11731      735F7400 
 11732              	.LASF272:
 11733 4ce9 50305F35 		.ascii	"P0_5_SCB0_SPI_SELECT0\000"
 11733      5F534342 
 11733      305F5350 
 11733      495F5345 
 11733      4C454354 
 11734              	.LASF1506:
 11735 4cff 5031315F 		.ascii	"P11_1_GPIO_DSI\000"
 11735      315F4750 
 11735      494F5F44 
 11735      534900
 11736              	.LASF1087:
 11737 4d0e 50385F30 		.ascii	"P8_0_GPIO_DSI\000"
 11737      5F475049 
 11737      4F5F4453 
 11737      4900
 11738              	.LASF1664:
 11739 4d1c 5031325F 		.ascii	"P12_2_CSD_CSD_TX_N\000"
 11739      325F4353 
ARM GAS  C:\Users\stijn\AppData\Local\Temp\ccD3lQ9e.s 			page 312


 11739      445F4353 
 11739      445F5458 
 11739      5F4E00
 11740              	.LASF1842:
 11741 4d2f 5031335F 		.ascii	"P13_5_TCPWM0_LINE_COMPL2\000"
 11741      355F5443 
 11741      50574D30 
 11741      5F4C494E 
 11741      455F434F 
 11742              	.LASF992:
 11743 4d48 50375F32 		.ascii	"P7_2_AMUXA_DSI\000"
 11743      5F414D55 
 11743      58415F44 
 11743      534900
 11744              	.LASF600:
 11745 4d57 50335F35 		.ascii	"P3_5_DSI_GPIO\000"
 11745      5F445349 
 11745      5F475049 
 11745      4F00
 11746              	.LASF783:
 11747 4d65 50355F37 		.ascii	"P5_7_AMUXB\000"
 11747      5F414D55 
 11747      584200
 11748              	.LASF687:
 11749 4d70 50355F31 		.ascii	"P5_1_SCB5_SPI_MISO\000"
 11749      5F534342 
 11749      355F5350 
 11749      495F4D49 
 11749      534F00
 11750              	.LASF1472:
 11751 4d83 5031305F 		.ascii	"P10_7_GPIO\000"
 11751      375F4750 
 11751      494F00
 11752              	.LASF1540:
 11753 4d8e 5031315F 		.ascii	"P11_2_SCB5_SPI_CLK\000"
 11753      325F5343 
 11753      42355F53 
 11753      50495F43 
 11753      4C4B00
 11754              	.LASF1134:
 11755 4da1 50385F32 		.ascii	"P8_2_LCD_COM56\000"
 11755      5F4C4344 
 11755      5F434F4D 
 11755      353600
 11756              	.LASF1196:
 11757 4db0 50385F36 		.ascii	"P8_6_CSD_CSD_TX\000"
 11757      5F435344 
 11757      5F435344 
 11757      5F545800 
 11758              	.LASF271:
 11759 4dc0 50305F35 		.ascii	"P0_5_SCB0_UART_CTS\000"
 11759      5F534342 
 11759      305F5541 
 11759      52545F43 
 11759      545300
 11760              	.LASF1120:
 11761 4dd3 50385F31 		.ascii	"P8_1_SCB4_SPI_MISO\000"
ARM GAS  C:\Users\stijn\AppData\Local\Temp\ccD3lQ9e.s 			page 313


 11761      5F534342 
 11761      345F5350 
 11761      495F4D49 
 11761      534F00
 11762              	.LASF395:
 11763 4de6 50325F31 		.ascii	"P2_1_DSI_DSI\000"
 11763      5F445349 
 11763      5F445349 
 11763      00
 11764              	.LASF1421:
 11765 4df3 5031305F 		.ascii	"P10_3_SCB1_SPI_SELECT0\000"
 11765      335F5343 
 11765      42315F53 
 11765      50495F53 
 11765      454C4543 
 11766              	.LASF191:
 11767 4e0a 50305F31 		.ascii	"P0_1_DSI_GPIO\000"
 11767      5F445349 
 11767      5F475049 
 11767      4F00
 11768              	.LASF401:
 11769 4e18 50325F31 		.ascii	"P2_1_TCPWM0_LINE_COMPL6\000"
 11769      5F544350 
 11769      574D305F 
 11769      4C494E45 
 11769      5F434F4D 
 11770              	.LASF1837:
 11771 4e30 5031335F 		.ascii	"P13_5_DSI_GPIO\000"
 11771      355F4453 
 11771      495F4750 
 11771      494F00
 11772              	.LASF67:
 11773 4e3f 73727373 		.ascii	"srssNumClkpath\000"
 11773      4E756D43 
 11773      6C6B7061 
 11773      746800
 11774              	.LASF83:
 11775 4e4e 666C6173 		.ascii	"flashCtlMainWs0Freq\000"
 11775      6843746C 
 11775      4D61696E 
 11775      57733046 
 11775      72657100 
 11776              	.LASF1950:
 11777 4e62 474E5520 		.ascii	"GNU C11 5.4.1 20160609 (release) [ARM/embedded-5-br"
 11777      43313120 
 11777      352E342E 
 11777      31203230 
 11777      31363036 
 11778 4e95 616E6368 		.ascii	"anch revision 237715] -mcpu=cortex-m4 -mfloat-abi=s"
 11778      20726576 
 11778      6973696F 
 11778      6E203233 
 11778      37373135 
 11779 4ec8 6F667466 		.ascii	"oftfp -mfpu=fpv4-sp-d16 -mthumb -g -O0 -ffunction-s"
 11779      70202D6D 
 11779      6670753D 
 11779      66707634 
ARM GAS  C:\Users\stijn\AppData\Local\Temp\ccD3lQ9e.s 			page 314


 11779      2D73702D 
 11780 4efb 65637469 		.ascii	"ections -ffat-lto-objects\000"
 11780      6F6E7320 
 11780      2D666661 
 11780      742D6C74 
 11780      6F2D6F62 
 11781              	.LASF1660:
 11782 4f15 5031325F 		.ascii	"P12_2_AMUXB_DSI\000"
 11782      325F414D 
 11782      5558425F 
 11782      44534900 
 11783              	.LASF1304:
 11784 4f25 50395F34 		.ascii	"P9_4_LCD_COM4\000"
 11784      5F4C4344 
 11784      5F434F4D 
 11784      3400
 11785              	.LASF797:
 11786 4f33 50365F30 		.ascii	"P6_0_AMUXA\000"
 11786      5F414D55 
 11786      584100
 11787              	.LASF798:
 11788 4f3e 50365F30 		.ascii	"P6_0_AMUXB\000"
 11788      5F414D55 
 11788      584200
 11789              	.LASF1821:
 11790 4f49 5031335F 		.ascii	"P13_4_DSI_DSI\000"
 11790      345F4453 
 11790      495F4453 
 11790      4900
 11791              	.LASF501:
 11792 4f57 50325F37 		.ascii	"P2_7_AMUXB_DSI\000"
 11792      5F414D55 
 11792      58425F44 
 11792      534900
 11793              	.LASF324:
 11794 4f66 50315F32 		.ascii	"P1_2_SCB7_UART_RTS\000"
 11794      5F534342 
 11794      375F5541 
 11794      52545F52 
 11794      545300
 11795              	.LASF399:
 11796 4f79 50325F31 		.ascii	"P2_1_AMUXA_DSI\000"
 11796      5F414D55 
 11796      58415F44 
 11796      534900
 11797              	.LASF952:
 11798 4f88 50375F30 		.ascii	"P7_0_DSI_GPIO\000"
 11798      5F445349 
 11798      5F475049 
 11798      4F00
 11799              	.LASF29:
 11800 4f96 4346475F 		.ascii	"CFG_IN\000"
 11800      494E00
 11801              	.LASF863:
 11802 4f9d 50365F33 		.ascii	"P6_3_LCD_SEG41\000"
 11802      5F4C4344 
 11802      5F534547 
ARM GAS  C:\Users\stijn\AppData\Local\Temp\ccD3lQ9e.s 			page 315


 11802      343100
 11803              	.LASF1436:
 11804 4fac 5031305F 		.ascii	"P10_4_LCD_SEG12\000"
 11804      345F4C43 
 11804      445F5345 
 11804      47313200 
 11805              	.LASF198:
 11806 4fbc 50305F31 		.ascii	"P0_1_CSD_CSD_TX\000"
 11806      5F435344 
 11806      5F435344 
 11806      5F545800 
 11807              	.LASF840:
 11808 4fcc 50365F32 		.ascii	"P6_2_AMUXB_DSI\000"
 11808      5F414D55 
 11808      58425F44 
 11808      534900
 11809              	.LASF351:
 11810 4fdb 50315F34 		.ascii	"P1_4_TCPWM1_LINE13\000"
 11810      5F544350 
 11810      574D315F 
 11810      4C494E45 
 11810      313300
 11811              	.LASF1202:
 11812 4fee 50385F37 		.ascii	"P8_7_GPIO_DSI\000"
 11812      5F475049 
 11812      4F5F4453 
 11812      4900
 11813              	.LASF505:
 11814 4ffc 50325F37 		.ascii	"P2_7_CSD_CSD_TX_N\000"
 11814      5F435344 
 11814      5F435344 
 11814      5F54585F 
 11814      4E00
 11815              	.LASF1549:
 11816 500e 5031315F 		.ascii	"P11_3_TCPWM0_LINE_COMPL2\000"
 11816      335F5443 
 11816      50574D30 
 11816      5F4C494E 
 11816      455F434F 
 11817              	.LASF1416:
 11818 5027 5031305F 		.ascii	"P10_3_CSD_CSD_TX\000"
 11818      335F4353 
 11818      445F4353 
 11818      445F5458 
 11818      00
 11819              	.LASF258:
 11820 5038 50305F35 		.ascii	"P0_5_DSI_DSI\000"
 11820      5F445349 
 11820      5F445349 
 11820      00
 11821              	.LASF1644:
 11822 5045 5031325F 		.ascii	"P12_1_CSD_CSD_TX\000"
 11822      315F4353 
 11822      445F4353 
 11822      445F5458 
 11822      00
 11823              	.LASF1186:
ARM GAS  C:\Users\stijn\AppData\Local\Temp\ccD3lQ9e.s 			page 316


 11824 5056 50385F36 		.ascii	"P8_6_GPIO\000"
 11824      5F475049 
 11824      4F00
 11825              	.LASF581:
 11826 5060 50335F34 		.ascii	"P3_4_GPIO\000"
 11826      5F475049 
 11826      4F00
 11827              	.LASF1539:
 11828 506a 5031315F 		.ascii	"P11_2_SCB5_UART_RTS\000"
 11828      325F5343 
 11828      42355F55 
 11828      4152545F 
 11828      52545300 
 11829              	.LASF710:
 11830 507e 50355F33 		.ascii	"P5_3_GPIO_DSI\000"
 11830      5F475049 
 11830      4F5F4453 
 11830      4900
 11831              	.LASF1547:
 11832 508c 5031315F 		.ascii	"P11_3_AMUXA_DSI\000"
 11832      335F414D 
 11832      5558415F 
 11832      44534900 
 11833              	.LASF862:
 11834 509c 50365F33 		.ascii	"P6_3_LCD_COM41\000"
 11834      5F4C4344 
 11834      5F434F4D 
 11834      343100
 11835              	.LASF1703:
 11836 50ab 5031325F 		.ascii	"P12_4_AUDIOSS_PDM_CLK\000"
 11836      345F4155 
 11836      44494F53 
 11836      535F5044 
 11836      4D5F434C 
 11837              	.LASF1541:
 11838 50c1 5031315F 		.ascii	"P11_3_GPIO\000"
 11838      335F4750 
 11838      494F00
 11839              	.LASF1113:
 11840 50cc 50385F31 		.ascii	"P8_1_TCPWM1_LINE_COMPL16\000"
 11840      5F544350 
 11840      574D315F 
 11840      4C494E45 
 11840      5F434F4D 
 11841              	.LASF299:
 11842 50e5 50315F31 		.ascii	"P1_1_AMUXB_DSI\000"
 11842      5F414D55 
 11842      58425F44 
 11842      534900
 11843              	.LASF247:
 11844 50f4 50305F34 		.ascii	"P0_4_TCPWM0_LINE2\000"
 11844      5F544350 
 11844      574D305F 
 11844      4C494E45 
 11844      3200
 11845              	.LASF1662:
 11846 5106 5031325F 		.ascii	"P12_2_TCPWM1_LINE5\000"
ARM GAS  C:\Users\stijn\AppData\Local\Temp\ccD3lQ9e.s 			page 317


 11846      325F5443 
 11846      50574D31 
 11846      5F4C494E 
 11846      453500
 11847              	.LASF1385:
 11848 5119 5031305F 		.ascii	"P10_1_SCB1_I2C_SDA\000"
 11848      315F5343 
 11848      42315F49 
 11848      32435F53 
 11848      444100
 11849              	.LASF1908:
 11850 512c 6873696F 		.ascii	"hsiom\000"
 11850      6D00
 11851              	.LASF1017:
 11852 5132 50375F33 		.ascii	"P7_3_SCB4_SPI_SELECT0\000"
 11852      5F534342 
 11852      345F5350 
 11852      495F5345 
 11852      4C454354 
 11853              	.LASF1080:
 11854 5148 50375F37 		.ascii	"P7_7_CSD_CSD_TX_N\000"
 11854      5F435344 
 11854      5F435344 
 11854      5F54585F 
 11854      4E00
 11855              	.LASF934:
 11856 515a 50365F37 		.ascii	"P6_7_DSI_GPIO\000"
 11856      5F445349 
 11856      5F475049 
 11856      4F00
 11857              	.LASF715:
 11858 5168 50355F33 		.ascii	"P5_3_AMUXA_DSI\000"
 11858      5F414D55 
 11858      58415F44 
 11858      534900
 11859              	.LASF1348:
 11860 5177 50395F37 		.ascii	"P9_7_CSD_CSD_TX_N\000"
 11860      5F435344 
 11860      5F435344 
 11860      5F54585F 
 11860      4E00
 11861              	.LASF7:
 11862 5189 73686F72 		.ascii	"short int\000"
 11862      7420696E 
 11862      7400
 11863              	.LASF450:
 11864 5193 50325F34 		.ascii	"P2_4_AMUXA\000"
 11864      5F414D55 
 11864      584100
 11865              	.LASF451:
 11866 519e 50325F34 		.ascii	"P2_4_AMUXB\000"
 11866      5F414D55 
 11866      584200
 11867              	.LASF454:
 11868 51a9 50325F34 		.ascii	"P2_4_TCPWM0_LINE0\000"
 11868      5F544350 
 11868      574D305F 
ARM GAS  C:\Users\stijn\AppData\Local\Temp\ccD3lQ9e.s 			page 318


 11868      4C494E45 
 11868      3000
 11869              	.LASF1674:
 11870 51bb 5031325F 		.ascii	"P12_3_AMUXA\000"
 11870      335F414D 
 11870      55584100 
 11871              	.LASF1675:
 11872 51c7 5031325F 		.ascii	"P12_3_AMUXB\000"
 11872      335F414D 
 11872      55584200 
 11873              	.LASF1299:
 11874 51d3 50395F34 		.ascii	"P9_4_AMUXB_DSI\000"
 11874      5F414D55 
 11874      58425F44 
 11874      534900
 11875              	.LASF523:
 11876 51e2 50335F30 		.ascii	"P3_0_SCB2_UART_RX\000"
 11876      5F534342 
 11876      325F5541 
 11876      52545F52 
 11876      5800
 11877              	.LASF1502:
 11878 51f4 5031315F 		.ascii	"P11_0_SCB5_I2C_SCL\000"
 11878      305F5343 
 11878      42355F49 
 11878      32435F53 
 11878      434C00
 11879              	.LASF1131:
 11880 5207 50385F32 		.ascii	"P8_2_TCPWM1_LINE17\000"
 11880      5F544350 
 11880      574D315F 
 11880      4C494E45 
 11880      313700
 11881              	.LASF707:
 11882 521a 50355F32 		.ascii	"P5_2_AUDIOSS_TX_WS\000"
 11882      5F415544 
 11882      494F5353 
 11882      5F54585F 
 11882      575300
 11883              	.LASF480:
 11884 522d 50325F36 		.ascii	"P2_6_DSI_DSI\000"
 11884      5F445349 
 11884      5F445349 
 11884      00
 11885              	.LASF942:
 11886 523a 50365F37 		.ascii	"P6_7_CSD_CSD_TX_N\000"
 11886      5F435344 
 11886      5F435344 
 11886      5F54585F 
 11886      4E00
 11887              	.LASF32:
 11888 524c 52455345 		.ascii	"RESERVED\000"
 11888      52564544 
 11888      00
 11889              	.LASF1555:
 11890 5255 5031315F 		.ascii	"P11_3_SMIF_SPI_DATA3\000"
 11890      335F534D 
ARM GAS  C:\Users\stijn\AppData\Local\Temp\ccD3lQ9e.s 			page 319


 11890      49465F53 
 11890      50495F44 
 11890      41544133 
 11891              	.LASF1946:
 11892 526a 43795F47 		.ascii	"Cy_GPIO_GetAmuxSplit\000"
 11892      50494F5F 
 11892      47657441 
 11892      6D757853 
 11892      706C6974 
 11893              	.LASF1629:
 11894 527f 5031325F 		.ascii	"P12_0_SMIF_SPI_DATA4\000"
 11894      305F534D 
 11894      49465F53 
 11894      50495F44 
 11894      41544134 
 11895              	.LASF211:
 11896 5294 50305F32 		.ascii	"P0_2_AMUXA_DSI\000"
 11896      5F414D55 
 11896      58415F44 
 11896      534900
 11897              	.LASF908:
 11898 52a3 50365F35 		.ascii	"P6_5_PERI_TR_IO_INPUT13\000"
 11898      5F504552 
 11898      495F5452 
 11898      5F494F5F 
 11898      494E5055 
 11899              	.LASF1721:
 11900 52bb 5031325F 		.ascii	"P12_5_AUDIOSS0_PDM_DATA\000"
 11900      355F4155 
 11900      44494F53 
 11900      53305F50 
 11900      444D5F44 
 11901              	.LASF1012:
 11902 52d3 50375F33 		.ascii	"P7_3_CSD_CSD_TX\000"
 11902      5F435344 
 11902      5F435344 
 11902      5F545800 
 11903              	.LASF1245:
 11904 52e3 50395F31 		.ascii	"P9_1_CSD_CSD_TX\000"
 11904      5F435344 
 11904      5F435344 
 11904      5F545800 
 11905              	.LASF1255:
 11906 52f3 50395F32 		.ascii	"P9_2_GPIO\000"
 11906      5F475049 
 11906      4F00
 11907              	.LASF613:
 11908 52fd 50345F30 		.ascii	"P4_0_GPIO\000"
 11908      5F475049 
 11908      4F00
 11909              	.LASF426:
 11910 5307 50325F32 		.ascii	"P2_2_SCB1_UART_RTS\000"
 11910      5F534342 
 11910      315F5541 
 11910      52545F52 
 11910      545300
 11911              	.LASF1552:
ARM GAS  C:\Users\stijn\AppData\Local\Temp\ccD3lQ9e.s 			page 320


 11912 531a 5031315F 		.ascii	"P11_3_CSD_CSD_TX_N\000"
 11912      335F4353 
 11912      445F4353 
 11912      445F5458 
 11912      5F4E00
 11913              	.LASF479:
 11914 532d 50325F36 		.ascii	"P2_6_GPIO_DSI\000"
 11914      5F475049 
 11914      4F5F4453 
 11914      4900
 11915              	.LASF875:
 11916 533b 50365F34 		.ascii	"P6_4_TCPWM0_LINE2\000"
 11916      5F544350 
 11916      574D305F 
 11916      4C494E45 
 11916      3200
 11917              	.LASF641:
 11918 534d 50345F31 		.ascii	"P4_1_TCPWM1_LINE_COMPL22\000"
 11918      5F544350 
 11918      574D315F 
 11918      4C494E45 
 11918      5F434F4D 
 11919              	.LASF1504:
 11920 5366 5031315F 		.ascii	"P11_0_PERI_TR_IO_INPUT22\000"
 11920      305F5045 
 11920      52495F54 
 11920      525F494F 
 11920      5F494E50 
 11921              	.LASF28:
 11922 537f 494E5452 		.ascii	"INTR_CFG\000"
 11922      5F434647 
 11922      00
 11923              	.LASF1444:
 11924 5388 5031305F 		.ascii	"P10_5_AMUXA\000"
 11924      355F414D 
 11924      55584100 
 11925              	.LASF1445:
 11926 5394 5031305F 		.ascii	"P10_5_AMUXB\000"
 11926      355F414D 
 11926      55584200 
 11927              	.LASF852:
 11928 53a0 50365F33 		.ascii	"P6_3_DSI_DSI\000"
 11928      5F445349 
 11928      5F445349 
 11928      00
 11929              	.LASF1667:
 11930 53ad 5031325F 		.ascii	"P12_2_SMIF_SPI_DATA6\000"
 11930      325F534D 
 11930      49465F53 
 11930      50495F44 
 11930      41544136 
 11931              	.LASF1862:
 11932 53c2 5031335F 		.ascii	"P13_6_LCD_SEG37\000"
 11932      365F4C43 
 11932      445F5345 
 11932      47333700 
 11933              	.LASF1009:
ARM GAS  C:\Users\stijn\AppData\Local\Temp\ccD3lQ9e.s 			page 321


 11934 53d2 50375F33 		.ascii	"P7_3_AMUXB_DSI\000"
 11934      5F414D55 
 11934      58425F44 
 11934      534900
 11935              	.LASF1723:
 11936 53e1 5031325F 		.ascii	"P12_6_GPIO_DSI\000"
 11936      365F4750 
 11936      494F5F44 
 11936      534900
 11937              	.LASF49:
 11938 53f0 69706342 		.ascii	"ipcBase\000"
 11938      61736500 
 11939              	.LASF1308:
 11940 53f8 50395F35 		.ascii	"P9_5_GPIO_DSI\000"
 11940      5F475049 
 11940      4F5F4453 
 11940      4900
 11941              	.LASF1164:
 11942 5406 50385F34 		.ascii	"P8_4_TCPWM0_LINE2\000"
 11942      5F544350 
 11942      574D305F 
 11942      4C494E45 
 11942      3200
 11943              	.LASF1884:
 11944 5418 43595F47 		.ascii	"CY_GPIO_BAD_PARAM\000"
 11944      50494F5F 
 11944      4241445F 
 11944      50415241 
 11944      4D00
 11945              	.LASF1422:
 11946 542a 5031305F 		.ascii	"P10_3_CPUSS_TRACE_DATA0\000"
 11946      335F4350 
 11946      5553535F 
 11946      54524143 
 11946      455F4441 
 11947              	.LASF967:
 11948 5442 50375F30 		.ascii	"P7_0_CPUSS_TRACE_CLOCK\000"
 11948      5F435055 
 11948      53535F54 
 11948      52414345 
 11948      5F434C4F 
 11949              	.LASF1808:
 11950 5459 5031335F 		.ascii	"P13_3_AMUXB\000"
 11950      335F414D 
 11950      55584200 
 11951              	.LASF105:
 11952 5465 70657269 		.ascii	"periDiv24_5CtlOffset\000"
 11952      44697632 
 11952      345F3543 
 11952      746C4F66 
 11952      66736574 
 11953              	.LASF1230:
 11954 547a 50395F30 		.ascii	"P9_0_SCB2_UART_RX\000"
 11954      5F534342 
 11954      325F5541 
 11954      52545F52 
 11954      5800
ARM GAS  C:\Users\stijn\AppData\Local\Temp\ccD3lQ9e.s 			page 322


 11955              	.LASF337:
 11956 548c 50315F33 		.ascii	"P1_3_CSD_CSD_TX_N\000"
 11956      5F435344 
 11956      5F435344 
 11956      5F54585F 
 11956      4E00
 11957              	.LASF814:
 11958 549e 50365F31 		.ascii	"P6_1_GPIO_DSI\000"
 11958      5F475049 
 11958      4F5F4453 
 11958      4900
 11959              	.LASF1069:
 11960 54ac 50375F37 		.ascii	"P7_7_GPIO\000"
 11960      5F475049 
 11960      4F00
 11961              	.LASF462:
 11962 54b6 50325F35 		.ascii	"P2_5_GPIO\000"
 11962      5F475049 
 11962      4F00
 11963              	.LASF1177:
 11964 54c0 50385F35 		.ascii	"P8_5_AMUXA_DSI\000"
 11964      5F414D55 
 11964      58415F44 
 11964      534900
 11965              	.LASF1259:
 11966 54cf 50395F32 		.ascii	"P9_2_AMUXA\000"
 11966      5F414D55 
 11966      584100
 11967              	.LASF1260:
 11968 54da 50395F32 		.ascii	"P9_2_AMUXB\000"
 11968      5F414D55 
 11968      584200
 11969              	.LASF475:
 11970 54e5 50325F35 		.ascii	"P2_5_LCD_SEG17\000"
 11970      5F4C4344 
 11970      5F534547 
 11970      313700
 11971              	.LASF1878:
 11972 54f4 656E5F68 		.ascii	"en_hsiom_sel_t\000"
 11972      73696F6D 
 11972      5F73656C 
 11972      5F7400
 11973              	.LASF1861:
 11974 5503 5031335F 		.ascii	"P13_6_LCD_COM37\000"
 11974      365F4C43 
 11974      445F434F 
 11974      4D333700 
 11975              	.LASF1947:
 11976 5513 72657456 		.ascii	"retVal\000"
 11976      616C00
 11977              	.LASF1423:
 11978 551a 5031305F 		.ascii	"P10_4_GPIO\000"
 11978      345F4750 
 11978      494F00
 11979              	.LASF288:
 11980 5525 50315F30 		.ascii	"P1_0_SCB7_UART_RX\000"
 11980      5F534342 
ARM GAS  C:\Users\stijn\AppData\Local\Temp\ccD3lQ9e.s 			page 323


 11980      375F5541 
 11980      52545F52 
 11980      5800
 11981              	.LASF1877:
 11982 5537 5031335F 		.ascii	"P13_7_LCD_SEG38\000"
 11982      375F4C43 
 11982      445F5345 
 11982      47333800 
 11983              	.LASF25:
 11984 5547 494E5452 		.ascii	"INTR_MASK\000"
 11984      5F4D4153 
 11984      4B00
 11985              	.LASF146:
 11986 5551 4853494F 		.ascii	"HSIOM_SEL_AMUXB_DSI\000"
 11986      4D5F5345 
 11986      4C5F414D 
 11986      5558425F 
 11986      44534900 
 11987              	.LASF1431:
 11988 5565 5031305F 		.ascii	"P10_4_TCPWM0_LINE0\000"
 11988      345F5443 
 11988      50574D30 
 11988      5F4C494E 
 11988      453000
 11989              	.LASF575:
 11990 5578 50335F33 		.ascii	"P3_3_CSD_CSD_TX_N\000"
 11990      5F435344 
 11990      5F435344 
 11990      5F54585F 
 11990      4E00
 11991              	.LASF1686:
 11992 558a 5031325F 		.ascii	"P12_3_SCB6_SPI_SELECT0\000"
 11992      335F5343 
 11992      42365F53 
 11992      50495F53 
 11992      454C4543 
 11993              	.LASF115:
 11994 55a1 63707573 		.ascii	"cpussCm4PwrCtlOffset\000"
 11994      73436D34 
 11994      50777243 
 11994      746C4F66 
 11994      66736574 
 11995              	.LASF282:
 11996 55b6 50315F30 		.ascii	"P1_0_TCPWM0_LINE3\000"
 11996      5F544350 
 11996      574D305F 
 11996      4C494E45 
 11996      3300
 11997              	.LASF80:
 11998 55c8 666C6173 		.ascii	"flashWriteDelay\000"
 11998      68577269 
 11998      74654465 
 11998      6C617900 
 11999              	.LASF1595:
 12000 55d8 5031315F 		.ascii	"P11_6_DSI_GPIO\000"
 12000      365F4453 
 12000      495F4750 
ARM GAS  C:\Users\stijn\AppData\Local\Temp\ccD3lQ9e.s 			page 324


 12000      494F00
 12001              	.LASF1875:
 12002 55e7 5031335F 		.ascii	"P13_7_CSD_CSD_TX_N\000"
 12002      375F4353 
 12002      445F4353 
 12002      445F5458 
 12002      5F4E00
 12003              	.LASF1841:
 12004 55fa 5031335F 		.ascii	"P13_5_AMUXB_DSI\000"
 12004      355F414D 
 12004      5558425F 
 12004      44534900 
 12005              	.LASF11:
 12006 560a 6C6F6E67 		.ascii	"long int\000"
 12006      20696E74 
 12006      00
 12007              	.LASF1210:
 12008 5613 50385F37 		.ascii	"P8_7_TCPWM1_LINE_COMPL19\000"
 12008      5F544350 
 12008      574D315F 
 12008      4C494E45 
 12008      5F434F4D 
 12009              	.LASF236:
 12010 562c 50305F33 		.ascii	"P0_3_SCB0_UART_TX\000"
 12010      5F534342 
 12010      305F5541 
 12010      52545F54 
 12010      5800
 12011              	.LASF1023:
 12012 563e 50375F34 		.ascii	"P7_4_AMUXB\000"
 12012      5F414D55 
 12012      584200
 12013              	.LASF1174:
 12014 5649 50385F35 		.ascii	"P8_5_DSI_GPIO\000"
 12014      5F445349 
 12014      5F475049 
 12014      4F00
 12015              	.LASF985:
 12016 5657 50375F31 		.ascii	"P7_1_PERI_TR_IO_INPUT15\000"
 12016      5F504552 
 12016      495F5452 
 12016      5F494F5F 
 12016      494E5055 
 12017              	.LASF238:
 12018 566f 50305F33 		.ascii	"P0_3_SCB0_SPI_MISO\000"
 12018      5F534342 
 12018      305F5350 
 12018      495F4D49 
 12018      534F00
 12019              	.LASF1880:
 12020 5682 63686172 		.ascii	"char\000"
 12020      00
 12021              	.LASF1185:
 12022 5687 50385F35 		.ascii	"P8_5_SCB4_SPI_SELECT2\000"
 12022      5F534342 
 12022      345F5350 
 12022      495F5345 
ARM GAS  C:\Users\stijn\AppData\Local\Temp\ccD3lQ9e.s 			page 325


 12022      4C454354 
 12023              	.LASF1650:
 12024 569d 5031325F 		.ascii	"P12_1_SCB6_I2C_SDA\000"
 12024      315F5343 
 12024      42365F49 
 12024      32435F53 
 12024      444100
 12025              	.LASF1627:
 12026 56b0 5031325F 		.ascii	"P12_0_LCD_COM23\000"
 12026      305F4C43 
 12026      445F434F 
 12026      4D323300 
 12027              	.LASF10:
 12028 56c0 5F5F696E 		.ascii	"__int32_t\000"
 12028      7433325F 
 12028      7400
 12029              	.LASF587:
 12030 56ca 50335F34 		.ascii	"P3_4_AMUXA_DSI\000"
 12030      5F414D55 
 12030      58415F44 
 12030      534900
 12031              	.LASF1001:
 12032 56d9 50375F32 		.ascii	"P7_2_SCB4_SPI_CLK\000"
 12032      5F534342 
 12032      345F5350 
 12032      495F434C 
 12032      4B00
 12033              	.LASF720:
 12034 56eb 50355F33 		.ascii	"P5_3_CSD_CSD_TX_N\000"
 12034      5F435344 
 12034      5F435344 
 12034      5F54585F 
 12034      4E00
 12035              	.LASF474:
 12036 56fd 50325F35 		.ascii	"P2_5_LCD_COM17\000"
 12036      5F4C4344 
 12036      5F434F4D 
 12036      313700
 12037              	.LASF674:
 12038 570c 50355F31 		.ascii	"P5_1_DSI_GPIO\000"
 12038      5F445349 
 12038      5F475049 
 12038      4F00
 12039              	.LASF65:
 12040 571a 63707573 		.ascii	"cpussFmIrq\000"
 12040      73466D49 
 12040      727100
 12041              	.LASF1843:
 12042 5725 5031335F 		.ascii	"P13_5_TCPWM1_LINE_COMPL10\000"
 12042      355F5443 
 12042      50574D31 
 12042      5F4C494E 
 12042      455F434F 
 12043              	.LASF1042:
 12044 573f 50375F35 		.ascii	"P7_5_AMUXB_DSI\000"
 12044      5F414D55 
 12044      58425F44 
ARM GAS  C:\Users\stijn\AppData\Local\Temp\ccD3lQ9e.s 			page 326


 12044      534900
 12045              	.LASF391:
 12046 574e 50325F30 		.ascii	"P2_0_PERI_TR_IO_INPUT4\000"
 12046      5F504552 
 12046      495F5452 
 12046      5F494F5F 
 12046      494E5055 
 12047              	.LASF1567:
 12048 5765 5031315F 		.ascii	"P11_4_TCPWM0_LINE3\000"
 12048      345F5443 
 12048      50574D30 
 12048      5F4C494E 
 12048      453300
 12049              	.LASF1668:
 12050 5778 5031325F 		.ascii	"P12_2_SCB6_UART_RTS\000"
 12050      325F5343 
 12050      42365F55 
 12050      4152545F 
 12050      52545300 
 12051              	.LASF1617:
 12052 578c 5031325F 		.ascii	"P12_0_DSI_DSI\000"
 12052      305F4453 
 12052      495F4453 
 12052      4900
 12053              	.LASF141:
 12054 579a 4853494F 		.ascii	"HSIOM_SEL_DSI_DSI\000"
 12054      4D5F5345 
 12054      4C5F4453 
 12054      495F4453 
 12054      4900
 12055              	.LASF1136:
 12056 57ac 50385F32 		.ascii	"P8_2_LPCOMP_DSI_COMP0\000"
 12056      5F4C5043 
 12056      4F4D505F 
 12056      4453495F 
 12056      434F4D50 
 12057              	.LASF1521:
 12058 57c2 5031315F 		.ascii	"P11_1_SCB5_I2C_SDA\000"
 12058      315F5343 
 12058      42355F49 
 12058      32435F53 
 12058      444100
 12059              	.LASF1013:
 12060 57d5 50375F33 		.ascii	"P7_3_CSD_CSD_TX_N\000"
 12060      5F435344 
 12060      5F435344 
 12060      5F54585F 
 12060      4E00
 12061              	.LASF1856:
 12062 57e7 5031335F 		.ascii	"P13_6_AMUXB_DSI\000"
 12062      365F414D 
 12062      5558425F 
 12062      44534900 
 12063              	.LASF517:
 12064 57f7 50335F30 		.ascii	"P3_0_TCPWM0_LINE2\000"
 12064      5F544350 
 12064      574D305F 
ARM GAS  C:\Users\stijn\AppData\Local\Temp\ccD3lQ9e.s 			page 327


 12064      4C494E45 
 12064      3200
 12065              	.LASF1065:
 12066 5809 50375F36 		.ascii	"P7_6_LCD_SEG52\000"
 12066      5F4C4344 
 12066      5F534547 
 12066      353200
 12067              	.LASF806:
 12068 5818 50365F30 		.ascii	"P6_0_LCD_SEG38\000"
 12068      5F4C4344 
 12068      5F534547 
 12068      333800
 12069              	.LASF1792:
 12070 5827 5031335F 		.ascii	"P13_2_AMUXB\000"
 12070      325F414D 
 12070      55584200 
 12071              	.LASF1827:
 12072 5833 5031335F 		.ascii	"P13_4_TCPWM0_LINE2\000"
 12072      345F5443 
 12072      50574D30 
 12072      5F4C494E 
 12072      453200
 12073              	.LASF1139:
 12074 5846 50385F33 		.ascii	"P8_3_GPIO\000"
 12074      5F475049 
 12074      4F00
 12075              	.LASF582:
 12076 5850 50335F34 		.ascii	"P3_4_GPIO_DSI\000"
 12076      5F475049 
 12076      4F5F4453 
 12076      4900
 12077              	.LASF528:
 12078 585e 50335F31 		.ascii	"P3_1_GPIO\000"
 12078      5F475049 
 12078      4F00
 12079              	.LASF456:
 12080 5868 50325F34 		.ascii	"P2_4_CSD_CSD_TX\000"
 12080      5F435344 
 12080      5F435344 
 12080      5F545800 
 12081              	.LASF1728:
 12082 5878 5031325F 		.ascii	"P12_6_AMUXA_DSI\000"
 12082      365F414D 
 12082      5558415F 
 12082      44534900 
 12083              	.LASF1716:
 12084 5888 5031325F 		.ascii	"P12_5_CSD_CSD_TX_N\000"
 12084      355F4353 
 12084      445F4353 
 12084      445F5458 
 12084      5F4E00
 12085              	.LASF803:
 12086 589b 50365F30 		.ascii	"P6_0_CSD_CSD_TX\000"
 12086      5F435344 
 12086      5F435344 
 12086      5F545800 
 12087              	.LASF828:
ARM GAS  C:\Users\stijn\AppData\Local\Temp\ccD3lQ9e.s 			page 328


 12088 58ab 50365F31 		.ascii	"P6_1_SCB3_UART_TX\000"
 12088      5F534342 
 12088      335F5541 
 12088      52545F54 
 12088      5800
 12089              	.LASF1425:
 12090 58bd 5031305F 		.ascii	"P10_4_DSI_DSI\000"
 12090      345F4453 
 12090      495F4453 
 12090      4900
 12091              	.LASF453:
 12092 58cb 50325F34 		.ascii	"P2_4_AMUXB_DSI\000"
 12092      5F414D55 
 12092      58425F44 
 12092      534900
 12093              	.LASF392:
 12094 58da 50325F30 		.ascii	"P2_0_BLESS_MXD_DPSLP_RET_SWITCH_HV\000"
 12094      5F424C45 
 12094      53535F4D 
 12094      58445F44 
 12094      50534C50 
 12095              	.LASF1284:
 12096 58fd 50395F33 		.ascii	"P9_3_CSD_CSD_TX_N\000"
 12096      5F435344 
 12096      5F435344 
 12096      5F54585F 
 12096      4E00
 12097              	.LASF172:
 12098 590f 50305F30 		.ascii	"P0_0_GPIO_DSI\000"
 12098      5F475049 
 12098      4F5F4453 
 12098      4900
 12099              	.LASF1486:
 12100 591d 5031315F 		.ascii	"P11_0_GPIO\000"
 12100      305F4750 
 12100      494F00
 12101              	.LASF1732:
 12102 5928 5031325F 		.ascii	"P12_6_CSD_CSD_TX\000"
 12102      365F4353 
 12102      445F4353 
 12102      445F5458 
 12102      00
 12103              	.LASF1820:
 12104 5939 5031335F 		.ascii	"P13_4_GPIO_DSI\000"
 12104      345F4750 
 12104      494F5F44 
 12104      534900
 12105              	.LASF125:
 12106 5948 69706353 		.ascii	"ipcStructSize\000"
 12106      74727563 
 12106      7453697A 
 12106      6500
 12107              	.LASF1834:
 12108 5956 5031335F 		.ascii	"P13_5_GPIO\000"
 12108      355F4750 
 12108      494F00
 12109              	.LASF919:
ARM GAS  C:\Users\stijn\AppData\Local\Temp\ccD3lQ9e.s 			page 329


 12110 5961 50365F36 		.ascii	"P6_6_AMUXA_DSI\000"
 12110      5F414D55 
 12110      58415F44 
 12110      534900
 12111              	.LASF1951:
 12112 5970 47656E65 		.ascii	"Generated_Source\\PSoC6\\pdl\\drivers\\peripheral\\"
 12112      72617465 
 12112      645F536F 
 12112      75726365 
 12112      5C50536F 
 12113 599e 6770696F 		.ascii	"gpio\\cy_gpio.c\000"
 12113      5C63795F 
 12113      6770696F 
 12113      2E6300
 12114              	.LASF561:
 12115 59ad 50335F32 		.ascii	"P3_2_SCB2_UART_RTS\000"
 12115      5F534342 
 12115      325F5541 
 12115      52545F52 
 12115      545300
 12116              	.LASF1783:
 12117 59c0 5031335F 		.ascii	"P13_1_SCB6_UART_TX\000"
 12117      315F5343 
 12117      42365F55 
 12117      4152545F 
 12117      545800
 12118              	.LASF1064:
 12119 59d3 50375F36 		.ascii	"P7_6_LCD_COM52\000"
 12119      5F4C4344 
 12119      5F434F4D 
 12119      353200
 12120              	.LASF1352:
 12121 59e2 5031305F 		.ascii	"P10_0_GPIO_DSI\000"
 12121      305F4750 
 12121      494F5F44 
 12121      534900
 12122              	.LASF805:
 12123 59f1 50365F30 		.ascii	"P6_0_LCD_COM38\000"
 12123      5F4C4344 
 12123      5F434F4D 
 12123      333800
 12124              	.LASF957:
 12125 5a00 50375F30 		.ascii	"P7_0_TCPWM0_LINE4\000"
 12125      5F544350 
 12125      574D305F 
 12125      4C494E45 
 12125      3400
 12126              	.LASF791:
 12127 5a12 50355F37 		.ascii	"P5_7_LCD_SEG37\000"
 12127      5F4C4344 
 12127      5F534547 
 12127      333700
 12128              	.LASF20:
 12129 5a21 73697A65 		.ascii	"sizetype\000"
 12129      74797065 
 12129      00
 12130              	.LASF42:
ARM GAS  C:\Users\stijn\AppData\Local\Temp\ccD3lQ9e.s 			page 330


 12131 5a2a 666C6173 		.ascii	"flashcBase\000"
 12131      68634261 
 12131      736500
 12132              	.LASF1599:
 12133 5a35 5031315F 		.ascii	"P11_6_AMUXB_DSI\000"
 12133      365F414D 
 12133      5558425F 
 12133      44534900 
 12134              	.LASF63:
 12135 5a45 63707573 		.ascii	"cpussFlashPaSize\000"
 12135      73466C61 
 12135      73685061 
 12135      53697A65 
 12135      00
 12136              	.LASF1868:
 12137 5a56 5031335F 		.ascii	"P13_7_AMUXA\000"
 12137      375F414D 
 12137      55584100 
 12138              	.LASF1869:
 12139 5a62 5031335F 		.ascii	"P13_7_AMUXB\000"
 12139      375F414D 
 12139      55584200 
 12140              	.LASF1492:
 12141 5a6e 5031315F 		.ascii	"P11_0_AMUXA_DSI\000"
 12141      305F414D 
 12141      5558415F 
 12141      44534900 
 12142              	.LASF1417:
 12143 5a7e 5031305F 		.ascii	"P10_3_CSD_CSD_TX_N\000"
 12143      335F4353 
 12143      445F4353 
 12143      445F5458 
 12143      5F4E00
 12144              	.LASF16:
 12145 5a91 696E7431 		.ascii	"int16_t\000"
 12145      365F7400 
 12146              	.LASF1224:
 12147 5a99 50395F30 		.ascii	"P9_0_TCPWM0_LINE4\000"
 12147      5F544350 
 12147      574D305F 
 12147      4C494E45 
 12147      3400
 12148              	.LASF1535:
 12149 5aab 5031315F 		.ascii	"P11_2_CSD_CSD_TX_N\000"
 12149      325F4353 
 12149      445F4353 
 12149      445F5458 
 12149      5F4E00
 12150              	.LASF363:
 12151 5abe 50315F35 		.ascii	"P1_5_AMUXA_DSI\000"
 12151      5F414D55 
 12151      58415F44 
 12151      534900
 12152              	.LASF1690:
 12153 5acd 5031325F 		.ascii	"P12_4_DSI_GPIO\000"
 12153      345F4453 
 12153      495F4750 
ARM GAS  C:\Users\stijn\AppData\Local\Temp\ccD3lQ9e.s 			page 331


 12153      494F00
 12154              	.LASF1276:
 12155 5adc 50395F33 		.ascii	"P9_3_DSI_GPIO\000"
 12155      5F445349 
 12155      5F475049 
 12155      4F00
 12156              	.LASF645:
 12157 5aea 50345F31 		.ascii	"P4_1_LCD_SEG27\000"
 12157      5F4C4344 
 12157      5F534547 
 12157      323700
 12158              	.LASF1865:
 12159 5af9 5031335F 		.ascii	"P13_7_GPIO_DSI\000"
 12159      375F4750 
 12159      494F5F44 
 12159      534900
 12160              	.LASF255:
 12161 5b08 50305F34 		.ascii	"P0_4_PERI_TR_IO_OUTPUT0\000"
 12161      5F504552 
 12161      495F5452 
 12161      5F494F5F 
 12161      4F555450 
 12162              	.LASF964:
 12163 5b20 50375F30 		.ascii	"P7_0_SCB4_I2C_SCL\000"
 12163      5F534342 
 12163      345F4932 
 12163      435F5343 
 12163      4C00
 12164              	.LASF312:
 12165 5b32 50315F32 		.ascii	"P1_2_DSI_DSI\000"
 12165      5F445349 
 12165      5F445349 
 12165      00
 12166              	.LASF768:
 12167 5b3f 50355F36 		.ascii	"P5_6_AMUXB_DSI\000"
 12167      5F414D55 
 12167      58425F44 
 12167      534900
 12168              	.LASF1206:
 12169 5b4e 50385F37 		.ascii	"P8_7_AMUXB\000"
 12169      5F414D55 
 12169      584200
 12170              	.LASF1848:
 12171 5b59 5031335F 		.ascii	"P13_5_SCB6_SPI_SELECT2\000"
 12171      355F5343 
 12171      42365F53 
 12171      50495F53 
 12171      454C4543 
 12172              	.LASF657:
 12173 5b70 50355F30 		.ascii	"P5_0_AMUXA_DSI\000"
 12173      5F414D55 
 12173      58415F44 
 12173      534900
 12174              	.LASF636:
 12175 5b7f 50345F31 		.ascii	"P4_1_AMUXA\000"
 12175      5F414D55 
 12175      584100
ARM GAS  C:\Users\stijn\AppData\Local\Temp\ccD3lQ9e.s 			page 332


 12176              	.LASF637:
 12177 5b8a 50345F31 		.ascii	"P4_1_AMUXB\000"
 12177      5F414D55 
 12177      584200
 12178              	.LASF1403:
 12179 5b95 5031305F 		.ascii	"P10_2_SCB1_UART_RTS\000"
 12179      325F5343 
 12179      42315F55 
 12179      4152545F 
 12179      52545300 
 12180              	.LASF1359:
 12181 5ba9 5031305F 		.ascii	"P10_0_TCPWM0_LINE6\000"
 12181      305F5443 
 12181      50574D30 
 12181      5F4C494E 
 12181      453600
 12182              	.LASF487:
 12183 5bbc 50325F36 		.ascii	"P2_6_TCPWM1_LINE18\000"
 12183      5F544350 
 12183      574D315F 
 12183      4C494E45 
 12183      313800
 12184              	.LASF790:
 12185 5bcf 50355F37 		.ascii	"P5_7_LCD_COM37\000"
 12185      5F4C4344 
 12185      5F434F4D 
 12185      333700
 12186              	.LASF1242:
 12187 5bde 50395F31 		.ascii	"P9_1_AMUXB_DSI\000"
 12187      5F414D55 
 12187      58425F44 
 12187      534900
 12188              	.LASF1707:
 12189 5bed 5031325F 		.ascii	"P12_5_DSI_DSI\000"
 12189      355F4453 
 12189      495F4453 
 12189      4900
 12190              	.LASF1332:
 12191 5bfb 50395F36 		.ascii	"P9_6_CSD_CSD_TX\000"
 12191      5F435344 
 12191      5F435344 
 12191      5F545800 
 12192              	.LASF186:
 12193 5c0b 50305F30 		.ascii	"P0_0_SCB0_SPI_SELECT1\000"
 12193      5F534342 
 12193      305F5350 
 12193      495F5345 
 12193      4C454354 
 12194              	.LASF59:
 12195 5c21 70726F74 		.ascii	"protVersion\000"
 12195      56657273 
 12195      696F6E00 
 12196              	.LASF1473:
 12197 5c2d 5031305F 		.ascii	"P10_7_GPIO_DSI\000"
 12197      375F4750 
 12197      494F5F44 
 12197      534900
ARM GAS  C:\Users\stijn\AppData\Local\Temp\ccD3lQ9e.s 			page 333


 12198              	.LASF1085:
 12199 5c3c 50375F37 		.ascii	"P7_7_CPUSS_TRACE_DATA0\000"
 12199      5F435055 
 12199      53535F54 
 12199      52414345 
 12199      5F444154 
 12200              	.LASF1053:
 12201 5c53 50375F36 		.ascii	"P7_6_GPIO_DSI\000"
 12201      5F475049 
 12201      4F5F4453 
 12201      4900
 12202              	.LASF1358:
 12203 5c61 5031305F 		.ascii	"P10_0_AMUXB_DSI\000"
 12203      305F414D 
 12203      5558425F 
 12203      44534900 
 12204              	.LASF433:
 12205 5c71 50325F33 		.ascii	"P2_3_AMUXA\000"
 12205      5F414D55 
 12205      584100
 12206              	.LASF434:
 12207 5c7c 50325F33 		.ascii	"P2_3_AMUXB\000"
 12207      5F414D55 
 12207      584200
 12208              	.LASF1478:
 12209 5c87 5031305F 		.ascii	"P10_7_AMUXA_DSI\000"
 12209      375F414D 
 12209      5558415F 
 12209      44534900 
 12210              	.LASF864:
 12211 5c97 50365F33 		.ascii	"P6_3_SCB3_UART_CTS\000"
 12211      5F534342 
 12211      335F5541 
 12211      52545F43 
 12211      545300
 12212              	.LASF1657:
 12213 5caa 5031325F 		.ascii	"P12_2_AMUXA\000"
 12213      325F414D 
 12213      55584100 
 12214              	.LASF1658:
 12215 5cb6 5031325F 		.ascii	"P12_2_AMUXB\000"
 12215      325F414D 
 12215      55584200 
 12216              	.LASF1271:
 12217 5cc2 50395F32 		.ascii	"P9_2_PASS_DSI_CTB_CMP0\000"
 12217      5F504153 
 12217      535F4453 
 12217      495F4354 
 12217      425F434D 
 12218              	.LASF644:
 12219 5cd9 50345F31 		.ascii	"P4_1_LCD_COM27\000"
 12219      5F4C4344 
 12219      5F434F4D 
 12219      323700
 12220              	.LASF263:
 12221 5ce8 50305F35 		.ascii	"P0_5_AMUXB_DSI\000"
 12221      5F414D55 
ARM GAS  C:\Users\stijn\AppData\Local\Temp\ccD3lQ9e.s 			page 334


 12221      58425F44 
 12221      534900
 12222              	.LASF50:
 12223 5cf7 63727970 		.ascii	"cryptoBase\000"
 12223      746F4261 
 12223      736500
 12224              	.LASF1287:
 12225 5d02 50395F33 		.ascii	"P9_3_SCB2_UART_CTS\000"
 12225      5F534342 
 12225      325F5541 
 12225      52545F43 
 12225      545300
 12226              	.LASF383:
 12227 5d15 50325F30 		.ascii	"P2_0_TCPWM1_LINE15\000"
 12227      5F544350 
 12227      574D315F 
 12227      4C494E45 
 12227      313500
 12228              	.LASF1018:
 12229 5d28 50375F34 		.ascii	"P7_4_GPIO\000"
 12229      5F475049 
 12229      4F00
 12230              	.LASF412:
 12231 5d32 50325F32 		.ascii	"P2_2_GPIO\000"
 12231      5F475049 
 12231      4F00
 12232              	.LASF203:
 12233 5d3c 50305F31 		.ascii	"P0_1_PERI_TR_IO_INPUT1\000"
 12233      5F504552 
 12233      495F5452 
 12233      5F494F5F 
 12233      494E5055 
 12234              	.LASF1077:
 12235 5d53 50375F37 		.ascii	"P7_7_TCPWM0_LINE_COMPL7\000"
 12235      5F544350 
 12235      574D305F 
 12235      4C494E45 
 12235      5F434F4D 
 12236              	.LASF620:
 12237 5d6b 50345F30 		.ascii	"P4_0_AMUXB_DSI\000"
 12237      5F414D55 
 12237      58425F44 
 12237      534900
 12238              	.LASF302:
 12239 5d7a 50315F31 		.ascii	"P1_1_CSD_CSD_TX\000"
 12239      5F435344 
 12239      5F435344 
 12239      5F545800 
 12240              	.LASF566:
 12241 5d8a 50335F33 		.ascii	"P3_3_DSI_DSI\000"
 12241      5F445349 
 12241      5F445349 
 12241      00
 12242              	.LASF44:
 12243 5d97 75646242 		.ascii	"udbBase\000"
 12243      61736500 
 12244              	.LASF1814:
ARM GAS  C:\Users\stijn\AppData\Local\Temp\ccD3lQ9e.s 			page 335


 12245 5d9f 5031335F 		.ascii	"P13_3_CSD_CSD_TX_N\000"
 12245      335F4353 
 12245      445F4353 
 12245      445F5458 
 12245      5F4E00
 12246              	.LASF1370:
 12247 5db2 5031305F 		.ascii	"P10_1_GPIO\000"
 12247      315F4750 
 12247      494F00
 12248              	.LASF388:
 12249 5dbd 50325F30 		.ascii	"P2_0_SCB1_UART_RX\000"
 12249      5F534342 
 12249      315F5541 
 12249      52545F52 
 12249      5800
 12250              	.LASF126:
 12251 5dcf 6970634C 		.ascii	"ipcLockStatusOffset\000"
 12251      6F636B53 
 12251      74617475 
 12251      734F6666 
 12251      73657400 
 12252              	.LASF1835:
 12253 5de3 5031335F 		.ascii	"P13_5_GPIO_DSI\000"
 12253      355F4750 
 12253      494F5F44 
 12253      534900
 12254              	.LASF1128:
 12255 5df2 50385F32 		.ascii	"P8_2_AMUXA_DSI\000"
 12255      5F414D55 
 12255      58415F44 
 12255      534900
 12256              	.LASF1763:
 12257 5e01 5031335F 		.ascii	"P13_0_LCD_COM31\000"
 12257      305F4C43 
 12257      445F434F 
 12257      4D333100 
 12258              	.LASF916:
 12259 5e11 50365F36 		.ascii	"P6_6_DSI_GPIO\000"
 12259      5F445349 
 12259      5F475049 
 12259      4F00
 12260              	.LASF1551:
 12261 5e1f 5031315F 		.ascii	"P11_3_CSD_CSD_TX\000"
 12261      335F4353 
 12261      445F4353 
 12261      445F5458 
 12261      00
 12262              	.LASF1481:
 12263 5e30 5031305F 		.ascii	"P10_7_TCPWM1_LINE_COMPL2\000"
 12263      375F5443 
 12263      50574D31 
 12263      5F4C494E 
 12263      455F434F 
 12264              	.LASF1779:
 12265 5e49 5031335F 		.ascii	"P13_1_CSD_CSD_TX\000"
 12265      315F4353 
 12265      445F4353 
ARM GAS  C:\Users\stijn\AppData\Local\Temp\ccD3lQ9e.s 			page 336


 12265      445F5458 
 12265      00
 12266              	.LASF260:
 12267 5e5a 50305F35 		.ascii	"P0_5_AMUXA\000"
 12267      5F414D55 
 12267      584100
 12268              	.LASF261:
 12269 5e65 50305F35 		.ascii	"P0_5_AMUXB\000"
 12269      5F414D55 
 12269      584200
 12270              	.LASF758:
 12271 5e70 50355F35 		.ascii	"P5_5_SCB5_SPI_SELECT2\000"
 12271      5F534342 
 12271      355F5350 
 12271      495F5345 
 12271      4C454354 
 12272              	.LASF151:
 12273 5e86 4853494F 		.ascii	"HSIOM_SEL_DS_0\000"
 12273      4D5F5345 
 12273      4C5F4453 
 12273      5F3000
 12274              	.LASF152:
 12275 5e95 4853494F 		.ascii	"HSIOM_SEL_DS_1\000"
 12275      4D5F5345 
 12275      4C5F4453 
 12275      5F3100
 12276              	.LASF153:
 12277 5ea4 4853494F 		.ascii	"HSIOM_SEL_DS_2\000"
 12277      4D5F5345 
 12277      4C5F4453 
 12277      5F3200
 12278              	.LASF154:
 12279 5eb3 4853494F 		.ascii	"HSIOM_SEL_DS_3\000"
 12279      4D5F5345 
 12279      4C5F4453 
 12279      5F3300
 12280              	.LASF167:
 12281 5ec2 4853494F 		.ascii	"HSIOM_SEL_DS_4\000"
 12281      4D5F5345 
 12281      4C5F4453 
 12281      5F3400
 12282              	.LASF168:
 12283 5ed1 4853494F 		.ascii	"HSIOM_SEL_DS_5\000"
 12283      4D5F5345 
 12283      4C5F4453 
 12283      5F3500
 12284              	.LASF169:
 12285 5ee0 4853494F 		.ascii	"HSIOM_SEL_DS_6\000"
 12285      4D5F5345 
 12285      4C5F4453 
 12285      5F3600
 12286              	.LASF170:
 12287 5eef 4853494F 		.ascii	"HSIOM_SEL_DS_7\000"
 12287      4D5F5345 
 12287      4C5F4453 
 12287      5F3700
 12288              	.LASF550:
ARM GAS  C:\Users\stijn\AppData\Local\Temp\ccD3lQ9e.s 			page 337


 12289 5efe 50335F32 		.ascii	"P3_2_DSI_GPIO\000"
 12289      5F445349 
 12289      5F475049 
 12289      4F00
 12290              	.LASF1247:
 12291 5f0c 50395F31 		.ascii	"P9_1_LCD_COM1\000"
 12291      5F4C4344 
 12291      5F434F4D 
 12291      3100
 12292              	.LASF1794:
 12293 5f1a 5031335F 		.ascii	"P13_2_AMUXB_DSI\000"
 12293      325F414D 
 12293      5558425F 
 12293      44534900 
 12294              	.LASF951:
 12295 5f2a 50375F30 		.ascii	"P7_0_DSI_DSI\000"
 12295      5F445349 
 12295      5F445349 
 12295      00
 12296              	.LASF425:
 12297 5f37 50325F32 		.ascii	"P2_2_LCD_SEG14\000"
 12297      5F4C4344 
 12297      5F534547 
 12297      313400
 12298              	.LASF358:
 12299 5f46 50315F35 		.ascii	"P1_5_GPIO_DSI\000"
 12299      5F475049 
 12299      4F5F4453 
 12299      4900
 12300              	.LASF833:
 12301 5f54 50365F32 		.ascii	"P6_2_GPIO\000"
 12301      5F475049 
 12301      4F00
 12302              	.LASF1809:
 12303 5f5e 5031335F 		.ascii	"P13_3_AMUXA_DSI\000"
 12303      335F414D 
 12303      5558415F 
 12303      44534900 
 12304              	.LASF1815:
 12305 5f6e 5031335F 		.ascii	"P13_3_LCD_COM34\000"
 12305      335F4C43 
 12305      445F434F 
 12305      4D333400 
 12306              	.LASF1020:
 12307 5f7e 50375F34 		.ascii	"P7_4_DSI_DSI\000"
 12307      5F445349 
 12307      5F445349 
 12307      00
 12308              	.LASF1288:
 12309 5f8b 50395F33 		.ascii	"P9_3_SCB2_SPI_SELECT0\000"
 12309      5F534342 
 12309      325F5350 
 12309      495F5345 
 12309      4C454354 
 12310              	.LASF545:
 12311 5fa1 50335F31 		.ascii	"P3_1_PERI_TR_IO_INPUT7\000"
 12311      5F504552 
ARM GAS  C:\Users\stijn\AppData\Local\Temp\ccD3lQ9e.s 			page 338


 12311      495F5452 
 12311      5F494F5F 
 12311      494E5055 
 12312              	.LASF1790:
 12313 5fb8 5031335F 		.ascii	"P13_2_DSI_GPIO\000"
 12313      325F4453 
 12313      495F4750 
 12313      494F00
 12314              	.LASF1044:
 12315 5fc7 50375F35 		.ascii	"P7_5_TCPWM1_LINE_COMPL14\000"
 12315      5F544350 
 12315      574D315F 
 12315      4C494E45 
 12315      5F434F4D 
 12316              	.LASF290:
 12317 5fe0 50315F30 		.ascii	"P1_0_SCB7_SPI_MOSI\000"
 12317      5F534342 
 12317      375F5350 
 12317      495F4D4F 
 12317      534900
 12318              	.LASF1710:
 12319 5ff3 5031325F 		.ascii	"P12_5_AMUXB\000"
 12319      355F414D 
 12319      55584200 
 12320              	.LASF1015:
 12321 5fff 50375F33 		.ascii	"P7_3_LCD_SEG49\000"
 12321      5F4C4344 
 12321      5F534547 
 12321      343900
 12322              	.LASF1239:
 12323 600e 50395F31 		.ascii	"P9_1_AMUXA\000"
 12323      5F414D55 
 12323      584100
 12324              	.LASF1240:
 12325 6019 50395F31 		.ascii	"P9_1_AMUXB\000"
 12325      5F414D55 
 12325      584200
 12326              	.LASF729:
 12327 6024 50355F34 		.ascii	"P5_4_DSI_DSI\000"
 12327      5F445349 
 12327      5F445349 
 12327      00
 12328              	.LASF254:
 12329 6031 50305F34 		.ascii	"P0_4_SCB0_SPI_CLK\000"
 12329      5F534342 
 12329      305F5350 
 12329      495F434C 
 12329      4B00
 12330              	.LASF502:
 12331 6043 50325F37 		.ascii	"P2_7_TCPWM0_LINE_COMPL1\000"
 12331      5F544350 
 12331      574D305F 
 12331      4C494E45 
 12331      5F434F4D 
 12332              	.LASF1563:
 12333 605b 5031315F 		.ascii	"P11_4_AMUXA\000"
 12333      345F414D 
ARM GAS  C:\Users\stijn\AppData\Local\Temp\ccD3lQ9e.s 			page 339


 12333      55584100 
 12334              	.LASF1086:
 12335 6067 50385F30 		.ascii	"P8_0_GPIO\000"
 12335      5F475049 
 12335      4F00
 12336              	.LASF1147:
 12337 6071 50385F33 		.ascii	"P8_3_TCPWM0_LINE_COMPL1\000"
 12337      5F544350 
 12337      574D305F 
 12337      4C494E45 
 12337      5F434F4D 
 12338              	.LASF1685:
 12339 6089 5031325F 		.ascii	"P12_3_SCB6_UART_CTS\000"
 12339      335F5343 
 12339      42365F55 
 12339      4152545F 
 12339      43545300 
 12340              	.LASF534:
 12341 609d 50335F31 		.ascii	"P3_1_AMUXA_DSI\000"
 12341      5F414D55 
 12341      58415F44 
 12341      534900
 12342              	.LASF1275:
 12343 60ac 50395F33 		.ascii	"P9_3_DSI_DSI\000"
 12343      5F445349 
 12343      5F445349 
 12343      00
 12344              	.LASF104:
 12345 60b9 70657269 		.ascii	"periDiv16_5CtlOffset\000"
 12345      44697631 
 12345      365F3543 
 12345      746C4F66 
 12345      66736574 
 12346              	.LASF424:
 12347 60ce 50325F32 		.ascii	"P2_2_LCD_COM14\000"
 12347      5F4C4344 
 12347      5F434F4D 
 12347      313400
 12348              	.LASF782:
 12349 60dd 50355F37 		.ascii	"P5_7_AMUXA\000"
 12349      5F414D55 
 12349      584100
 12350              	.LASF1577:
 12351 60e8 5031315F 		.ascii	"P11_5_GPIO_DSI\000"
 12351      355F4750 
 12351      494F5F44 
 12351      534900
 12352              	.LASF204:
 12353 60f7 50305F31 		.ascii	"P0_1_CPUSS_SWJ_TRSTN\000"
 12353      5F435055 
 12353      53535F53 
 12353      574A5F54 
 12353      5253544E 
 12354              	.LASF752:
 12355 610c 50355F35 		.ascii	"P5_5_TCPWM0_LINE_COMPL6\000"
 12355      5F544350 
 12355      574D305F 
ARM GAS  C:\Users\stijn\AppData\Local\Temp\ccD3lQ9e.s 			page 340


 12355      4C494E45 
 12355      5F434F4D 
 12356              	.LASF993:
 12357 6124 50375F32 		.ascii	"P7_2_AMUXB_DSI\000"
 12357      5F414D55 
 12357      58425F44 
 12357      534900
 12358              	.LASF1006:
 12359 6133 50375F33 		.ascii	"P7_3_AMUXA\000"
 12359      5F414D55 
 12359      584100
 12360              	.LASF1007:
 12361 613e 50375F33 		.ascii	"P7_3_AMUXB\000"
 12361      5F414D55 
 12361      584200
 12362              	.LASF1157:
 12363 6149 50385F34 		.ascii	"P8_4_GPIO_DSI\000"
 12363      5F475049 
 12363      4F5F4453 
 12363      4900
 12364              	.LASF259:
 12365 6157 50305F35 		.ascii	"P0_5_DSI_GPIO\000"
 12365      5F445349 
 12365      5F475049 
 12365      4F00
 12366              	.LASF1503:
 12367 6165 5031315F 		.ascii	"P11_0_SCB5_SPI_MOSI\000"
 12367      305F5343 
 12367      42355F53 
 12367      50495F4D 
 12367      4F534900 
 12368              	.LASF900:
 12369 6179 50365F35 		.ascii	"P6_5_CSD_CSD_TX\000"
 12369      5F435344 
 12369      5F435344 
 12369      5F545800 
 12370              	.LASF1838:
 12371 6189 5031335F 		.ascii	"P13_5_AMUXA\000"
 12371      355F414D 
 12371      55584100 
 12372              	.LASF1149:
 12373 6195 50385F33 		.ascii	"P8_3_CSD_CSD_TX\000"
 12373      5F435344 
 12373      5F435344 
 12373      5F545800 
 12374              	.LASF1270:
 12375 61a5 50395F32 		.ascii	"P9_2_SCB2_SPI_CLK\000"
 12375      5F534342 
 12375      325F5350 
 12375      495F434C 
 12375      4B00
 12376              	.LASF1559:
 12377 61b7 5031315F 		.ascii	"P11_4_GPIO\000"
 12377      345F4750 
 12377      494F00
 12378              	.LASF1550:
 12379 61c2 5031315F 		.ascii	"P11_3_TCPWM1_LINE_COMPL2\000"
ARM GAS  C:\Users\stijn\AppData\Local\Temp\ccD3lQ9e.s 			page 341


 12379      335F5443 
 12379      50574D31 
 12379      5F4C494E 
 12379      455F434F 
 12380              	.LASF1237:
 12381 61db 50395F31 		.ascii	"P9_1_DSI_DSI\000"
 12381      5F445349 
 12381      5F445349 
 12381      00
 12382              	.LASF606:
 12383 61e8 50335F35 		.ascii	"P3_5_TCPWM1_LINE_COMPL21\000"
 12383      5F544350 
 12383      574D315F 
 12383      4C494E45 
 12383      5F434F4D 
 12384              	.LASF652:
 12385 6201 50355F30 		.ascii	"P5_0_GPIO_DSI\000"
 12385      5F475049 
 12385      4F5F4453 
 12385      4900
 12386              	.LASF444:
 12387 620f 50325F33 		.ascii	"P2_3_SCB1_SPI_SELECT0\000"
 12387      5F534342 
 12387      315F5350 
 12387      495F5345 
 12387      4C454354 
 12388              	.LASF84:
 12389 6225 666C6173 		.ascii	"flashCtlMainWs1Freq\000"
 12389      6843746C 
 12389      4D61696E 
 12389      57733146 
 12389      72657100 
 12390              	.LASF1572:
 12391 6239 5031315F 		.ascii	"P11_4_LCD_SEG20\000"
 12391      345F4C43 
 12391      445F5345 
 12391      47323000 
 12392              	.LASF1307:
 12393 6249 50395F35 		.ascii	"P9_5_GPIO\000"
 12393      5F475049 
 12393      4F00
 12394              	.LASF595:
 12395 6253 50335F34 		.ascii	"P3_4_SCB2_SPI_SELECT1\000"
 12395      5F534342 
 12395      325F5350 
 12395      495F5345 
 12395      4C454354 
 12396              	.LASF890:
 12397 6269 50365F35 		.ascii	"P6_5_GPIO\000"
 12397      5F475049 
 12397      4F00
 12398              	.LASF326:
 12399 6273 50315F33 		.ascii	"P1_3_GPIO\000"
 12399      5F475049 
 12399      4F00
 12400              	.LASF3:
 12401 627d 7369676E 		.ascii	"signed char\000"
ARM GAS  C:\Users\stijn\AppData\Local\Temp\ccD3lQ9e.s 			page 342


 12401      65642063 
 12401      68617200 
 12402              	.LASF235:
 12403 6289 50305F33 		.ascii	"P0_3_LCD_SEG3\000"
 12403      5F4C4344 
 12403      5F534547 
 12403      3300
 12404              	.LASF1272:
 12405 6297 50395F32 		.ascii	"P9_2_CPUSS_TRACE_DATA1\000"
 12405      5F435055 
 12405      53535F54 
 12405      52414345 
 12405      5F444154 
 12406              	.LASF46:
 12407 62ae 6873696F 		.ascii	"hsiomBase\000"
 12407      6D426173 
 12407      6500
 12408              	.LASF400:
 12409 62b8 50325F31 		.ascii	"P2_1_AMUXB_DSI\000"
 12409      5F414D55 
 12409      58425F44 
 12409      534900
 12410              	.LASF1014:
 12411 62c7 50375F33 		.ascii	"P7_3_LCD_COM49\000"
 12411      5F4C4344 
 12411      5F434F4D 
 12411      343900
 12412              	.LASF848:
 12413 62d6 50365F32 		.ascii	"P6_2_SCB3_SPI_CLK\000"
 12413      5F534342 
 12413      335F5350 
 12413      495F434C 
 12413      4B00
 12414              	.LASF612:
 12415 62e8 50335F35 		.ascii	"P3_5_BLESS_MXD_DPSLP_RCB_DATA\000"
 12415      5F424C45 
 12415      53535F4D 
 12415      58445F44 
 12415      50534C50 
 12416              	.LASF1016:
 12417 6306 50375F33 		.ascii	"P7_3_SCB4_UART_CTS\000"
 12417      5F534342 
 12417      345F5541 
 12417      52545F43 
 12417      545300
 12418              	.LASF1443:
 12419 6319 5031305F 		.ascii	"P10_5_DSI_GPIO\000"
 12419      355F4453 
 12419      495F4750 
 12419      494F00
 12420              	.LASF120:
 12421 6328 63707573 		.ascii	"cpussCm4NmiCtlOffset\000"
 12421      73436D34 
 12421      4E6D6943 
 12421      746C4F66 
 12421      66736574 
 12422              	.LASF33:
ARM GAS  C:\Users\stijn\AppData\Local\Temp\ccD3lQ9e.s 			page 343


 12423 633d 4346475F 		.ascii	"CFG_IN_GPIO5V\000"
 12423      494E5F47 
 12423      50494F35 
 12423      5600
 12424              	.LASF1021:
 12425 634b 50375F34 		.ascii	"P7_4_DSI_GPIO\000"
 12425      5F445349 
 12425      5F475049 
 12425      4F00
 12426              	.LASF748:
 12427 6359 50355F35 		.ascii	"P5_5_AMUXA\000"
 12427      5F414D55 
 12427      584100
 12428              	.LASF749:
 12429 6364 50355F35 		.ascii	"P5_5_AMUXB\000"
 12429      5F414D55 
 12429      584200
 12430              	.LASF856:
 12431 636f 50365F33 		.ascii	"P6_3_AMUXA_DSI\000"
 12431      5F414D55 
 12431      58415F44 
 12431      534900
 12432              	.LASF1943:
 12433 637e 616D7578 		.ascii	"amuxConnect\000"
 12433      436F6E6E 
 12433      65637400 
 12434              	.LASF1103:
 12435 638a 50385F30 		.ascii	"P8_0_PERI_TR_IO_INPUT16\000"
 12435      5F504552 
 12435      495F5452 
 12435      5F494F5F 
 12435      494E5055 
 12436              	.LASF353:
 12437 63a2 50315F34 		.ascii	"P1_4_CSD_CSD_TX_N\000"
 12437      5F435344 
 12437      5F435344 
 12437      5F54585F 
 12437      4E00
 12438              	.LASF1571:
 12439 63b4 5031315F 		.ascii	"P11_4_LCD_COM20\000"
 12439      345F4C43 
 12439      445F434F 
 12439      4D323000 
 12440              	.LASF1072:
 12441 63c4 50375F37 		.ascii	"P7_7_DSI_GPIO\000"
 12441      5F445349 
 12441      5F475049 
 12441      4F00
 12442              	.LASF616:
 12443 63d2 50345F30 		.ascii	"P4_0_DSI_GPIO\000"
 12443      5F445349 
 12443      5F475049 
 12443      4F00
 12444              	.LASF766:
 12445 63e0 50355F36 		.ascii	"P5_6_AMUXB\000"
 12445      5F414D55 
 12445      584200
ARM GAS  C:\Users\stijn\AppData\Local\Temp\ccD3lQ9e.s 			page 344


 12446              	.LASF220:
 12447 63eb 50305F32 		.ascii	"P0_2_SCB0_I2C_SCL\000"
 12447      5F534342 
 12447      305F4932 
 12447      435F5343 
 12447      4C00
 12448              	.LASF1507:
 12449 63fd 5031315F 		.ascii	"P11_1_DSI_DSI\000"
 12449      315F4453 
 12449      495F4453 
 12449      4900
 12450              	.LASF114:
 12451 640b 63707573 		.ascii	"cpussCm0StatusOffset\000"
 12451      73436D30 
 12451      53746174 
 12451      75734F66 
 12451      66736574 
 12452              	.LASF740:
 12453 6420 50355F34 		.ascii	"P5_4_LCD_SEG34\000"
 12453      5F4C4344 
 12453      5F534547 
 12453      333400
 12454              	.LASF430:
 12455 642f 50325F33 		.ascii	"P2_3_GPIO_DSI\000"
 12455      5F475049 
 12455      4F5F4453 
 12455      4900
 12456              	.LASF873:
 12457 643d 50365F34 		.ascii	"P6_4_AMUXA_DSI\000"
 12457      5F414D55 
 12457      58415F44 
 12457      534900
 12458              	.LASF264:
 12459 644c 50305F35 		.ascii	"P0_5_TCPWM0_LINE_COMPL2\000"
 12459      5F544350 
 12459      574D305F 
 12459      4C494E45 
 12459      5F434F4D 
 12460              	.LASF821:
 12461 6464 50365F31 		.ascii	"P6_1_TCPWM0_LINE_COMPL0\000"
 12461      5F544350 
 12461      574D305F 
 12461      4C494E45 
 12461      5F434F4D 
 12462              	.LASF1548:
 12463 647c 5031315F 		.ascii	"P11_3_AMUXB_DSI\000"
 12463      335F414D 
 12463      5558425F 
 12463      44534900 
 12464              	.LASF592:
 12465 648c 50335F34 		.ascii	"P3_4_CSD_CSD_TX_N\000"
 12465      5F435344 
 12465      5F435344 
 12465      5F54585F 
 12465      4E00
 12466              	.LASF390:
 12467 649e 50325F30 		.ascii	"P2_0_SCB1_SPI_MOSI\000"
ARM GAS  C:\Users\stijn\AppData\Local\Temp\ccD3lQ9e.s 			page 345


 12467      5F534342 
 12467      315F5350 
 12467      495F4D4F 
 12467      534900
 12468              	.LASF1769:
 12469 64b1 5031335F 		.ascii	"P13_1_GPIO\000"
 12469      315F4750 
 12469      494F00
 12470              	.LASF572:
 12471 64bc 50335F33 		.ascii	"P3_3_TCPWM0_LINE_COMPL3\000"
 12471      5F544350 
 12471      574D305F 
 12471      4C494E45 
 12471      5F434F4D 
 12472              	.LASF316:
 12473 64d4 50315F32 		.ascii	"P1_2_AMUXA_DSI\000"
 12473      5F414D55 
 12473      58415F44 
 12473      534900
 12474              	.LASF1437:
 12475 64e3 5031305F 		.ascii	"P10_4_SCB1_SPI_SELECT1\000"
 12475      345F5343 
 12475      42315F53 
 12475      50495F53 
 12475      454C4543 
 12476              	.LASF735:
 12477 64fa 50355F34 		.ascii	"P5_4_TCPWM0_LINE6\000"
 12477      5F544350 
 12477      574D305F 
 12477      4C494E45 
 12477      3600
 12478              	.LASF1689:
 12479 650c 5031325F 		.ascii	"P12_4_DSI_DSI\000"
 12479      345F4453 
 12479      495F4453 
 12479      4900
 12480              	.LASF659:
 12481 651a 50355F30 		.ascii	"P5_0_TCPWM0_LINE4\000"
 12481      5F544350 
 12481      574D305F 
 12481      4C494E45 
 12481      3400
 12482              	.LASF716:
 12483 652c 50355F33 		.ascii	"P5_3_AMUXB_DSI\000"
 12483      5F414D55 
 12483      58425F44 
 12483      534900
 12484              	.LASF830:
 12485 653b 50365F31 		.ascii	"P6_1_SCB3_SPI_MISO\000"
 12485      5F534342 
 12485      335F5350 
 12485      495F4D49 
 12485      534F00
 12486              	.LASF738:
 12487 654e 50355F34 		.ascii	"P5_4_CSD_CSD_TX_N\000"
 12487      5F435344 
 12487      5F435344 
ARM GAS  C:\Users\stijn\AppData\Local\Temp\ccD3lQ9e.s 			page 346


 12487      5F54585F 
 12487      4E00
 12488              	.LASF1853:
 12489 6560 5031335F 		.ascii	"P13_6_AMUXA\000"
 12489      365F414D 
 12489      55584100 
 12490              	.LASF1854:
 12491 656c 5031335F 		.ascii	"P13_6_AMUXB\000"
 12491      365F414D 
 12491      55584200 
 12492              	.LASF968:
 12493 6578 50375F31 		.ascii	"P7_1_GPIO\000"
 12493      5F475049 
 12493      4F00
 12494              	.LASF739:
 12495 6582 50355F34 		.ascii	"P5_4_LCD_COM34\000"
 12495      5F4C4344 
 12495      5F434F4D 
 12495      333400
 12496              	.LASF1251:
 12497 6591 50395F31 		.ascii	"P9_1_SCB2_SPI_MISO\000"
 12497      5F534342 
 12497      325F5350 
 12497      495F4D49 
 12497      534F00
 12498              	.LASF1671:
 12499 65a4 5031325F 		.ascii	"P12_3_GPIO_DSI\000"
 12499      335F4750 
 12499      494F5F44 
 12499      534900
 12500              	.LASF1256:
 12501 65b3 50395F32 		.ascii	"P9_2_GPIO_DSI\000"
 12501      5F475049 
 12501      4F5F4453 
 12501      4900
 12502              	.LASF1313:
 12503 65c1 50395F35 		.ascii	"P9_5_AMUXA_DSI\000"
 12503      5F414D55 
 12503      58415F44 
 12503      534900
 12504              	.LASF329:
 12505 65d0 50315F33 		.ascii	"P1_3_DSI_GPIO\000"
 12505      5F445349 
 12505      5F475049 
 12505      4F00
 12506              	.LASF809:
 12507 65de 50365F30 		.ascii	"P6_0_SCB3_I2C_SCL\000"
 12507      5F534342 
 12507      335F4932 
 12507      435F5343 
 12507      4C00
 12508              	.LASF234:
 12509 65f0 50305F33 		.ascii	"P0_3_LCD_COM3\000"
 12509      5F4C4344 
 12509      5F434F4D 
 12509      3300
 12510              	.LASF306:
ARM GAS  C:\Users\stijn\AppData\Local\Temp\ccD3lQ9e.s 			page 347


 12511 65fe 50315F31 		.ascii	"P1_1_SCB7_UART_TX\000"
 12511      5F534342 
 12511      375F5541 
 12511      52545F54 
 12511      5800
 12512              	.LASF1249:
 12513 6610 50395F31 		.ascii	"P9_1_SCB2_UART_TX\000"
 12513      5F534342 
 12513      325F5541 
 12513      52545F54 
 12513      5800
 12514              	.LASF1324:
 12515 6622 50395F36 		.ascii	"P9_6_DSI_DSI\000"
 12515      5F445349 
 12515      5F445349 
 12515      00
 12516              	.LASF617:
 12517 662f 50345F30 		.ascii	"P4_0_AMUXA\000"
 12517      5F414D55 
 12517      584100
 12518              	.LASF618:
 12519 663a 50345F30 		.ascii	"P4_0_AMUXB\000"
 12519      5F414D55 
 12519      584200
 12520              	.LASF1789:
 12521 6645 5031335F 		.ascii	"P13_2_DSI_DSI\000"
 12521      325F4453 
 12521      495F4453 
 12521      4900
 12522              	.LASF1429:
 12523 6653 5031305F 		.ascii	"P10_4_AMUXA_DSI\000"
 12523      345F414D 
 12523      5558415F 
 12523      44534900 
 12524              	.LASF927:
 12525 6663 50365F36 		.ascii	"P6_6_SCB6_UART_RTS\000"
 12525      5F534342 
 12525      365F5541 
 12525      52545F52 
 12525      545300
 12526              	.LASF1713:
 12527 6676 5031325F 		.ascii	"P12_5_TCPWM0_LINE_COMPL6\000"
 12527      355F5443 
 12527      50574D30 
 12527      5F4C494E 
 12527      455F434F 
 12528              	.LASF212:
 12529 668f 50305F32 		.ascii	"P0_2_AMUXB_DSI\000"
 12529      5F414D55 
 12529      58425F44 
 12529      534900
 12530              	.LASF591:
 12531 669e 50335F34 		.ascii	"P3_4_CSD_CSD_TX\000"
 12531      5F435344 
 12531      5F435344 
 12531      5F545800 
 12532              	.LASF1360:
ARM GAS  C:\Users\stijn\AppData\Local\Temp\ccD3lQ9e.s 			page 348


 12533 66ae 5031305F 		.ascii	"P10_0_TCPWM1_LINE22\000"
 12533      305F5443 
 12533      50574D31 
 12533      5F4C494E 
 12533      45323200 
 12534              	.LASF17:
 12535 66c2 75696E74 		.ascii	"uint16_t\000"
 12535      31365F74 
 12535      00
 12536              	.LASF81:
 12537 66cb 666C6173 		.ascii	"flashProgramDelay\000"
 12537      6850726F 
 12537      6772616D 
 12537      44656C61 
 12537      7900
 12538              	.LASF959:
 12539 66dd 50375F30 		.ascii	"P7_0_CSD_CSD_TX\000"
 12539      5F435344 
 12539      5F435344 
 12539      5F545800 
 12540              	.LASF1919:
 12541 66ed 63795F73 		.ascii	"cy_stc_gpio_pin_config_t\000"
 12541      74635F67 
 12541      70696F5F 
 12541      70696E5F 
 12541      636F6E66 
 12542              	.LASF610:
 12543 6706 50335F35 		.ascii	"P3_5_LCD_SEG25\000"
 12543      5F4C4344 
 12543      5F534547 
 12543      323500
 12544              	.LASF305:
 12545 6715 50315F31 		.ascii	"P1_1_LCD_SEG7\000"
 12545      5F4C4344 
 12545      5F534547 
 12545      3700
 12546              	.LASF239:
 12547 6723 50305F34 		.ascii	"P0_4_GPIO\000"
 12547      5F475049 
 12547      4F00
 12548              	.LASF849:
 12549 672d 50365F32 		.ascii	"P6_2_SCB8_SPI_CLK\000"
 12549      5F534342 
 12549      385F5350 
 12549      495F434C 
 12549      4B00
 12550              	.LASF1859:
 12551 673f 5031335F 		.ascii	"P13_6_CSD_CSD_TX\000"
 12551      365F4353 
 12551      445F4353 
 12551      445F5458 
 12551      00
 12552              	.LASF300:
 12553 6750 50315F31 		.ascii	"P1_1_TCPWM0_LINE_COMPL3\000"
 12553      5F544350 
 12553      574D305F 
 12553      4C494E45 
ARM GAS  C:\Users\stijn\AppData\Local\Temp\ccD3lQ9e.s 			page 349


 12553      5F434F4D 
 12554              	.LASF1638:
 12555 6768 5031325F 		.ascii	"P12_1_AMUXA\000"
 12555      315F414D 
 12555      55584100 
 12556              	.LASF1639:
 12557 6774 5031325F 		.ascii	"P12_1_AMUXB\000"
 12557      315F414D 
 12557      55584200 
 12558              	.LASF14:
 12559 6780 6C6F6E67 		.ascii	"long long unsigned int\000"
 12559      206C6F6E 
 12559      6720756E 
 12559      7369676E 
 12559      65642069 
 12560              	.LASF865:
 12561 6797 50365F33 		.ascii	"P6_3_SCB3_SPI_SELECT0\000"
 12561      5F534342 
 12561      335F5350 
 12561      495F5345 
 12561      4C454354 
 12562              	.LASF1544:
 12563 67ad 5031315F 		.ascii	"P11_3_DSI_GPIO\000"
 12563      335F4453 
 12563      495F4750 
 12563      494F00
 12564              	.LASF224:
 12565 67bc 50305F33 		.ascii	"P0_3_DSI_DSI\000"
 12565      5F445349 
 12565      5F445349 
 12565      00
 12566              	.LASF1764:
 12567 67c9 5031335F 		.ascii	"P13_0_LCD_SEG31\000"
 12567      305F4C43 
 12567      445F5345 
 12567      47333100 
 12568              	.LASF24:
 12569 67d9 494E5452 		.ascii	"INTR\000"
 12569      00
 12570              	.LASF792:
 12571 67de 50355F37 		.ascii	"P5_7_SCB3_SPI_SELECT3\000"
 12571      5F534342 
 12571      335F5350 
 12571      495F5345 
 12571      4C454354 
 12572              	.LASF1125:
 12573 67f4 50385F32 		.ascii	"P8_2_DSI_GPIO\000"
 12573      5F445349 
 12573      5F475049 
 12573      4F00
 12574              	.LASF1479:
 12575 6802 5031305F 		.ascii	"P10_7_AMUXB_DSI\000"
 12575      375F414D 
 12575      5558425F 
 12575      44534900 
 12576              	.LASF1032:
 12577 6812 50375F34 		.ascii	"P7_4_SCB4_SPI_SELECT1\000"
ARM GAS  C:\Users\stijn\AppData\Local\Temp\ccD3lQ9e.s 			page 350


 12577      5F534342 
 12577      345F5350 
 12577      495F5345 
 12577      4C454354 
 12578              	.LASF1765:
 12579 6828 5031335F 		.ascii	"P13_0_SCB6_UART_RX\000"
 12579      305F5343 
 12579      42365F55 
 12579      4152545F 
 12579      525800
 12580              	.LASF1303:
 12581 683b 50395F34 		.ascii	"P9_4_CSD_CSD_TX_N\000"
 12581      5F435344 
 12581      5F435344 
 12581      5F54585F 
 12581      4E00
 12582              	.LASF891:
 12583 684d 50365F35 		.ascii	"P6_5_GPIO_DSI\000"
 12583      5F475049 
 12583      4F5F4453 
 12583      4900
 12584              	.LASF416:
 12585 685b 50325F32 		.ascii	"P2_2_AMUXA\000"
 12585      5F414D55 
 12585      584100
 12586              	.LASF417:
 12587 6866 50325F32 		.ascii	"P2_2_AMUXB\000"
 12587      5F414D55 
 12587      584200
 12588              	.LASF1632:
 12589 6871 5031325F 		.ascii	"P12_0_SCB6_SPI_MOSI\000"
 12589      305F5343 
 12589      42365F53 
 12589      50495F4D 
 12589      4F534900 
 12590              	.LASF1594:
 12591 6885 5031315F 		.ascii	"P11_6_DSI_DSI\000"
 12591      365F4453 
 12591      495F4453 
 12591      4900
 12592              	.LASF182:
 12593 6893 50305F30 		.ascii	"P0_0_CSD_CSD_TX_N\000"
 12593      5F435344 
 12593      5F435344 
 12593      5F54585F 
 12593      4E00
 12594              	.LASF881:
 12595 68a5 50365F34 		.ascii	"P6_4_SCB8_I2C_SCL\000"
 12595      5F534342 
 12595      385F4932 
 12595      435F5343 
 12595      4C00
 12596              	.LASF1434:
 12597 68b7 5031305F 		.ascii	"P10_4_CSD_CSD_TX_N\000"
 12597      345F4353 
 12597      445F4353 
 12597      445F5458 
ARM GAS  C:\Users\stijn\AppData\Local\Temp\ccD3lQ9e.s 			page 351


 12597      5F4E00
 12598              	.LASF615:
 12599 68ca 50345F30 		.ascii	"P4_0_DSI_DSI\000"
 12599      5F445349 
 12599      5F445349 
 12599      00
 12600              	.LASF97:
 12601 68d7 70657269 		.ascii	"periTrGrSize\000"
 12601      54724772 
 12601      53697A65 
 12601      00
 12602              	.LASF1855:
 12603 68e4 5031335F 		.ascii	"P13_6_AMUXA_DSI\000"
 12603      365F414D 
 12603      5558415F 
 12603      44534900 
 12604              	.LASF243:
 12605 68f4 50305F34 		.ascii	"P0_4_AMUXA\000"
 12605      5F414D55 
 12605      584100
 12606              	.LASF244:
 12607 68ff 50305F34 		.ascii	"P0_4_AMUXB\000"
 12607      5F414D55 
 12607      584200
 12608              	.LASF1159:
 12609 690a 50385F34 		.ascii	"P8_4_DSI_GPIO\000"
 12609      5F445349 
 12609      5F475049 
 12609      4F00
 12610              	.LASF1410:
 12611 6918 5031305F 		.ascii	"P10_3_AMUXA\000"
 12611      335F414D 
 12611      55584100 
 12612              	.LASF1411:
 12613 6924 5031305F 		.ascii	"P10_3_AMUXB\000"
 12613      335F414D 
 12613      55584200 
 12614              	.LASF385:
 12615 6930 50325F30 		.ascii	"P2_0_CSD_CSD_TX_N\000"
 12615      5F435344 
 12615      5F435344 
 12615      5F54585F 
 12615      4E00
 12616              	.LASF776:
 12617 6942 50355F36 		.ascii	"P5_6_AUDIOSS_RX_SDI\000"
 12617      5F415544 
 12617      494F5353 
 12617      5F52585F 
 12617      53444900 
 12618              	.LASF1647:
 12619 6956 5031325F 		.ascii	"P12_1_LCD_SEG24\000"
 12619      315F4C43 
 12619      445F5345 
 12619      47323400 
 12620              	.LASF1205:
 12621 6966 50385F37 		.ascii	"P8_7_AMUXA\000"
 12621      5F414D55 
ARM GAS  C:\Users\stijn\AppData\Local\Temp\ccD3lQ9e.s 			page 352


 12621      584100
 12622              	.LASF1199:
 12623 6971 50385F36 		.ascii	"P8_6_LCD_SEG60\000"
 12623      5F4C4344 
 12623      5F534547 
 12623      363000
 12624              	.LASF1008:
 12625 6980 50375F33 		.ascii	"P7_3_AMUXA_DSI\000"
 12625      5F414D55 
 12625      58415F44 
 12625      534900
 12626              	.LASF529:
 12627 698f 50335F31 		.ascii	"P3_1_GPIO_DSI\000"
 12627      5F475049 
 12627      4F5F4453 
 12627      4900
 12628              	.LASF962:
 12629 699d 50375F30 		.ascii	"P7_0_LCD_SEG46\000"
 12629      5F4C4344 
 12629      5F534547 
 12629      343600
 12630              	.LASF1698:
 12631 69ac 5031325F 		.ascii	"P12_4_CSD_CSD_TX_N\000"
 12631      345F4353 
 12631      445F4353 
 12631      445F5458 
 12631      5F4E00
 12632              	.LASF1518:
 12633 69bf 5031315F 		.ascii	"P11_1_LCD_SEG17\000"
 12633      315F4C43 
 12633      445F5345 
 12633      47313700 
 12634              	.LASF737:
 12635 69cf 50355F34 		.ascii	"P5_4_CSD_CSD_TX\000"
 12635      5F435344 
 12635      5F435344 
 12635      5F545800 
 12636              	.LASF747:
 12637 69df 50355F35 		.ascii	"P5_5_DSI_GPIO\000"
 12637      5F445349 
 12637      5F475049 
 12637      4F00
 12638              	.LASF448:
 12639 69ed 50325F34 		.ascii	"P2_4_DSI_DSI\000"
 12639      5F445349 
 12639      5F445349 
 12639      00
 12640              	.LASF556:
 12641 69fa 50335F32 		.ascii	"P3_2_TCPWM1_LINE20\000"
 12641      5F544350 
 12641      574D315F 
 12641      4C494E45 
 12641      323000
 12642              	.LASF588:
 12643 6a0d 50335F34 		.ascii	"P3_4_AMUXB_DSI\000"
 12643      5F414D55 
 12643      58425F44 
ARM GAS  C:\Users\stijn\AppData\Local\Temp\ccD3lQ9e.s 			page 353


 12643      534900
 12644              	.LASF73:
 12645 6a1c 65704D6F 		.ascii	"epMonitorNr\000"
 12645      6E69746F 
 12645      724E7200 
 12646              	.LASF274:
 12647 6a28 50315F30 		.ascii	"P1_0_GPIO\000"
 12647      5F475049 
 12647      4F00
 12648              	.LASF438:
 12649 6a32 50325F33 		.ascii	"P2_3_TCPWM1_LINE_COMPL16\000"
 12649      5F544350 
 12649      574D315F 
 12649      4C494E45 
 12649      5F434F4D 
 12650              	.LASF624:
 12651 6a4b 50345F30 		.ascii	"P4_0_CSD_CSD_TX_N\000"
 12651      5F435344 
 12651      5F435344 
 12651      5F54585F 
 12651      4E00
 12652              	.LASF983:
 12653 6a5d 50375F31 		.ascii	"P7_1_SCB4_I2C_SDA\000"
 12653      5F534342 
 12653      345F4932 
 12653      435F5344 
 12653      4100
 12654              	.LASF525:
 12655 6a6f 50335F30 		.ascii	"P3_0_SCB2_SPI_MOSI\000"
 12655      5F534342 
 12655      325F5350 
 12655      495F4D4F 
 12655      534900
 12656              	.LASF74:
 12657 6a82 75646250 		.ascii	"udbPresent\000"
 12657      72657365 
 12657      6E7400
 12658              	.LASF1373:
 12659 6a8d 5031305F 		.ascii	"P10_1_DSI_GPIO\000"
 12659      315F4453 
 12659      495F4750 
 12659      494F00
 12660              	.LASF396:
 12661 6a9c 50325F31 		.ascii	"P2_1_DSI_GPIO\000"
 12661      5F445349 
 12661      5F475049 
 12661      4F00
 12662              	.LASF807:
 12663 6aaa 50365F30 		.ascii	"P6_0_SCB8_I2C_SCL\000"
 12663      5F534342 
 12663      385F4932 
 12663      435F5343 
 12663      4C00
 12664              	.LASF1777:
 12665 6abc 5031335F 		.ascii	"P13_1_TCPWM0_LINE_COMPL0\000"
 12665      315F5443 
 12665      50574D30 
ARM GAS  C:\Users\stijn\AppData\Local\Temp\ccD3lQ9e.s 			page 354


 12665      5F4C494E 
 12665      455F434F 
 12666              	.LASF700:
 12667 6ad5 50355F32 		.ascii	"P5_2_TCPWM1_LINE5\000"
 12667      5F544350 
 12667      574D315F 
 12667      4C494E45 
 12667      3500
 12668              	.LASF304:
 12669 6ae7 50315F31 		.ascii	"P1_1_LCD_COM7\000"
 12669      5F4C4344 
 12669      5F434F4D 
 12669      3700
 12670              	.LASF1221:
 12671 6af5 50395F30 		.ascii	"P9_0_AMUXB\000"
 12671      5F414D55 
 12671      584200
 12672              	.LASF1866:
 12673 6b00 5031335F 		.ascii	"P13_7_DSI_DSI\000"
 12673      375F4453 
 12673      495F4453 
 12673      4900
 12674              	.LASF1058:
 12675 6b0e 50375F36 		.ascii	"P7_6_AMUXA_DSI\000"
 12675      5F414D55 
 12675      58415F44 
 12675      534900
 12676              	.LASF95:
 12677 6b1d 70657269 		.ascii	"periTrCmdGrSelMsk\000"
 12677      5472436D 
 12677      64477253 
 12677      656C4D73 
 12677      6B00
 12678              	.LASF1198:
 12679 6b2f 50385F36 		.ascii	"P8_6_LCD_COM60\000"
 12679      5F4C4344 
 12679      5F434F4D 
 12679      363000
 12680              	.LASF1749:
 12681 6b3e 5031325F 		.ascii	"P12_7_LCD_COM30\000"
 12681      375F4C43 
 12681      445F434F 
 12681      4D333000 
 12682              	.LASF961:
 12683 6b4e 50375F30 		.ascii	"P7_0_LCD_COM46\000"
 12683      5F4C4344 
 12683      5F434F4D 
 12683      343600
 12684              	.LASF984:
 12685 6b5d 50375F31 		.ascii	"P7_1_SCB4_SPI_MISO\000"
 12685      5F534342 
 12685      345F5350 
 12685      495F4D49 
 12685      534F00
 12686              	.LASF804:
 12687 6b70 50365F30 		.ascii	"P6_0_CSD_CSD_TX_N\000"
 12687      5F435344 
ARM GAS  C:\Users\stijn\AppData\Local\Temp\ccD3lQ9e.s 			page 355


 12687      5F435344 
 12687      5F54585F 
 12687      4E00
 12688              	.LASF815:
 12689 6b82 50365F31 		.ascii	"P6_1_DSI_DSI\000"
 12689      5F445349 
 12689      5F445349 
 12689      00
 12690              	.LASF1722:
 12691 6b8f 5031325F 		.ascii	"P12_6_GPIO\000"
 12691      365F4750 
 12691      494F00
 12692              	.LASF232:
 12693 6b9a 50305F33 		.ascii	"P0_3_CSD_CSD_TX\000"
 12693      5F435344 
 12693      5F435344 
 12693      5F545800 
 12694              	.LASF844:
 12695 6baa 50365F32 		.ascii	"P6_2_CSD_CSD_TX_N\000"
 12695      5F435344 
 12695      5F435344 
 12695      5F54585F 
 12695      4E00
 12696              	.LASF240:
 12697 6bbc 50305F34 		.ascii	"P0_4_GPIO_DSI\000"
 12697      5F475049 
 12697      4F5F4453 
 12697      4900
 12698              	.LASF1729:
 12699 6bca 5031325F 		.ascii	"P12_6_AMUXB_DSI\000"
 12699      365F414D 
 12699      5558425F 
 12699      44534900 
 12700              	.LASF403:
 12701 6bda 50325F31 		.ascii	"P2_1_CSD_CSD_TX\000"
 12701      5F435344 
 12701      5F435344 
 12701      5F545800 
 12702              	.LASF1852:
 12703 6bea 5031335F 		.ascii	"P13_6_DSI_GPIO\000"
 12703      365F4453 
 12703      495F4750 
 12703      494F00
 12704              	.LASF1930:
 12705 6bf9 43795F47 		.ascii	"Cy_GPIO_SetVtrip\000"
 12705      50494F5F 
 12705      53657456 
 12705      74726970 
 12705      00
 12706              	.LASF70:
 12707 6c0a 70657269 		.ascii	"periClockNr\000"
 12707      436C6F63 
 12707      6B4E7200 
 12708              	.LASF1607:
 12709 6c16 5031315F 		.ascii	"P11_7_GPIO_DSI\000"
 12709      375F4750 
 12709      494F5F44 
ARM GAS  C:\Users\stijn\AppData\Local\Temp\ccD3lQ9e.s 			page 356


 12709      534900
 12710              	.LASF1920:
 12711 6c25 62617365 		.ascii	"base\000"
 12711      00
 12712              	.LASF1097:
 12713 6c2a 50385F30 		.ascii	"P8_0_CSD_CSD_TX_N\000"
 12713      5F435344 
 12713      5F435344 
 12713      5F54585F 
 12713      4E00
 12714              	.LASF1637:
 12715 6c3c 5031325F 		.ascii	"P12_1_DSI_GPIO\000"
 12715      315F4453 
 12715      495F4750 
 12715      494F00
 12716              	.LASF1517:
 12717 6c4b 5031315F 		.ascii	"P11_1_LCD_COM17\000"
 12717      315F4C43 
 12717      445F434F 
 12717      4D313700 
 12718              	.LASF468:
 12719 6c5b 50325F35 		.ascii	"P2_5_AMUXA_DSI\000"
 12719      5F414D55 
 12719      58415F44 
 12719      534900
 12720              	.LASF562:
 12721 6c6a 50335F32 		.ascii	"P3_2_SCB2_SPI_CLK\000"
 12721      5F534342 
 12721      325F5350 
 12721      495F434C 
 12721      4B00
 12722              	.LASF1219:
 12723 6c7c 50395F30 		.ascii	"P9_0_DSI_GPIO\000"
 12723      5F445349 
 12723      5F475049 
 12723      4F00
 12724              	.LASF1367:
 12725 6c8a 5031305F 		.ascii	"P10_0_SCB1_SPI_MOSI\000"
 12725      305F5343 
 12725      42315F53 
 12725      50495F4D 
 12725      4F534900 
 12726              	.LASF1424:
 12727 6c9e 5031305F 		.ascii	"P10_4_GPIO_DSI\000"
 12727      345F4750 
 12727      494F5F44 
 12727      534900
 12728              	.LASF1702:
 12729 6cad 5031325F 		.ascii	"P12_4_SCB6_SPI_SELECT1\000"
 12729      345F5343 
 12729      42365F53 
 12729      50495F53 
 12729      454C4543 
 12730              	.LASF1588:
 12731 6cc4 5031315F 		.ascii	"P11_5_LCD_COM21\000"
 12731      355F4C43 
 12731      445F434F 
ARM GAS  C:\Users\stijn\AppData\Local\Temp\ccD3lQ9e.s 			page 357


 12731      4D323100 
 12732              	.LASF944:
 12733 6cd4 50365F37 		.ascii	"P6_7_LCD_SEG45\000"
 12733      5F4C4344 
 12733      5F534547 
 12733      343500
 12734              	.LASF1003:
 12735 6ce3 50375F33 		.ascii	"P7_3_GPIO_DSI\000"
 12735      5F475049 
 12735      4F5F4453 
 12735      4900
 12736              	.LASF990:
 12737 6cf1 50375F32 		.ascii	"P7_2_AMUXA\000"
 12737      5F414D55 
 12737      584100
 12738              	.LASF991:
 12739 6cfc 50375F32 		.ascii	"P7_2_AMUXB\000"
 12739      5F414D55 
 12739      584200
 12740              	.LASF920:
 12741 6d07 50365F36 		.ascii	"P6_6_AMUXB_DSI\000"
 12741      5F414D55 
 12741      58425F44 
 12741      534900
 12742              	.LASF1414:
 12743 6d16 5031305F 		.ascii	"P10_3_TCPWM0_LINE_COMPL7\000"
 12743      335F5443 
 12743      50574D30 
 12743      5F4C494E 
 12743      455F434F 
 12744              	.LASF799:
 12745 6d2f 50365F30 		.ascii	"P6_0_AMUXA_DSI\000"
 12745      5F414D55 
 12745      58415F44 
 12745      534900
 12746              	.LASF111:
 12747 6d3e 63707573 		.ascii	"cpussCm0ClockCtlOffset\000"
 12747      73436D30 
 12747      436C6F63 
 12747      6B43746C 
 12747      4F666673 
 12748              	.LASF812:
 12749 6d55 50365F30 		.ascii	"P6_0_SCB8_SPI_MOSI\000"
 12749      5F534342 
 12749      385F5350 
 12749      495F4D4F 
 12749      534900
 12750              	.LASF1579:
 12751 6d68 5031315F 		.ascii	"P11_5_DSI_GPIO\000"
 12751      355F4453 
 12751      495F4750 
 12751      494F00
 12752              	.LASF1450:
 12753 6d77 5031305F 		.ascii	"P10_5_CSD_CSD_TX\000"
 12753      355F4353 
 12753      445F4353 
 12753      445F5458 
ARM GAS  C:\Users\stijn\AppData\Local\Temp\ccD3lQ9e.s 			page 358


 12753      00
 12754              	.LASF128:
 12755 6d88 4750494F 		.ascii	"GPIO_PRT_Type\000"
 12755      5F505254 
 12755      5F547970 
 12755      6500
 12756              	.LASF1680:
 12757 6d96 5031325F 		.ascii	"P12_3_CSD_CSD_TX\000"
 12757      335F4353 
 12757      445F4353 
 12757      445F5458 
 12757      00
 12758              	.LASF684:
 12759 6da7 50355F31 		.ascii	"P5_1_LCD_SEG31\000"
 12759      5F4C4344 
 12759      5F534547 
 12759      333100
 12760              	.LASF731:
 12761 6db6 50355F34 		.ascii	"P5_4_AMUXA\000"
 12761      5F414D55 
 12761      584100
 12762              	.LASF732:
 12763 6dc1 50355F34 		.ascii	"P5_4_AMUXB\000"
 12763      5F414D55 
 12763      584200
 12764              	.LASF1368:
 12765 6dcc 5031305F 		.ascii	"P10_0_PERI_TR_IO_INPUT20\000"
 12765      305F5045 
 12765      52495F54 
 12765      525F494F 
 12765      5F494E50 
 12766              	.LASF1124:
 12767 6de5 50385F32 		.ascii	"P8_2_DSI_DSI\000"
 12767      5F445349 
 12767      5F445349 
 12767      00
 12768              	.LASF1493:
 12769 6df2 5031315F 		.ascii	"P11_0_AMUXB_DSI\000"
 12769      305F414D 
 12769      5558425F 
 12769      44534900 
 12770              	.LASF1340:
 12771 6e02 50395F37 		.ascii	"P9_7_DSI_GPIO\000"
 12771      5F445349 
 12771      5F475049 
 12771      4F00
 12772              	.LASF1612:
 12773 6e10 5031315F 		.ascii	"P11_7_AMUXA_DSI\000"
 12773      375F414D 
 12773      5558415F 
 12773      44534900 
 12774              	.LASF709:
 12775 6e20 50355F33 		.ascii	"P5_3_GPIO\000"
 12775      5F475049 
 12775      4F00
 12776              	.LASF407:
 12777 6e2a 50325F31 		.ascii	"P2_1_SCB1_UART_TX\000"
ARM GAS  C:\Users\stijn\AppData\Local\Temp\ccD3lQ9e.s 			page 359


 12777      5F534342 
 12777      315F5541 
 12777      52545F54 
 12777      5800
 12778              	.LASF943:
 12779 6e3c 50365F37 		.ascii	"P6_7_LCD_COM45\000"
 12779      5F4C4344 
 12779      5F434F4D 
 12779      343500
 12780              	.LASF364:
 12781 6e4b 50315F35 		.ascii	"P1_5_AMUXB_DSI\000"
 12781      5F414D55 
 12781      58425F44 
 12781      534900
 12782              	.LASF486:
 12783 6e5a 50325F36 		.ascii	"P2_6_TCPWM0_LINE1\000"
 12783      5F544350 
 12783      574D305F 
 12783      4C494E45 
 12783      3100
 12784              	.LASF1818:
 12785 6e6c 5031335F 		.ascii	"P13_3_SCB6_SPI_SELECT0\000"
 12785      335F5343 
 12785      42365F53 
 12785      50495F53 
 12785      454C4543 
 12786              	.LASF853:
 12787 6e83 50365F33 		.ascii	"P6_3_DSI_GPIO\000"
 12787      5F445349 
 12787      5F475049 
 12787      4F00
 12788              	.LASF1787:
 12789 6e91 5031335F 		.ascii	"P13_2_GPIO\000"
 12789      325F4750 
 12789      494F00
 12790              	.LASF658:
 12791 6e9c 50355F30 		.ascii	"P5_0_AMUXB_DSI\000"
 12791      5F414D55 
 12791      58425F44 
 12791      534900
 12792              	.LASF1497:
 12793 6eab 5031315F 		.ascii	"P11_0_CSD_CSD_TX_N\000"
 12793      305F4353 
 12793      445F4353 
 12793      445F5458 
 12793      5F4E00
 12794              	.LASF784:
 12795 6ebe 50355F37 		.ascii	"P5_7_AMUXA_DSI\000"
 12795      5F414D55 
 12795      58415F44 
 12795      534900
 12796              	.LASF665:
 12797 6ecd 50355F30 		.ascii	"P5_0_SCB5_UART_RX\000"
 12797      5F534342 
 12797      355F5541 
 12797      52545F52 
 12797      5800
ARM GAS  C:\Users\stijn\AppData\Local\Temp\ccD3lQ9e.s 			page 360


 12798              	.LASF1026:
 12799 6edf 50375F34 		.ascii	"P7_4_TCPWM0_LINE6\000"
 12799      5F544350 
 12799      574D305F 
 12799      4C494E45 
 12799      3600
 12800              	.LASF188:
 12801 6ef1 50305F31 		.ascii	"P0_1_GPIO\000"
 12801      5F475049 
 12801      4F00
 12802              	.LASF1320:
 12803 6efb 50395F35 		.ascii	"P9_5_LCD_SEG5\000"
 12803      5F4C4344 
 12803      5F534547 
 12803      3500
 12804              	.LASF683:
 12805 6f09 50355F31 		.ascii	"P5_1_LCD_COM31\000"
 12805      5F4C4344 
 12805      5F434F4D 
 12805      333100
 12806              	.LASF1291:
 12807 6f18 50395F33 		.ascii	"P9_3_SRSS_DDFT_PIN_IN1\000"
 12807      5F535253 
 12807      535F4444 
 12807      46545F50 
 12807      494E5F49 
 12808              	.LASF788:
 12809 6f2f 50355F37 		.ascii	"P5_7_CSD_CSD_TX\000"
 12809      5F435344 
 12809      5F435344 
 12809      5F545800 
 12810              	.LASF1045:
 12811 6f3f 50375F35 		.ascii	"P7_5_CSD_CSD_TX\000"
 12811      5F435344 
 12811      5F435344 
 12811      5F545800 
 12812              	.LASF1261:
 12813 6f4f 50395F32 		.ascii	"P9_2_AMUXA_DSI\000"
 12813      5F414D55 
 12813      58415F44 
 12813      534900
 12814              	.LASF1283:
 12815 6f5e 50395F33 		.ascii	"P9_3_CSD_CSD_TX\000"
 12815      5F435344 
 12815      5F435344 
 12815      5F545800 
 12816              	.LASF1762:
 12817 6f6e 5031335F 		.ascii	"P13_0_CSD_CSD_TX_N\000"
 12817      305F4353 
 12817      445F4353 
 12817      445F5458 
 12817      5F4E00
 12818              	.LASF251:
 12819 6f81 50305F34 		.ascii	"P0_4_LCD_COM4\000"
 12819      5F4C4344 
 12819      5F434F4D 
 12819      3400
ARM GAS  C:\Users\stijn\AppData\Local\Temp\ccD3lQ9e.s 			page 361


 12820              	.LASF1839:
 12821 6f8f 5031335F 		.ascii	"P13_5_AMUXB\000"
 12821      355F414D 
 12821      55584200 
 12822              	.LASF915:
 12823 6f9b 50365F36 		.ascii	"P6_6_DSI_DSI\000"
 12823      5F445349 
 12823      5F445349 
 12823      00
 12824              	.LASF1391:
 12825 6fa8 5031305F 		.ascii	"P10_2_DSI_DSI\000"
 12825      325F4453 
 12825      495F4453 
 12825      4900
 12826              	.LASF325:
 12827 6fb6 50315F32 		.ascii	"P1_2_SCB7_SPI_CLK\000"
 12827      5F534342 
 12827      375F5350 
 12827      495F434C 
 12827      4B00
 12828              	.LASF1376:
 12829 6fc8 5031305F 		.ascii	"P10_1_AMUXA_DSI\000"
 12829      315F414D 
 12829      5558415F 
 12829      44534900 
 12830              	.LASF107:
 12831 6fd8 6770696F 		.ascii	"gpioPrtCfgOffset\000"
 12831      50727443 
 12831      66674F66 
 12831      66736574 
 12831      00
 12832              	.LASF921:
 12833 6fe9 50365F36 		.ascii	"P6_6_TCPWM0_LINE3\000"
 12833      5F544350 
 12833      574D305F 
 12833      4C494E45 
 12833      3300
 12834              	.LASF449:
 12835 6ffb 50325F34 		.ascii	"P2_4_DSI_GPIO\000"
 12835      5F445349 
 12835      5F475049 
 12835      4F00
 12836              	.LASF1606:
 12837 7009 5031315F 		.ascii	"P11_7_GPIO\000"
 12837      375F4750 
 12837      494F00
 12838              	.LASF995:
 12839 7014 50375F32 		.ascii	"P7_2_TCPWM1_LINE13\000"
 12839      5F544350 
 12839      574D315F 
 12839      4C494E45 
 12839      313300
 12840              	.LASF311:
 12841 7027 50315F32 		.ascii	"P1_2_GPIO_DSI\000"
 12841      5F475049 
 12841      4F5F4453 
 12841      4900
ARM GAS  C:\Users\stijn\AppData\Local\Temp\ccD3lQ9e.s 			page 362


 12842              	.LASF560:
 12843 7035 50335F32 		.ascii	"P3_2_LCD_SEG22\000"
 12843      5F4C4344 
 12843      5F534547 
 12843      323200
 12844              	.LASF524:
 12845 7044 50335F30 		.ascii	"P3_0_SCB2_I2C_SCL\000"
 12845      5F534342 
 12845      325F4932 
 12845      435F5343 
 12845      4C00
 12846              	.LASF1244:
 12847 7056 50395F31 		.ascii	"P9_1_TCPWM1_LINE_COMPL20\000"
 12847      5F544350 
 12847      574D315F 
 12847      4C494E45 
 12847      5F434F4D 
 12848              	.LASF1029:
 12849 706f 50375F34 		.ascii	"P7_4_CSD_CSD_TX_N\000"
 12849      5F435344 
 12849      5F435344 
 12849      5F54585F 
 12849      4E00
 12850              	.LASF638:
 12851 7081 50345F31 		.ascii	"P4_1_AMUXA_DSI\000"
 12851      5F414D55 
 12851      58415F44 
 12851      534900
 12852              	.LASF1194:
 12853 7090 50385F36 		.ascii	"P8_6_TCPWM0_LINE3\000"
 12853      5F544350 
 12853      574D305F 
 12853      4C494E45 
 12853      3300
 12854              	.LASF1215:
 12855 70a2 50385F37 		.ascii	"P8_7_SCB3_SPI_SELECT2\000"
 12855      5F534342 
 12855      335F5350 
 12855      495F5345 
 12855      4C454354 
 12856              	.LASF1494:
 12857 70b8 5031315F 		.ascii	"P11_0_TCPWM0_LINE1\000"
 12857      305F5443 
 12857      50574D30 
 12857      5F4C494E 
 12857      453100
 12858              	.LASF35:
 12859 70cb 4750494F 		.ascii	"GPIO_PRT_V1_Type\000"
 12859      5F505254 
 12859      5F56315F 
 12859      54797065 
 12859      00
 12860              	.LASF1525:
 12861 70dc 5031315F 		.ascii	"P11_2_GPIO_DSI\000"
 12861      325F4750 
 12861      494F5F44 
 12861      534900
ARM GAS  C:\Users\stijn\AppData\Local\Temp\ccD3lQ9e.s 			page 363


 12862              	.LASF1129:
 12863 70eb 50385F32 		.ascii	"P8_2_AMUXB_DSI\000"
 12863      5F414D55 
 12863      58425F44 
 12863      534900
 12864              	.LASF341:
 12865 70fa 50315F33 		.ascii	"P1_3_SCB7_SPI_SELECT0\000"
 12865      5F534342 
 12865      375F5350 
 12865      495F5345 
 12865      4C454354 
 12866              	.LASF1817:
 12867 7110 5031335F 		.ascii	"P13_3_SCB6_UART_CTS\000"
 12867      335F5343 
 12867      42365F55 
 12867      4152545F 
 12867      43545300 
 12868              	.LASF911:
 12869 7124 50365F35 		.ascii	"P6_5_SCB8_SPI_MISO\000"
 12869      5F534342 
 12869      385F5350 
 12869      495F4D49 
 12869      534F00
 12870              	.LASF1610:
 12871 7137 5031315F 		.ascii	"P11_7_AMUXA\000"
 12871      375F414D 
 12871      55584100 
 12872              	.LASF1611:
 12873 7143 5031315F 		.ascii	"P11_7_AMUXB\000"
 12873      375F414D 
 12873      55584200 
 12874              	.LASF1863:
 12875 714f 5031335F 		.ascii	"P13_6_SCB6_SPI_SELECT3\000"
 12875      365F5343 
 12875      42365F53 
 12875      50495F53 
 12875      454C4543 
 12876              	.LASF1619:
 12877 7166 5031325F 		.ascii	"P12_0_AMUXA\000"
 12877      305F414D 
 12877      55584100 
 12878              	.LASF1620:
 12879 7172 5031325F 		.ascii	"P12_0_AMUXB\000"
 12879      305F414D 
 12879      55584200 
 12880              	.LASF1435:
 12881 717e 5031305F 		.ascii	"P10_4_LCD_COM12\000"
 12881      345F4C43 
 12881      445F434F 
 12881      4D313200 
 12882              	.LASF559:
 12883 718e 50335F32 		.ascii	"P3_2_LCD_COM22\000"
 12883      5F4C4344 
 12883      5F434F4D 
 12883      323200
 12884              	.LASF1105:
 12885 719d 50385F31 		.ascii	"P8_1_GPIO_DSI\000"
ARM GAS  C:\Users\stijn\AppData\Local\Temp\ccD3lQ9e.s 			page 364


 12885      5F475049 
 12885      4F5F4453 
 12885      4900
 12886              	.LASF1203:
 12887 71ab 50385F37 		.ascii	"P8_7_DSI_DSI\000"
 12887      5F445349 
 12887      5F445349 
 12887      00
 12888              	.LASF208:
 12889 71b8 50305F32 		.ascii	"P0_2_DSI_GPIO\000"
 12889      5F445349 
 12889      5F475049 
 12889      4F00
 12890              	.LASF1700:
 12891 71c6 5031325F 		.ascii	"P12_4_LCD_SEG27\000"
 12891      345F4C43 
 12891      445F5345 
 12891      47323700 
 12892              	.LASF1361:
 12893 71d6 5031305F 		.ascii	"P10_0_CSD_CSD_TX\000"
 12893      305F4353 
 12893      445F4353 
 12893      445F5458 
 12893      00
 12894              	.LASF276:
 12895 71e7 50315F30 		.ascii	"P1_0_DSI_DSI\000"
 12895      5F445349 
 12895      5F445349 
 12895      00
 12896              	.LASF202:
 12897 71f4 50305F31 		.ascii	"P0_1_SCB0_SPI_SELECT2\000"
 12897      5F534342 
 12897      305F5350 
 12897      495F5345 
 12897      4C454354 
 12898              	.LASF1496:
 12899 720a 5031315F 		.ascii	"P11_0_CSD_CSD_TX\000"
 12899      305F4353 
 12899      445F4353 
 12899      445F5458 
 12899      00
 12900              	.LASF397:
 12901 721b 50325F31 		.ascii	"P2_1_AMUXA\000"
 12901      5F414D55 
 12901      584100
 12902              	.LASF398:
 12903 7226 50325F31 		.ascii	"P2_1_AMUXB\000"
 12903      5F414D55 
 12903      584200
 12904              	.LASF1319:
 12905 7231 50395F35 		.ascii	"P9_5_LCD_COM5\000"
 12905      5F4C4344 
 12905      5F434F4D 
 12905      3500
 12906              	.LASF1322:
 12907 723f 50395F36 		.ascii	"P9_6_GPIO\000"
 12907      5F475049 
ARM GAS  C:\Users\stijn\AppData\Local\Temp\ccD3lQ9e.s 			page 365


 12907      4F00
 12908              	.LASF1392:
 12909 7249 5031305F 		.ascii	"P10_2_DSI_GPIO\000"
 12909      325F4453 
 12909      495F4750 
 12909      494F00
 12910              	.LASF971:
 12911 7258 50375F31 		.ascii	"P7_1_DSI_GPIO\000"
 12911      5F445349 
 12911      5F475049 
 12911      4F00
 12912              	.LASF608:
 12913 7266 50335F35 		.ascii	"P3_5_CSD_CSD_TX_N\000"
 12913      5F435344 
 12913      5F435344 
 12913      5F54585F 
 12913      4E00
 12914              	.LASF1672:
 12915 7278 5031325F 		.ascii	"P12_3_DSI_DSI\000"
 12915      335F4453 
 12915      495F4453 
 12915      4900
 12916              	.LASF184:
 12917 7286 50305F30 		.ascii	"P0_0_LCD_SEG0\000"
 12917      5F4C4344 
 12917      5F534547 
 12917      3000
 12918              	.LASF1231:
 12919 7294 50395F30 		.ascii	"P9_0_SCB2_I2C_SCL\000"
 12919      5F534342 
 12919      325F4932 
 12919      435F5343 
 12919      4C00
 12920              	.LASF318:
 12921 72a6 50315F32 		.ascii	"P1_2_TCPWM0_LINE4\000"
 12921      5F544350 
 12921      574D305F 
 12921      4C494E45 
 12921      3400
 12922              	.LASF1670:
 12923 72b8 5031325F 		.ascii	"P12_3_GPIO\000"
 12923      335F4750 
 12923      494F00
 12924              	.LASF1116:
 12925 72c3 50385F31 		.ascii	"P8_1_LCD_COM55\000"
 12925      5F4C4344 
 12925      5F434F4D 
 12925      353500
 12926              	.LASF726:
 12927 72d2 50355F33 		.ascii	"P5_3_AUDIOSS0_TX_SDO\000"
 12927      5F415544 
 12927      494F5353 
 12927      305F5458 
 12927      5F53444F 
 12928              	.LASF237:
 12929 72e7 50305F33 		.ascii	"P0_3_SCB0_I2C_SDA\000"
 12929      5F534342 
ARM GAS  C:\Users\stijn\AppData\Local\Temp\ccD3lQ9e.s 			page 366


 12929      305F4932 
 12929      435F5344 
 12929      4100
 12930              	.LASF226:
 12931 72f9 50305F33 		.ascii	"P0_3_AMUXA\000"
 12931      5F414D55 
 12931      584100
 12932              	.LASF227:
 12933 7304 50305F33 		.ascii	"P0_3_AMUXB\000"
 12933      5F414D55 
 12933      584200
 12934              	.LASF535:
 12935 730f 50335F31 		.ascii	"P3_1_AMUXB_DSI\000"
 12935      5F414D55 
 12935      58425F44 
 12935      534900
 12936              	.LASF1151:
 12937 731e 50385F33 		.ascii	"P8_3_LCD_COM57\000"
 12937      5F4C4344 
 12937      5F434F4D 
 12937      353700
 12938              	.LASF1699:
 12939 732d 5031325F 		.ascii	"P12_4_LCD_COM27\000"
 12939      345F4C43 
 12939      445F434F 
 12939      4D323700 
 12940              	.LASF1393:
 12941 733d 5031305F 		.ascii	"P10_2_AMUXA\000"
 12941      325F414D 
 12941      55584100 
 12942              	.LASF1394:
 12943 7349 5031305F 		.ascii	"P10_2_AMUXB\000"
 12943      325F414D 
 12943      55584200 
 12944              	.LASF775:
 12945 7355 50355F36 		.ascii	"P5_6_SCB5_SPI_SELECT3\000"
 12945      5F534342 
 12945      355F5350 
 12945      495F5345 
 12945      4C454354 
 12946              	.LASF1190:
 12947 736b 50385F36 		.ascii	"P8_6_AMUXA\000"
 12947      5F414D55 
 12947      584100
 12948              	.LASF946:
 12949 7376 50365F37 		.ascii	"P6_7_SCB6_SPI_SELECT0\000"
 12949      5F534342 
 12949      365F5350 
 12949      495F5345 
 12949      4C454354 
 12950              	.LASF755:
 12951 738c 50355F35 		.ascii	"P5_5_CSD_CSD_TX_N\000"
 12951      5F435344 
 12951      5F435344 
 12951      5F54585F 
 12951      4E00
 12952              	.LASF1364:
ARM GAS  C:\Users\stijn\AppData\Local\Temp\ccD3lQ9e.s 			page 367


 12953 739e 5031305F 		.ascii	"P10_0_LCD_SEG8\000"
 12953      305F4C43 
 12953      445F5345 
 12953      473800
 12954              	.LASF555:
 12955 73ad 50335F32 		.ascii	"P3_2_TCPWM0_LINE3\000"
 12955      5F544350 
 12955      574D305F 
 12955      4C494E45 
 12955      3300
 12956              	.LASF289:
 12957 73bf 50315F30 		.ascii	"P1_0_SCB7_I2C_SCL\000"
 12957      5F534342 
 12957      375F4932 
 12957      435F5343 
 12957      4C00
 12958              	.LASF64:
 12959 73d1 63707573 		.ascii	"cpussIpc0Irq\000"
 12959      73497063 
 12959      30497271 
 12959      00
 12960              	.LASF1474:
 12961 73de 5031305F 		.ascii	"P10_7_DSI_DSI\000"
 12961      375F4453 
 12961      495F4453 
 12961      4900
 12962              	.LASF1916:
 12963 73ec 76747269 		.ascii	"vtripSel\000"
 12963      7053656C 
 12963      00
 12964              	.LASF728:
 12965 73f5 50355F34 		.ascii	"P5_4_GPIO_DSI\000"
 12965      5F475049 
 12965      4F5F4453 
 12965      4900
 12966              	.LASF488:
 12967 7403 50325F36 		.ascii	"P2_6_CSD_CSD_TX\000"
 12967      5F435344 
 12967      5F435344 
 12967      5F545800 
 12968              	.LASF1857:
 12969 7413 5031335F 		.ascii	"P13_6_TCPWM0_LINE3\000"
 12969      365F5443 
 12969      50574D30 
 12969      5F4C494E 
 12969      453300
 12970              	.LASF1067:
 12971 7426 50375F36 		.ascii	"P7_6_BLESS_EXT_PA_LNA_CHIP_EN_OUT\000"
 12971      5F424C45 
 12971      53535F45 
 12971      58545F50 
 12971      415F4C4E 
 12972              	.LASF843:
 12973 7448 50365F32 		.ascii	"P6_2_CSD_CSD_TX\000"
 12973      5F435344 
 12973      5F435344 
 12973      5F545800 
ARM GAS  C:\Users\stijn\AppData\Local\Temp\ccD3lQ9e.s 			page 368


 12974              	.LASF1096:
 12975 7458 50385F30 		.ascii	"P8_0_CSD_CSD_TX\000"
 12975      5F435344 
 12975      5F435344 
 12975      5F545800 
 12976              	.LASF829:
 12977 7468 50365F31 		.ascii	"P6_1_SCB3_I2C_SDA\000"
 12977      5F534342 
 12977      335F4932 
 12977      435F5344 
 12977      4100
 12978              	.LASF530:
 12979 747a 50335F31 		.ascii	"P3_1_DSI_DSI\000"
 12979      5F445349 
 12979      5F445349 
 12979      00
 12980              	.LASF1306:
 12981 7487 50395F34 		.ascii	"P9_4_SCB2_SPI_SELECT1\000"
 12981      5F534342 
 12981      325F5350 
 12981      495F5345 
 12981      4C454354 
 12982              	.LASF1046:
 12983 749d 50375F35 		.ascii	"P7_5_CSD_CSD_TX_N\000"
 12983      5F435344 
 12983      5F435344 
 12983      5F54585F 
 12983      4E00
 12984              	.LASF85:
 12985 74af 666C6173 		.ascii	"flashCtlMainWs2Freq\000"
 12985      6843746C 
 12985      4D61696E 
 12985      57733246 
 12985      72657100 
 12986              	.LASF375:
 12987 74c3 50325F30 		.ascii	"P2_0_GPIO_DSI\000"
 12987      5F475049 
 12987      4F5F4453 
 12987      4900
 12988              	.LASF699:
 12989 74d1 50355F32 		.ascii	"P5_2_TCPWM0_LINE5\000"
 12989      5F544350 
 12989      574D305F 
 12989      4C494E45 
 12989      3500
 12990              	.LASF45:
 12991 74e3 70726F74 		.ascii	"protBase\000"
 12991      42617365 
 12991      00
 12992              	.LASF265:
 12993 74ec 50305F35 		.ascii	"P0_5_TCPWM1_LINE_COMPL2\000"
 12993      5F544350 
 12993      574D315F 
 12993      4C494E45 
 12993      5F434F4D 
 12994              	.LASF1677:
 12995 7504 5031325F 		.ascii	"P12_3_AMUXB_DSI\000"
ARM GAS  C:\Users\stijn\AppData\Local\Temp\ccD3lQ9e.s 			page 369


 12995      335F414D 
 12995      5558425F 
 12995      44534900 
 12996              	.LASF822:
 12997 7514 50365F31 		.ascii	"P6_1_TCPWM1_LINE_COMPL8\000"
 12997      5F544350 
 12997      574D315F 
 12997      4C494E45 
 12997      5F434F4D 
 12998              	.LASF688:
 12999 752c 50355F31 		.ascii	"P5_1_AUDIOSS_TX_SCK\000"
 12999      5F415544 
 12999      494F5353 
 12999      5F54585F 
 12999      53434B00 
 13000              	.LASF418:
 13001 7540 50325F32 		.ascii	"P2_2_AMUXA_DSI\000"
 13001      5F414D55 
 13001      58415F44 
 13001      534900
 13002              	.LASF1318:
 13003 754f 50395F35 		.ascii	"P9_5_CSD_CSD_TX_N\000"
 13003      5F435344 
 13003      5F435344 
 13003      5F54585F 
 13003      4E00
 13004              	.LASF651:
 13005 7561 50355F30 		.ascii	"P5_0_GPIO\000"
 13005      5F475049 
 13005      4F00
 13006              	.LASF127:
 13007 756b 63795F73 		.ascii	"cy_stc_device_t\000"
 13007      74635F64 
 13007      65766963 
 13007      655F7400 
 13008              	.LASF994:
 13009 757b 50375F32 		.ascii	"P7_2_TCPWM0_LINE5\000"
 13009      5F544350 
 13009      574D305F 
 13009      4C494E45 
 13009      3500
 13010              	.LASF880:
 13011 758d 50365F34 		.ascii	"P6_4_LCD_SEG42\000"
 13011      5F4C4344 
 13011      5F534547 
 13011      343200
 13012              	.LASF1453:
 13013 759c 5031305F 		.ascii	"P10_5_LCD_SEG13\000"
 13013      355F4C43 
 13013      445F5345 
 13013      47313300 
 13014              	.LASF129:
 13015 75ac 414D5558 		.ascii	"AMUX_SPLIT_CTL_0\000"
 13015      5F53504C 
 13015      49545F43 
 13015      544C5F30 
 13015      00
ARM GAS  C:\Users\stijn\AppData\Local\Temp\ccD3lQ9e.s 			page 370


 13016              	.LASF130:
 13017 75bd 414D5558 		.ascii	"AMUX_SPLIT_CTL_1\000"
 13017      5F53504C 
 13017      49545F43 
 13017      544C5F31 
 13017      00
 13018              	.LASF132:
 13019 75ce 414D5558 		.ascii	"AMUX_SPLIT_CTL_2\000"
 13019      5F53504C 
 13019      49545F43 
 13019      544C5F32 
 13019      00
 13020              	.LASF133:
 13021 75df 414D5558 		.ascii	"AMUX_SPLIT_CTL_3\000"
 13021      5F53504C 
 13021      49545F43 
 13021      544C5F33 
 13021      00
 13022              	.LASF134:
 13023 75f0 414D5558 		.ascii	"AMUX_SPLIT_CTL_4\000"
 13023      5F53504C 
 13023      49545F43 
 13023      544C5F34 
 13023      00
 13024              	.LASF135:
 13025 7601 414D5558 		.ascii	"AMUX_SPLIT_CTL_5\000"
 13025      5F53504C 
 13025      49545F43 
 13025      544C5F35 
 13025      00
 13026              	.LASF136:
 13027 7612 414D5558 		.ascii	"AMUX_SPLIT_CTL_6\000"
 13027      5F53504C 
 13027      49545F43 
 13027      544C5F36 
 13027      00
 13028              	.LASF131:
 13029 7623 414D5558 		.ascii	"AMUX_SPLIT_CTL_7\000"
 13029      5F53504C 
 13029      49545F43 
 13029      544C5F37 
 13029      00
 13030              	.LASF137:
 13031 7634 414D5558 		.ascii	"AMUX_SPLIT_CTL_8\000"
 13031      5F53504C 
 13031      49545F43 
 13031      544C5F38 
 13031      00
 13032              	.LASF199:
 13033 7645 50305F31 		.ascii	"P0_1_CSD_CSD_TX_N\000"
 13033      5F435344 
 13033      5F435344 
 13033      5F54585F 
 13033      4E00
 13034              	.LASF1267:
 13035 7657 50395F32 		.ascii	"P9_2_LCD_COM2\000"
 13035      5F4C4344 
ARM GAS  C:\Users\stijn\AppData\Local\Temp\ccD3lQ9e.s 			page 371


 13035      5F434F4D 
 13035      3200
 13036              	.LASF1315:
 13037 7665 50395F35 		.ascii	"P9_5_TCPWM0_LINE_COMPL7\000"
 13037      5F544350 
 13037      574D305F 
 13037      4C494E45 
 13037      5F434F4D 
 13038              	.LASF1451:
 13039 767d 5031305F 		.ascii	"P10_5_CSD_CSD_TX_N\000"
 13039      355F4353 
 13039      445F4353 
 13039      445F5458 
 13039      5F4E00
 13040              	.LASF1786:
 13041 7690 5031335F 		.ascii	"P13_1_PERI_TR_IO_INPUT27\000"
 13041      315F5045 
 13041      52495F54 
 13041      525F494F 
 13041      5F494E50 
 13042              	.LASF427:
 13043 76a9 50325F32 		.ascii	"P2_2_SCB1_SPI_CLK\000"
 13043      5F534342 
 13043      315F5350 
 13043      495F434C 
 13043      4B00
 13044              	.LASF277:
 13045 76bb 50315F30 		.ascii	"P1_0_DSI_GPIO\000"
 13045      5F445349 
 13045      5F475049 
 13045      4F00
 13046              	.LASF1263:
 13047 76c9 50395F32 		.ascii	"P9_2_TCPWM0_LINE5\000"
 13047      5F544350 
 13047      574D305F 
 13047      4C494E45 
 13047      3500
 13048              	.LASF359:
 13049 76db 50315F35 		.ascii	"P1_5_DSI_DSI\000"
 13049      5F445349 
 13049      5F445349 
 13049      00
 13050              	.LASF1770:
 13051 76e8 5031335F 		.ascii	"P13_1_GPIO_DSI\000"
 13051      315F4750 
 13051      494F5F44 
 13051      534900
 13052              	.LASF939:
 13053 76f7 50365F37 		.ascii	"P6_7_TCPWM0_LINE_COMPL3\000"
 13053      5F544350 
 13053      574D305F 
 13053      4C494E45 
 13053      5F434F4D 
 13054              	.LASF183:
 13055 770f 50305F30 		.ascii	"P0_0_LCD_COM0\000"
 13055      5F4C4344 
 13055      5F434F4D 
ARM GAS  C:\Users\stijn\AppData\Local\Temp\ccD3lQ9e.s 			page 372


 13055      3000
 13056              	.LASF884:
 13057 771d 50365F34 		.ascii	"P6_4_SCB6_SPI_MOSI\000"
 13057      5F534342 
 13057      365F5350 
 13057      495F4D4F 
 13057      534900
 13058              	.LASF972:
 13059 7730 50375F31 		.ascii	"P7_1_AMUXA\000"
 13059      5F414D55 
 13059      584100
 13060              	.LASF973:
 13061 773b 50375F31 		.ascii	"P7_1_AMUXB\000"
 13061      5F414D55 
 13061      584200
 13062              	.LASF411:
 13063 7746 50325F31 		.ascii	"P2_1_BLESS_MXD_DPSLP_RET_LDO_OL_HV\000"
 13063      5F424C45 
 13063      53535F4D 
 13063      58445F44 
 13063      50534C50 
 13064              	.LASF693:
 13065 7769 50355F32 		.ascii	"P5_2_DSI_DSI\000"
 13065      5F445349 
 13065      5F445349 
 13065      00
 13066              	.LASF404:
 13067 7776 50325F31 		.ascii	"P2_1_CSD_CSD_TX_N\000"
 13067      5F435344 
 13067      5F435344 
 13067      5F54585F 
 13067      4E00
 13068              	.LASF1491:
 13069 7788 5031315F 		.ascii	"P11_0_AMUXB\000"
 13069      305F414D 
 13069      55584200 
 13070              	.LASF1575:
 13071 7794 5031315F 		.ascii	"P11_4_PERI_TR_IO_OUTPUT1\000"
 13071      345F5045 
 13071      52495F54 
 13071      525F494F 
 13071      5F4F5554 
 13072              	.LASF1400:
 13073 77ad 5031305F 		.ascii	"P10_2_CSD_CSD_TX_N\000"
 13073      325F4353 
 13073      445F4353 
 13073      445F5458 
 13073      5F4E00
 13074              	.LASF1565:
 13075 77c0 5031315F 		.ascii	"P11_4_AMUXA_DSI\000"
 13075      345F414D 
 13075      5558415F 
 13075      44534900 
 13076              	.LASF495:
 13077 77d0 50325F37 		.ascii	"P2_7_GPIO_DSI\000"
 13077      5F475049 
 13077      4F5F4453 
ARM GAS  C:\Users\stijn\AppData\Local\Temp\ccD3lQ9e.s 			page 373


 13077      4900
 13078              	.LASF1489:
 13079 77de 5031315F 		.ascii	"P11_0_DSI_GPIO\000"
 13079      305F4453 
 13079      495F4750 
 13079      494F00
 13080              	.LASF1201:
 13081 77ed 50385F37 		.ascii	"P8_7_GPIO\000"
 13081      5F475049 
 13081      4F00
 13082              	.LASF597:
 13083 77f7 50335F35 		.ascii	"P3_5_GPIO\000"
 13083      5F475049 
 13083      4F00
 13084              	.LASF879:
 13085 7801 50365F34 		.ascii	"P6_4_LCD_COM42\000"
 13085      5F4C4344 
 13085      5F434F4D 
 13085      343200
 13086              	.LASF1714:
 13087 7810 5031325F 		.ascii	"P12_5_TCPWM1_LINE_COMPL6\000"
 13087      355F5443 
 13087      50574D31 
 13087      5F4C494E 
 13087      455F434F 
 13088              	.LASF1452:
 13089 7829 5031305F 		.ascii	"P10_5_LCD_COM13\000"
 13089      355F4C43 
 13089      445F434F 
 13089      4D313300 
 13090              	.LASF317:
 13091 7839 50315F32 		.ascii	"P1_2_AMUXB_DSI\000"
 13091      5F414D55 
 13091      58425F44 
 13091      534900
 13092              	.LASF725:
 13093 7848 50355F33 		.ascii	"P5_3_AUDIOSS_TX_SDO\000"
 13093      5F415544 
 13093      494F5353 
 13093      5F54585F 
 13093      53444F00 
 13094              	.LASF22:
 13095 785c 4F55545F 		.ascii	"OUT_SET\000"
 13095      53455400 
 13096              	.LASF1363:
 13097 7864 5031305F 		.ascii	"P10_0_LCD_COM8\000"
 13097      305F4C43 
 13097      445F434F 
 13097      4D3800
 13098              	.LASF460:
 13099 7873 50325F34 		.ascii	"P2_4_SCB1_SPI_SELECT1\000"
 13099      5F534342 
 13099      315F5350 
 13099      495F5345 
 13099      4C454354 
 13100              	.LASF713:
 13101 7889 50355F33 		.ascii	"P5_3_AMUXA\000"
ARM GAS  C:\Users\stijn\AppData\Local\Temp\ccD3lQ9e.s 			page 374


 13101      5F414D55 
 13101      584100
 13102              	.LASF714:
 13103 7894 50355F33 		.ascii	"P5_3_AMUXB\000"
 13103      5F414D55 
 13103      584200
 13104              	.LASF1634:
 13105 789f 5031325F 		.ascii	"P12_1_GPIO\000"
 13105      315F4750 
 13105      494F00
 13106              	.LASF643:
 13107 78aa 50345F31 		.ascii	"P4_1_CSD_CSD_TX_N\000"
 13107      5F435344 
 13107      5F435344 
 13107      5F54585F 
 13107      4E00
 13108              	.LASF611:
 13109 78bc 50335F35 		.ascii	"P3_5_SCB2_SPI_SELECT2\000"
 13109      5F534342 
 13109      325F5350 
 13109      495F5345 
 13109      4C454354 
 13110              	.LASF1323:
 13111 78d2 50395F36 		.ascii	"P9_6_GPIO_DSI\000"
 13111      5F475049 
 13111      4F5F4453 
 13111      4900
 13112              	.LASF301:
 13113 78e0 50315F31 		.ascii	"P1_1_TCPWM1_LINE_COMPL3\000"
 13113      5F544350 
 13113      574D315F 
 13113      4C494E45 
 13113      5F434F4D 
 13114              	.LASF733:
 13115 78f8 50355F34 		.ascii	"P5_4_AMUXA_DSI\000"
 13115      5F414D55 
 13115      58415F44 
 13115      534900
 13116              	.LASF1397:
 13117 7907 5031305F 		.ascii	"P10_2_TCPWM0_LINE7\000"
 13117      325F5443 
 13117      50574D30 
 13117      5F4C494E 
 13117      453700
 13118              	.LASF373:
 13119 791a 55534244 		.ascii	"USBDP_GPIO\000"
 13119      505F4750 
 13119      494F00
 13120              	.LASF1022:
 13121 7925 50375F34 		.ascii	"P7_4_AMUXA\000"
 13121      5F414D55 
 13121      584100
 13122              	.LASF1314:
 13123 7930 50395F35 		.ascii	"P9_5_AMUXB_DSI\000"
 13123      5F414D55 
 13123      58425F44 
 13123      534900
ARM GAS  C:\Users\stijn\AppData\Local\Temp\ccD3lQ9e.s 			page 375


 13124              	.LASF1621:
 13125 793f 5031325F 		.ascii	"P12_0_AMUXA_DSI\000"
 13125      305F414D 
 13125      5558415F 
 13125      44534900 
 13126              	.LASF834:
 13127 794f 50365F32 		.ascii	"P6_2_GPIO_DSI\000"
 13127      5F475049 
 13127      4F5F4453 
 13127      4900
 13128              	.LASF824:
 13129 795d 50365F31 		.ascii	"P6_1_CSD_CSD_TX_N\000"
 13129      5F435344 
 13129      5F435344 
 13129      5F54585F 
 13129      4E00
 13130              	.LASF18:
 13131 796f 696E7433 		.ascii	"int32_t\000"
 13131      325F7400 
 13132              	.LASF827:
 13133 7977 50365F31 		.ascii	"P6_1_SCB8_I2C_SDA\000"
 13133      5F534342 
 13133      385F4932 
 13133      435F5344 
 13133      4100
 13134              	.LASF428:
 13135 7989 50325F32 		.ascii	"P2_2_BLESS_MXD_DPSLP_BUCK_EN\000"
 13135      5F424C45 
 13135      53535F4D 
 13135      58445F44 
 13135      50534C50 
 13136              	.LASF1430:
 13137 79a6 5031305F 		.ascii	"P10_4_AMUXB_DSI\000"
 13137      345F414D 
 13137      5558425F 
 13137      44534900 
 13138              	.LASF1902:
 13139 79b6 63666753 		.ascii	"cfgSIO\000"
 13139      494F00
 13140              	.LASF1661:
 13141 79bd 5031325F 		.ascii	"P12_2_TCPWM0_LINE5\000"
 13141      325F5443 
 13141      50574D30 
 13141      5F4C494E 
 13141      453500
 13142              	.LASF885:
 13143 79d0 50365F34 		.ascii	"P6_4_PERI_TR_IO_INPUT12\000"
 13143      5F504552 
 13143      495F5452 
 13143      5F494F5F 
 13143      494E5055 
 13144              	.LASF1785:
 13145 79e8 5031335F 		.ascii	"P13_1_SCB6_SPI_MISO\000"
 13145      315F5343 
 13145      42365F53 
 13145      50495F4D 
 13145      49534F00 
ARM GAS  C:\Users\stijn\AppData\Local\Temp\ccD3lQ9e.s 			page 376


 13146              	.LASF1292:
 13147 79fc 50395F34 		.ascii	"P9_4_GPIO\000"
 13147      5F475049 
 13147      4F00
 13148              	.LASF228:
 13149 7a06 50305F33 		.ascii	"P0_3_AMUXA_DSI\000"
 13149      5F414D55 
 13149      58415F44 
 13149      534900
 13150              	.LASF1115:
 13151 7a15 50385F31 		.ascii	"P8_1_CSD_CSD_TX_N\000"
 13151      5F435344 
 13151      5F435344 
 13151      5F54585F 
 13151      4E00
 13152              	.LASF601:
 13153 7a27 50335F35 		.ascii	"P3_5_AMUXA\000"
 13153      5F414D55 
 13153      584100
 13154              	.LASF602:
 13155 7a32 50335F35 		.ascii	"P3_5_AMUXB\000"
 13155      5F414D55 
 13155      584200
 13156              	.LASF1609:
 13157 7a3d 5031315F 		.ascii	"P11_7_DSI_GPIO\000"
 13157      375F4453 
 13157      495F4750 
 13157      494F00
 13158              	.LASF108:
 13159 7a4c 6770696F 		.ascii	"gpioPrtCfgInOffset\000"
 13159      50727443 
 13159      6667496E 
 13159      4F666673 
 13159      657400
 13160              	.LASF1439:
 13161 7a5f 5031305F 		.ascii	"P10_4_AUDIOSS0_PDM_CLK\000"
 13161      345F4155 
 13161      44494F53 
 13161      53305F50 
 13161      444D5F43 
 13162              	.LASF1824:
 13163 7a76 5031335F 		.ascii	"P13_4_AMUXB\000"
 13163      345F414D 
 13163      55584200 
 13164              	.LASF1189:
 13165 7a82 50385F36 		.ascii	"P8_6_DSI_GPIO\000"
 13165      5F445349 
 13165      5F475049 
 13165      4F00
 13166              	.LASF336:
 13167 7a90 50315F33 		.ascii	"P1_3_CSD_CSD_TX\000"
 13167      5F435344 
 13167      5F435344 
 13167      5F545800 
 13168              	.LASF1273:
 13169 7aa0 50395F33 		.ascii	"P9_3_GPIO\000"
 13169      5F475049 
ARM GAS  C:\Users\stijn\AppData\Local\Temp\ccD3lQ9e.s 			page 377


 13169      4F00
 13170              	.LASF632:
 13171 7aaa 50345F31 		.ascii	"P4_1_GPIO\000"
 13171      5F475049 
 13171      4F00
 13172              	.LASF538:
 13173 7ab4 50335F31 		.ascii	"P3_1_CSD_CSD_TX\000"
 13173      5F435344 
 13173      5F435344 
 13173      5F545800 
 13174              	.LASF694:
 13175 7ac4 50355F32 		.ascii	"P5_2_DSI_GPIO\000"
 13175      5F445349 
 13175      5F475049 
 13175      4F00
 13176              	.LASF1192:
 13177 7ad2 50385F36 		.ascii	"P8_6_AMUXA_DSI\000"
 13177      5F414D55 
 13177      58415F44 
 13177      534900
 13178              	.LASF838:
 13179 7ae1 50365F32 		.ascii	"P6_2_AMUXB\000"
 13179      5F414D55 
 13179      584200
 13180              	.LASF389:
 13181 7aec 50325F30 		.ascii	"P2_0_SCB1_I2C_SCL\000"
 13181      5F534342 
 13181      315F4932 
 13181      435F5343 
 13181      4C00
 13182              	.LASF491:
 13183 7afe 50325F36 		.ascii	"P2_6_LCD_SEG18\000"
 13183      5F4C4344 
 13183      5F534547 
 13183      313800
 13184              	.LASF1586:
 13185 7b0d 5031315F 		.ascii	"P11_5_CSD_CSD_TX\000"
 13185      355F4353 
 13185      445F4353 
 13185      445F5458 
 13185      00
 13186              	.LASF0:
 13187 7b1e 756E7369 		.ascii	"unsigned int\000"
 13187      676E6564 
 13187      20696E74 
 13187      00
 13188              	.LASF1165:
 13189 7b2b 50385F34 		.ascii	"P8_4_TCPWM1_LINE18\000"
 13189      5F544350 
 13189      574D315F 
 13189      4C494E45 
 13189      313800
 13190              	.LASF142:
 13191 7b3e 4853494F 		.ascii	"HSIOM_SEL_DSI_GPIO\000"
 13191      4D5F5345 
 13191      4C5F4453 
 13191      495F4750 
ARM GAS  C:\Users\stijn\AppData\Local\Temp\ccD3lQ9e.s 			page 378


 13191      494F00
 13192              	.LASF1615:
 13193 7b51 5031325F 		.ascii	"P12_0_GPIO\000"
 13193      305F4750 
 13193      494F00
 13194              	.LASF1813:
 13195 7b5c 5031335F 		.ascii	"P13_3_CSD_CSD_TX\000"
 13195      335F4353 
 13195      445F4353 
 13195      445F5458 
 13195      00
 13196              	.LASF1456:
 13197 7b6d 5031305F 		.ascii	"P10_5_AUDIOSS0_PDM_DATA\000"
 13197      355F4155 
 13197      44494F53 
 13197      53305F50 
 13197      444D5F44 
 13198              	.LASF857:
 13199 7b85 50365F33 		.ascii	"P6_3_AMUXB_DSI\000"
 13199      5F414D55 
 13199      58425F44 
 13199      534900
 13200              	.LASF754:
 13201 7b94 50355F35 		.ascii	"P5_5_CSD_CSD_TX\000"
 13201      5F435344 
 13201      5F435344 
 13201      5F545800 
 13202              	.LASF708:
 13203 7ba4 50355F32 		.ascii	"P5_2_AUDIOSS0_TX_WS\000"
 13203      5F415544 
 13203      494F5353 
 13203      305F5458 
 13203      5F575300 
 13204              		.ident	"GCC: (GNU Tools for ARM Embedded Processors) 5.4.1 20160609 (release) [ARM/embedded-5-bran
