ARM GAS  C:\Users\stijn\AppData\Local\Temp\ccD3lQ9e.s 			page 1


   1              		.syntax unified
   2              		.cpu cortex-m4
   3              		.eabi_attribute 27, 1
   4              		.fpu fpv4-sp-d16
   5              		.eabi_attribute 20, 1
   6              		.eabi_attribute 21, 1
   7              		.eabi_attribute 23, 3
   8              		.eabi_attribute 24, 1
   9              		.eabi_attribute 25, 1
  10              		.eabi_attribute 26, 1
  11              		.eabi_attribute 30, 6
  12              		.eabi_attribute 34, 1
  13              		.eabi_attribute 18, 4
  14              		.thumb
  15              		.syntax unified
  16              		.file	"cy_gpio.c"
  17              		.text
  18              	.Ltext0:
  19              		.cfi_sections	.debug_frame
  20              		.section	.rodata
  21              		.align	2
  22              	.LC0:
  23 0000 47656E65 		.ascii	"Generated_Source\\PSoC6\\pdl\\drivers\\peripheral\\"
  23      72617465 
  23      645F536F 
  23      75726365 
  23      5C50536F 
  24 002e 6770696F 		.ascii	"gpio\\cy_gpio.h\000"
  24      5C63795F 
  24      6770696F 
  24      2E6800
  25              		.section	.text.Cy_GPIO_SetHSIOM,"ax",%progbits
  26              		.align	2
  27              		.thumb
  28              		.thumb_func
  29              		.type	Cy_GPIO_SetHSIOM, %function
  30              	Cy_GPIO_SetHSIOM:
  31              	.LFB132:
  32              		.file 1 "Generated_Source\\PSoC6\\pdl\\drivers\\peripheral\\gpio\\cy_gpio.h"
   1:Generated_Source\PSoC6\pdl\drivers\peripheral\gpio/cy_gpio.h **** /***************************************************************************//**
   2:Generated_Source\PSoC6\pdl\drivers\peripheral\gpio/cy_gpio.h **** * \file cy_gpio.h
   3:Generated_Source\PSoC6\pdl\drivers\peripheral\gpio/cy_gpio.h **** * \version 1.20
   4:Generated_Source\PSoC6\pdl\drivers\peripheral\gpio/cy_gpio.h **** *
   5:Generated_Source\PSoC6\pdl\drivers\peripheral\gpio/cy_gpio.h **** * Provides an API declaration of the GPIO driver
   6:Generated_Source\PSoC6\pdl\drivers\peripheral\gpio/cy_gpio.h **** *
   7:Generated_Source\PSoC6\pdl\drivers\peripheral\gpio/cy_gpio.h **** ********************************************************************************
   8:Generated_Source\PSoC6\pdl\drivers\peripheral\gpio/cy_gpio.h **** * \copyright
   9:Generated_Source\PSoC6\pdl\drivers\peripheral\gpio/cy_gpio.h **** * Copyright 2016-2018, Cypress Semiconductor Corporation. All rights reserved.
  10:Generated_Source\PSoC6\pdl\drivers\peripheral\gpio/cy_gpio.h **** * You may use this file only in accordance with the license, terms, conditions,
  11:Generated_Source\PSoC6\pdl\drivers\peripheral\gpio/cy_gpio.h **** * disclaimers, and limitations in the end user license agreement accompanying
  12:Generated_Source\PSoC6\pdl\drivers\peripheral\gpio/cy_gpio.h **** * the software package with which this file was provided.
  13:Generated_Source\PSoC6\pdl\drivers\peripheral\gpio/cy_gpio.h **** *******************************************************************************/
  14:Generated_Source\PSoC6\pdl\drivers\peripheral\gpio/cy_gpio.h **** 
  15:Generated_Source\PSoC6\pdl\drivers\peripheral\gpio/cy_gpio.h **** /**
  16:Generated_Source\PSoC6\pdl\drivers\peripheral\gpio/cy_gpio.h **** * \addtogroup group_gpio
  17:Generated_Source\PSoC6\pdl\drivers\peripheral\gpio/cy_gpio.h **** * \{
  18:Generated_Source\PSoC6\pdl\drivers\peripheral\gpio/cy_gpio.h **** * The GPIO driver provides an API to configure and access device Input/Output pins.
ARM GAS  C:\Users\stijn\AppData\Local\Temp\ccD3lQ9e.s 			page 2


  19:Generated_Source\PSoC6\pdl\drivers\peripheral\gpio/cy_gpio.h **** *
  20:Generated_Source\PSoC6\pdl\drivers\peripheral\gpio/cy_gpio.h **** * The functions and other declarations used in this driver are in cy_gpio.h. 
  21:Generated_Source\PSoC6\pdl\drivers\peripheral\gpio/cy_gpio.h **** * You can include cy_pdl.h (ModusToolbox only) to get access to all functions 
  22:Generated_Source\PSoC6\pdl\drivers\peripheral\gpio/cy_gpio.h **** * and declarations in the PDL.
  23:Generated_Source\PSoC6\pdl\drivers\peripheral\gpio/cy_gpio.h **** *
  24:Generated_Source\PSoC6\pdl\drivers\peripheral\gpio/cy_gpio.h **** * IO pins include all general purpose types such as GPIO, SIO, HSIO, AUXIO, and
  25:Generated_Source\PSoC6\pdl\drivers\peripheral\gpio/cy_gpio.h **** * their variants.
  26:Generated_Source\PSoC6\pdl\drivers\peripheral\gpio/cy_gpio.h **** *
  27:Generated_Source\PSoC6\pdl\drivers\peripheral\gpio/cy_gpio.h **** * Initialization can be performed either at the port level or by configuring the
  28:Generated_Source\PSoC6\pdl\drivers\peripheral\gpio/cy_gpio.h **** * individual pins. For efficient use of code space, port
  29:Generated_Source\PSoC6\pdl\drivers\peripheral\gpio/cy_gpio.h **** * configuration should be used in the field. Refer to the product device header files 
  30:Generated_Source\PSoC6\pdl\drivers\peripheral\gpio/cy_gpio.h **** * for the list of supported ports and pins.
  31:Generated_Source\PSoC6\pdl\drivers\peripheral\gpio/cy_gpio.h **** * 
  32:Generated_Source\PSoC6\pdl\drivers\peripheral\gpio/cy_gpio.h **** * - Single pin configuration is performed by using \ref Cy_GPIO_Pin_FastInit 
  33:Generated_Source\PSoC6\pdl\drivers\peripheral\gpio/cy_gpio.h **** *   (provide specific values) or \ref Cy_GPIO_Pin_Init (provide a filled
  34:Generated_Source\PSoC6\pdl\drivers\peripheral\gpio/cy_gpio.h **** *   cy_stc_gpio_pin_config_t structure).
  35:Generated_Source\PSoC6\pdl\drivers\peripheral\gpio/cy_gpio.h **** * - An entire port can be configured using \ref Cy_GPIO_Port_Init. Provide a filled 
  36:Generated_Source\PSoC6\pdl\drivers\peripheral\gpio/cy_gpio.h **** *   cy_stc_gpio_prt_config_t structure. The values in the structure are 
  37:Generated_Source\PSoC6\pdl\drivers\peripheral\gpio/cy_gpio.h **** *   bitfields representing the desired value for each pin in the port.
  38:Generated_Source\PSoC6\pdl\drivers\peripheral\gpio/cy_gpio.h **** * - Pin configuration and management is based on the port address and pin number.
  39:Generated_Source\PSoC6\pdl\drivers\peripheral\gpio/cy_gpio.h **** *   \ref Cy_GPIO_PortToAddr function can optionally be used to calculate the port
  40:Generated_Source\PSoC6\pdl\drivers\peripheral\gpio/cy_gpio.h **** *   address from the port number at run-time.
  41:Generated_Source\PSoC6\pdl\drivers\peripheral\gpio/cy_gpio.h **** *
  42:Generated_Source\PSoC6\pdl\drivers\peripheral\gpio/cy_gpio.h **** * Once the pin/port initialization is complete, each pin can be accessed by 
  43:Generated_Source\PSoC6\pdl\drivers\peripheral\gpio/cy_gpio.h **** * specifying the port (GPIO_PRT_Type) and the pin (0-7) in the provided API 
  44:Generated_Source\PSoC6\pdl\drivers\peripheral\gpio/cy_gpio.h **** * functions.
  45:Generated_Source\PSoC6\pdl\drivers\peripheral\gpio/cy_gpio.h **** *
  46:Generated_Source\PSoC6\pdl\drivers\peripheral\gpio/cy_gpio.h **** * \section group_gpio_configuration Configuration Considerations
  47:Generated_Source\PSoC6\pdl\drivers\peripheral\gpio/cy_gpio.h **** *
  48:Generated_Source\PSoC6\pdl\drivers\peripheral\gpio/cy_gpio.h **** * 1. Pin multiplexing is controlled through the High-Speed IO Matrix (HSIOM) selection.
  49:Generated_Source\PSoC6\pdl\drivers\peripheral\gpio/cy_gpio.h **** *    This allows the pin to connect to signal sources/sinks throughout the device,
  50:Generated_Source\PSoC6\pdl\drivers\peripheral\gpio/cy_gpio.h **** *    as defined by the pin HSIOM selection options (en_hsiom_sel_t).
  51:Generated_Source\PSoC6\pdl\drivers\peripheral\gpio/cy_gpio.h **** * 2. All pins are initialized to High-Z drive mode with HSIOM connected to CPU (SW
  52:Generated_Source\PSoC6\pdl\drivers\peripheral\gpio/cy_gpio.h **** *    control digital pin only) at Power-On-Reset(POR).
  53:Generated_Source\PSoC6\pdl\drivers\peripheral\gpio/cy_gpio.h **** * 3. Some API functions perform read-modify-write operations on shared port
  54:Generated_Source\PSoC6\pdl\drivers\peripheral\gpio/cy_gpio.h **** *    registers. These functions are not thread safe and care must be taken when
  55:Generated_Source\PSoC6\pdl\drivers\peripheral\gpio/cy_gpio.h **** *    called by the application.
  56:Generated_Source\PSoC6\pdl\drivers\peripheral\gpio/cy_gpio.h **** * 4. Digital input buffer provides a high-impedance buffer for the external 
  57:Generated_Source\PSoC6\pdl\drivers\peripheral\gpio/cy_gpio.h **** *    digital input. The input buffer is connected to the HSIOM for routing to 
  58:Generated_Source\PSoC6\pdl\drivers\peripheral\gpio/cy_gpio.h **** *    the CPU port registers and selected peripheral. Enabling the input 
  59:Generated_Source\PSoC6\pdl\drivers\peripheral\gpio/cy_gpio.h **** *    buffer provides possibility to read the pin state via the CPU.
  60:Generated_Source\PSoC6\pdl\drivers\peripheral\gpio/cy_gpio.h **** *    If pin is connected to an analog signal, the input buffer should be 
  61:Generated_Source\PSoC6\pdl\drivers\peripheral\gpio/cy_gpio.h **** *    disabled to avoid crowbar currents. For more information refer to device 
  62:Generated_Source\PSoC6\pdl\drivers\peripheral\gpio/cy_gpio.h **** *    TRM and the device datasheet.
  63:Generated_Source\PSoC6\pdl\drivers\peripheral\gpio/cy_gpio.h **** *
  64:Generated_Source\PSoC6\pdl\drivers\peripheral\gpio/cy_gpio.h **** * Multiple pins on a port can be updated using direct port register writes with an
  65:Generated_Source\PSoC6\pdl\drivers\peripheral\gpio/cy_gpio.h **** * appropriate port mask. An example is shown below, highlighting the different ways of 
  66:Generated_Source\PSoC6\pdl\drivers\peripheral\gpio/cy_gpio.h **** * configuring Port 1 pins using:
  67:Generated_Source\PSoC6\pdl\drivers\peripheral\gpio/cy_gpio.h **** * 
  68:Generated_Source\PSoC6\pdl\drivers\peripheral\gpio/cy_gpio.h **** * - Port output data register
  69:Generated_Source\PSoC6\pdl\drivers\peripheral\gpio/cy_gpio.h **** * - Port output data set register
  70:Generated_Source\PSoC6\pdl\drivers\peripheral\gpio/cy_gpio.h **** * - Port output data clear register
  71:Generated_Source\PSoC6\pdl\drivers\peripheral\gpio/cy_gpio.h **** *
  72:Generated_Source\PSoC6\pdl\drivers\peripheral\gpio/cy_gpio.h **** * \snippet gpio/gpio_v1_10_sut_01.cydsn/main_cm4.c Cy_GPIO_Snippet
  73:Generated_Source\PSoC6\pdl\drivers\peripheral\gpio/cy_gpio.h **** *
  74:Generated_Source\PSoC6\pdl\drivers\peripheral\gpio/cy_gpio.h **** * \section group_gpio_more_information More Information
  75:Generated_Source\PSoC6\pdl\drivers\peripheral\gpio/cy_gpio.h **** *
ARM GAS  C:\Users\stijn\AppData\Local\Temp\ccD3lQ9e.s 			page 3


  76:Generated_Source\PSoC6\pdl\drivers\peripheral\gpio/cy_gpio.h **** * Refer to the technical reference manual (TRM) and the device datasheet.
  77:Generated_Source\PSoC6\pdl\drivers\peripheral\gpio/cy_gpio.h **** *
  78:Generated_Source\PSoC6\pdl\drivers\peripheral\gpio/cy_gpio.h **** * \section group_gpio_MISRA MISRA-C Compliance
  79:Generated_Source\PSoC6\pdl\drivers\peripheral\gpio/cy_gpio.h **** * The GPIO driver has the following specific deviations:
  80:Generated_Source\PSoC6\pdl\drivers\peripheral\gpio/cy_gpio.h **** *
  81:Generated_Source\PSoC6\pdl\drivers\peripheral\gpio/cy_gpio.h **** * <table class="doxtable">
  82:Generated_Source\PSoC6\pdl\drivers\peripheral\gpio/cy_gpio.h **** *   <tr>
  83:Generated_Source\PSoC6\pdl\drivers\peripheral\gpio/cy_gpio.h **** *     <th>MISRA Rule</th>
  84:Generated_Source\PSoC6\pdl\drivers\peripheral\gpio/cy_gpio.h **** *     <th>Rule Class (Required/Advisory)</th>
  85:Generated_Source\PSoC6\pdl\drivers\peripheral\gpio/cy_gpio.h **** *     <th>Rule Description</th>
  86:Generated_Source\PSoC6\pdl\drivers\peripheral\gpio/cy_gpio.h **** *     <th>Description of Deviation(s)</th>
  87:Generated_Source\PSoC6\pdl\drivers\peripheral\gpio/cy_gpio.h **** *   </tr>
  88:Generated_Source\PSoC6\pdl\drivers\peripheral\gpio/cy_gpio.h **** *   <tr>
  89:Generated_Source\PSoC6\pdl\drivers\peripheral\gpio/cy_gpio.h **** *     <td>11.4</td>
  90:Generated_Source\PSoC6\pdl\drivers\peripheral\gpio/cy_gpio.h **** *     <td>A</td>
  91:Generated_Source\PSoC6\pdl\drivers\peripheral\gpio/cy_gpio.h **** *     <td>A cast should not be performed between a pointer to object type and
  92:Generated_Source\PSoC6\pdl\drivers\peripheral\gpio/cy_gpio.h **** *         a different pointer to object type.</td>
  93:Generated_Source\PSoC6\pdl\drivers\peripheral\gpio/cy_gpio.h **** *     <td> This code is safe because the elements of both GPIO_PRT_V1_Type and GPIO_PRT_V2_Type 
  94:Generated_Source\PSoC6\pdl\drivers\peripheral\gpio/cy_gpio.h **** *          types have identical alignment.</td>
  95:Generated_Source\PSoC6\pdl\drivers\peripheral\gpio/cy_gpio.h **** *   </tr>
  96:Generated_Source\PSoC6\pdl\drivers\peripheral\gpio/cy_gpio.h **** *   <tr>
  97:Generated_Source\PSoC6\pdl\drivers\peripheral\gpio/cy_gpio.h **** *     <td>16.7</td>
  98:Generated_Source\PSoC6\pdl\drivers\peripheral\gpio/cy_gpio.h **** *     <td>A</td>
  99:Generated_Source\PSoC6\pdl\drivers\peripheral\gpio/cy_gpio.h **** *     <td>A pointer parameter in a function prototype should be declared as pointer 
 100:Generated_Source\PSoC6\pdl\drivers\peripheral\gpio/cy_gpio.h **** *         to const if the pointer is not used to modify the addressed object.</td>
 101:Generated_Source\PSoC6\pdl\drivers\peripheral\gpio/cy_gpio.h **** *     <td>The objects pointed to by the base addresses of the GPIO port are not always modified.
 102:Generated_Source\PSoC6\pdl\drivers\peripheral\gpio/cy_gpio.h **** *         While a const qualifier can be used in select scenarios, it brings little benefit
 103:Generated_Source\PSoC6\pdl\drivers\peripheral\gpio/cy_gpio.h **** *         in adding this to the affected functions. </td>
 104:Generated_Source\PSoC6\pdl\drivers\peripheral\gpio/cy_gpio.h **** *   </tr>
 105:Generated_Source\PSoC6\pdl\drivers\peripheral\gpio/cy_gpio.h **** * </table>
 106:Generated_Source\PSoC6\pdl\drivers\peripheral\gpio/cy_gpio.h **** *
 107:Generated_Source\PSoC6\pdl\drivers\peripheral\gpio/cy_gpio.h **** * \section group_gpio_changelog Changelog
 108:Generated_Source\PSoC6\pdl\drivers\peripheral\gpio/cy_gpio.h **** * <table class="doxtable">
 109:Generated_Source\PSoC6\pdl\drivers\peripheral\gpio/cy_gpio.h **** *   <tr><th>Version</th><th>Changes</th><th>Reason for Change</th></tr>
 110:Generated_Source\PSoC6\pdl\drivers\peripheral\gpio/cy_gpio.h **** *   <tr>
 111:Generated_Source\PSoC6\pdl\drivers\peripheral\gpio/cy_gpio.h **** *     <td rowspan="3">1.20</td>
 112:Generated_Source\PSoC6\pdl\drivers\peripheral\gpio/cy_gpio.h **** *     <td>Flattened the organization of the driver source code into the single source directory and
 113:Generated_Source\PSoC6\pdl\drivers\peripheral\gpio/cy_gpio.h **** *     <td>Driver library directory-structure simplification.</td>
 114:Generated_Source\PSoC6\pdl\drivers\peripheral\gpio/cy_gpio.h **** *   </tr>
 115:Generated_Source\PSoC6\pdl\drivers\peripheral\gpio/cy_gpio.h **** *   <tr>
 116:Generated_Source\PSoC6\pdl\drivers\peripheral\gpio/cy_gpio.h **** *     <td>Added the functions for configuring the AMux bus splitter switch cells:
 117:Generated_Source\PSoC6\pdl\drivers\peripheral\gpio/cy_gpio.h **** *     - \ref Cy_GPIO_SetAmuxSplit
 118:Generated_Source\PSoC6\pdl\drivers\peripheral\gpio/cy_gpio.h **** *     - \ref Cy_GPIO_GetAmuxSplit
 119:Generated_Source\PSoC6\pdl\drivers\peripheral\gpio/cy_gpio.h **** *     </td>
 120:Generated_Source\PSoC6\pdl\drivers\peripheral\gpio/cy_gpio.h **** *     <td>Added a new functionality related to AMux bus.</td>
 121:Generated_Source\PSoC6\pdl\drivers\peripheral\gpio/cy_gpio.h **** *   </tr>
 122:Generated_Source\PSoC6\pdl\drivers\peripheral\gpio/cy_gpio.h **** *   <tr>
 123:Generated_Source\PSoC6\pdl\drivers\peripheral\gpio/cy_gpio.h **** *     <td>Added register access layer. Use register access macros instead
 124:Generated_Source\PSoC6\pdl\drivers\peripheral\gpio/cy_gpio.h **** *         of direct register access using dereferenced pointers.</td>
 125:Generated_Source\PSoC6\pdl\drivers\peripheral\gpio/cy_gpio.h **** *     <td>Makes register access device-independent, so that the PDL does 
 126:Generated_Source\PSoC6\pdl\drivers\peripheral\gpio/cy_gpio.h **** *         not need to be recompiled for each supported part number.</td>
 127:Generated_Source\PSoC6\pdl\drivers\peripheral\gpio/cy_gpio.h **** *   </tr>
 128:Generated_Source\PSoC6\pdl\drivers\peripheral\gpio/cy_gpio.h **** *   <tr>
 129:Generated_Source\PSoC6\pdl\drivers\peripheral\gpio/cy_gpio.h **** *     <td>1.10.1</td>
 130:Generated_Source\PSoC6\pdl\drivers\peripheral\gpio/cy_gpio.h **** *     <td>Updated description for the functions: \ref Cy_GPIO_GetInterruptStatus, 
 131:Generated_Source\PSoC6\pdl\drivers\peripheral\gpio/cy_gpio.h **** *         \ref Cy_GPIO_GetInterruptMask, \ref Cy_GPIO_GetInterruptStatusMasked.
 132:Generated_Source\PSoC6\pdl\drivers\peripheral\gpio/cy_gpio.h **** *
ARM GAS  C:\Users\stijn\AppData\Local\Temp\ccD3lQ9e.s 			page 4


 133:Generated_Source\PSoC6\pdl\drivers\peripheral\gpio/cy_gpio.h **** *         Minor documentation edits.
 134:Generated_Source\PSoC6\pdl\drivers\peripheral\gpio/cy_gpio.h **** *     </td>
 135:Generated_Source\PSoC6\pdl\drivers\peripheral\gpio/cy_gpio.h **** *     <td>Documentation update and clarification</td>
 136:Generated_Source\PSoC6\pdl\drivers\peripheral\gpio/cy_gpio.h **** *   </tr>
 137:Generated_Source\PSoC6\pdl\drivers\peripheral\gpio/cy_gpio.h **** *   <tr>
 138:Generated_Source\PSoC6\pdl\drivers\peripheral\gpio/cy_gpio.h **** *     <td>1.10</td>
 139:Generated_Source\PSoC6\pdl\drivers\peripheral\gpio/cy_gpio.h **** *     <td>Added input parameter validation to the API functions</td>
 140:Generated_Source\PSoC6\pdl\drivers\peripheral\gpio/cy_gpio.h **** *     <td></td>
 141:Generated_Source\PSoC6\pdl\drivers\peripheral\gpio/cy_gpio.h **** *   </tr>
 142:Generated_Source\PSoC6\pdl\drivers\peripheral\gpio/cy_gpio.h **** *   <tr>
 143:Generated_Source\PSoC6\pdl\drivers\peripheral\gpio/cy_gpio.h **** *     <td>1.0</td>
 144:Generated_Source\PSoC6\pdl\drivers\peripheral\gpio/cy_gpio.h **** *     <td>Initial version</td>
 145:Generated_Source\PSoC6\pdl\drivers\peripheral\gpio/cy_gpio.h **** *     <td></td>
 146:Generated_Source\PSoC6\pdl\drivers\peripheral\gpio/cy_gpio.h **** *   </tr>
 147:Generated_Source\PSoC6\pdl\drivers\peripheral\gpio/cy_gpio.h **** * </table>
 148:Generated_Source\PSoC6\pdl\drivers\peripheral\gpio/cy_gpio.h **** *
 149:Generated_Source\PSoC6\pdl\drivers\peripheral\gpio/cy_gpio.h **** * \defgroup group_gpio_macros Macros
 150:Generated_Source\PSoC6\pdl\drivers\peripheral\gpio/cy_gpio.h **** * \defgroup group_gpio_functions Functions
 151:Generated_Source\PSoC6\pdl\drivers\peripheral\gpio/cy_gpio.h **** * \{
 152:Generated_Source\PSoC6\pdl\drivers\peripheral\gpio/cy_gpio.h **** *   \defgroup group_gpio_functions_init       Initialization Functions
 153:Generated_Source\PSoC6\pdl\drivers\peripheral\gpio/cy_gpio.h **** *   \defgroup group_gpio_functions_gpio       GPIO Functions
 154:Generated_Source\PSoC6\pdl\drivers\peripheral\gpio/cy_gpio.h **** *   \defgroup group_gpio_functions_sio        SIO Functions
 155:Generated_Source\PSoC6\pdl\drivers\peripheral\gpio/cy_gpio.h **** *   \defgroup group_gpio_functions_interrupt  Port Interrupt Functions
 156:Generated_Source\PSoC6\pdl\drivers\peripheral\gpio/cy_gpio.h **** * \}
 157:Generated_Source\PSoC6\pdl\drivers\peripheral\gpio/cy_gpio.h **** * \defgroup group_gpio_data_structures Data Structures
 158:Generated_Source\PSoC6\pdl\drivers\peripheral\gpio/cy_gpio.h **** * \defgroup group_gpio_enums Enumerated Types
 159:Generated_Source\PSoC6\pdl\drivers\peripheral\gpio/cy_gpio.h **** */
 160:Generated_Source\PSoC6\pdl\drivers\peripheral\gpio/cy_gpio.h **** 
 161:Generated_Source\PSoC6\pdl\drivers\peripheral\gpio/cy_gpio.h **** #if !defined(CY_GPIO_H)
 162:Generated_Source\PSoC6\pdl\drivers\peripheral\gpio/cy_gpio.h **** #define CY_GPIO_H
 163:Generated_Source\PSoC6\pdl\drivers\peripheral\gpio/cy_gpio.h **** 
 164:Generated_Source\PSoC6\pdl\drivers\peripheral\gpio/cy_gpio.h **** #include <stddef.h>
 165:Generated_Source\PSoC6\pdl\drivers\peripheral\gpio/cy_gpio.h **** #include "cy_device.h"
 166:Generated_Source\PSoC6\pdl\drivers\peripheral\gpio/cy_gpio.h **** #include "cy_device_headers.h"
 167:Generated_Source\PSoC6\pdl\drivers\peripheral\gpio/cy_gpio.h **** #include "cy_syslib.h"
 168:Generated_Source\PSoC6\pdl\drivers\peripheral\gpio/cy_gpio.h **** 
 169:Generated_Source\PSoC6\pdl\drivers\peripheral\gpio/cy_gpio.h **** #if defined(__cplusplus)
 170:Generated_Source\PSoC6\pdl\drivers\peripheral\gpio/cy_gpio.h **** extern "C" {
 171:Generated_Source\PSoC6\pdl\drivers\peripheral\gpio/cy_gpio.h **** #endif
 172:Generated_Source\PSoC6\pdl\drivers\peripheral\gpio/cy_gpio.h **** 
 173:Generated_Source\PSoC6\pdl\drivers\peripheral\gpio/cy_gpio.h **** /** \addtogroup group_gpio_macros
 174:Generated_Source\PSoC6\pdl\drivers\peripheral\gpio/cy_gpio.h **** * \{
 175:Generated_Source\PSoC6\pdl\drivers\peripheral\gpio/cy_gpio.h **** */
 176:Generated_Source\PSoC6\pdl\drivers\peripheral\gpio/cy_gpio.h **** 
 177:Generated_Source\PSoC6\pdl\drivers\peripheral\gpio/cy_gpio.h **** /** Driver major version */
 178:Generated_Source\PSoC6\pdl\drivers\peripheral\gpio/cy_gpio.h **** #define CY_GPIO_DRV_VERSION_MAJOR       1
 179:Generated_Source\PSoC6\pdl\drivers\peripheral\gpio/cy_gpio.h **** 
 180:Generated_Source\PSoC6\pdl\drivers\peripheral\gpio/cy_gpio.h **** /** Driver minor version */
 181:Generated_Source\PSoC6\pdl\drivers\peripheral\gpio/cy_gpio.h **** #define CY_GPIO_DRV_VERSION_MINOR       20
 182:Generated_Source\PSoC6\pdl\drivers\peripheral\gpio/cy_gpio.h **** 
 183:Generated_Source\PSoC6\pdl\drivers\peripheral\gpio/cy_gpio.h **** /** GPIO driver ID */
 184:Generated_Source\PSoC6\pdl\drivers\peripheral\gpio/cy_gpio.h **** #define CY_GPIO_ID CY_PDL_DRV_ID(0x16U)
 185:Generated_Source\PSoC6\pdl\drivers\peripheral\gpio/cy_gpio.h **** 
 186:Generated_Source\PSoC6\pdl\drivers\peripheral\gpio/cy_gpio.h **** /** \} group_gpio_macros */
 187:Generated_Source\PSoC6\pdl\drivers\peripheral\gpio/cy_gpio.h **** 
 188:Generated_Source\PSoC6\pdl\drivers\peripheral\gpio/cy_gpio.h **** 
 189:Generated_Source\PSoC6\pdl\drivers\peripheral\gpio/cy_gpio.h **** /***************************************
ARM GAS  C:\Users\stijn\AppData\Local\Temp\ccD3lQ9e.s 			page 5


 190:Generated_Source\PSoC6\pdl\drivers\peripheral\gpio/cy_gpio.h **** *       Enumerations
 191:Generated_Source\PSoC6\pdl\drivers\peripheral\gpio/cy_gpio.h **** ***************************************/
 192:Generated_Source\PSoC6\pdl\drivers\peripheral\gpio/cy_gpio.h **** /**
 193:Generated_Source\PSoC6\pdl\drivers\peripheral\gpio/cy_gpio.h **** * \addtogroup group_gpio_enums
 194:Generated_Source\PSoC6\pdl\drivers\peripheral\gpio/cy_gpio.h **** * \{
 195:Generated_Source\PSoC6\pdl\drivers\peripheral\gpio/cy_gpio.h **** */
 196:Generated_Source\PSoC6\pdl\drivers\peripheral\gpio/cy_gpio.h **** 
 197:Generated_Source\PSoC6\pdl\drivers\peripheral\gpio/cy_gpio.h **** /** GPIO Driver error codes */
 198:Generated_Source\PSoC6\pdl\drivers\peripheral\gpio/cy_gpio.h **** typedef enum 
 199:Generated_Source\PSoC6\pdl\drivers\peripheral\gpio/cy_gpio.h **** {
 200:Generated_Source\PSoC6\pdl\drivers\peripheral\gpio/cy_gpio.h ****     CY_GPIO_SUCCESS   = 0x00U,                                    /**< Returned successful */
 201:Generated_Source\PSoC6\pdl\drivers\peripheral\gpio/cy_gpio.h ****     CY_GPIO_BAD_PARAM = CY_GPIO_ID | CY_PDL_STATUS_ERROR | 0x01U, /**< Bad parameter was passed */
 202:Generated_Source\PSoC6\pdl\drivers\peripheral\gpio/cy_gpio.h **** } cy_en_gpio_status_t;
 203:Generated_Source\PSoC6\pdl\drivers\peripheral\gpio/cy_gpio.h **** 
 204:Generated_Source\PSoC6\pdl\drivers\peripheral\gpio/cy_gpio.h **** /** AMux switch open/close config */
 205:Generated_Source\PSoC6\pdl\drivers\peripheral\gpio/cy_gpio.h **** typedef enum
 206:Generated_Source\PSoC6\pdl\drivers\peripheral\gpio/cy_gpio.h **** {
 207:Generated_Source\PSoC6\pdl\drivers\peripheral\gpio/cy_gpio.h ****     CY_GPIO_AMUX_OPENALL,   /**< Open ground switch. Open right switch. Open left switch */
 208:Generated_Source\PSoC6\pdl\drivers\peripheral\gpio/cy_gpio.h ****     CY_GPIO_AMUX_L,         /**< Open ground switch. Open right switch. Close left switch */
 209:Generated_Source\PSoC6\pdl\drivers\peripheral\gpio/cy_gpio.h ****     CY_GPIO_AMUX_R,         /**< Open ground switch. Close right switch. Open left switch */
 210:Generated_Source\PSoC6\pdl\drivers\peripheral\gpio/cy_gpio.h ****     CY_GPIO_AMUX_LR,        /**< Open ground switch. Close right switch. Close left switch */
 211:Generated_Source\PSoC6\pdl\drivers\peripheral\gpio/cy_gpio.h ****     CY_GPIO_AMUX_G,         /**< Close ground switch. Open right switch. Open left switch */
 212:Generated_Source\PSoC6\pdl\drivers\peripheral\gpio/cy_gpio.h ****     CY_GPIO_AMUX_GL,        /**< Close ground switch. Open right switch. Close left switch */
 213:Generated_Source\PSoC6\pdl\drivers\peripheral\gpio/cy_gpio.h ****     CY_GPIO_AMUX_GR,        /**< Close ground switch. Close right switch. Open left switch */
 214:Generated_Source\PSoC6\pdl\drivers\peripheral\gpio/cy_gpio.h ****     CY_GPIO_AMUX_GLR,       /**< Close ground switch. Close right switch. Close left switch */
 215:Generated_Source\PSoC6\pdl\drivers\peripheral\gpio/cy_gpio.h **** }cy_en_gpio_amuxconnect_t;
 216:Generated_Source\PSoC6\pdl\drivers\peripheral\gpio/cy_gpio.h **** 
 217:Generated_Source\PSoC6\pdl\drivers\peripheral\gpio/cy_gpio.h **** /**
 218:Generated_Source\PSoC6\pdl\drivers\peripheral\gpio/cy_gpio.h **** * AMux Bus selection
 219:Generated_Source\PSoC6\pdl\drivers\peripheral\gpio/cy_gpio.h **** */
 220:Generated_Source\PSoC6\pdl\drivers\peripheral\gpio/cy_gpio.h **** typedef enum
 221:Generated_Source\PSoC6\pdl\drivers\peripheral\gpio/cy_gpio.h **** {
 222:Generated_Source\PSoC6\pdl\drivers\peripheral\gpio/cy_gpio.h ****     CY_GPIO_AMUXBUSA,       /**< AMuxBus A */
 223:Generated_Source\PSoC6\pdl\drivers\peripheral\gpio/cy_gpio.h ****     CY_GPIO_AMUXBUSB        /**< AMuxBus B */
 224:Generated_Source\PSoC6\pdl\drivers\peripheral\gpio/cy_gpio.h **** }cy_en_gpio_amuxselect_t;
 225:Generated_Source\PSoC6\pdl\drivers\peripheral\gpio/cy_gpio.h **** 
 226:Generated_Source\PSoC6\pdl\drivers\peripheral\gpio/cy_gpio.h **** /** \} group_gpio_enums */
 227:Generated_Source\PSoC6\pdl\drivers\peripheral\gpio/cy_gpio.h **** 
 228:Generated_Source\PSoC6\pdl\drivers\peripheral\gpio/cy_gpio.h **** 
 229:Generated_Source\PSoC6\pdl\drivers\peripheral\gpio/cy_gpio.h **** /***************************************
 230:Generated_Source\PSoC6\pdl\drivers\peripheral\gpio/cy_gpio.h **** *       Configuration Structures
 231:Generated_Source\PSoC6\pdl\drivers\peripheral\gpio/cy_gpio.h **** ***************************************/
 232:Generated_Source\PSoC6\pdl\drivers\peripheral\gpio/cy_gpio.h **** 
 233:Generated_Source\PSoC6\pdl\drivers\peripheral\gpio/cy_gpio.h **** /**
 234:Generated_Source\PSoC6\pdl\drivers\peripheral\gpio/cy_gpio.h **** * \addtogroup group_gpio_data_structures
 235:Generated_Source\PSoC6\pdl\drivers\peripheral\gpio/cy_gpio.h **** * \{
 236:Generated_Source\PSoC6\pdl\drivers\peripheral\gpio/cy_gpio.h **** */
 237:Generated_Source\PSoC6\pdl\drivers\peripheral\gpio/cy_gpio.h **** 
 238:Generated_Source\PSoC6\pdl\drivers\peripheral\gpio/cy_gpio.h **** /** This structure is used to initialize a port of GPIO pins */
 239:Generated_Source\PSoC6\pdl\drivers\peripheral\gpio/cy_gpio.h **** typedef struct 
 240:Generated_Source\PSoC6\pdl\drivers\peripheral\gpio/cy_gpio.h **** {
 241:Generated_Source\PSoC6\pdl\drivers\peripheral\gpio/cy_gpio.h ****     uint32_t out;           /**< Initial output data for the IO pins in the port */
 242:Generated_Source\PSoC6\pdl\drivers\peripheral\gpio/cy_gpio.h ****     uint32_t intrMask;      /**< Interrupt enable mask for the port interrupt */
 243:Generated_Source\PSoC6\pdl\drivers\peripheral\gpio/cy_gpio.h ****     uint32_t intrCfg;       /**< Port pin interrupt edge detection configuration */
 244:Generated_Source\PSoC6\pdl\drivers\peripheral\gpio/cy_gpio.h ****     uint32_t cfg;           /**< Port pin drive modes and input buffer enable configuration */
 245:Generated_Source\PSoC6\pdl\drivers\peripheral\gpio/cy_gpio.h ****     uint32_t cfgIn;         /**< Port pin input buffer configuration */
 246:Generated_Source\PSoC6\pdl\drivers\peripheral\gpio/cy_gpio.h ****     uint32_t cfgOut;        /**< Port pin output buffer configuration */
ARM GAS  C:\Users\stijn\AppData\Local\Temp\ccD3lQ9e.s 			page 6


 247:Generated_Source\PSoC6\pdl\drivers\peripheral\gpio/cy_gpio.h ****     uint32_t cfgSIO;        /**< Port SIO pins configuration */
 248:Generated_Source\PSoC6\pdl\drivers\peripheral\gpio/cy_gpio.h ****     uint32_t sel0Active;    /**< HSIOM selection for port pins 0,1,2,3 */
 249:Generated_Source\PSoC6\pdl\drivers\peripheral\gpio/cy_gpio.h ****     uint32_t sel1Active;    /**< HSIOM selection for port pins 4,5,6,7 */
 250:Generated_Source\PSoC6\pdl\drivers\peripheral\gpio/cy_gpio.h **** } cy_stc_gpio_prt_config_t;
 251:Generated_Source\PSoC6\pdl\drivers\peripheral\gpio/cy_gpio.h **** 
 252:Generated_Source\PSoC6\pdl\drivers\peripheral\gpio/cy_gpio.h **** /** This structure is used to initialize a single GPIO pin */
 253:Generated_Source\PSoC6\pdl\drivers\peripheral\gpio/cy_gpio.h **** typedef struct
 254:Generated_Source\PSoC6\pdl\drivers\peripheral\gpio/cy_gpio.h **** {
 255:Generated_Source\PSoC6\pdl\drivers\peripheral\gpio/cy_gpio.h ****     uint32_t outVal;         /**< Pin output state */
 256:Generated_Source\PSoC6\pdl\drivers\peripheral\gpio/cy_gpio.h ****     uint32_t driveMode;      /**< Drive mode */
 257:Generated_Source\PSoC6\pdl\drivers\peripheral\gpio/cy_gpio.h ****     en_hsiom_sel_t hsiom;    /**< HSIOM selection */
 258:Generated_Source\PSoC6\pdl\drivers\peripheral\gpio/cy_gpio.h ****     uint32_t intEdge;        /**< Interrupt Edge type */
 259:Generated_Source\PSoC6\pdl\drivers\peripheral\gpio/cy_gpio.h ****     uint32_t intMask;        /**< Interrupt enable mask */
 260:Generated_Source\PSoC6\pdl\drivers\peripheral\gpio/cy_gpio.h ****     uint32_t vtrip;          /**< Input buffer voltage trip type */
 261:Generated_Source\PSoC6\pdl\drivers\peripheral\gpio/cy_gpio.h ****     uint32_t slewRate;       /**< Output buffer slew rate */
 262:Generated_Source\PSoC6\pdl\drivers\peripheral\gpio/cy_gpio.h ****     uint32_t driveSel;       /**< Drive strength */
 263:Generated_Source\PSoC6\pdl\drivers\peripheral\gpio/cy_gpio.h ****     uint32_t vregEn;         /**< SIO pair output buffer mode */
 264:Generated_Source\PSoC6\pdl\drivers\peripheral\gpio/cy_gpio.h ****     uint32_t ibufMode;       /**< SIO pair input buffer mode */
 265:Generated_Source\PSoC6\pdl\drivers\peripheral\gpio/cy_gpio.h ****     uint32_t vtripSel;       /**< SIO pair input buffer trip point */
 266:Generated_Source\PSoC6\pdl\drivers\peripheral\gpio/cy_gpio.h ****     uint32_t vrefSel;        /**< SIO pair reference voltage for input buffer trip point */
 267:Generated_Source\PSoC6\pdl\drivers\peripheral\gpio/cy_gpio.h ****     uint32_t vohSel;         /**< SIO pair regulated voltage output level */
 268:Generated_Source\PSoC6\pdl\drivers\peripheral\gpio/cy_gpio.h **** } cy_stc_gpio_pin_config_t;
 269:Generated_Source\PSoC6\pdl\drivers\peripheral\gpio/cy_gpio.h **** 
 270:Generated_Source\PSoC6\pdl\drivers\peripheral\gpio/cy_gpio.h **** /** \} group_gpio_data_structures */
 271:Generated_Source\PSoC6\pdl\drivers\peripheral\gpio/cy_gpio.h **** 
 272:Generated_Source\PSoC6\pdl\drivers\peripheral\gpio/cy_gpio.h **** /***************************************
 273:Generated_Source\PSoC6\pdl\drivers\peripheral\gpio/cy_gpio.h **** *        Constants
 274:Generated_Source\PSoC6\pdl\drivers\peripheral\gpio/cy_gpio.h **** ***************************************/
 275:Generated_Source\PSoC6\pdl\drivers\peripheral\gpio/cy_gpio.h **** 
 276:Generated_Source\PSoC6\pdl\drivers\peripheral\gpio/cy_gpio.h **** /** \cond INTERNAL */
 277:Generated_Source\PSoC6\pdl\drivers\peripheral\gpio/cy_gpio.h **** 
 278:Generated_Source\PSoC6\pdl\drivers\peripheral\gpio/cy_gpio.h **** /* General Constants */
 279:Generated_Source\PSoC6\pdl\drivers\peripheral\gpio/cy_gpio.h **** #define CY_GPIO_PRT_HALF                       (4UL)      /**< Half-way point of a GPIO port */
 280:Generated_Source\PSoC6\pdl\drivers\peripheral\gpio/cy_gpio.h **** #define CY_GPIO_PRT_DEINIT                     (0UL)      /**< De-init value for port registers */
 281:Generated_Source\PSoC6\pdl\drivers\peripheral\gpio/cy_gpio.h **** 
 282:Generated_Source\PSoC6\pdl\drivers\peripheral\gpio/cy_gpio.h **** /* GPIO Masks */
 283:Generated_Source\PSoC6\pdl\drivers\peripheral\gpio/cy_gpio.h **** #define CY_GPIO_HSIOM_MASK                     (0x1FUL)   /**< HSIOM selection mask */
 284:Generated_Source\PSoC6\pdl\drivers\peripheral\gpio/cy_gpio.h **** #define CY_GPIO_OUT_MASK                       (0x01UL)   /**< Single pin mask for OUT register */
 285:Generated_Source\PSoC6\pdl\drivers\peripheral\gpio/cy_gpio.h **** #define CY_GPIO_IN_MASK                        (0x01UL)   /**< Single pin mask for IN register */
 286:Generated_Source\PSoC6\pdl\drivers\peripheral\gpio/cy_gpio.h **** #define CY_GPIO_CFG_DM_MASK                    (0x0FUL)   /**< Single pin mask for drive mode in CF
 287:Generated_Source\PSoC6\pdl\drivers\peripheral\gpio/cy_gpio.h **** #define CY_GPIO_CFG_IN_VTRIP_SEL_MASK          (0x01UL)   /**< Single pin mask for VTRIP selection 
 288:Generated_Source\PSoC6\pdl\drivers\peripheral\gpio/cy_gpio.h **** #define CY_GPIO_CFG_OUT_SLOW_MASK              (0x01UL)   /**< Single pin mask for slew rate in CFG
 289:Generated_Source\PSoC6\pdl\drivers\peripheral\gpio/cy_gpio.h **** #define CY_GPIO_CFG_OUT_DRIVE_SEL_MASK         (0x03UL)   /**< Single pin mask for drive strength i
 290:Generated_Source\PSoC6\pdl\drivers\peripheral\gpio/cy_gpio.h **** #define CY_GPIO_INTR_STATUS_MASK               (0x01UL)   /**< Single pin mask for interrupt status
 291:Generated_Source\PSoC6\pdl\drivers\peripheral\gpio/cy_gpio.h **** #define CY_GPIO_INTR_EN_MASK                   (0x01UL)   /**< Single pin mask for interrupt status
 292:Generated_Source\PSoC6\pdl\drivers\peripheral\gpio/cy_gpio.h **** #define CY_GPIO_INTR_MASKED_MASK               (0x01UL)   /**< Single pin mask for masked interrupt
 293:Generated_Source\PSoC6\pdl\drivers\peripheral\gpio/cy_gpio.h **** #define CY_GPIO_INTR_SET_MASK                  (0x01UL)   /**< Single pin mask for setting the inte
 294:Generated_Source\PSoC6\pdl\drivers\peripheral\gpio/cy_gpio.h **** #define CY_GPIO_INTR_EDGE_MASK                 (0x03UL)   /**< Single pin mask for interrupt edge t
 295:Generated_Source\PSoC6\pdl\drivers\peripheral\gpio/cy_gpio.h **** #define CY_GPIO_INTR_FLT_EDGE_MASK             (0x07UL)   /**< Single pin mask for setting filtered
 296:Generated_Source\PSoC6\pdl\drivers\peripheral\gpio/cy_gpio.h **** 
 297:Generated_Source\PSoC6\pdl\drivers\peripheral\gpio/cy_gpio.h **** /* SIO Masks */
 298:Generated_Source\PSoC6\pdl\drivers\peripheral\gpio/cy_gpio.h **** #define CY_GPIO_VREG_EN_MASK                   (0x01UL)   /**< Single SIO pin mask for voltage regu
 299:Generated_Source\PSoC6\pdl\drivers\peripheral\gpio/cy_gpio.h **** #define CY_GPIO_IBUF_MASK                      (0x01UL)   /**< Single SIO pin mask for input buffer
 300:Generated_Source\PSoC6\pdl\drivers\peripheral\gpio/cy_gpio.h **** #define CY_GPIO_IBUF_SHIFT                     (0x01UL)   /**< Single SIO pin shift for input buffe
 301:Generated_Source\PSoC6\pdl\drivers\peripheral\gpio/cy_gpio.h **** #define CY_GPIO_VTRIP_SEL_MASK                 (0x01UL)   /**< Single SIO pin mask for the input bu
 302:Generated_Source\PSoC6\pdl\drivers\peripheral\gpio/cy_gpio.h **** #define CY_GPIO_VTRIP_SEL_SHIFT                (0x02UL)   /**< Single SIO pin shift for the input b
 303:Generated_Source\PSoC6\pdl\drivers\peripheral\gpio/cy_gpio.h **** #define CY_GPIO_VREF_SEL_MASK                  (0x03UL)   /**< Single SIO pin mask for voltage refe
ARM GAS  C:\Users\stijn\AppData\Local\Temp\ccD3lQ9e.s 			page 7


 304:Generated_Source\PSoC6\pdl\drivers\peripheral\gpio/cy_gpio.h **** #define CY_GPIO_VREF_SEL_SHIFT                 (0x03UL)   /**< Single SIO pin shift for voltage ref
 305:Generated_Source\PSoC6\pdl\drivers\peripheral\gpio/cy_gpio.h **** #define CY_GPIO_VOH_SEL_MASK                   (0x07UL)   /**< Single SIO pin mask for VOH */
 306:Generated_Source\PSoC6\pdl\drivers\peripheral\gpio/cy_gpio.h **** #define CY_GPIO_VOH_SEL_SHIFT                  (0x05UL)   /**< Single SIO pin shift for VOH */
 307:Generated_Source\PSoC6\pdl\drivers\peripheral\gpio/cy_gpio.h **** 
 308:Generated_Source\PSoC6\pdl\drivers\peripheral\gpio/cy_gpio.h **** /* Special mask for SIO pin pair setting */
 309:Generated_Source\PSoC6\pdl\drivers\peripheral\gpio/cy_gpio.h **** #define CY_GPIO_SIO_ODD_PIN_MASK               (0x00FEUL) /**< SIO pin pair selection mask */
 310:Generated_Source\PSoC6\pdl\drivers\peripheral\gpio/cy_gpio.h **** #define CY_GPIO_SIO_PIN_MASK                   (0x00FFUL) /**< SIO pin pair mask */
 311:Generated_Source\PSoC6\pdl\drivers\peripheral\gpio/cy_gpio.h **** 
 312:Generated_Source\PSoC6\pdl\drivers\peripheral\gpio/cy_gpio.h **** /* Offsets */
 313:Generated_Source\PSoC6\pdl\drivers\peripheral\gpio/cy_gpio.h **** #define CY_GPIO_HSIOM_OFFSET                   (3UL)      /**< Offset for HSIOM */
 314:Generated_Source\PSoC6\pdl\drivers\peripheral\gpio/cy_gpio.h **** #define CY_GPIO_DRIVE_MODE_OFFSET              (2UL)      /**< Offset for Drive mode */
 315:Generated_Source\PSoC6\pdl\drivers\peripheral\gpio/cy_gpio.h **** #define CY_GPIO_INBUF_OFFSET                   (3UL)      /**< Offset for input buffer */
 316:Generated_Source\PSoC6\pdl\drivers\peripheral\gpio/cy_gpio.h **** #define CY_GPIO_CFG_OUT_DRIVE_OFFSET           (16UL)     /**< Offset for drive strength */
 317:Generated_Source\PSoC6\pdl\drivers\peripheral\gpio/cy_gpio.h **** #define CY_GPIO_INTR_CFG_OFFSET                (1UL)      /**< Offset for interrupt config */
 318:Generated_Source\PSoC6\pdl\drivers\peripheral\gpio/cy_gpio.h **** #define CY_GPIO_INTR_FILT_OFFSET               (18UL)     /**< Offset for filtered interrupt config
 319:Generated_Source\PSoC6\pdl\drivers\peripheral\gpio/cy_gpio.h **** #define CY_GPIO_CFG_SIO_OFFSET                 (2UL)      /**< Offset for SIO config */
 320:Generated_Source\PSoC6\pdl\drivers\peripheral\gpio/cy_gpio.h **** 
 321:Generated_Source\PSoC6\pdl\drivers\peripheral\gpio/cy_gpio.h **** /* Parameter validation constants */
 322:Generated_Source\PSoC6\pdl\drivers\peripheral\gpio/cy_gpio.h **** #define CY_GPIO_PINS_MAX                       (8UL)      /**< Number of pins in the port */
 323:Generated_Source\PSoC6\pdl\drivers\peripheral\gpio/cy_gpio.h **** #define CY_GPIO_PRT_PINS_MASK                  (0x0000000FFUL)
 324:Generated_Source\PSoC6\pdl\drivers\peripheral\gpio/cy_gpio.h **** #define CY_GPIO_PRT_INTR_CFG_EDGE_SEL_MASK     (GPIO_PRT_INTR_CFG_EDGE0_SEL_Msk | \
 325:Generated_Source\PSoC6\pdl\drivers\peripheral\gpio/cy_gpio.h ****                                                 GPIO_PRT_INTR_CFG_EDGE1_SEL_Msk | \
 326:Generated_Source\PSoC6\pdl\drivers\peripheral\gpio/cy_gpio.h ****                                                 GPIO_PRT_INTR_CFG_EDGE2_SEL_Msk | \
 327:Generated_Source\PSoC6\pdl\drivers\peripheral\gpio/cy_gpio.h ****                                                 GPIO_PRT_INTR_CFG_EDGE3_SEL_Msk | \
 328:Generated_Source\PSoC6\pdl\drivers\peripheral\gpio/cy_gpio.h ****                                                 GPIO_PRT_INTR_CFG_EDGE4_SEL_Msk | \
 329:Generated_Source\PSoC6\pdl\drivers\peripheral\gpio/cy_gpio.h ****                                                 GPIO_PRT_INTR_CFG_EDGE5_SEL_Msk | \
 330:Generated_Source\PSoC6\pdl\drivers\peripheral\gpio/cy_gpio.h ****                                                 GPIO_PRT_INTR_CFG_EDGE6_SEL_Msk | \
 331:Generated_Source\PSoC6\pdl\drivers\peripheral\gpio/cy_gpio.h ****                                                 GPIO_PRT_INTR_CFG_EDGE7_SEL_Msk)
 332:Generated_Source\PSoC6\pdl\drivers\peripheral\gpio/cy_gpio.h **** #define CY_GPIO_PRT_INTR_CFG_RANGE_MASK        (CY_GPIO_PRT_INTR_CFG_EDGE_SEL_MASK | \
 333:Generated_Source\PSoC6\pdl\drivers\peripheral\gpio/cy_gpio.h ****                                                 GPIO_PRT_INTR_CFG_FLT_EDGE_SEL_Msk | \
 334:Generated_Source\PSoC6\pdl\drivers\peripheral\gpio/cy_gpio.h ****                                                 GPIO_PRT_INTR_CFG_FLT_SEL_Msk)
 335:Generated_Source\PSoC6\pdl\drivers\peripheral\gpio/cy_gpio.h **** #define CY_GPIO_PRT_INT_MASK_MASK              (0x0000001FFUL)
 336:Generated_Source\PSoC6\pdl\drivers\peripheral\gpio/cy_gpio.h **** #define CY_GPIO_PRT_SEL_ACTIVE_MASK            (0x1FFFFFFFUL)
 337:Generated_Source\PSoC6\pdl\drivers\peripheral\gpio/cy_gpio.h **** 
 338:Generated_Source\PSoC6\pdl\drivers\peripheral\gpio/cy_gpio.h **** #define GPIO_MAX_SPLIT_CELL_SEGMENTS           (9U)
 339:Generated_Source\PSoC6\pdl\drivers\peripheral\gpio/cy_gpio.h **** 
 340:Generated_Source\PSoC6\pdl\drivers\peripheral\gpio/cy_gpio.h **** /* Parameter validation macros */
 341:Generated_Source\PSoC6\pdl\drivers\peripheral\gpio/cy_gpio.h **** #define CY_GPIO_IS_PIN_VALID(pinNum)           (CY_GPIO_PINS_MAX > (pinNum))
 342:Generated_Source\PSoC6\pdl\drivers\peripheral\gpio/cy_gpio.h **** #define CY_GPIO_IS_FILTER_PIN_VALID(pinNum)    (CY_GPIO_PINS_MAX >= (pinNum))
 343:Generated_Source\PSoC6\pdl\drivers\peripheral\gpio/cy_gpio.h **** #define CY_GPIO_IS_VALUE_VALID(outVal)         (1UL >= (outVal))
 344:Generated_Source\PSoC6\pdl\drivers\peripheral\gpio/cy_gpio.h **** #define CY_GPIO_IS_DM_VALID(driveMode)         (0U == ((driveMode) & (uint32_t)~CY_GPIO_CFG_DM_MASK
 345:Generated_Source\PSoC6\pdl\drivers\peripheral\gpio/cy_gpio.h **** 
 346:Generated_Source\PSoC6\pdl\drivers\peripheral\gpio/cy_gpio.h **** #define CY_GPIO_IS_HSIOM_VALID(hsiom)          (0U == ((hsiom) & (uint32_t)~CY_GPIO_HSIOM_MASK))
 347:Generated_Source\PSoC6\pdl\drivers\peripheral\gpio/cy_gpio.h **** 
 348:Generated_Source\PSoC6\pdl\drivers\peripheral\gpio/cy_gpio.h **** #define CY_GPIO_IS_INT_EDGE_VALID(intEdge)     ((CY_GPIO_INTR_DISABLE  == (intEdge)) || \
 349:Generated_Source\PSoC6\pdl\drivers\peripheral\gpio/cy_gpio.h ****                                                 (CY_GPIO_INTR_RISING   == (intEdge)) || \
 350:Generated_Source\PSoC6\pdl\drivers\peripheral\gpio/cy_gpio.h ****                                                 (CY_GPIO_INTR_FALLING  == (intEdge)) || \
 351:Generated_Source\PSoC6\pdl\drivers\peripheral\gpio/cy_gpio.h ****                                                 (CY_GPIO_INTR_BOTH     == (intEdge)))
 352:Generated_Source\PSoC6\pdl\drivers\peripheral\gpio/cy_gpio.h **** 
 353:Generated_Source\PSoC6\pdl\drivers\peripheral\gpio/cy_gpio.h **** #define CY_GPIO_IS_DRIVE_SEL_VALID(driveSel)   ((CY_GPIO_DRIVE_FULL    == (driveSel)) || \
 354:Generated_Source\PSoC6\pdl\drivers\peripheral\gpio/cy_gpio.h ****                                                 (CY_GPIO_DRIVE_1_2     == (driveSel)) || \
 355:Generated_Source\PSoC6\pdl\drivers\peripheral\gpio/cy_gpio.h ****                                                 (CY_GPIO_DRIVE_1_4     == (driveSel)) || \
 356:Generated_Source\PSoC6\pdl\drivers\peripheral\gpio/cy_gpio.h ****                                                 (CY_GPIO_DRIVE_1_8     == (driveSel)))
 357:Generated_Source\PSoC6\pdl\drivers\peripheral\gpio/cy_gpio.h **** 
 358:Generated_Source\PSoC6\pdl\drivers\peripheral\gpio/cy_gpio.h **** #define CY_GPIO_IS_VREF_SEL_VALID(vrefSel)     ((CY_SIO_VREF_PINREF    == (vrefSel)) || \
 359:Generated_Source\PSoC6\pdl\drivers\peripheral\gpio/cy_gpio.h ****                                                 (CY_SIO_VREF_1_2V      == (vrefSel)) || \
 360:Generated_Source\PSoC6\pdl\drivers\peripheral\gpio/cy_gpio.h ****                                                 (CY_SIO_VREF_AMUX_A    == (vrefSel)) || \
ARM GAS  C:\Users\stijn\AppData\Local\Temp\ccD3lQ9e.s 			page 8


 361:Generated_Source\PSoC6\pdl\drivers\peripheral\gpio/cy_gpio.h ****                                                 (CY_SIO_VREF_AMUX_B    == (vrefSel)))
 362:Generated_Source\PSoC6\pdl\drivers\peripheral\gpio/cy_gpio.h **** 
 363:Generated_Source\PSoC6\pdl\drivers\peripheral\gpio/cy_gpio.h **** #define CY_GPIO_IS_VOH_SEL_VALID(vrefSel)      ((CY_SIO_VOH_1_00       == (vrefSel)) || \
 364:Generated_Source\PSoC6\pdl\drivers\peripheral\gpio/cy_gpio.h ****                                                 (CY_SIO_VOH_1_25       == (vrefSel)) || \
 365:Generated_Source\PSoC6\pdl\drivers\peripheral\gpio/cy_gpio.h ****                                                 (CY_SIO_VOH_1_49       == (vrefSel)) || \
 366:Generated_Source\PSoC6\pdl\drivers\peripheral\gpio/cy_gpio.h ****                                                 (CY_SIO_VOH_1_67       == (vrefSel)) || \
 367:Generated_Source\PSoC6\pdl\drivers\peripheral\gpio/cy_gpio.h ****                                                 (CY_SIO_VOH_2_08       == (vrefSel)) || \
 368:Generated_Source\PSoC6\pdl\drivers\peripheral\gpio/cy_gpio.h ****                                                 (CY_SIO_VOH_2_50       == (vrefSel)) || \
 369:Generated_Source\PSoC6\pdl\drivers\peripheral\gpio/cy_gpio.h ****                                                 (CY_SIO_VOH_2_78       == (vrefSel)) || \
 370:Generated_Source\PSoC6\pdl\drivers\peripheral\gpio/cy_gpio.h ****                                                 (CY_SIO_VOH_4_16       == (vrefSel)))
 371:Generated_Source\PSoC6\pdl\drivers\peripheral\gpio/cy_gpio.h ****                    
 372:Generated_Source\PSoC6\pdl\drivers\peripheral\gpio/cy_gpio.h **** #define CY_GPIO_IS_PIN_BIT_VALID(pinBit)       (0U == ((pinBit) & (uint32_t)~CY_GPIO_PRT_PINS_MASK)
 373:Generated_Source\PSoC6\pdl\drivers\peripheral\gpio/cy_gpio.h **** #define CY_GPIO_IS_INTR_CFG_VALID(intrCfg)     (0U == ((intrCfg) & (uint32_t)~CY_GPIO_PRT_INTR_CFG_
 374:Generated_Source\PSoC6\pdl\drivers\peripheral\gpio/cy_gpio.h **** #define CY_GPIO_IS_INTR_MASK_VALID(intrMask)   (0U == ((intrMask) & (uint32_t)~CY_GPIO_PRT_INT_MASK
 375:Generated_Source\PSoC6\pdl\drivers\peripheral\gpio/cy_gpio.h **** #define CY_GPIO_IS_SEL_ACT_VALID(selActive)    (0U == ((selActive) & (uint32_t)~CY_GPIO_PRT_SEL_ACT
 376:Generated_Source\PSoC6\pdl\drivers\peripheral\gpio/cy_gpio.h **** 
 377:Generated_Source\PSoC6\pdl\drivers\peripheral\gpio/cy_gpio.h **** #define CY_GPIO_IS_AMUX_SPLIT_VALID(switchCtrl)       (((uint32_t) (switchCtrl)) < GPIO_MAX_SPLIT_C
 378:Generated_Source\PSoC6\pdl\drivers\peripheral\gpio/cy_gpio.h **** 
 379:Generated_Source\PSoC6\pdl\drivers\peripheral\gpio/cy_gpio.h **** #define CY_GPIO_IS_AMUX_CONNECT_VALID(amuxConnect)    ((CY_GPIO_AMUX_OPENALL == (amuxConnect)) || \
 380:Generated_Source\PSoC6\pdl\drivers\peripheral\gpio/cy_gpio.h ****                                                        (CY_GPIO_AMUX_L       == (amuxConnect)) || \
 381:Generated_Source\PSoC6\pdl\drivers\peripheral\gpio/cy_gpio.h ****                                                        (CY_GPIO_AMUX_R       == (amuxConnect)) || \
 382:Generated_Source\PSoC6\pdl\drivers\peripheral\gpio/cy_gpio.h ****                                                        (CY_GPIO_AMUX_LR      == (amuxConnect)) || \
 383:Generated_Source\PSoC6\pdl\drivers\peripheral\gpio/cy_gpio.h ****                                                        (CY_GPIO_AMUX_G       == (amuxConnect)) || \
 384:Generated_Source\PSoC6\pdl\drivers\peripheral\gpio/cy_gpio.h ****                                                        (CY_GPIO_AMUX_GL      == (amuxConnect)) || \
 385:Generated_Source\PSoC6\pdl\drivers\peripheral\gpio/cy_gpio.h ****                                                        (CY_GPIO_AMUX_GR      == (amuxConnect)) || \
 386:Generated_Source\PSoC6\pdl\drivers\peripheral\gpio/cy_gpio.h ****                                                        (CY_GPIO_AMUX_GLR     == (amuxConnect)))
 387:Generated_Source\PSoC6\pdl\drivers\peripheral\gpio/cy_gpio.h **** 
 388:Generated_Source\PSoC6\pdl\drivers\peripheral\gpio/cy_gpio.h **** #define CY_GPIO_IS_AMUX_SELECT_VALID(amuxBus)       ((CY_GPIO_AMUXBUSA       == (amuxBus)) || \
 389:Generated_Source\PSoC6\pdl\drivers\peripheral\gpio/cy_gpio.h ****                                                      (CY_GPIO_AMUXBUSB       == (amuxBus)))
 390:Generated_Source\PSoC6\pdl\drivers\peripheral\gpio/cy_gpio.h **** /** \endcond */
 391:Generated_Source\PSoC6\pdl\drivers\peripheral\gpio/cy_gpio.h **** 
 392:Generated_Source\PSoC6\pdl\drivers\peripheral\gpio/cy_gpio.h **** 
 393:Generated_Source\PSoC6\pdl\drivers\peripheral\gpio/cy_gpio.h **** /***************************************
 394:Generated_Source\PSoC6\pdl\drivers\peripheral\gpio/cy_gpio.h **** *        Function Constants
 395:Generated_Source\PSoC6\pdl\drivers\peripheral\gpio/cy_gpio.h **** ***************************************/
 396:Generated_Source\PSoC6\pdl\drivers\peripheral\gpio/cy_gpio.h **** 
 397:Generated_Source\PSoC6\pdl\drivers\peripheral\gpio/cy_gpio.h **** /**
 398:Generated_Source\PSoC6\pdl\drivers\peripheral\gpio/cy_gpio.h **** * \addtogroup group_gpio_macros
 399:Generated_Source\PSoC6\pdl\drivers\peripheral\gpio/cy_gpio.h **** * \{
 400:Generated_Source\PSoC6\pdl\drivers\peripheral\gpio/cy_gpio.h **** */
 401:Generated_Source\PSoC6\pdl\drivers\peripheral\gpio/cy_gpio.h **** 
 402:Generated_Source\PSoC6\pdl\drivers\peripheral\gpio/cy_gpio.h **** /**
 403:Generated_Source\PSoC6\pdl\drivers\peripheral\gpio/cy_gpio.h **** * \defgroup group_gpio_driveModes Pin drive mode
 404:Generated_Source\PSoC6\pdl\drivers\peripheral\gpio/cy_gpio.h **** * \{
 405:Generated_Source\PSoC6\pdl\drivers\peripheral\gpio/cy_gpio.h **** * Constants to be used for setting the drive mode of the pin.
 406:Generated_Source\PSoC6\pdl\drivers\peripheral\gpio/cy_gpio.h **** */
 407:Generated_Source\PSoC6\pdl\drivers\peripheral\gpio/cy_gpio.h **** #define CY_GPIO_DM_ANALOG                      (0x00UL) /**< Analog High-Z. Input buffer off */
 408:Generated_Source\PSoC6\pdl\drivers\peripheral\gpio/cy_gpio.h **** #define CY_GPIO_DM_PULLUP_IN_OFF               (0x02UL) /**< Resistive Pull-Up. Input buffer off */
 409:Generated_Source\PSoC6\pdl\drivers\peripheral\gpio/cy_gpio.h **** #define CY_GPIO_DM_PULLDOWN_IN_OFF             (0x03UL) /**< Resistive Pull-Down. Input buffer off 
 410:Generated_Source\PSoC6\pdl\drivers\peripheral\gpio/cy_gpio.h **** #define CY_GPIO_DM_OD_DRIVESLOW_IN_OFF         (0x04UL) /**< Open Drain, Drives Low. Input buffer o
 411:Generated_Source\PSoC6\pdl\drivers\peripheral\gpio/cy_gpio.h **** #define CY_GPIO_DM_OD_DRIVESHIGH_IN_OFF        (0x05UL) /**< Open Drain, Drives High. Input buffer 
 412:Generated_Source\PSoC6\pdl\drivers\peripheral\gpio/cy_gpio.h **** #define CY_GPIO_DM_STRONG_IN_OFF               (0x06UL) /**< Strong Drive. Input buffer off */
 413:Generated_Source\PSoC6\pdl\drivers\peripheral\gpio/cy_gpio.h **** #define CY_GPIO_DM_PULLUP_DOWN_IN_OFF          (0x07UL) /**< Resistive Pull-Up/Down. Input buffer o
 414:Generated_Source\PSoC6\pdl\drivers\peripheral\gpio/cy_gpio.h **** #define CY_GPIO_DM_HIGHZ                       (0x08UL) /**< Digital High-Z. Input buffer on */
 415:Generated_Source\PSoC6\pdl\drivers\peripheral\gpio/cy_gpio.h **** #define CY_GPIO_DM_PULLUP                      (0x0AUL) /**< Resistive Pull-Up. Input buffer on */
 416:Generated_Source\PSoC6\pdl\drivers\peripheral\gpio/cy_gpio.h **** #define CY_GPIO_DM_PULLDOWN                    (0x0BUL) /**< Resistive Pull-Down. Input buffer on *
 417:Generated_Source\PSoC6\pdl\drivers\peripheral\gpio/cy_gpio.h **** #define CY_GPIO_DM_OD_DRIVESLOW                (0x0CUL) /**< Open Drain, Drives Low. Input buffer o
ARM GAS  C:\Users\stijn\AppData\Local\Temp\ccD3lQ9e.s 			page 9


 418:Generated_Source\PSoC6\pdl\drivers\peripheral\gpio/cy_gpio.h **** #define CY_GPIO_DM_OD_DRIVESHIGH               (0x0DUL) /**< Open Drain, Drives High. Input buffer 
 419:Generated_Source\PSoC6\pdl\drivers\peripheral\gpio/cy_gpio.h **** #define CY_GPIO_DM_STRONG                      (0x0EUL) /**< Strong Drive. Input buffer on */
 420:Generated_Source\PSoC6\pdl\drivers\peripheral\gpio/cy_gpio.h **** #define CY_GPIO_DM_PULLUP_DOWN                 (0x0FUL) /**< Resistive Pull-Up/Down. Input buffer o
 421:Generated_Source\PSoC6\pdl\drivers\peripheral\gpio/cy_gpio.h **** /** \} */
 422:Generated_Source\PSoC6\pdl\drivers\peripheral\gpio/cy_gpio.h **** 
 423:Generated_Source\PSoC6\pdl\drivers\peripheral\gpio/cy_gpio.h **** /**
 424:Generated_Source\PSoC6\pdl\drivers\peripheral\gpio/cy_gpio.h **** * \defgroup group_gpio_vtrip Voltage trip mode
 425:Generated_Source\PSoC6\pdl\drivers\peripheral\gpio/cy_gpio.h **** * \{
 426:Generated_Source\PSoC6\pdl\drivers\peripheral\gpio/cy_gpio.h **** * Constants to be used for setting the voltage trip type on the pin.
 427:Generated_Source\PSoC6\pdl\drivers\peripheral\gpio/cy_gpio.h **** */
 428:Generated_Source\PSoC6\pdl\drivers\peripheral\gpio/cy_gpio.h **** #define CY_GPIO_VTRIP_CMOS                     (0x00UL) /**< Input buffer compatible with CMOS and 
 429:Generated_Source\PSoC6\pdl\drivers\peripheral\gpio/cy_gpio.h **** #define CY_GPIO_VTRIP_TTL                      (0x01UL) /**< Input buffer compatible with TTL and M
 430:Generated_Source\PSoC6\pdl\drivers\peripheral\gpio/cy_gpio.h **** /** \} */
 431:Generated_Source\PSoC6\pdl\drivers\peripheral\gpio/cy_gpio.h **** 
 432:Generated_Source\PSoC6\pdl\drivers\peripheral\gpio/cy_gpio.h **** /**
 433:Generated_Source\PSoC6\pdl\drivers\peripheral\gpio/cy_gpio.h **** * \defgroup group_gpio_slewRate Slew Rate Mode
 434:Generated_Source\PSoC6\pdl\drivers\peripheral\gpio/cy_gpio.h **** * \{
 435:Generated_Source\PSoC6\pdl\drivers\peripheral\gpio/cy_gpio.h **** * Constants to be used for setting the slew rate of the pin.
 436:Generated_Source\PSoC6\pdl\drivers\peripheral\gpio/cy_gpio.h **** */
 437:Generated_Source\PSoC6\pdl\drivers\peripheral\gpio/cy_gpio.h **** #define CY_GPIO_SLEW_FAST                      (0x00UL) /**< Fast slew rate */
 438:Generated_Source\PSoC6\pdl\drivers\peripheral\gpio/cy_gpio.h **** #define CY_GPIO_SLEW_SLOW                      (0x01UL) /**< Slow slew rate */
 439:Generated_Source\PSoC6\pdl\drivers\peripheral\gpio/cy_gpio.h **** /** \} */
 440:Generated_Source\PSoC6\pdl\drivers\peripheral\gpio/cy_gpio.h **** 
 441:Generated_Source\PSoC6\pdl\drivers\peripheral\gpio/cy_gpio.h **** /**
 442:Generated_Source\PSoC6\pdl\drivers\peripheral\gpio/cy_gpio.h **** * \defgroup group_gpio_driveStrength Pin drive strength
 443:Generated_Source\PSoC6\pdl\drivers\peripheral\gpio/cy_gpio.h **** * \{
 444:Generated_Source\PSoC6\pdl\drivers\peripheral\gpio/cy_gpio.h **** * Constants to be used for setting the drive strength of the pin.
 445:Generated_Source\PSoC6\pdl\drivers\peripheral\gpio/cy_gpio.h **** */
 446:Generated_Source\PSoC6\pdl\drivers\peripheral\gpio/cy_gpio.h **** #define CY_GPIO_DRIVE_FULL                     (0x00UL) /**< Full drive strength: Max drive current
 447:Generated_Source\PSoC6\pdl\drivers\peripheral\gpio/cy_gpio.h **** #define CY_GPIO_DRIVE_1_2                      (0x01UL) /**< 1/2 drive strength: 1/2 drive current 
 448:Generated_Source\PSoC6\pdl\drivers\peripheral\gpio/cy_gpio.h **** #define CY_GPIO_DRIVE_1_4                      (0x02UL) /**< 1/4 drive strength: 1/4 drive current 
 449:Generated_Source\PSoC6\pdl\drivers\peripheral\gpio/cy_gpio.h **** #define CY_GPIO_DRIVE_1_8                      (0x03UL) /**< 1/8 drive strength: 1/8 drive current 
 450:Generated_Source\PSoC6\pdl\drivers\peripheral\gpio/cy_gpio.h **** /** \} */
 451:Generated_Source\PSoC6\pdl\drivers\peripheral\gpio/cy_gpio.h **** 
 452:Generated_Source\PSoC6\pdl\drivers\peripheral\gpio/cy_gpio.h **** /**
 453:Generated_Source\PSoC6\pdl\drivers\peripheral\gpio/cy_gpio.h **** * \defgroup group_gpio_interruptTrigger Interrupt trigger type
 454:Generated_Source\PSoC6\pdl\drivers\peripheral\gpio/cy_gpio.h **** * \{
 455:Generated_Source\PSoC6\pdl\drivers\peripheral\gpio/cy_gpio.h **** * Constants to be used for setting the interrupt trigger type on the pin.
 456:Generated_Source\PSoC6\pdl\drivers\peripheral\gpio/cy_gpio.h **** */
 457:Generated_Source\PSoC6\pdl\drivers\peripheral\gpio/cy_gpio.h **** #define CY_GPIO_INTR_DISABLE                   (0x00UL) /**< Disable the pin interrupt generation *
 458:Generated_Source\PSoC6\pdl\drivers\peripheral\gpio/cy_gpio.h **** #define CY_GPIO_INTR_RISING                    (0x01UL) /**< Rising-Edge interrupt */
 459:Generated_Source\PSoC6\pdl\drivers\peripheral\gpio/cy_gpio.h **** #define CY_GPIO_INTR_FALLING                   (0x02UL) /**< Falling-Edge interrupt */
 460:Generated_Source\PSoC6\pdl\drivers\peripheral\gpio/cy_gpio.h **** #define CY_GPIO_INTR_BOTH                      (0x03UL) /**< Both-Edge interrupt */
 461:Generated_Source\PSoC6\pdl\drivers\peripheral\gpio/cy_gpio.h **** /** \} */
 462:Generated_Source\PSoC6\pdl\drivers\peripheral\gpio/cy_gpio.h **** 
 463:Generated_Source\PSoC6\pdl\drivers\peripheral\gpio/cy_gpio.h **** /**
 464:Generated_Source\PSoC6\pdl\drivers\peripheral\gpio/cy_gpio.h **** * \defgroup group_gpio_sioVreg SIO output buffer mode
 465:Generated_Source\PSoC6\pdl\drivers\peripheral\gpio/cy_gpio.h **** * \{
 466:Generated_Source\PSoC6\pdl\drivers\peripheral\gpio/cy_gpio.h **** * Constants to be used for setting the SIO output buffer mode on the pin.
 467:Generated_Source\PSoC6\pdl\drivers\peripheral\gpio/cy_gpio.h **** */
 468:Generated_Source\PSoC6\pdl\drivers\peripheral\gpio/cy_gpio.h **** #define CY_SIO_VREG_UNREGULATED                (0x00UL) /**< Unregulated output buffer */
 469:Generated_Source\PSoC6\pdl\drivers\peripheral\gpio/cy_gpio.h **** #define CY_SIO_VREG_REGULATED                  (0x01UL) /**< Regulated output buffer */
 470:Generated_Source\PSoC6\pdl\drivers\peripheral\gpio/cy_gpio.h **** /** \} */
 471:Generated_Source\PSoC6\pdl\drivers\peripheral\gpio/cy_gpio.h **** 
 472:Generated_Source\PSoC6\pdl\drivers\peripheral\gpio/cy_gpio.h **** /**
 473:Generated_Source\PSoC6\pdl\drivers\peripheral\gpio/cy_gpio.h **** * \defgroup group_gpio_sioIbuf SIO input buffer mode
 474:Generated_Source\PSoC6\pdl\drivers\peripheral\gpio/cy_gpio.h **** * \{
ARM GAS  C:\Users\stijn\AppData\Local\Temp\ccD3lQ9e.s 			page 10


 475:Generated_Source\PSoC6\pdl\drivers\peripheral\gpio/cy_gpio.h **** * Constants to be used for setting the SIO input buffer mode on the pin.
 476:Generated_Source\PSoC6\pdl\drivers\peripheral\gpio/cy_gpio.h **** */
 477:Generated_Source\PSoC6\pdl\drivers\peripheral\gpio/cy_gpio.h **** #define CY_SIO_IBUF_SINGLEENDED                (0x00UL) /**< Single ended input buffer */
 478:Generated_Source\PSoC6\pdl\drivers\peripheral\gpio/cy_gpio.h **** #define CY_SIO_IBUF_DIFFERENTIAL               (0x01UL) /**< Differential input buffer */
 479:Generated_Source\PSoC6\pdl\drivers\peripheral\gpio/cy_gpio.h **** /** \} */
 480:Generated_Source\PSoC6\pdl\drivers\peripheral\gpio/cy_gpio.h **** 
 481:Generated_Source\PSoC6\pdl\drivers\peripheral\gpio/cy_gpio.h **** /**
 482:Generated_Source\PSoC6\pdl\drivers\peripheral\gpio/cy_gpio.h **** * \defgroup group_gpio_sioVtrip SIO input buffer trip-point
 483:Generated_Source\PSoC6\pdl\drivers\peripheral\gpio/cy_gpio.h **** * \{
 484:Generated_Source\PSoC6\pdl\drivers\peripheral\gpio/cy_gpio.h **** * Constants to be used for setting the SIO input buffer trip-point of the pin.
 485:Generated_Source\PSoC6\pdl\drivers\peripheral\gpio/cy_gpio.h **** */
 486:Generated_Source\PSoC6\pdl\drivers\peripheral\gpio/cy_gpio.h **** #define CY_SIO_VTRIP_CMOS                      (0x00UL) /**< CMOS input buffer (single-ended) */
 487:Generated_Source\PSoC6\pdl\drivers\peripheral\gpio/cy_gpio.h **** #define CY_SIO_VTRIP_TTL                       (0x01UL) /**< TTL input buffer (single-ended) */
 488:Generated_Source\PSoC6\pdl\drivers\peripheral\gpio/cy_gpio.h **** #define CY_SIO_VTRIP_0_5VDDIO_0_5VOH           (0x00UL) /**< 0.5xVddio or 0.5xVoh (differential) */
 489:Generated_Source\PSoC6\pdl\drivers\peripheral\gpio/cy_gpio.h **** #define CY_SIO_VTRIP_0_4VDDIO_1_0VREF          (0x01UL) /**< 0.4xVddio or 0.4xVoh (differential) */
 490:Generated_Source\PSoC6\pdl\drivers\peripheral\gpio/cy_gpio.h **** /** \} */
 491:Generated_Source\PSoC6\pdl\drivers\peripheral\gpio/cy_gpio.h **** 
 492:Generated_Source\PSoC6\pdl\drivers\peripheral\gpio/cy_gpio.h **** /**
 493:Generated_Source\PSoC6\pdl\drivers\peripheral\gpio/cy_gpio.h **** * \defgroup group_gpio_sioVref SIO reference voltage for input buffer trip-point
 494:Generated_Source\PSoC6\pdl\drivers\peripheral\gpio/cy_gpio.h **** * \{
 495:Generated_Source\PSoC6\pdl\drivers\peripheral\gpio/cy_gpio.h **** * Constants to be used for setting the reference voltage of SIO input buffer trip-point.
 496:Generated_Source\PSoC6\pdl\drivers\peripheral\gpio/cy_gpio.h **** */
 497:Generated_Source\PSoC6\pdl\drivers\peripheral\gpio/cy_gpio.h **** #define CY_SIO_VREF_PINREF                     (0x00UL) /**< Vref from analog pin */
 498:Generated_Source\PSoC6\pdl\drivers\peripheral\gpio/cy_gpio.h **** #define CY_SIO_VREF_1_2V                       (0x01UL) /**< Vref from internal 1.2V reference */
 499:Generated_Source\PSoC6\pdl\drivers\peripheral\gpio/cy_gpio.h **** #define CY_SIO_VREF_AMUX_A                     (0x02UL) /**< Vref from AMUXBUS_A */
 500:Generated_Source\PSoC6\pdl\drivers\peripheral\gpio/cy_gpio.h **** #define CY_SIO_VREF_AMUX_B                     (0x03UL) /**< Vref from AMUXBUS_B */
 501:Generated_Source\PSoC6\pdl\drivers\peripheral\gpio/cy_gpio.h **** /** \} */
 502:Generated_Source\PSoC6\pdl\drivers\peripheral\gpio/cy_gpio.h **** 
 503:Generated_Source\PSoC6\pdl\drivers\peripheral\gpio/cy_gpio.h **** /**
 504:Generated_Source\PSoC6\pdl\drivers\peripheral\gpio/cy_gpio.h **** * \defgroup group_gpio_sioVoh Regulated output voltage level (Voh) and input buffer trip-point of a
 505:Generated_Source\PSoC6\pdl\drivers\peripheral\gpio/cy_gpio.h **** * \{
 506:Generated_Source\PSoC6\pdl\drivers\peripheral\gpio/cy_gpio.h **** * Constants to be used for setting the Voh and input buffer trip-point of an SIO pair
 507:Generated_Source\PSoC6\pdl\drivers\peripheral\gpio/cy_gpio.h **** */
 508:Generated_Source\PSoC6\pdl\drivers\peripheral\gpio/cy_gpio.h **** #define CY_SIO_VOH_1_00                        (0x00UL) /**< Voh = 1 x Reference */
 509:Generated_Source\PSoC6\pdl\drivers\peripheral\gpio/cy_gpio.h **** #define CY_SIO_VOH_1_25                        (0x01UL) /**< Voh = 1.25 x Reference */
 510:Generated_Source\PSoC6\pdl\drivers\peripheral\gpio/cy_gpio.h **** #define CY_SIO_VOH_1_49                        (0x02UL) /**< Voh = 1.49 x Reference */
 511:Generated_Source\PSoC6\pdl\drivers\peripheral\gpio/cy_gpio.h **** #define CY_SIO_VOH_1_67                        (0x03UL) /**< Voh = 1.67 x Reference */
 512:Generated_Source\PSoC6\pdl\drivers\peripheral\gpio/cy_gpio.h **** #define CY_SIO_VOH_2_08                        (0x04UL) /**< Voh = 2.08 x Reference */
 513:Generated_Source\PSoC6\pdl\drivers\peripheral\gpio/cy_gpio.h **** #define CY_SIO_VOH_2_50                        (0x05UL) /**< Voh = 2.50 x Reference */
 514:Generated_Source\PSoC6\pdl\drivers\peripheral\gpio/cy_gpio.h **** #define CY_SIO_VOH_2_78                        (0x06UL) /**< Voh = 2.78 x Reference */
 515:Generated_Source\PSoC6\pdl\drivers\peripheral\gpio/cy_gpio.h **** #define CY_SIO_VOH_4_16                        (0x07UL) /**< Voh = 4.16 x Reference */
 516:Generated_Source\PSoC6\pdl\drivers\peripheral\gpio/cy_gpio.h **** /** \} */
 517:Generated_Source\PSoC6\pdl\drivers\peripheral\gpio/cy_gpio.h **** 
 518:Generated_Source\PSoC6\pdl\drivers\peripheral\gpio/cy_gpio.h **** /** \} group_gpio_macros */
 519:Generated_Source\PSoC6\pdl\drivers\peripheral\gpio/cy_gpio.h **** 
 520:Generated_Source\PSoC6\pdl\drivers\peripheral\gpio/cy_gpio.h **** /***************************************
 521:Generated_Source\PSoC6\pdl\drivers\peripheral\gpio/cy_gpio.h **** *        Function Prototypes
 522:Generated_Source\PSoC6\pdl\drivers\peripheral\gpio/cy_gpio.h **** ***************************************/
 523:Generated_Source\PSoC6\pdl\drivers\peripheral\gpio/cy_gpio.h **** 
 524:Generated_Source\PSoC6\pdl\drivers\peripheral\gpio/cy_gpio.h **** /**
 525:Generated_Source\PSoC6\pdl\drivers\peripheral\gpio/cy_gpio.h **** * \addtogroup group_gpio_functions
 526:Generated_Source\PSoC6\pdl\drivers\peripheral\gpio/cy_gpio.h **** * \{
 527:Generated_Source\PSoC6\pdl\drivers\peripheral\gpio/cy_gpio.h **** */
 528:Generated_Source\PSoC6\pdl\drivers\peripheral\gpio/cy_gpio.h **** 
 529:Generated_Source\PSoC6\pdl\drivers\peripheral\gpio/cy_gpio.h **** /**
 530:Generated_Source\PSoC6\pdl\drivers\peripheral\gpio/cy_gpio.h **** * \addtogroup group_gpio_functions_init
 531:Generated_Source\PSoC6\pdl\drivers\peripheral\gpio/cy_gpio.h **** * \{
ARM GAS  C:\Users\stijn\AppData\Local\Temp\ccD3lQ9e.s 			page 11


 532:Generated_Source\PSoC6\pdl\drivers\peripheral\gpio/cy_gpio.h **** */
 533:Generated_Source\PSoC6\pdl\drivers\peripheral\gpio/cy_gpio.h **** 
 534:Generated_Source\PSoC6\pdl\drivers\peripheral\gpio/cy_gpio.h **** cy_en_gpio_status_t Cy_GPIO_Pin_Init(GPIO_PRT_Type* base, uint32_t pinNum, const cy_stc_gpio_pin_co
 535:Generated_Source\PSoC6\pdl\drivers\peripheral\gpio/cy_gpio.h **** cy_en_gpio_status_t Cy_GPIO_Port_Init(GPIO_PRT_Type* base, const cy_stc_gpio_prt_config_t *config);
 536:Generated_Source\PSoC6\pdl\drivers\peripheral\gpio/cy_gpio.h **** void Cy_GPIO_Pin_FastInit(GPIO_PRT_Type* base, uint32_t pinNum, uint32_t driveMode, uint32_t outVal
 537:Generated_Source\PSoC6\pdl\drivers\peripheral\gpio/cy_gpio.h **** void Cy_GPIO_Port_Deinit(GPIO_PRT_Type* base);
 538:Generated_Source\PSoC6\pdl\drivers\peripheral\gpio/cy_gpio.h **** __STATIC_INLINE void Cy_GPIO_SetHSIOM(GPIO_PRT_Type* base, uint32_t pinNum, en_hsiom_sel_t value);
 539:Generated_Source\PSoC6\pdl\drivers\peripheral\gpio/cy_gpio.h **** __STATIC_INLINE en_hsiom_sel_t Cy_GPIO_GetHSIOM(GPIO_PRT_Type* base, uint32_t pinNum);
 540:Generated_Source\PSoC6\pdl\drivers\peripheral\gpio/cy_gpio.h **** __STATIC_INLINE GPIO_PRT_Type* Cy_GPIO_PortToAddr(uint32_t portNum);
 541:Generated_Source\PSoC6\pdl\drivers\peripheral\gpio/cy_gpio.h **** 
 542:Generated_Source\PSoC6\pdl\drivers\peripheral\gpio/cy_gpio.h **** /** \} group_gpio_functions_init */
 543:Generated_Source\PSoC6\pdl\drivers\peripheral\gpio/cy_gpio.h **** 
 544:Generated_Source\PSoC6\pdl\drivers\peripheral\gpio/cy_gpio.h **** /**
 545:Generated_Source\PSoC6\pdl\drivers\peripheral\gpio/cy_gpio.h **** * \addtogroup group_gpio_functions_gpio
 546:Generated_Source\PSoC6\pdl\drivers\peripheral\gpio/cy_gpio.h **** * \{
 547:Generated_Source\PSoC6\pdl\drivers\peripheral\gpio/cy_gpio.h **** */
 548:Generated_Source\PSoC6\pdl\drivers\peripheral\gpio/cy_gpio.h **** 
 549:Generated_Source\PSoC6\pdl\drivers\peripheral\gpio/cy_gpio.h **** void Cy_GPIO_SetAmuxSplit(cy_en_amux_split_t switchCtrl, cy_en_gpio_amuxconnect_t amuxConnect, cy_e
 550:Generated_Source\PSoC6\pdl\drivers\peripheral\gpio/cy_gpio.h **** cy_en_gpio_amuxconnect_t Cy_GPIO_GetAmuxSplit(cy_en_amux_split_t switchCtrl, cy_en_gpio_amuxselect_
 551:Generated_Source\PSoC6\pdl\drivers\peripheral\gpio/cy_gpio.h **** 
 552:Generated_Source\PSoC6\pdl\drivers\peripheral\gpio/cy_gpio.h **** __STATIC_INLINE uint32_t Cy_GPIO_Read(GPIO_PRT_Type* base, uint32_t pinNum);
 553:Generated_Source\PSoC6\pdl\drivers\peripheral\gpio/cy_gpio.h **** __STATIC_INLINE void Cy_GPIO_Write(GPIO_PRT_Type* base, uint32_t pinNum, uint32_t value);
 554:Generated_Source\PSoC6\pdl\drivers\peripheral\gpio/cy_gpio.h **** __STATIC_INLINE uint32_t Cy_GPIO_ReadOut(GPIO_PRT_Type* base, uint32_t pinNum);
 555:Generated_Source\PSoC6\pdl\drivers\peripheral\gpio/cy_gpio.h **** __STATIC_INLINE void Cy_GPIO_Set(GPIO_PRT_Type* base, uint32_t pinNum);
 556:Generated_Source\PSoC6\pdl\drivers\peripheral\gpio/cy_gpio.h **** __STATIC_INLINE void Cy_GPIO_Clr(GPIO_PRT_Type* base, uint32_t pinNum);
 557:Generated_Source\PSoC6\pdl\drivers\peripheral\gpio/cy_gpio.h **** __STATIC_INLINE void Cy_GPIO_Inv(GPIO_PRT_Type* base, uint32_t pinNum);
 558:Generated_Source\PSoC6\pdl\drivers\peripheral\gpio/cy_gpio.h **** __STATIC_INLINE void Cy_GPIO_SetDrivemode(GPIO_PRT_Type* base, uint32_t pinNum, uint32_t value);
 559:Generated_Source\PSoC6\pdl\drivers\peripheral\gpio/cy_gpio.h **** __STATIC_INLINE uint32_t Cy_GPIO_GetDrivemode(GPIO_PRT_Type* base, uint32_t pinNum);
 560:Generated_Source\PSoC6\pdl\drivers\peripheral\gpio/cy_gpio.h **** __STATIC_INLINE void Cy_GPIO_SetVtrip(GPIO_PRT_Type* base, uint32_t pinNum, uint32_t value);
 561:Generated_Source\PSoC6\pdl\drivers\peripheral\gpio/cy_gpio.h **** __STATIC_INLINE uint32_t Cy_GPIO_GetVtrip(GPIO_PRT_Type* base, uint32_t pinNum);
 562:Generated_Source\PSoC6\pdl\drivers\peripheral\gpio/cy_gpio.h **** __STATIC_INLINE void Cy_GPIO_SetSlewRate(GPIO_PRT_Type* base, uint32_t pinNum, uint32_t value);
 563:Generated_Source\PSoC6\pdl\drivers\peripheral\gpio/cy_gpio.h **** __STATIC_INLINE uint32_t Cy_GPIO_GetSlewRate(GPIO_PRT_Type* base, uint32_t pinNum);
 564:Generated_Source\PSoC6\pdl\drivers\peripheral\gpio/cy_gpio.h **** __STATIC_INLINE void Cy_GPIO_SetDriveSel(GPIO_PRT_Type* base, uint32_t pinNum, uint32_t value);
 565:Generated_Source\PSoC6\pdl\drivers\peripheral\gpio/cy_gpio.h **** __STATIC_INLINE uint32_t Cy_GPIO_GetDriveSel(GPIO_PRT_Type* base, uint32_t pinNum);
 566:Generated_Source\PSoC6\pdl\drivers\peripheral\gpio/cy_gpio.h **** 
 567:Generated_Source\PSoC6\pdl\drivers\peripheral\gpio/cy_gpio.h **** /** \} group_gpio_functions_gpio */
 568:Generated_Source\PSoC6\pdl\drivers\peripheral\gpio/cy_gpio.h **** 
 569:Generated_Source\PSoC6\pdl\drivers\peripheral\gpio/cy_gpio.h **** /**
 570:Generated_Source\PSoC6\pdl\drivers\peripheral\gpio/cy_gpio.h **** * \addtogroup group_gpio_functions_sio
 571:Generated_Source\PSoC6\pdl\drivers\peripheral\gpio/cy_gpio.h **** * \{
 572:Generated_Source\PSoC6\pdl\drivers\peripheral\gpio/cy_gpio.h **** */
 573:Generated_Source\PSoC6\pdl\drivers\peripheral\gpio/cy_gpio.h **** 
 574:Generated_Source\PSoC6\pdl\drivers\peripheral\gpio/cy_gpio.h **** __STATIC_INLINE void Cy_GPIO_SetVregEn(GPIO_PRT_Type* base, uint32_t pinNum, uint32_t value);
 575:Generated_Source\PSoC6\pdl\drivers\peripheral\gpio/cy_gpio.h **** __STATIC_INLINE uint32_t Cy_GPIO_GetVregEn(GPIO_PRT_Type* base, uint32_t pinNum);
 576:Generated_Source\PSoC6\pdl\drivers\peripheral\gpio/cy_gpio.h **** __STATIC_INLINE void Cy_GPIO_SetIbufMode(GPIO_PRT_Type* base, uint32_t pinNum, uint32_t value);
 577:Generated_Source\PSoC6\pdl\drivers\peripheral\gpio/cy_gpio.h **** __STATIC_INLINE uint32_t Cy_GPIO_GetIbufMode(GPIO_PRT_Type* base, uint32_t pinNum);
 578:Generated_Source\PSoC6\pdl\drivers\peripheral\gpio/cy_gpio.h **** __STATIC_INLINE void Cy_GPIO_SetVtripSel(GPIO_PRT_Type* base, uint32_t pinNum, uint32_t value);
 579:Generated_Source\PSoC6\pdl\drivers\peripheral\gpio/cy_gpio.h **** __STATIC_INLINE uint32_t Cy_GPIO_GetVtripSel(GPIO_PRT_Type* base, uint32_t pinNum);
 580:Generated_Source\PSoC6\pdl\drivers\peripheral\gpio/cy_gpio.h **** __STATIC_INLINE void Cy_GPIO_SetVrefSel(GPIO_PRT_Type* base, uint32_t pinNum, uint32_t value);
 581:Generated_Source\PSoC6\pdl\drivers\peripheral\gpio/cy_gpio.h **** __STATIC_INLINE uint32_t Cy_GPIO_GetVrefSel(GPIO_PRT_Type* base, uint32_t pinNum);
 582:Generated_Source\PSoC6\pdl\drivers\peripheral\gpio/cy_gpio.h **** __STATIC_INLINE void Cy_GPIO_SetVohSel(GPIO_PRT_Type* base, uint32_t pinNum, uint32_t value);
 583:Generated_Source\PSoC6\pdl\drivers\peripheral\gpio/cy_gpio.h **** __STATIC_INLINE uint32_t Cy_GPIO_GetVohSel(GPIO_PRT_Type* base, uint32_t pinNum);
 584:Generated_Source\PSoC6\pdl\drivers\peripheral\gpio/cy_gpio.h **** 
 585:Generated_Source\PSoC6\pdl\drivers\peripheral\gpio/cy_gpio.h **** /** \} group_gpio_functions_sio */
 586:Generated_Source\PSoC6\pdl\drivers\peripheral\gpio/cy_gpio.h **** 
 587:Generated_Source\PSoC6\pdl\drivers\peripheral\gpio/cy_gpio.h **** /**
 588:Generated_Source\PSoC6\pdl\drivers\peripheral\gpio/cy_gpio.h **** * \addtogroup group_gpio_functions_interrupt
ARM GAS  C:\Users\stijn\AppData\Local\Temp\ccD3lQ9e.s 			page 12


 589:Generated_Source\PSoC6\pdl\drivers\peripheral\gpio/cy_gpio.h **** * \{
 590:Generated_Source\PSoC6\pdl\drivers\peripheral\gpio/cy_gpio.h **** */
 591:Generated_Source\PSoC6\pdl\drivers\peripheral\gpio/cy_gpio.h **** 
 592:Generated_Source\PSoC6\pdl\drivers\peripheral\gpio/cy_gpio.h **** __STATIC_INLINE uint32_t Cy_GPIO_GetInterruptStatus(GPIO_PRT_Type* base, uint32_t pinNum);
 593:Generated_Source\PSoC6\pdl\drivers\peripheral\gpio/cy_gpio.h **** __STATIC_INLINE void Cy_GPIO_ClearInterrupt(GPIO_PRT_Type* base, uint32_t pinNum);
 594:Generated_Source\PSoC6\pdl\drivers\peripheral\gpio/cy_gpio.h **** __STATIC_INLINE void Cy_GPIO_SetInterruptMask(GPIO_PRT_Type* base, uint32_t pinNum, uint32_t value)
 595:Generated_Source\PSoC6\pdl\drivers\peripheral\gpio/cy_gpio.h **** __STATIC_INLINE uint32_t Cy_GPIO_GetInterruptMask(GPIO_PRT_Type* base, uint32_t pinNum);
 596:Generated_Source\PSoC6\pdl\drivers\peripheral\gpio/cy_gpio.h **** __STATIC_INLINE uint32_t Cy_GPIO_GetInterruptStatusMasked(GPIO_PRT_Type* base, uint32_t pinNum);
 597:Generated_Source\PSoC6\pdl\drivers\peripheral\gpio/cy_gpio.h **** __STATIC_INLINE void Cy_GPIO_SetSwInterrupt(GPIO_PRT_Type* base, uint32_t pinNum);
 598:Generated_Source\PSoC6\pdl\drivers\peripheral\gpio/cy_gpio.h **** __STATIC_INLINE void Cy_GPIO_SetInterruptEdge(GPIO_PRT_Type* base, uint32_t pinNum, uint32_t value)
 599:Generated_Source\PSoC6\pdl\drivers\peripheral\gpio/cy_gpio.h **** __STATIC_INLINE uint32_t Cy_GPIO_GetInterruptEdge(GPIO_PRT_Type* base, uint32_t pinNum);
 600:Generated_Source\PSoC6\pdl\drivers\peripheral\gpio/cy_gpio.h **** __STATIC_INLINE void Cy_GPIO_SetFilter(GPIO_PRT_Type* base, uint32_t value);
 601:Generated_Source\PSoC6\pdl\drivers\peripheral\gpio/cy_gpio.h **** __STATIC_INLINE uint32_t Cy_GPIO_GetFilter(GPIO_PRT_Type* base);
 602:Generated_Source\PSoC6\pdl\drivers\peripheral\gpio/cy_gpio.h **** 
 603:Generated_Source\PSoC6\pdl\drivers\peripheral\gpio/cy_gpio.h **** __STATIC_INLINE uint32_t Cy_GPIO_GetInterruptCause0(void);
 604:Generated_Source\PSoC6\pdl\drivers\peripheral\gpio/cy_gpio.h **** __STATIC_INLINE uint32_t Cy_GPIO_GetInterruptCause1(void);
 605:Generated_Source\PSoC6\pdl\drivers\peripheral\gpio/cy_gpio.h **** __STATIC_INLINE uint32_t Cy_GPIO_GetInterruptCause2(void);
 606:Generated_Source\PSoC6\pdl\drivers\peripheral\gpio/cy_gpio.h **** __STATIC_INLINE uint32_t Cy_GPIO_GetInterruptCause3(void);
 607:Generated_Source\PSoC6\pdl\drivers\peripheral\gpio/cy_gpio.h **** 
 608:Generated_Source\PSoC6\pdl\drivers\peripheral\gpio/cy_gpio.h **** /** \} group_gpio_functions_interrupt */
 609:Generated_Source\PSoC6\pdl\drivers\peripheral\gpio/cy_gpio.h **** 
 610:Generated_Source\PSoC6\pdl\drivers\peripheral\gpio/cy_gpio.h **** 
 611:Generated_Source\PSoC6\pdl\drivers\peripheral\gpio/cy_gpio.h **** /**
 612:Generated_Source\PSoC6\pdl\drivers\peripheral\gpio/cy_gpio.h **** * \addtogroup group_gpio_functions_init
 613:Generated_Source\PSoC6\pdl\drivers\peripheral\gpio/cy_gpio.h **** * \{
 614:Generated_Source\PSoC6\pdl\drivers\peripheral\gpio/cy_gpio.h **** */
 615:Generated_Source\PSoC6\pdl\drivers\peripheral\gpio/cy_gpio.h **** 
 616:Generated_Source\PSoC6\pdl\drivers\peripheral\gpio/cy_gpio.h **** /*******************************************************************************
 617:Generated_Source\PSoC6\pdl\drivers\peripheral\gpio/cy_gpio.h **** * Function Name: Cy_GPIO_SetHSIOM
 618:Generated_Source\PSoC6\pdl\drivers\peripheral\gpio/cy_gpio.h **** ****************************************************************************//**
 619:Generated_Source\PSoC6\pdl\drivers\peripheral\gpio/cy_gpio.h **** *
 620:Generated_Source\PSoC6\pdl\drivers\peripheral\gpio/cy_gpio.h **** * Configures the HSIOM connection to the pin.
 621:Generated_Source\PSoC6\pdl\drivers\peripheral\gpio/cy_gpio.h **** *
 622:Generated_Source\PSoC6\pdl\drivers\peripheral\gpio/cy_gpio.h **** * Connects the specified High-Speed Input Output Multiplexer (HSIOM) selection
 623:Generated_Source\PSoC6\pdl\drivers\peripheral\gpio/cy_gpio.h **** * to the pin.
 624:Generated_Source\PSoC6\pdl\drivers\peripheral\gpio/cy_gpio.h **** *
 625:Generated_Source\PSoC6\pdl\drivers\peripheral\gpio/cy_gpio.h **** * \param base
 626:Generated_Source\PSoC6\pdl\drivers\peripheral\gpio/cy_gpio.h **** * Pointer to the pin's port register base address
 627:Generated_Source\PSoC6\pdl\drivers\peripheral\gpio/cy_gpio.h **** *
 628:Generated_Source\PSoC6\pdl\drivers\peripheral\gpio/cy_gpio.h **** * \param pinNum
 629:Generated_Source\PSoC6\pdl\drivers\peripheral\gpio/cy_gpio.h **** * Position of the pin bit-field within the port register
 630:Generated_Source\PSoC6\pdl\drivers\peripheral\gpio/cy_gpio.h **** *
 631:Generated_Source\PSoC6\pdl\drivers\peripheral\gpio/cy_gpio.h **** * \param value
 632:Generated_Source\PSoC6\pdl\drivers\peripheral\gpio/cy_gpio.h **** * HSIOM input selection
 633:Generated_Source\PSoC6\pdl\drivers\peripheral\gpio/cy_gpio.h **** *
 634:Generated_Source\PSoC6\pdl\drivers\peripheral\gpio/cy_gpio.h **** * \note 
 635:Generated_Source\PSoC6\pdl\drivers\peripheral\gpio/cy_gpio.h **** * This function modifies a port register in a read-modify-write operation. It is
 636:Generated_Source\PSoC6\pdl\drivers\peripheral\gpio/cy_gpio.h **** * not thread safe as the resource is shared among multiple pins on a port.
 637:Generated_Source\PSoC6\pdl\drivers\peripheral\gpio/cy_gpio.h **** *
 638:Generated_Source\PSoC6\pdl\drivers\peripheral\gpio/cy_gpio.h **** * \funcusage
 639:Generated_Source\PSoC6\pdl\drivers\peripheral\gpio/cy_gpio.h **** * \snippet gpio/gpio_v1_10_sut_01.cydsn/main_cm4.c snippet_Cy_GPIO_SetHSIOM
 640:Generated_Source\PSoC6\pdl\drivers\peripheral\gpio/cy_gpio.h **** *
 641:Generated_Source\PSoC6\pdl\drivers\peripheral\gpio/cy_gpio.h **** *******************************************************************************/
 642:Generated_Source\PSoC6\pdl\drivers\peripheral\gpio/cy_gpio.h **** __STATIC_INLINE void Cy_GPIO_SetHSIOM(GPIO_PRT_Type* base, uint32_t pinNum, en_hsiom_sel_t value)
 643:Generated_Source\PSoC6\pdl\drivers\peripheral\gpio/cy_gpio.h **** {
  33              		.loc 1 643 0
  34              		.cfi_startproc
ARM GAS  C:\Users\stijn\AppData\Local\Temp\ccD3lQ9e.s 			page 13


  35              		@ args = 0, pretend = 0, frame = 32
  36              		@ frame_needed = 1, uses_anonymous_args = 0
  37 0000 80B5     		push	{r7, lr}
  38              		.cfi_def_cfa_offset 8
  39              		.cfi_offset 7, -8
  40              		.cfi_offset 14, -4
  41 0002 88B0     		sub	sp, sp, #32
  42              		.cfi_def_cfa_offset 40
  43 0004 00AF     		add	r7, sp, #0
  44              		.cfi_def_cfa_register 7
  45 0006 F860     		str	r0, [r7, #12]
  46 0008 B960     		str	r1, [r7, #8]
  47 000a 1346     		mov	r3, r2
  48 000c FB71     		strb	r3, [r7, #7]
 644:Generated_Source\PSoC6\pdl\drivers\peripheral\gpio/cy_gpio.h ****     uint32_t portNum;
 645:Generated_Source\PSoC6\pdl\drivers\peripheral\gpio/cy_gpio.h ****     uint32_t tempReg;
 646:Generated_Source\PSoC6\pdl\drivers\peripheral\gpio/cy_gpio.h ****     HSIOM_PRT_V1_Type* portAddrHSIOM;
 647:Generated_Source\PSoC6\pdl\drivers\peripheral\gpio/cy_gpio.h **** 
 648:Generated_Source\PSoC6\pdl\drivers\peripheral\gpio/cy_gpio.h ****     CY_ASSERT_L2(CY_GPIO_IS_PIN_VALID(pinNum));
  49              		.loc 1 648 0
  50 000e BB68     		ldr	r3, [r7, #8]
  51 0010 072B     		cmp	r3, #7
  52 0012 04D9     		bls	.L2
  53              		.loc 1 648 0 is_stmt 0 discriminator 1
  54 0014 4FF42271 		mov	r1, #648
  55 0018 2648     		ldr	r0, .L7
  56 001a FFF7FEFF 		bl	Cy_SysLib_AssertFailed
  57              	.L2:
 649:Generated_Source\PSoC6\pdl\drivers\peripheral\gpio/cy_gpio.h ****     CY_ASSERT_L2(CY_GPIO_IS_HSIOM_VALID(value));
  58              		.loc 1 649 0 is_stmt 1
  59 001e FB79     		ldrb	r3, [r7, #7]	@ zero_extendqisi2
  60 0020 23F01F03 		bic	r3, r3, #31
  61 0024 002B     		cmp	r3, #0
  62 0026 04D0     		beq	.L3
  63              		.loc 1 649 0 is_stmt 0 discriminator 1
  64 0028 40F28921 		movw	r1, #649
  65 002c 2148     		ldr	r0, .L7
  66 002e FFF7FEFF 		bl	Cy_SysLib_AssertFailed
  67              	.L3:
 650:Generated_Source\PSoC6\pdl\drivers\peripheral\gpio/cy_gpio.h **** 
 651:Generated_Source\PSoC6\pdl\drivers\peripheral\gpio/cy_gpio.h ****     portNum = ((uint32_t)(base) - CY_GPIO_BASE) / GPIO_PRT_SECTION_SIZE;
  68              		.loc 1 651 0 is_stmt 1
  69 0032 FA68     		ldr	r2, [r7, #12]
  70 0034 204B     		ldr	r3, .L7+4
  71 0036 1B68     		ldr	r3, [r3]
  72 0038 9B69     		ldr	r3, [r3, #24]
  73 003a D31A     		subs	r3, r2, r3
  74 003c DB09     		lsrs	r3, r3, #7
  75 003e FB61     		str	r3, [r7, #28]
 652:Generated_Source\PSoC6\pdl\drivers\peripheral\gpio/cy_gpio.h ****     portAddrHSIOM = (HSIOM_PRT_V1_Type*)(CY_HSIOM_BASE + (HSIOM_PRT_SECTION_SIZE * portNum));
  76              		.loc 1 652 0
  77 0040 1D4B     		ldr	r3, .L7+4
  78 0042 1B68     		ldr	r3, [r3]
  79 0044 5A69     		ldr	r2, [r3, #20]
  80 0046 FB69     		ldr	r3, [r7, #28]
  81 0048 1B01     		lsls	r3, r3, #4
  82 004a 1344     		add	r3, r3, r2
ARM GAS  C:\Users\stijn\AppData\Local\Temp\ccD3lQ9e.s 			page 14


  83 004c BB61     		str	r3, [r7, #24]
 653:Generated_Source\PSoC6\pdl\drivers\peripheral\gpio/cy_gpio.h **** 
 654:Generated_Source\PSoC6\pdl\drivers\peripheral\gpio/cy_gpio.h ****     if(pinNum < CY_GPIO_PRT_HALF)
  84              		.loc 1 654 0
  85 004e BB68     		ldr	r3, [r7, #8]
  86 0050 032B     		cmp	r3, #3
  87 0052 14D8     		bhi	.L4
 655:Generated_Source\PSoC6\pdl\drivers\peripheral\gpio/cy_gpio.h ****     {
 656:Generated_Source\PSoC6\pdl\drivers\peripheral\gpio/cy_gpio.h ****         tempReg = HSIOM_PRT_PORT_SEL0(portAddrHSIOM) & ~(CY_GPIO_HSIOM_MASK << (pinNum << CY_GPIO_H
  88              		.loc 1 656 0
  89 0054 BB69     		ldr	r3, [r7, #24]
  90 0056 1A68     		ldr	r2, [r3]
  91 0058 BB68     		ldr	r3, [r7, #8]
  92 005a DB00     		lsls	r3, r3, #3
  93 005c 1F21     		movs	r1, #31
  94 005e 01FA03F3 		lsl	r3, r1, r3
  95 0062 DB43     		mvns	r3, r3
  96 0064 1340     		ands	r3, r3, r2
  97 0066 7B61     		str	r3, [r7, #20]
 657:Generated_Source\PSoC6\pdl\drivers\peripheral\gpio/cy_gpio.h ****         HSIOM_PRT_PORT_SEL0(portAddrHSIOM) = tempReg | ((value & CY_GPIO_HSIOM_MASK) << (pinNum << 
  98              		.loc 1 657 0
  99 0068 FB79     		ldrb	r3, [r7, #7]	@ zero_extendqisi2
 100 006a 03F01F02 		and	r2, r3, #31
 101 006e BB68     		ldr	r3, [r7, #8]
 102 0070 DB00     		lsls	r3, r3, #3
 103 0072 9A40     		lsls	r2, r2, r3
 104 0074 7B69     		ldr	r3, [r7, #20]
 105 0076 1A43     		orrs	r2, r2, r3
 106 0078 BB69     		ldr	r3, [r7, #24]
 107 007a 1A60     		str	r2, [r3]
 658:Generated_Source\PSoC6\pdl\drivers\peripheral\gpio/cy_gpio.h ****     }
 659:Generated_Source\PSoC6\pdl\drivers\peripheral\gpio/cy_gpio.h ****     else
 660:Generated_Source\PSoC6\pdl\drivers\peripheral\gpio/cy_gpio.h ****     {
 661:Generated_Source\PSoC6\pdl\drivers\peripheral\gpio/cy_gpio.h ****         pinNum -= CY_GPIO_PRT_HALF;
 662:Generated_Source\PSoC6\pdl\drivers\peripheral\gpio/cy_gpio.h ****         tempReg = HSIOM_PRT_PORT_SEL1(portAddrHSIOM) & ~(CY_GPIO_HSIOM_MASK << (pinNum << CY_GPIO_H
 663:Generated_Source\PSoC6\pdl\drivers\peripheral\gpio/cy_gpio.h ****         HSIOM_PRT_PORT_SEL1(portAddrHSIOM) = tempReg | ((value & CY_GPIO_HSIOM_MASK) << (pinNum << 
 664:Generated_Source\PSoC6\pdl\drivers\peripheral\gpio/cy_gpio.h ****     }
 665:Generated_Source\PSoC6\pdl\drivers\peripheral\gpio/cy_gpio.h **** }
 108              		.loc 1 665 0
 109 007c 16E0     		b	.L6
 110              	.L4:
 661:Generated_Source\PSoC6\pdl\drivers\peripheral\gpio/cy_gpio.h ****         tempReg = HSIOM_PRT_PORT_SEL1(portAddrHSIOM) & ~(CY_GPIO_HSIOM_MASK << (pinNum << CY_GPIO_H
 111              		.loc 1 661 0
 112 007e BB68     		ldr	r3, [r7, #8]
 113 0080 043B     		subs	r3, r3, #4
 114 0082 BB60     		str	r3, [r7, #8]
 662:Generated_Source\PSoC6\pdl\drivers\peripheral\gpio/cy_gpio.h ****         HSIOM_PRT_PORT_SEL1(portAddrHSIOM) = tempReg | ((value & CY_GPIO_HSIOM_MASK) << (pinNum << 
 115              		.loc 1 662 0
 116 0084 BB69     		ldr	r3, [r7, #24]
 117 0086 5A68     		ldr	r2, [r3, #4]
 118 0088 BB68     		ldr	r3, [r7, #8]
 119 008a DB00     		lsls	r3, r3, #3
 120 008c 1F21     		movs	r1, #31
 121 008e 01FA03F3 		lsl	r3, r1, r3
 122 0092 DB43     		mvns	r3, r3
 123 0094 1340     		ands	r3, r3, r2
 124 0096 7B61     		str	r3, [r7, #20]
ARM GAS  C:\Users\stijn\AppData\Local\Temp\ccD3lQ9e.s 			page 15


 663:Generated_Source\PSoC6\pdl\drivers\peripheral\gpio/cy_gpio.h ****     }
 125              		.loc 1 663 0
 126 0098 FB79     		ldrb	r3, [r7, #7]	@ zero_extendqisi2
 127 009a 03F01F02 		and	r2, r3, #31
 128 009e BB68     		ldr	r3, [r7, #8]
 129 00a0 DB00     		lsls	r3, r3, #3
 130 00a2 9A40     		lsls	r2, r2, r3
 131 00a4 7B69     		ldr	r3, [r7, #20]
 132 00a6 1A43     		orrs	r2, r2, r3
 133 00a8 BB69     		ldr	r3, [r7, #24]
 134 00aa 5A60     		str	r2, [r3, #4]
 135              	.L6:
 136              		.loc 1 665 0
 137 00ac 00BF     		nop
 138 00ae 2037     		adds	r7, r7, #32
 139              		.cfi_def_cfa_offset 8
 140 00b0 BD46     		mov	sp, r7
 141              		.cfi_def_cfa_register 13
 142              		@ sp needed
 143 00b2 80BD     		pop	{r7, pc}
 144              	.L8:
 145              		.align	2
 146              	.L7:
 147 00b4 00000000 		.word	.LC0
 148 00b8 00000000 		.word	cy_device
 149              		.cfi_endproc
 150              	.LFE132:
 151              		.size	Cy_GPIO_SetHSIOM, .-Cy_GPIO_SetHSIOM
 152              		.section	.text.Cy_GPIO_Write,"ax",%progbits
 153              		.align	2
 154              		.thumb
 155              		.thumb_func
 156              		.type	Cy_GPIO_Write, %function
 157              	Cy_GPIO_Write:
 158              	.LFB136:
 666:Generated_Source\PSoC6\pdl\drivers\peripheral\gpio/cy_gpio.h **** 
 667:Generated_Source\PSoC6\pdl\drivers\peripheral\gpio/cy_gpio.h **** 
 668:Generated_Source\PSoC6\pdl\drivers\peripheral\gpio/cy_gpio.h **** /*******************************************************************************
 669:Generated_Source\PSoC6\pdl\drivers\peripheral\gpio/cy_gpio.h **** * Function Name: Cy_GPIO_GetHSIOM
 670:Generated_Source\PSoC6\pdl\drivers\peripheral\gpio/cy_gpio.h **** ****************************************************************************//**
 671:Generated_Source\PSoC6\pdl\drivers\peripheral\gpio/cy_gpio.h **** *
 672:Generated_Source\PSoC6\pdl\drivers\peripheral\gpio/cy_gpio.h **** * Returns the current HSIOM multiplexer connection to the pin.
 673:Generated_Source\PSoC6\pdl\drivers\peripheral\gpio/cy_gpio.h **** *
 674:Generated_Source\PSoC6\pdl\drivers\peripheral\gpio/cy_gpio.h **** * \param base
 675:Generated_Source\PSoC6\pdl\drivers\peripheral\gpio/cy_gpio.h **** * Pointer to the pin's port register base address
 676:Generated_Source\PSoC6\pdl\drivers\peripheral\gpio/cy_gpio.h **** *
 677:Generated_Source\PSoC6\pdl\drivers\peripheral\gpio/cy_gpio.h **** * \param pinNum
 678:Generated_Source\PSoC6\pdl\drivers\peripheral\gpio/cy_gpio.h **** * Position of the pin bit-field within the port register
 679:Generated_Source\PSoC6\pdl\drivers\peripheral\gpio/cy_gpio.h **** *
 680:Generated_Source\PSoC6\pdl\drivers\peripheral\gpio/cy_gpio.h **** * \return
 681:Generated_Source\PSoC6\pdl\drivers\peripheral\gpio/cy_gpio.h **** * HSIOM input selection
 682:Generated_Source\PSoC6\pdl\drivers\peripheral\gpio/cy_gpio.h **** *
 683:Generated_Source\PSoC6\pdl\drivers\peripheral\gpio/cy_gpio.h **** * \funcusage
 684:Generated_Source\PSoC6\pdl\drivers\peripheral\gpio/cy_gpio.h **** * \snippet gpio/gpio_v1_10_sut_01.cydsn/main_cm4.c snippet_Cy_GPIO_SetHSIOM
 685:Generated_Source\PSoC6\pdl\drivers\peripheral\gpio/cy_gpio.h **** *
 686:Generated_Source\PSoC6\pdl\drivers\peripheral\gpio/cy_gpio.h **** *******************************************************************************/
 687:Generated_Source\PSoC6\pdl\drivers\peripheral\gpio/cy_gpio.h **** __STATIC_INLINE en_hsiom_sel_t Cy_GPIO_GetHSIOM(GPIO_PRT_Type* base, uint32_t pinNum)
ARM GAS  C:\Users\stijn\AppData\Local\Temp\ccD3lQ9e.s 			page 16


 688:Generated_Source\PSoC6\pdl\drivers\peripheral\gpio/cy_gpio.h **** {
 689:Generated_Source\PSoC6\pdl\drivers\peripheral\gpio/cy_gpio.h ****     uint32_t returnValue;
 690:Generated_Source\PSoC6\pdl\drivers\peripheral\gpio/cy_gpio.h ****     uint32_t portNum;
 691:Generated_Source\PSoC6\pdl\drivers\peripheral\gpio/cy_gpio.h ****     HSIOM_PRT_V1_Type* portAddrHSIOM;
 692:Generated_Source\PSoC6\pdl\drivers\peripheral\gpio/cy_gpio.h ****     
 693:Generated_Source\PSoC6\pdl\drivers\peripheral\gpio/cy_gpio.h ****     CY_ASSERT_L2(CY_GPIO_IS_PIN_VALID(pinNum));
 694:Generated_Source\PSoC6\pdl\drivers\peripheral\gpio/cy_gpio.h **** 
 695:Generated_Source\PSoC6\pdl\drivers\peripheral\gpio/cy_gpio.h ****     portNum = ((uint32_t)(base) - CY_GPIO_BASE) / GPIO_PRT_SECTION_SIZE;
 696:Generated_Source\PSoC6\pdl\drivers\peripheral\gpio/cy_gpio.h ****     portAddrHSIOM = (HSIOM_PRT_V1_Type*)(CY_HSIOM_BASE + (HSIOM_PRT_SECTION_SIZE * portNum));
 697:Generated_Source\PSoC6\pdl\drivers\peripheral\gpio/cy_gpio.h **** 
 698:Generated_Source\PSoC6\pdl\drivers\peripheral\gpio/cy_gpio.h ****     if(pinNum < CY_GPIO_PRT_HALF)
 699:Generated_Source\PSoC6\pdl\drivers\peripheral\gpio/cy_gpio.h ****     {
 700:Generated_Source\PSoC6\pdl\drivers\peripheral\gpio/cy_gpio.h ****         returnValue = (HSIOM_PRT_PORT_SEL0(portAddrHSIOM) >> (pinNum << CY_GPIO_HSIOM_OFFSET)) & CY
 701:Generated_Source\PSoC6\pdl\drivers\peripheral\gpio/cy_gpio.h ****     }
 702:Generated_Source\PSoC6\pdl\drivers\peripheral\gpio/cy_gpio.h ****     else
 703:Generated_Source\PSoC6\pdl\drivers\peripheral\gpio/cy_gpio.h ****     {
 704:Generated_Source\PSoC6\pdl\drivers\peripheral\gpio/cy_gpio.h ****         pinNum -= CY_GPIO_PRT_HALF;
 705:Generated_Source\PSoC6\pdl\drivers\peripheral\gpio/cy_gpio.h ****         returnValue = (HSIOM_PRT_PORT_SEL1(portAddrHSIOM) >> (pinNum << CY_GPIO_HSIOM_OFFSET)) & CY
 706:Generated_Source\PSoC6\pdl\drivers\peripheral\gpio/cy_gpio.h ****     }
 707:Generated_Source\PSoC6\pdl\drivers\peripheral\gpio/cy_gpio.h **** 
 708:Generated_Source\PSoC6\pdl\drivers\peripheral\gpio/cy_gpio.h ****     return (en_hsiom_sel_t)returnValue;
 709:Generated_Source\PSoC6\pdl\drivers\peripheral\gpio/cy_gpio.h **** }
 710:Generated_Source\PSoC6\pdl\drivers\peripheral\gpio/cy_gpio.h **** 
 711:Generated_Source\PSoC6\pdl\drivers\peripheral\gpio/cy_gpio.h **** 
 712:Generated_Source\PSoC6\pdl\drivers\peripheral\gpio/cy_gpio.h **** /*******************************************************************************
 713:Generated_Source\PSoC6\pdl\drivers\peripheral\gpio/cy_gpio.h **** * Function Name: Cy_GPIO_PortToAddr
 714:Generated_Source\PSoC6\pdl\drivers\peripheral\gpio/cy_gpio.h **** ****************************************************************************//**
 715:Generated_Source\PSoC6\pdl\drivers\peripheral\gpio/cy_gpio.h **** *
 716:Generated_Source\PSoC6\pdl\drivers\peripheral\gpio/cy_gpio.h **** * Retrieves the port address based on the given port number.
 717:Generated_Source\PSoC6\pdl\drivers\peripheral\gpio/cy_gpio.h **** *
 718:Generated_Source\PSoC6\pdl\drivers\peripheral\gpio/cy_gpio.h **** * This is a helper function to calculate the port base address when given a port
 719:Generated_Source\PSoC6\pdl\drivers\peripheral\gpio/cy_gpio.h **** * number. It is to be used when pin access needs to be calculated at runtime.
 720:Generated_Source\PSoC6\pdl\drivers\peripheral\gpio/cy_gpio.h **** *
 721:Generated_Source\PSoC6\pdl\drivers\peripheral\gpio/cy_gpio.h **** * \param portNum
 722:Generated_Source\PSoC6\pdl\drivers\peripheral\gpio/cy_gpio.h **** * Port number
 723:Generated_Source\PSoC6\pdl\drivers\peripheral\gpio/cy_gpio.h **** *
 724:Generated_Source\PSoC6\pdl\drivers\peripheral\gpio/cy_gpio.h **** * \return
 725:Generated_Source\PSoC6\pdl\drivers\peripheral\gpio/cy_gpio.h **** * Base address of the port register structure
 726:Generated_Source\PSoC6\pdl\drivers\peripheral\gpio/cy_gpio.h **** *
 727:Generated_Source\PSoC6\pdl\drivers\peripheral\gpio/cy_gpio.h **** * \funcusage
 728:Generated_Source\PSoC6\pdl\drivers\peripheral\gpio/cy_gpio.h **** * \snippet gpio/gpio_v1_10_sut_01.cydsn/main_cm4.c snippet_Cy_GPIO_PortToAddr
 729:Generated_Source\PSoC6\pdl\drivers\peripheral\gpio/cy_gpio.h **** *
 730:Generated_Source\PSoC6\pdl\drivers\peripheral\gpio/cy_gpio.h **** *******************************************************************************/
 731:Generated_Source\PSoC6\pdl\drivers\peripheral\gpio/cy_gpio.h **** __STATIC_INLINE GPIO_PRT_Type* Cy_GPIO_PortToAddr(uint32_t portNum)
 732:Generated_Source\PSoC6\pdl\drivers\peripheral\gpio/cy_gpio.h **** {
 733:Generated_Source\PSoC6\pdl\drivers\peripheral\gpio/cy_gpio.h ****     GPIO_PRT_Type* portBase;
 734:Generated_Source\PSoC6\pdl\drivers\peripheral\gpio/cy_gpio.h ****     
 735:Generated_Source\PSoC6\pdl\drivers\peripheral\gpio/cy_gpio.h ****     if(portNum < (uint32_t)IOSS_GPIO_GPIO_PORT_NR)
 736:Generated_Source\PSoC6\pdl\drivers\peripheral\gpio/cy_gpio.h ****     {
 737:Generated_Source\PSoC6\pdl\drivers\peripheral\gpio/cy_gpio.h ****         portBase = (GPIO_PRT_Type *)(CY_GPIO_BASE + (GPIO_PRT_SECTION_SIZE * portNum));
 738:Generated_Source\PSoC6\pdl\drivers\peripheral\gpio/cy_gpio.h ****     }
 739:Generated_Source\PSoC6\pdl\drivers\peripheral\gpio/cy_gpio.h ****     else
 740:Generated_Source\PSoC6\pdl\drivers\peripheral\gpio/cy_gpio.h ****     {
 741:Generated_Source\PSoC6\pdl\drivers\peripheral\gpio/cy_gpio.h ****         /* Error: Return default base address */
 742:Generated_Source\PSoC6\pdl\drivers\peripheral\gpio/cy_gpio.h ****         portBase = (GPIO_PRT_Type *)(CY_GPIO_BASE);
 743:Generated_Source\PSoC6\pdl\drivers\peripheral\gpio/cy_gpio.h ****     }
 744:Generated_Source\PSoC6\pdl\drivers\peripheral\gpio/cy_gpio.h **** 
ARM GAS  C:\Users\stijn\AppData\Local\Temp\ccD3lQ9e.s 			page 17


 745:Generated_Source\PSoC6\pdl\drivers\peripheral\gpio/cy_gpio.h ****     return (portBase);
 746:Generated_Source\PSoC6\pdl\drivers\peripheral\gpio/cy_gpio.h **** }
 747:Generated_Source\PSoC6\pdl\drivers\peripheral\gpio/cy_gpio.h **** 
 748:Generated_Source\PSoC6\pdl\drivers\peripheral\gpio/cy_gpio.h **** /** \} group_gpio_functions_init */
 749:Generated_Source\PSoC6\pdl\drivers\peripheral\gpio/cy_gpio.h **** 
 750:Generated_Source\PSoC6\pdl\drivers\peripheral\gpio/cy_gpio.h **** /**
 751:Generated_Source\PSoC6\pdl\drivers\peripheral\gpio/cy_gpio.h **** * \addtogroup group_gpio_functions_gpio
 752:Generated_Source\PSoC6\pdl\drivers\peripheral\gpio/cy_gpio.h **** * \{
 753:Generated_Source\PSoC6\pdl\drivers\peripheral\gpio/cy_gpio.h **** */
 754:Generated_Source\PSoC6\pdl\drivers\peripheral\gpio/cy_gpio.h **** 
 755:Generated_Source\PSoC6\pdl\drivers\peripheral\gpio/cy_gpio.h **** /*******************************************************************************
 756:Generated_Source\PSoC6\pdl\drivers\peripheral\gpio/cy_gpio.h **** * Function Name: Cy_GPIO_Read
 757:Generated_Source\PSoC6\pdl\drivers\peripheral\gpio/cy_gpio.h **** ****************************************************************************//**
 758:Generated_Source\PSoC6\pdl\drivers\peripheral\gpio/cy_gpio.h **** *
 759:Generated_Source\PSoC6\pdl\drivers\peripheral\gpio/cy_gpio.h **** * Reads the current logic level on the input buffer of the pin.
 760:Generated_Source\PSoC6\pdl\drivers\peripheral\gpio/cy_gpio.h **** *
 761:Generated_Source\PSoC6\pdl\drivers\peripheral\gpio/cy_gpio.h **** * \param base
 762:Generated_Source\PSoC6\pdl\drivers\peripheral\gpio/cy_gpio.h **** * Pointer to the pin's port register base address
 763:Generated_Source\PSoC6\pdl\drivers\peripheral\gpio/cy_gpio.h **** *
 764:Generated_Source\PSoC6\pdl\drivers\peripheral\gpio/cy_gpio.h **** * \param pinNum
 765:Generated_Source\PSoC6\pdl\drivers\peripheral\gpio/cy_gpio.h **** * Position of the pin bit-field within the port register.
 766:Generated_Source\PSoC6\pdl\drivers\peripheral\gpio/cy_gpio.h **** * Bit position 8 is the routed pin through the port glitch filter.
 767:Generated_Source\PSoC6\pdl\drivers\peripheral\gpio/cy_gpio.h **** *
 768:Generated_Source\PSoC6\pdl\drivers\peripheral\gpio/cy_gpio.h **** * \return
 769:Generated_Source\PSoC6\pdl\drivers\peripheral\gpio/cy_gpio.h **** * Logic level present on the pin
 770:Generated_Source\PSoC6\pdl\drivers\peripheral\gpio/cy_gpio.h **** *
 771:Generated_Source\PSoC6\pdl\drivers\peripheral\gpio/cy_gpio.h **** * \funcusage
 772:Generated_Source\PSoC6\pdl\drivers\peripheral\gpio/cy_gpio.h **** * \snippet gpio/gpio_v1_10_sut_01.cydsn/main_cm4.c snippet_Cy_GPIO_Read
 773:Generated_Source\PSoC6\pdl\drivers\peripheral\gpio/cy_gpio.h **** *
 774:Generated_Source\PSoC6\pdl\drivers\peripheral\gpio/cy_gpio.h **** *******************************************************************************/
 775:Generated_Source\PSoC6\pdl\drivers\peripheral\gpio/cy_gpio.h **** __STATIC_INLINE uint32_t Cy_GPIO_Read(GPIO_PRT_Type* base, uint32_t pinNum)
 776:Generated_Source\PSoC6\pdl\drivers\peripheral\gpio/cy_gpio.h **** {
 777:Generated_Source\PSoC6\pdl\drivers\peripheral\gpio/cy_gpio.h ****     CY_ASSERT_L2(CY_GPIO_IS_FILTER_PIN_VALID(pinNum));
 778:Generated_Source\PSoC6\pdl\drivers\peripheral\gpio/cy_gpio.h ****     
 779:Generated_Source\PSoC6\pdl\drivers\peripheral\gpio/cy_gpio.h ****     return (GPIO_PRT_IN(base) >> (pinNum)) & CY_GPIO_IN_MASK;
 780:Generated_Source\PSoC6\pdl\drivers\peripheral\gpio/cy_gpio.h **** }
 781:Generated_Source\PSoC6\pdl\drivers\peripheral\gpio/cy_gpio.h **** 
 782:Generated_Source\PSoC6\pdl\drivers\peripheral\gpio/cy_gpio.h **** 
 783:Generated_Source\PSoC6\pdl\drivers\peripheral\gpio/cy_gpio.h **** /*******************************************************************************
 784:Generated_Source\PSoC6\pdl\drivers\peripheral\gpio/cy_gpio.h **** * Function Name: Cy_GPIO_Write
 785:Generated_Source\PSoC6\pdl\drivers\peripheral\gpio/cy_gpio.h **** ****************************************************************************//**
 786:Generated_Source\PSoC6\pdl\drivers\peripheral\gpio/cy_gpio.h **** *
 787:Generated_Source\PSoC6\pdl\drivers\peripheral\gpio/cy_gpio.h **** * Write a logic 0 or logic 1 state to the output driver.
 788:Generated_Source\PSoC6\pdl\drivers\peripheral\gpio/cy_gpio.h **** *
 789:Generated_Source\PSoC6\pdl\drivers\peripheral\gpio/cy_gpio.h **** * This function should be used only for software driven pins. It does not have
 790:Generated_Source\PSoC6\pdl\drivers\peripheral\gpio/cy_gpio.h **** * any effect on peripheral driven pins.
 791:Generated_Source\PSoC6\pdl\drivers\peripheral\gpio/cy_gpio.h **** *
 792:Generated_Source\PSoC6\pdl\drivers\peripheral\gpio/cy_gpio.h **** * \param base
 793:Generated_Source\PSoC6\pdl\drivers\peripheral\gpio/cy_gpio.h **** * Pointer to the pin's port register base address
 794:Generated_Source\PSoC6\pdl\drivers\peripheral\gpio/cy_gpio.h **** *
 795:Generated_Source\PSoC6\pdl\drivers\peripheral\gpio/cy_gpio.h **** * \param pinNum
 796:Generated_Source\PSoC6\pdl\drivers\peripheral\gpio/cy_gpio.h **** * Position of the pin bit-field within the port register
 797:Generated_Source\PSoC6\pdl\drivers\peripheral\gpio/cy_gpio.h **** *
 798:Generated_Source\PSoC6\pdl\drivers\peripheral\gpio/cy_gpio.h **** * \param value
 799:Generated_Source\PSoC6\pdl\drivers\peripheral\gpio/cy_gpio.h **** * Logic level to drive out on the pin
 800:Generated_Source\PSoC6\pdl\drivers\peripheral\gpio/cy_gpio.h **** *
 801:Generated_Source\PSoC6\pdl\drivers\peripheral\gpio/cy_gpio.h **** * \funcusage
ARM GAS  C:\Users\stijn\AppData\Local\Temp\ccD3lQ9e.s 			page 18


 802:Generated_Source\PSoC6\pdl\drivers\peripheral\gpio/cy_gpio.h **** * \snippet gpio/gpio_v1_10_sut_01.cydsn/main_cm4.c snippet_Cy_GPIO_Write
 803:Generated_Source\PSoC6\pdl\drivers\peripheral\gpio/cy_gpio.h **** *
 804:Generated_Source\PSoC6\pdl\drivers\peripheral\gpio/cy_gpio.h **** *******************************************************************************/
 805:Generated_Source\PSoC6\pdl\drivers\peripheral\gpio/cy_gpio.h **** __STATIC_INLINE void Cy_GPIO_Write(GPIO_PRT_Type* base, uint32_t pinNum, uint32_t value)
 806:Generated_Source\PSoC6\pdl\drivers\peripheral\gpio/cy_gpio.h **** {
 159              		.loc 1 806 0
 160              		.cfi_startproc
 161              		@ args = 0, pretend = 0, frame = 16
 162              		@ frame_needed = 1, uses_anonymous_args = 0
 163 0000 80B5     		push	{r7, lr}
 164              		.cfi_def_cfa_offset 8
 165              		.cfi_offset 7, -8
 166              		.cfi_offset 14, -4
 167 0002 84B0     		sub	sp, sp, #16
 168              		.cfi_def_cfa_offset 24
 169 0004 00AF     		add	r7, sp, #0
 170              		.cfi_def_cfa_register 7
 171 0006 F860     		str	r0, [r7, #12]
 172 0008 B960     		str	r1, [r7, #8]
 173 000a 7A60     		str	r2, [r7, #4]
 807:Generated_Source\PSoC6\pdl\drivers\peripheral\gpio/cy_gpio.h ****     CY_ASSERT_L2(CY_GPIO_IS_PIN_VALID(pinNum));
 174              		.loc 1 807 0
 175 000c BB68     		ldr	r3, [r7, #8]
 176 000e 072B     		cmp	r3, #7
 177 0010 04D9     		bls	.L10
 178              		.loc 1 807 0 is_stmt 0 discriminator 1
 179 0012 40F22731 		movw	r1, #807
 180 0016 0E48     		ldr	r0, .L15
 181 0018 FFF7FEFF 		bl	Cy_SysLib_AssertFailed
 182              	.L10:
 808:Generated_Source\PSoC6\pdl\drivers\peripheral\gpio/cy_gpio.h ****     CY_ASSERT_L2(CY_GPIO_IS_VALUE_VALID(value));
 183              		.loc 1 808 0 is_stmt 1
 184 001c 7B68     		ldr	r3, [r7, #4]
 185 001e 012B     		cmp	r3, #1
 186 0020 04D9     		bls	.L11
 187              		.loc 1 808 0 is_stmt 0 discriminator 1
 188 0022 4FF44A71 		mov	r1, #808
 189 0026 0A48     		ldr	r0, .L15
 190 0028 FFF7FEFF 		bl	Cy_SysLib_AssertFailed
 191              	.L11:
 809:Generated_Source\PSoC6\pdl\drivers\peripheral\gpio/cy_gpio.h **** 
 810:Generated_Source\PSoC6\pdl\drivers\peripheral\gpio/cy_gpio.h ****     /* Thread-safe: Directly access the pin registers instead of base->OUT */
 811:Generated_Source\PSoC6\pdl\drivers\peripheral\gpio/cy_gpio.h ****     if(0UL == value)
 192              		.loc 1 811 0 is_stmt 1
 193 002c 7B68     		ldr	r3, [r7, #4]
 194 002e 002B     		cmp	r3, #0
 195 0030 05D1     		bne	.L12
 812:Generated_Source\PSoC6\pdl\drivers\peripheral\gpio/cy_gpio.h ****     {
 813:Generated_Source\PSoC6\pdl\drivers\peripheral\gpio/cy_gpio.h ****         GPIO_PRT_OUT_CLR(base) = CY_GPIO_OUT_MASK << pinNum;
 196              		.loc 1 813 0
 197 0032 0122     		movs	r2, #1
 198 0034 BB68     		ldr	r3, [r7, #8]
 199 0036 9A40     		lsls	r2, r2, r3
 200 0038 FB68     		ldr	r3, [r7, #12]
 201 003a 5A60     		str	r2, [r3, #4]
 814:Generated_Source\PSoC6\pdl\drivers\peripheral\gpio/cy_gpio.h ****     }
 815:Generated_Source\PSoC6\pdl\drivers\peripheral\gpio/cy_gpio.h ****     else
ARM GAS  C:\Users\stijn\AppData\Local\Temp\ccD3lQ9e.s 			page 19


 816:Generated_Source\PSoC6\pdl\drivers\peripheral\gpio/cy_gpio.h ****     {
 817:Generated_Source\PSoC6\pdl\drivers\peripheral\gpio/cy_gpio.h ****         GPIO_PRT_OUT_SET(base) = CY_GPIO_OUT_MASK << pinNum;
 818:Generated_Source\PSoC6\pdl\drivers\peripheral\gpio/cy_gpio.h ****     }
 819:Generated_Source\PSoC6\pdl\drivers\peripheral\gpio/cy_gpio.h **** }
 202              		.loc 1 819 0
 203 003c 04E0     		b	.L14
 204              	.L12:
 817:Generated_Source\PSoC6\pdl\drivers\peripheral\gpio/cy_gpio.h ****     }
 205              		.loc 1 817 0
 206 003e 0122     		movs	r2, #1
 207 0040 BB68     		ldr	r3, [r7, #8]
 208 0042 9A40     		lsls	r2, r2, r3
 209 0044 FB68     		ldr	r3, [r7, #12]
 210 0046 9A60     		str	r2, [r3, #8]
 211              	.L14:
 212              		.loc 1 819 0
 213 0048 00BF     		nop
 214 004a 1037     		adds	r7, r7, #16
 215              		.cfi_def_cfa_offset 8
 216 004c BD46     		mov	sp, r7
 217              		.cfi_def_cfa_register 13
 218              		@ sp needed
 219 004e 80BD     		pop	{r7, pc}
 220              	.L16:
 221              		.align	2
 222              	.L15:
 223 0050 00000000 		.word	.LC0
 224              		.cfi_endproc
 225              	.LFE136:
 226              		.size	Cy_GPIO_Write, .-Cy_GPIO_Write
 227              		.section	.text.Cy_GPIO_SetDrivemode,"ax",%progbits
 228              		.align	2
 229              		.thumb
 230              		.thumb_func
 231              		.type	Cy_GPIO_SetDrivemode, %function
 232              	Cy_GPIO_SetDrivemode:
 233              	.LFB141:
 820:Generated_Source\PSoC6\pdl\drivers\peripheral\gpio/cy_gpio.h **** 
 821:Generated_Source\PSoC6\pdl\drivers\peripheral\gpio/cy_gpio.h **** 
 822:Generated_Source\PSoC6\pdl\drivers\peripheral\gpio/cy_gpio.h **** /*******************************************************************************
 823:Generated_Source\PSoC6\pdl\drivers\peripheral\gpio/cy_gpio.h **** * Function Name: Cy_GPIO_ReadOut
 824:Generated_Source\PSoC6\pdl\drivers\peripheral\gpio/cy_gpio.h **** ****************************************************************************//**
 825:Generated_Source\PSoC6\pdl\drivers\peripheral\gpio/cy_gpio.h **** *
 826:Generated_Source\PSoC6\pdl\drivers\peripheral\gpio/cy_gpio.h **** * Reads the current logic level on the pin output driver.
 827:Generated_Source\PSoC6\pdl\drivers\peripheral\gpio/cy_gpio.h **** *
 828:Generated_Source\PSoC6\pdl\drivers\peripheral\gpio/cy_gpio.h **** * \param base
 829:Generated_Source\PSoC6\pdl\drivers\peripheral\gpio/cy_gpio.h **** * Pointer to the pin's port register base address
 830:Generated_Source\PSoC6\pdl\drivers\peripheral\gpio/cy_gpio.h **** *
 831:Generated_Source\PSoC6\pdl\drivers\peripheral\gpio/cy_gpio.h **** * \param pinNum
 832:Generated_Source\PSoC6\pdl\drivers\peripheral\gpio/cy_gpio.h **** * Position of the pin bit-field within the port register
 833:Generated_Source\PSoC6\pdl\drivers\peripheral\gpio/cy_gpio.h **** *
 834:Generated_Source\PSoC6\pdl\drivers\peripheral\gpio/cy_gpio.h **** * \return
 835:Generated_Source\PSoC6\pdl\drivers\peripheral\gpio/cy_gpio.h **** * Logic level on the pin output driver
 836:Generated_Source\PSoC6\pdl\drivers\peripheral\gpio/cy_gpio.h **** *
 837:Generated_Source\PSoC6\pdl\drivers\peripheral\gpio/cy_gpio.h **** * \funcusage
 838:Generated_Source\PSoC6\pdl\drivers\peripheral\gpio/cy_gpio.h **** * \snippet gpio/gpio_v1_10_sut_01.cydsn/main_cm4.c snippet_Cy_GPIO_ReadOut
 839:Generated_Source\PSoC6\pdl\drivers\peripheral\gpio/cy_gpio.h **** *
ARM GAS  C:\Users\stijn\AppData\Local\Temp\ccD3lQ9e.s 			page 20


 840:Generated_Source\PSoC6\pdl\drivers\peripheral\gpio/cy_gpio.h **** *******************************************************************************/
 841:Generated_Source\PSoC6\pdl\drivers\peripheral\gpio/cy_gpio.h **** __STATIC_INLINE uint32_t Cy_GPIO_ReadOut(GPIO_PRT_Type* base, uint32_t pinNum)
 842:Generated_Source\PSoC6\pdl\drivers\peripheral\gpio/cy_gpio.h **** {
 843:Generated_Source\PSoC6\pdl\drivers\peripheral\gpio/cy_gpio.h ****     CY_ASSERT_L2(CY_GPIO_IS_PIN_VALID(pinNum));
 844:Generated_Source\PSoC6\pdl\drivers\peripheral\gpio/cy_gpio.h **** 
 845:Generated_Source\PSoC6\pdl\drivers\peripheral\gpio/cy_gpio.h ****     return (GPIO_PRT_OUT(base) >> pinNum) & CY_GPIO_OUT_MASK;
 846:Generated_Source\PSoC6\pdl\drivers\peripheral\gpio/cy_gpio.h **** }
 847:Generated_Source\PSoC6\pdl\drivers\peripheral\gpio/cy_gpio.h **** 
 848:Generated_Source\PSoC6\pdl\drivers\peripheral\gpio/cy_gpio.h **** 
 849:Generated_Source\PSoC6\pdl\drivers\peripheral\gpio/cy_gpio.h **** /*******************************************************************************
 850:Generated_Source\PSoC6\pdl\drivers\peripheral\gpio/cy_gpio.h **** * Function Name: Cy_GPIO_Set
 851:Generated_Source\PSoC6\pdl\drivers\peripheral\gpio/cy_gpio.h **** ****************************************************************************//**
 852:Generated_Source\PSoC6\pdl\drivers\peripheral\gpio/cy_gpio.h **** *
 853:Generated_Source\PSoC6\pdl\drivers\peripheral\gpio/cy_gpio.h **** * Set a pin output to logic state high.
 854:Generated_Source\PSoC6\pdl\drivers\peripheral\gpio/cy_gpio.h **** *
 855:Generated_Source\PSoC6\pdl\drivers\peripheral\gpio/cy_gpio.h **** * This function should be used only for software driven pins. It does not have
 856:Generated_Source\PSoC6\pdl\drivers\peripheral\gpio/cy_gpio.h **** * any effect on peripheral driven pins.
 857:Generated_Source\PSoC6\pdl\drivers\peripheral\gpio/cy_gpio.h **** *
 858:Generated_Source\PSoC6\pdl\drivers\peripheral\gpio/cy_gpio.h **** * \param base
 859:Generated_Source\PSoC6\pdl\drivers\peripheral\gpio/cy_gpio.h **** * Pointer to the pin's port register base address
 860:Generated_Source\PSoC6\pdl\drivers\peripheral\gpio/cy_gpio.h **** *
 861:Generated_Source\PSoC6\pdl\drivers\peripheral\gpio/cy_gpio.h **** * \param pinNum
 862:Generated_Source\PSoC6\pdl\drivers\peripheral\gpio/cy_gpio.h **** * Position of the pin bit-field within the port register
 863:Generated_Source\PSoC6\pdl\drivers\peripheral\gpio/cy_gpio.h **** *
 864:Generated_Source\PSoC6\pdl\drivers\peripheral\gpio/cy_gpio.h **** * \funcusage
 865:Generated_Source\PSoC6\pdl\drivers\peripheral\gpio/cy_gpio.h **** * \snippet gpio/gpio_v1_10_sut_01.cydsn/main_cm4.c snippet_Cy_GPIO_Set
 866:Generated_Source\PSoC6\pdl\drivers\peripheral\gpio/cy_gpio.h **** *
 867:Generated_Source\PSoC6\pdl\drivers\peripheral\gpio/cy_gpio.h **** *******************************************************************************/
 868:Generated_Source\PSoC6\pdl\drivers\peripheral\gpio/cy_gpio.h **** __STATIC_INLINE void Cy_GPIO_Set(GPIO_PRT_Type* base, uint32_t pinNum)
 869:Generated_Source\PSoC6\pdl\drivers\peripheral\gpio/cy_gpio.h **** {
 870:Generated_Source\PSoC6\pdl\drivers\peripheral\gpio/cy_gpio.h ****     CY_ASSERT_L2(CY_GPIO_IS_PIN_VALID(pinNum));
 871:Generated_Source\PSoC6\pdl\drivers\peripheral\gpio/cy_gpio.h ****     
 872:Generated_Source\PSoC6\pdl\drivers\peripheral\gpio/cy_gpio.h ****     GPIO_PRT_OUT_SET(base) = CY_GPIO_OUT_MASK << pinNum;
 873:Generated_Source\PSoC6\pdl\drivers\peripheral\gpio/cy_gpio.h **** }
 874:Generated_Source\PSoC6\pdl\drivers\peripheral\gpio/cy_gpio.h **** 
 875:Generated_Source\PSoC6\pdl\drivers\peripheral\gpio/cy_gpio.h **** 
 876:Generated_Source\PSoC6\pdl\drivers\peripheral\gpio/cy_gpio.h **** /*******************************************************************************
 877:Generated_Source\PSoC6\pdl\drivers\peripheral\gpio/cy_gpio.h **** * Function Name: Cy_GPIO_Clr
 878:Generated_Source\PSoC6\pdl\drivers\peripheral\gpio/cy_gpio.h **** ****************************************************************************//**
 879:Generated_Source\PSoC6\pdl\drivers\peripheral\gpio/cy_gpio.h **** *
 880:Generated_Source\PSoC6\pdl\drivers\peripheral\gpio/cy_gpio.h **** * Set a pin output to logic state Low.
 881:Generated_Source\PSoC6\pdl\drivers\peripheral\gpio/cy_gpio.h **** *
 882:Generated_Source\PSoC6\pdl\drivers\peripheral\gpio/cy_gpio.h **** * This function should be used only for software driven pins. It does not have
 883:Generated_Source\PSoC6\pdl\drivers\peripheral\gpio/cy_gpio.h **** * any effect on peripheral driven pins.
 884:Generated_Source\PSoC6\pdl\drivers\peripheral\gpio/cy_gpio.h **** *
 885:Generated_Source\PSoC6\pdl\drivers\peripheral\gpio/cy_gpio.h **** * \param base
 886:Generated_Source\PSoC6\pdl\drivers\peripheral\gpio/cy_gpio.h **** * Pointer to the pin's port register base address
 887:Generated_Source\PSoC6\pdl\drivers\peripheral\gpio/cy_gpio.h **** *
 888:Generated_Source\PSoC6\pdl\drivers\peripheral\gpio/cy_gpio.h **** * \param pinNum
 889:Generated_Source\PSoC6\pdl\drivers\peripheral\gpio/cy_gpio.h **** * Position of the pin bit-field within the port register
 890:Generated_Source\PSoC6\pdl\drivers\peripheral\gpio/cy_gpio.h **** *
 891:Generated_Source\PSoC6\pdl\drivers\peripheral\gpio/cy_gpio.h **** * \funcusage
 892:Generated_Source\PSoC6\pdl\drivers\peripheral\gpio/cy_gpio.h **** * \snippet gpio/gpio_v1_10_sut_01.cydsn/main_cm4.c snippet_Cy_GPIO_Clr
 893:Generated_Source\PSoC6\pdl\drivers\peripheral\gpio/cy_gpio.h **** *
 894:Generated_Source\PSoC6\pdl\drivers\peripheral\gpio/cy_gpio.h **** *******************************************************************************/
 895:Generated_Source\PSoC6\pdl\drivers\peripheral\gpio/cy_gpio.h **** __STATIC_INLINE void Cy_GPIO_Clr(GPIO_PRT_Type* base, uint32_t pinNum)
 896:Generated_Source\PSoC6\pdl\drivers\peripheral\gpio/cy_gpio.h **** {
ARM GAS  C:\Users\stijn\AppData\Local\Temp\ccD3lQ9e.s 			page 21


 897:Generated_Source\PSoC6\pdl\drivers\peripheral\gpio/cy_gpio.h ****     CY_ASSERT_L2(CY_GPIO_IS_PIN_VALID(pinNum));
 898:Generated_Source\PSoC6\pdl\drivers\peripheral\gpio/cy_gpio.h ****     
 899:Generated_Source\PSoC6\pdl\drivers\peripheral\gpio/cy_gpio.h ****     GPIO_PRT_OUT_CLR(base) = CY_GPIO_OUT_MASK << pinNum;
 900:Generated_Source\PSoC6\pdl\drivers\peripheral\gpio/cy_gpio.h **** }
 901:Generated_Source\PSoC6\pdl\drivers\peripheral\gpio/cy_gpio.h **** 
 902:Generated_Source\PSoC6\pdl\drivers\peripheral\gpio/cy_gpio.h **** 
 903:Generated_Source\PSoC6\pdl\drivers\peripheral\gpio/cy_gpio.h **** /*******************************************************************************
 904:Generated_Source\PSoC6\pdl\drivers\peripheral\gpio/cy_gpio.h **** * Function Name: Cy_GPIO_Inv
 905:Generated_Source\PSoC6\pdl\drivers\peripheral\gpio/cy_gpio.h **** ****************************************************************************//**
 906:Generated_Source\PSoC6\pdl\drivers\peripheral\gpio/cy_gpio.h **** *
 907:Generated_Source\PSoC6\pdl\drivers\peripheral\gpio/cy_gpio.h **** * Set a pin output logic state to the inverse of the current output
 908:Generated_Source\PSoC6\pdl\drivers\peripheral\gpio/cy_gpio.h **** * logic state.
 909:Generated_Source\PSoC6\pdl\drivers\peripheral\gpio/cy_gpio.h **** *
 910:Generated_Source\PSoC6\pdl\drivers\peripheral\gpio/cy_gpio.h **** * This function should be used only for software driven pins. It does not have
 911:Generated_Source\PSoC6\pdl\drivers\peripheral\gpio/cy_gpio.h **** * any effect on peripheral driven pins.
 912:Generated_Source\PSoC6\pdl\drivers\peripheral\gpio/cy_gpio.h **** *
 913:Generated_Source\PSoC6\pdl\drivers\peripheral\gpio/cy_gpio.h **** * \param base
 914:Generated_Source\PSoC6\pdl\drivers\peripheral\gpio/cy_gpio.h **** * Pointer to the pin's port register base address
 915:Generated_Source\PSoC6\pdl\drivers\peripheral\gpio/cy_gpio.h **** *
 916:Generated_Source\PSoC6\pdl\drivers\peripheral\gpio/cy_gpio.h **** * \param pinNum
 917:Generated_Source\PSoC6\pdl\drivers\peripheral\gpio/cy_gpio.h **** * Position of the pin bit-field within the port register
 918:Generated_Source\PSoC6\pdl\drivers\peripheral\gpio/cy_gpio.h **** *
 919:Generated_Source\PSoC6\pdl\drivers\peripheral\gpio/cy_gpio.h **** * \funcusage
 920:Generated_Source\PSoC6\pdl\drivers\peripheral\gpio/cy_gpio.h **** * \snippet gpio/gpio_v1_10_sut_01.cydsn/main_cm4.c snippet_Cy_GPIO_Inv
 921:Generated_Source\PSoC6\pdl\drivers\peripheral\gpio/cy_gpio.h **** *
 922:Generated_Source\PSoC6\pdl\drivers\peripheral\gpio/cy_gpio.h **** *******************************************************************************/
 923:Generated_Source\PSoC6\pdl\drivers\peripheral\gpio/cy_gpio.h **** __STATIC_INLINE void Cy_GPIO_Inv(GPIO_PRT_Type* base, uint32_t pinNum)
 924:Generated_Source\PSoC6\pdl\drivers\peripheral\gpio/cy_gpio.h **** {
 925:Generated_Source\PSoC6\pdl\drivers\peripheral\gpio/cy_gpio.h ****     CY_ASSERT_L2(CY_GPIO_IS_PIN_VALID(pinNum));
 926:Generated_Source\PSoC6\pdl\drivers\peripheral\gpio/cy_gpio.h ****     
 927:Generated_Source\PSoC6\pdl\drivers\peripheral\gpio/cy_gpio.h ****     GPIO_PRT_OUT_INV(base) = CY_GPIO_OUT_MASK << pinNum;
 928:Generated_Source\PSoC6\pdl\drivers\peripheral\gpio/cy_gpio.h **** }
 929:Generated_Source\PSoC6\pdl\drivers\peripheral\gpio/cy_gpio.h **** 
 930:Generated_Source\PSoC6\pdl\drivers\peripheral\gpio/cy_gpio.h **** 
 931:Generated_Source\PSoC6\pdl\drivers\peripheral\gpio/cy_gpio.h **** /*******************************************************************************
 932:Generated_Source\PSoC6\pdl\drivers\peripheral\gpio/cy_gpio.h **** * Function Name: Cy_GPIO_SetDrivemode
 933:Generated_Source\PSoC6\pdl\drivers\peripheral\gpio/cy_gpio.h **** ****************************************************************************//**
 934:Generated_Source\PSoC6\pdl\drivers\peripheral\gpio/cy_gpio.h **** *
 935:Generated_Source\PSoC6\pdl\drivers\peripheral\gpio/cy_gpio.h **** * Configures the pin output buffer drive mode and input buffer enable.
 936:Generated_Source\PSoC6\pdl\drivers\peripheral\gpio/cy_gpio.h **** *
 937:Generated_Source\PSoC6\pdl\drivers\peripheral\gpio/cy_gpio.h **** * The output buffer drive mode and input buffer enable are combined into a single
 938:Generated_Source\PSoC6\pdl\drivers\peripheral\gpio/cy_gpio.h **** * parameter. The drive mode controls the behavior of the pin in general.
 939:Generated_Source\PSoC6\pdl\drivers\peripheral\gpio/cy_gpio.h **** * Enabling the input buffer allows the digital pin state to be read but also
 940:Generated_Source\PSoC6\pdl\drivers\peripheral\gpio/cy_gpio.h **** * contributes to extra current consumption.
 941:Generated_Source\PSoC6\pdl\drivers\peripheral\gpio/cy_gpio.h **** *
 942:Generated_Source\PSoC6\pdl\drivers\peripheral\gpio/cy_gpio.h **** * \param base
 943:Generated_Source\PSoC6\pdl\drivers\peripheral\gpio/cy_gpio.h **** * Pointer to the pin's port register base address
 944:Generated_Source\PSoC6\pdl\drivers\peripheral\gpio/cy_gpio.h **** *
 945:Generated_Source\PSoC6\pdl\drivers\peripheral\gpio/cy_gpio.h **** * \param pinNum
 946:Generated_Source\PSoC6\pdl\drivers\peripheral\gpio/cy_gpio.h **** * Position of the pin bit-field within the port register
 947:Generated_Source\PSoC6\pdl\drivers\peripheral\gpio/cy_gpio.h **** *
 948:Generated_Source\PSoC6\pdl\drivers\peripheral\gpio/cy_gpio.h **** * \param value
 949:Generated_Source\PSoC6\pdl\drivers\peripheral\gpio/cy_gpio.h **** * Pin drive mode. Options are detailed in \ref group_gpio_driveModes macros
 950:Generated_Source\PSoC6\pdl\drivers\peripheral\gpio/cy_gpio.h **** *
 951:Generated_Source\PSoC6\pdl\drivers\peripheral\gpio/cy_gpio.h **** * \note 
 952:Generated_Source\PSoC6\pdl\drivers\peripheral\gpio/cy_gpio.h **** * This function modifies a port register in a read-modify-write operation. It is
 953:Generated_Source\PSoC6\pdl\drivers\peripheral\gpio/cy_gpio.h **** * not thread safe as the resource is shared among multiple pins on a port.
ARM GAS  C:\Users\stijn\AppData\Local\Temp\ccD3lQ9e.s 			page 22


 954:Generated_Source\PSoC6\pdl\drivers\peripheral\gpio/cy_gpio.h **** *
 955:Generated_Source\PSoC6\pdl\drivers\peripheral\gpio/cy_gpio.h **** * \funcusage
 956:Generated_Source\PSoC6\pdl\drivers\peripheral\gpio/cy_gpio.h **** * \snippet gpio/gpio_v1_10_sut_01.cydsn/main_cm4.c snippet_Cy_GPIO_SetDrivemode
 957:Generated_Source\PSoC6\pdl\drivers\peripheral\gpio/cy_gpio.h **** *
 958:Generated_Source\PSoC6\pdl\drivers\peripheral\gpio/cy_gpio.h **** *******************************************************************************/
 959:Generated_Source\PSoC6\pdl\drivers\peripheral\gpio/cy_gpio.h **** __STATIC_INLINE void Cy_GPIO_SetDrivemode(GPIO_PRT_Type* base, uint32_t pinNum, uint32_t value)
 960:Generated_Source\PSoC6\pdl\drivers\peripheral\gpio/cy_gpio.h **** {
 234              		.loc 1 960 0
 235              		.cfi_startproc
 236              		@ args = 0, pretend = 0, frame = 24
 237              		@ frame_needed = 1, uses_anonymous_args = 0
 238 0000 80B5     		push	{r7, lr}
 239              		.cfi_def_cfa_offset 8
 240              		.cfi_offset 7, -8
 241              		.cfi_offset 14, -4
 242 0002 86B0     		sub	sp, sp, #24
 243              		.cfi_def_cfa_offset 32
 244 0004 00AF     		add	r7, sp, #0
 245              		.cfi_def_cfa_register 7
 246 0006 F860     		str	r0, [r7, #12]
 247 0008 B960     		str	r1, [r7, #8]
 248 000a 7A60     		str	r2, [r7, #4]
 961:Generated_Source\PSoC6\pdl\drivers\peripheral\gpio/cy_gpio.h ****     uint32_t tempReg;
 962:Generated_Source\PSoC6\pdl\drivers\peripheral\gpio/cy_gpio.h ****     uint32_t pinLoc;
 963:Generated_Source\PSoC6\pdl\drivers\peripheral\gpio/cy_gpio.h **** 
 964:Generated_Source\PSoC6\pdl\drivers\peripheral\gpio/cy_gpio.h ****     CY_ASSERT_L2(CY_GPIO_IS_PIN_VALID(pinNum));
 249              		.loc 1 964 0
 250 000c BB68     		ldr	r3, [r7, #8]
 251 000e 072B     		cmp	r3, #7
 252 0010 04D9     		bls	.L18
 253              		.loc 1 964 0 is_stmt 0 discriminator 1
 254 0012 4FF47171 		mov	r1, #964
 255 0016 1948     		ldr	r0, .L20
 256 0018 FFF7FEFF 		bl	Cy_SysLib_AssertFailed
 257              	.L18:
 965:Generated_Source\PSoC6\pdl\drivers\peripheral\gpio/cy_gpio.h ****     CY_ASSERT_L2(CY_GPIO_IS_DM_VALID(value));
 258              		.loc 1 965 0 is_stmt 1
 259 001c 7B68     		ldr	r3, [r7, #4]
 260 001e 23F00F03 		bic	r3, r3, #15
 261 0022 002B     		cmp	r3, #0
 262 0024 04D0     		beq	.L19
 263              		.loc 1 965 0 is_stmt 0 discriminator 1
 264 0026 40F2C531 		movw	r1, #965
 265 002a 1448     		ldr	r0, .L20
 266 002c FFF7FEFF 		bl	Cy_SysLib_AssertFailed
 267              	.L19:
 966:Generated_Source\PSoC6\pdl\drivers\peripheral\gpio/cy_gpio.h **** 
 967:Generated_Source\PSoC6\pdl\drivers\peripheral\gpio/cy_gpio.h ****     pinLoc = pinNum << CY_GPIO_DRIVE_MODE_OFFSET;
 268              		.loc 1 967 0 is_stmt 1
 269 0030 BB68     		ldr	r3, [r7, #8]
 270 0032 9B00     		lsls	r3, r3, #2
 271 0034 7B61     		str	r3, [r7, #20]
 968:Generated_Source\PSoC6\pdl\drivers\peripheral\gpio/cy_gpio.h ****     tempReg = (GPIO_PRT_CFG(base) & ~(CY_GPIO_CFG_DM_MASK << pinLoc));
 272              		.loc 1 968 0
 273 0036 124B     		ldr	r3, .L20+4
 274 0038 1B68     		ldr	r3, [r3]
 275 003a 93F87D30 		ldrb	r3, [r3, #125]	@ zero_extendqisi2
ARM GAS  C:\Users\stijn\AppData\Local\Temp\ccD3lQ9e.s 			page 23


 276 003e 1A46     		mov	r2, r3
 277 0040 FB68     		ldr	r3, [r7, #12]
 278 0042 1344     		add	r3, r3, r2
 279 0044 1A68     		ldr	r2, [r3]
 280 0046 0F21     		movs	r1, #15
 281 0048 7B69     		ldr	r3, [r7, #20]
 282 004a 01FA03F3 		lsl	r3, r1, r3
 283 004e DB43     		mvns	r3, r3
 284 0050 1340     		ands	r3, r3, r2
 285 0052 3B61     		str	r3, [r7, #16]
 969:Generated_Source\PSoC6\pdl\drivers\peripheral\gpio/cy_gpio.h ****     GPIO_PRT_CFG(base) = tempReg | ((value & CY_GPIO_CFG_DM_MASK) << pinLoc);
 286              		.loc 1 969 0
 287 0054 0A4B     		ldr	r3, .L20+4
 288 0056 1B68     		ldr	r3, [r3]
 289 0058 93F87D30 		ldrb	r3, [r3, #125]	@ zero_extendqisi2
 290 005c 1A46     		mov	r2, r3
 291 005e FB68     		ldr	r3, [r7, #12]
 292 0060 1344     		add	r3, r3, r2
 293 0062 1946     		mov	r1, r3
 294 0064 7B68     		ldr	r3, [r7, #4]
 295 0066 03F00F02 		and	r2, r3, #15
 296 006a 7B69     		ldr	r3, [r7, #20]
 297 006c 9A40     		lsls	r2, r2, r3
 298 006e 3B69     		ldr	r3, [r7, #16]
 299 0070 1343     		orrs	r3, r3, r2
 300 0072 0B60     		str	r3, [r1]
 970:Generated_Source\PSoC6\pdl\drivers\peripheral\gpio/cy_gpio.h **** }
 301              		.loc 1 970 0
 302 0074 00BF     		nop
 303 0076 1837     		adds	r7, r7, #24
 304              		.cfi_def_cfa_offset 8
 305 0078 BD46     		mov	sp, r7
 306              		.cfi_def_cfa_register 13
 307              		@ sp needed
 308 007a 80BD     		pop	{r7, pc}
 309              	.L21:
 310              		.align	2
 311              	.L20:
 312 007c 00000000 		.word	.LC0
 313 0080 00000000 		.word	cy_device
 314              		.cfi_endproc
 315              	.LFE141:
 316              		.size	Cy_GPIO_SetDrivemode, .-Cy_GPIO_SetDrivemode
 317              		.section	.text.Cy_GPIO_SetVtrip,"ax",%progbits
 318              		.align	2
 319              		.thumb
 320              		.thumb_func
 321              		.type	Cy_GPIO_SetVtrip, %function
 322              	Cy_GPIO_SetVtrip:
 323              	.LFB143:
 971:Generated_Source\PSoC6\pdl\drivers\peripheral\gpio/cy_gpio.h **** 
 972:Generated_Source\PSoC6\pdl\drivers\peripheral\gpio/cy_gpio.h **** 
 973:Generated_Source\PSoC6\pdl\drivers\peripheral\gpio/cy_gpio.h **** /*******************************************************************************
 974:Generated_Source\PSoC6\pdl\drivers\peripheral\gpio/cy_gpio.h **** * Function Name: Cy_GPIO_GetDrivemode
 975:Generated_Source\PSoC6\pdl\drivers\peripheral\gpio/cy_gpio.h **** ****************************************************************************//**
 976:Generated_Source\PSoC6\pdl\drivers\peripheral\gpio/cy_gpio.h **** *
 977:Generated_Source\PSoC6\pdl\drivers\peripheral\gpio/cy_gpio.h **** * Returns the pin output buffer drive mode and input buffer enable state.
ARM GAS  C:\Users\stijn\AppData\Local\Temp\ccD3lQ9e.s 			page 24


 978:Generated_Source\PSoC6\pdl\drivers\peripheral\gpio/cy_gpio.h **** *
 979:Generated_Source\PSoC6\pdl\drivers\peripheral\gpio/cy_gpio.h **** * \param base
 980:Generated_Source\PSoC6\pdl\drivers\peripheral\gpio/cy_gpio.h **** * Pointer to the pin's port register base address
 981:Generated_Source\PSoC6\pdl\drivers\peripheral\gpio/cy_gpio.h **** *
 982:Generated_Source\PSoC6\pdl\drivers\peripheral\gpio/cy_gpio.h **** * \param pinNum
 983:Generated_Source\PSoC6\pdl\drivers\peripheral\gpio/cy_gpio.h **** * Position of the pin bit-field within the port register
 984:Generated_Source\PSoC6\pdl\drivers\peripheral\gpio/cy_gpio.h **** *
 985:Generated_Source\PSoC6\pdl\drivers\peripheral\gpio/cy_gpio.h **** * \return
 986:Generated_Source\PSoC6\pdl\drivers\peripheral\gpio/cy_gpio.h **** * Pin drive mode. Options are detailed in \ref group_gpio_driveModes macros
 987:Generated_Source\PSoC6\pdl\drivers\peripheral\gpio/cy_gpio.h **** *
 988:Generated_Source\PSoC6\pdl\drivers\peripheral\gpio/cy_gpio.h **** * \funcusage
 989:Generated_Source\PSoC6\pdl\drivers\peripheral\gpio/cy_gpio.h **** * \snippet gpio/gpio_v1_10_sut_01.cydsn/main_cm4.c snippet_Cy_GPIO_SetDrivemode
 990:Generated_Source\PSoC6\pdl\drivers\peripheral\gpio/cy_gpio.h **** *
 991:Generated_Source\PSoC6\pdl\drivers\peripheral\gpio/cy_gpio.h **** *******************************************************************************/
 992:Generated_Source\PSoC6\pdl\drivers\peripheral\gpio/cy_gpio.h **** __STATIC_INLINE uint32_t Cy_GPIO_GetDrivemode(GPIO_PRT_Type* base, uint32_t pinNum)
 993:Generated_Source\PSoC6\pdl\drivers\peripheral\gpio/cy_gpio.h **** {
 994:Generated_Source\PSoC6\pdl\drivers\peripheral\gpio/cy_gpio.h ****     CY_ASSERT_L2(CY_GPIO_IS_PIN_VALID(pinNum));
 995:Generated_Source\PSoC6\pdl\drivers\peripheral\gpio/cy_gpio.h ****     
 996:Generated_Source\PSoC6\pdl\drivers\peripheral\gpio/cy_gpio.h ****     return (GPIO_PRT_CFG(base) >> (pinNum << CY_GPIO_DRIVE_MODE_OFFSET)) & CY_GPIO_CFG_DM_MASK;
 997:Generated_Source\PSoC6\pdl\drivers\peripheral\gpio/cy_gpio.h **** }
 998:Generated_Source\PSoC6\pdl\drivers\peripheral\gpio/cy_gpio.h **** 
 999:Generated_Source\PSoC6\pdl\drivers\peripheral\gpio/cy_gpio.h **** 
1000:Generated_Source\PSoC6\pdl\drivers\peripheral\gpio/cy_gpio.h **** /*******************************************************************************
1001:Generated_Source\PSoC6\pdl\drivers\peripheral\gpio/cy_gpio.h **** * Function Name: Cy_GPIO_SetVtrip
1002:Generated_Source\PSoC6\pdl\drivers\peripheral\gpio/cy_gpio.h **** ****************************************************************************//**
1003:Generated_Source\PSoC6\pdl\drivers\peripheral\gpio/cy_gpio.h **** *
1004:Generated_Source\PSoC6\pdl\drivers\peripheral\gpio/cy_gpio.h **** * Configures the GPIO pin input buffer voltage threshold mode.
1005:Generated_Source\PSoC6\pdl\drivers\peripheral\gpio/cy_gpio.h **** *
1006:Generated_Source\PSoC6\pdl\drivers\peripheral\gpio/cy_gpio.h **** * \param base
1007:Generated_Source\PSoC6\pdl\drivers\peripheral\gpio/cy_gpio.h **** * Pointer to the pin's port register base address
1008:Generated_Source\PSoC6\pdl\drivers\peripheral\gpio/cy_gpio.h **** *
1009:Generated_Source\PSoC6\pdl\drivers\peripheral\gpio/cy_gpio.h **** * \param pinNum
1010:Generated_Source\PSoC6\pdl\drivers\peripheral\gpio/cy_gpio.h **** * Position of the pin bit-field within the port register
1011:Generated_Source\PSoC6\pdl\drivers\peripheral\gpio/cy_gpio.h **** *
1012:Generated_Source\PSoC6\pdl\drivers\peripheral\gpio/cy_gpio.h **** * \param value
1013:Generated_Source\PSoC6\pdl\drivers\peripheral\gpio/cy_gpio.h **** * Pin voltage threshold mode. Options are detailed in \ref group_gpio_vtrip macros
1014:Generated_Source\PSoC6\pdl\drivers\peripheral\gpio/cy_gpio.h **** *
1015:Generated_Source\PSoC6\pdl\drivers\peripheral\gpio/cy_gpio.h **** * \note 
1016:Generated_Source\PSoC6\pdl\drivers\peripheral\gpio/cy_gpio.h **** * This function modifies a port register in a read-modify-write operation. It is
1017:Generated_Source\PSoC6\pdl\drivers\peripheral\gpio/cy_gpio.h **** * not thread safe as the resource is shared among multiple pins on a port.
1018:Generated_Source\PSoC6\pdl\drivers\peripheral\gpio/cy_gpio.h **** *
1019:Generated_Source\PSoC6\pdl\drivers\peripheral\gpio/cy_gpio.h **** * \funcusage
1020:Generated_Source\PSoC6\pdl\drivers\peripheral\gpio/cy_gpio.h **** * \snippet gpio/gpio_v1_10_sut_01.cydsn/main_cm4.c snippet_Cy_GPIO_SetVtrip
1021:Generated_Source\PSoC6\pdl\drivers\peripheral\gpio/cy_gpio.h **** *
1022:Generated_Source\PSoC6\pdl\drivers\peripheral\gpio/cy_gpio.h **** *******************************************************************************/
1023:Generated_Source\PSoC6\pdl\drivers\peripheral\gpio/cy_gpio.h **** __STATIC_INLINE void Cy_GPIO_SetVtrip(GPIO_PRT_Type* base, uint32_t pinNum, uint32_t value)
1024:Generated_Source\PSoC6\pdl\drivers\peripheral\gpio/cy_gpio.h **** {
 324              		.loc 1 1024 0
 325              		.cfi_startproc
 326              		@ args = 0, pretend = 0, frame = 24
 327              		@ frame_needed = 1, uses_anonymous_args = 0
 328 0000 80B5     		push	{r7, lr}
 329              		.cfi_def_cfa_offset 8
 330              		.cfi_offset 7, -8
 331              		.cfi_offset 14, -4
 332 0002 86B0     		sub	sp, sp, #24
 333              		.cfi_def_cfa_offset 32
ARM GAS  C:\Users\stijn\AppData\Local\Temp\ccD3lQ9e.s 			page 25


 334 0004 00AF     		add	r7, sp, #0
 335              		.cfi_def_cfa_register 7
 336 0006 F860     		str	r0, [r7, #12]
 337 0008 B960     		str	r1, [r7, #8]
 338 000a 7A60     		str	r2, [r7, #4]
1025:Generated_Source\PSoC6\pdl\drivers\peripheral\gpio/cy_gpio.h ****     uint32_t tempReg;
1026:Generated_Source\PSoC6\pdl\drivers\peripheral\gpio/cy_gpio.h **** 
1027:Generated_Source\PSoC6\pdl\drivers\peripheral\gpio/cy_gpio.h ****     CY_ASSERT_L2(CY_GPIO_IS_PIN_VALID(pinNum));
 339              		.loc 1 1027 0
 340 000c BB68     		ldr	r3, [r7, #8]
 341 000e 072B     		cmp	r3, #7
 342 0010 04D9     		bls	.L23
 343              		.loc 1 1027 0 is_stmt 0 discriminator 1
 344 0012 40F20341 		movw	r1, #1027
 345 0016 1748     		ldr	r0, .L25
 346 0018 FFF7FEFF 		bl	Cy_SysLib_AssertFailed
 347              	.L23:
1028:Generated_Source\PSoC6\pdl\drivers\peripheral\gpio/cy_gpio.h ****     CY_ASSERT_L2(CY_GPIO_IS_VALUE_VALID(value));
 348              		.loc 1 1028 0 is_stmt 1
 349 001c 7B68     		ldr	r3, [r7, #4]
 350 001e 012B     		cmp	r3, #1
 351 0020 04D9     		bls	.L24
 352              		.loc 1 1028 0 is_stmt 0 discriminator 1
 353 0022 40F20441 		movw	r1, #1028
 354 0026 1348     		ldr	r0, .L25
 355 0028 FFF7FEFF 		bl	Cy_SysLib_AssertFailed
 356              	.L24:
1029:Generated_Source\PSoC6\pdl\drivers\peripheral\gpio/cy_gpio.h **** 
1030:Generated_Source\PSoC6\pdl\drivers\peripheral\gpio/cy_gpio.h ****     tempReg = GPIO_PRT_CFG_IN(base) & ~(CY_GPIO_CFG_IN_VTRIP_SEL_MASK << pinNum);
 357              		.loc 1 1030 0 is_stmt 1
 358 002c 124B     		ldr	r3, .L25+4
 359 002e 1B68     		ldr	r3, [r3]
 360 0030 93F87E30 		ldrb	r3, [r3, #126]	@ zero_extendqisi2
 361 0034 1A46     		mov	r2, r3
 362 0036 FB68     		ldr	r3, [r7, #12]
 363 0038 1344     		add	r3, r3, r2
 364 003a 1A68     		ldr	r2, [r3]
 365 003c 0121     		movs	r1, #1
 366 003e BB68     		ldr	r3, [r7, #8]
 367 0040 01FA03F3 		lsl	r3, r1, r3
 368 0044 DB43     		mvns	r3, r3
 369 0046 1340     		ands	r3, r3, r2
 370 0048 7B61     		str	r3, [r7, #20]
1031:Generated_Source\PSoC6\pdl\drivers\peripheral\gpio/cy_gpio.h ****     GPIO_PRT_CFG_IN(base) = tempReg | ((value & CY_GPIO_CFG_IN_VTRIP_SEL_MASK) << pinNum);
 371              		.loc 1 1031 0
 372 004a 0B4B     		ldr	r3, .L25+4
 373 004c 1B68     		ldr	r3, [r3]
 374 004e 93F87E30 		ldrb	r3, [r3, #126]	@ zero_extendqisi2
 375 0052 1A46     		mov	r2, r3
 376 0054 FB68     		ldr	r3, [r7, #12]
 377 0056 1344     		add	r3, r3, r2
 378 0058 1946     		mov	r1, r3
 379 005a 7B68     		ldr	r3, [r7, #4]
 380 005c 03F00102 		and	r2, r3, #1
 381 0060 BB68     		ldr	r3, [r7, #8]
 382 0062 9A40     		lsls	r2, r2, r3
 383 0064 7B69     		ldr	r3, [r7, #20]
ARM GAS  C:\Users\stijn\AppData\Local\Temp\ccD3lQ9e.s 			page 26


 384 0066 1343     		orrs	r3, r3, r2
 385 0068 0B60     		str	r3, [r1]
1032:Generated_Source\PSoC6\pdl\drivers\peripheral\gpio/cy_gpio.h **** }
 386              		.loc 1 1032 0
 387 006a 00BF     		nop
 388 006c 1837     		adds	r7, r7, #24
 389              		.cfi_def_cfa_offset 8
 390 006e BD46     		mov	sp, r7
 391              		.cfi_def_cfa_register 13
 392              		@ sp needed
 393 0070 80BD     		pop	{r7, pc}
 394              	.L26:
 395 0072 00BF     		.align	2
 396              	.L25:
 397 0074 00000000 		.word	.LC0
 398 0078 00000000 		.word	cy_device
 399              		.cfi_endproc
 400              	.LFE143:
 401              		.size	Cy_GPIO_SetVtrip, .-Cy_GPIO_SetVtrip
 402              		.section	.text.Cy_GPIO_SetInterruptMask,"ax",%progbits
 403              		.align	2
 404              		.thumb
 405              		.thumb_func
 406              		.type	Cy_GPIO_SetInterruptMask, %function
 407              	Cy_GPIO_SetInterruptMask:
 408              	.LFB161:
1033:Generated_Source\PSoC6\pdl\drivers\peripheral\gpio/cy_gpio.h **** 
1034:Generated_Source\PSoC6\pdl\drivers\peripheral\gpio/cy_gpio.h **** 
1035:Generated_Source\PSoC6\pdl\drivers\peripheral\gpio/cy_gpio.h **** /*******************************************************************************
1036:Generated_Source\PSoC6\pdl\drivers\peripheral\gpio/cy_gpio.h **** * Function Name: Cy_GPIO_GetVtrip
1037:Generated_Source\PSoC6\pdl\drivers\peripheral\gpio/cy_gpio.h **** ****************************************************************************//**
1038:Generated_Source\PSoC6\pdl\drivers\peripheral\gpio/cy_gpio.h **** *
1039:Generated_Source\PSoC6\pdl\drivers\peripheral\gpio/cy_gpio.h **** * Returns the pin input buffer voltage threshold mode.
1040:Generated_Source\PSoC6\pdl\drivers\peripheral\gpio/cy_gpio.h **** *
1041:Generated_Source\PSoC6\pdl\drivers\peripheral\gpio/cy_gpio.h **** * \param base
1042:Generated_Source\PSoC6\pdl\drivers\peripheral\gpio/cy_gpio.h **** * Pointer to the pin's port register base address
1043:Generated_Source\PSoC6\pdl\drivers\peripheral\gpio/cy_gpio.h **** *
1044:Generated_Source\PSoC6\pdl\drivers\peripheral\gpio/cy_gpio.h **** * \param pinNum
1045:Generated_Source\PSoC6\pdl\drivers\peripheral\gpio/cy_gpio.h **** * Position of the pin bit-field within the port register
1046:Generated_Source\PSoC6\pdl\drivers\peripheral\gpio/cy_gpio.h **** *
1047:Generated_Source\PSoC6\pdl\drivers\peripheral\gpio/cy_gpio.h **** * \return
1048:Generated_Source\PSoC6\pdl\drivers\peripheral\gpio/cy_gpio.h **** * Pin voltage threshold mode. Options are detailed in \ref group_gpio_vtrip macros
1049:Generated_Source\PSoC6\pdl\drivers\peripheral\gpio/cy_gpio.h **** *
1050:Generated_Source\PSoC6\pdl\drivers\peripheral\gpio/cy_gpio.h **** * \funcusage
1051:Generated_Source\PSoC6\pdl\drivers\peripheral\gpio/cy_gpio.h **** * \snippet gpio/gpio_v1_10_sut_01.cydsn/main_cm4.c snippet_Cy_GPIO_SetVtrip
1052:Generated_Source\PSoC6\pdl\drivers\peripheral\gpio/cy_gpio.h **** *
1053:Generated_Source\PSoC6\pdl\drivers\peripheral\gpio/cy_gpio.h **** *******************************************************************************/
1054:Generated_Source\PSoC6\pdl\drivers\peripheral\gpio/cy_gpio.h **** __STATIC_INLINE uint32_t Cy_GPIO_GetVtrip(GPIO_PRT_Type* base, uint32_t pinNum)
1055:Generated_Source\PSoC6\pdl\drivers\peripheral\gpio/cy_gpio.h **** {
1056:Generated_Source\PSoC6\pdl\drivers\peripheral\gpio/cy_gpio.h ****     CY_ASSERT_L2(CY_GPIO_IS_PIN_VALID(pinNum));
1057:Generated_Source\PSoC6\pdl\drivers\peripheral\gpio/cy_gpio.h ****     
1058:Generated_Source\PSoC6\pdl\drivers\peripheral\gpio/cy_gpio.h ****     return (GPIO_PRT_CFG_IN(base) >> pinNum) & CY_GPIO_CFG_IN_VTRIP_SEL_MASK;
1059:Generated_Source\PSoC6\pdl\drivers\peripheral\gpio/cy_gpio.h **** }
1060:Generated_Source\PSoC6\pdl\drivers\peripheral\gpio/cy_gpio.h **** 
1061:Generated_Source\PSoC6\pdl\drivers\peripheral\gpio/cy_gpio.h **** 
1062:Generated_Source\PSoC6\pdl\drivers\peripheral\gpio/cy_gpio.h **** /*******************************************************************************
1063:Generated_Source\PSoC6\pdl\drivers\peripheral\gpio/cy_gpio.h **** * Function Name: Cy_GPIO_SetSlewRate
ARM GAS  C:\Users\stijn\AppData\Local\Temp\ccD3lQ9e.s 			page 27


1064:Generated_Source\PSoC6\pdl\drivers\peripheral\gpio/cy_gpio.h **** ****************************************************************************//**
1065:Generated_Source\PSoC6\pdl\drivers\peripheral\gpio/cy_gpio.h **** *
1066:Generated_Source\PSoC6\pdl\drivers\peripheral\gpio/cy_gpio.h **** * Configures the pin output buffer slew rate.
1067:Generated_Source\PSoC6\pdl\drivers\peripheral\gpio/cy_gpio.h **** *
1068:Generated_Source\PSoC6\pdl\drivers\peripheral\gpio/cy_gpio.h **** * \note 
1069:Generated_Source\PSoC6\pdl\drivers\peripheral\gpio/cy_gpio.h **** * This function has no effect for the GPIO ports, where the slew rate
1070:Generated_Source\PSoC6\pdl\drivers\peripheral\gpio/cy_gpio.h **** * configuration is not available. Refer to device datasheet for details.
1071:Generated_Source\PSoC6\pdl\drivers\peripheral\gpio/cy_gpio.h **** *
1072:Generated_Source\PSoC6\pdl\drivers\peripheral\gpio/cy_gpio.h **** * \param base
1073:Generated_Source\PSoC6\pdl\drivers\peripheral\gpio/cy_gpio.h **** * Pointer to the pin's port register base address
1074:Generated_Source\PSoC6\pdl\drivers\peripheral\gpio/cy_gpio.h **** *
1075:Generated_Source\PSoC6\pdl\drivers\peripheral\gpio/cy_gpio.h **** * \param pinNum
1076:Generated_Source\PSoC6\pdl\drivers\peripheral\gpio/cy_gpio.h **** * Position of the pin bit-field within the port register
1077:Generated_Source\PSoC6\pdl\drivers\peripheral\gpio/cy_gpio.h **** *
1078:Generated_Source\PSoC6\pdl\drivers\peripheral\gpio/cy_gpio.h **** * \param value
1079:Generated_Source\PSoC6\pdl\drivers\peripheral\gpio/cy_gpio.h **** * Pin slew rate. Options are detailed in \ref group_gpio_slewRate macros
1080:Generated_Source\PSoC6\pdl\drivers\peripheral\gpio/cy_gpio.h **** *
1081:Generated_Source\PSoC6\pdl\drivers\peripheral\gpio/cy_gpio.h **** * \note 
1082:Generated_Source\PSoC6\pdl\drivers\peripheral\gpio/cy_gpio.h **** * This function modifies a port register in a read-modify-write operation. It is
1083:Generated_Source\PSoC6\pdl\drivers\peripheral\gpio/cy_gpio.h **** * not thread safe as the resource is shared among multiple pins on a port.
1084:Generated_Source\PSoC6\pdl\drivers\peripheral\gpio/cy_gpio.h **** *
1085:Generated_Source\PSoC6\pdl\drivers\peripheral\gpio/cy_gpio.h **** * \funcusage
1086:Generated_Source\PSoC6\pdl\drivers\peripheral\gpio/cy_gpio.h **** * \snippet gpio/gpio_v1_10_sut_01.cydsn/main_cm4.c snippet_Cy_GPIO_SetSlewRate
1087:Generated_Source\PSoC6\pdl\drivers\peripheral\gpio/cy_gpio.h **** *
1088:Generated_Source\PSoC6\pdl\drivers\peripheral\gpio/cy_gpio.h **** *******************************************************************************/
1089:Generated_Source\PSoC6\pdl\drivers\peripheral\gpio/cy_gpio.h **** __STATIC_INLINE void Cy_GPIO_SetSlewRate(GPIO_PRT_Type* base, uint32_t pinNum, uint32_t value)
1090:Generated_Source\PSoC6\pdl\drivers\peripheral\gpio/cy_gpio.h **** {
1091:Generated_Source\PSoC6\pdl\drivers\peripheral\gpio/cy_gpio.h ****     uint32_t tempReg;
1092:Generated_Source\PSoC6\pdl\drivers\peripheral\gpio/cy_gpio.h **** 
1093:Generated_Source\PSoC6\pdl\drivers\peripheral\gpio/cy_gpio.h ****     CY_ASSERT_L2(CY_GPIO_IS_PIN_VALID(pinNum));
1094:Generated_Source\PSoC6\pdl\drivers\peripheral\gpio/cy_gpio.h ****     CY_ASSERT_L2(CY_GPIO_IS_VALUE_VALID(value));
1095:Generated_Source\PSoC6\pdl\drivers\peripheral\gpio/cy_gpio.h **** 
1096:Generated_Source\PSoC6\pdl\drivers\peripheral\gpio/cy_gpio.h ****     tempReg = GPIO_PRT_CFG_OUT(base) & ~(CY_GPIO_CFG_OUT_SLOW_MASK << pinNum);
1097:Generated_Source\PSoC6\pdl\drivers\peripheral\gpio/cy_gpio.h ****     GPIO_PRT_CFG_OUT(base) = tempReg | ((value & CY_GPIO_CFG_OUT_SLOW_MASK) << pinNum);
1098:Generated_Source\PSoC6\pdl\drivers\peripheral\gpio/cy_gpio.h **** }
1099:Generated_Source\PSoC6\pdl\drivers\peripheral\gpio/cy_gpio.h **** 
1100:Generated_Source\PSoC6\pdl\drivers\peripheral\gpio/cy_gpio.h **** 
1101:Generated_Source\PSoC6\pdl\drivers\peripheral\gpio/cy_gpio.h **** /*******************************************************************************
1102:Generated_Source\PSoC6\pdl\drivers\peripheral\gpio/cy_gpio.h **** * Function Name: Cy_GPIO_GetSlewRate
1103:Generated_Source\PSoC6\pdl\drivers\peripheral\gpio/cy_gpio.h **** ****************************************************************************//**
1104:Generated_Source\PSoC6\pdl\drivers\peripheral\gpio/cy_gpio.h **** *
1105:Generated_Source\PSoC6\pdl\drivers\peripheral\gpio/cy_gpio.h **** * Returns the pin output buffer slew rate.
1106:Generated_Source\PSoC6\pdl\drivers\peripheral\gpio/cy_gpio.h **** *
1107:Generated_Source\PSoC6\pdl\drivers\peripheral\gpio/cy_gpio.h **** * \param base
1108:Generated_Source\PSoC6\pdl\drivers\peripheral\gpio/cy_gpio.h **** * Pointer to the pin's port register base address
1109:Generated_Source\PSoC6\pdl\drivers\peripheral\gpio/cy_gpio.h **** *
1110:Generated_Source\PSoC6\pdl\drivers\peripheral\gpio/cy_gpio.h **** * \param pinNum
1111:Generated_Source\PSoC6\pdl\drivers\peripheral\gpio/cy_gpio.h **** * Position of the pin bit-field within the port register
1112:Generated_Source\PSoC6\pdl\drivers\peripheral\gpio/cy_gpio.h **** *
1113:Generated_Source\PSoC6\pdl\drivers\peripheral\gpio/cy_gpio.h **** * \return
1114:Generated_Source\PSoC6\pdl\drivers\peripheral\gpio/cy_gpio.h **** * Pin slew rate. Options are detailed in \ref group_gpio_slewRate macros
1115:Generated_Source\PSoC6\pdl\drivers\peripheral\gpio/cy_gpio.h **** *
1116:Generated_Source\PSoC6\pdl\drivers\peripheral\gpio/cy_gpio.h **** * \funcusage
1117:Generated_Source\PSoC6\pdl\drivers\peripheral\gpio/cy_gpio.h **** * \snippet gpio/gpio_v1_10_sut_01.cydsn/main_cm4.c snippet_Cy_GPIO_SetSlewRate
1118:Generated_Source\PSoC6\pdl\drivers\peripheral\gpio/cy_gpio.h **** *
1119:Generated_Source\PSoC6\pdl\drivers\peripheral\gpio/cy_gpio.h **** *******************************************************************************/
1120:Generated_Source\PSoC6\pdl\drivers\peripheral\gpio/cy_gpio.h **** __STATIC_INLINE uint32_t Cy_GPIO_GetSlewRate(GPIO_PRT_Type* base, uint32_t pinNum)
ARM GAS  C:\Users\stijn\AppData\Local\Temp\ccD3lQ9e.s 			page 28


1121:Generated_Source\PSoC6\pdl\drivers\peripheral\gpio/cy_gpio.h **** {
1122:Generated_Source\PSoC6\pdl\drivers\peripheral\gpio/cy_gpio.h ****     CY_ASSERT_L2(CY_GPIO_IS_PIN_VALID(pinNum));
1123:Generated_Source\PSoC6\pdl\drivers\peripheral\gpio/cy_gpio.h **** 
1124:Generated_Source\PSoC6\pdl\drivers\peripheral\gpio/cy_gpio.h ****     return (GPIO_PRT_CFG_OUT(base) >> pinNum) & CY_GPIO_CFG_OUT_SLOW_MASK;
1125:Generated_Source\PSoC6\pdl\drivers\peripheral\gpio/cy_gpio.h **** }
1126:Generated_Source\PSoC6\pdl\drivers\peripheral\gpio/cy_gpio.h **** 
1127:Generated_Source\PSoC6\pdl\drivers\peripheral\gpio/cy_gpio.h **** 
1128:Generated_Source\PSoC6\pdl\drivers\peripheral\gpio/cy_gpio.h **** /*******************************************************************************
1129:Generated_Source\PSoC6\pdl\drivers\peripheral\gpio/cy_gpio.h **** * Function Name: Cy_GPIO_SetDriveSel
1130:Generated_Source\PSoC6\pdl\drivers\peripheral\gpio/cy_gpio.h **** ****************************************************************************//**
1131:Generated_Source\PSoC6\pdl\drivers\peripheral\gpio/cy_gpio.h **** *
1132:Generated_Source\PSoC6\pdl\drivers\peripheral\gpio/cy_gpio.h **** * Configures the pin output buffer drive strength.
1133:Generated_Source\PSoC6\pdl\drivers\peripheral\gpio/cy_gpio.h **** *
1134:Generated_Source\PSoC6\pdl\drivers\peripheral\gpio/cy_gpio.h **** * \param base
1135:Generated_Source\PSoC6\pdl\drivers\peripheral\gpio/cy_gpio.h **** * Pointer to the pin's port register base address
1136:Generated_Source\PSoC6\pdl\drivers\peripheral\gpio/cy_gpio.h **** *
1137:Generated_Source\PSoC6\pdl\drivers\peripheral\gpio/cy_gpio.h **** * \param pinNum
1138:Generated_Source\PSoC6\pdl\drivers\peripheral\gpio/cy_gpio.h **** * Position of the pin bit-field within the port register
1139:Generated_Source\PSoC6\pdl\drivers\peripheral\gpio/cy_gpio.h **** *
1140:Generated_Source\PSoC6\pdl\drivers\peripheral\gpio/cy_gpio.h **** * \param value
1141:Generated_Source\PSoC6\pdl\drivers\peripheral\gpio/cy_gpio.h **** * Pin drive strength. Options are detailed in \ref group_gpio_driveStrength macros
1142:Generated_Source\PSoC6\pdl\drivers\peripheral\gpio/cy_gpio.h **** *
1143:Generated_Source\PSoC6\pdl\drivers\peripheral\gpio/cy_gpio.h **** * \note 
1144:Generated_Source\PSoC6\pdl\drivers\peripheral\gpio/cy_gpio.h **** * This function modifies a port register in a read-modify-write operation. It is
1145:Generated_Source\PSoC6\pdl\drivers\peripheral\gpio/cy_gpio.h **** * not thread safe as the resource is shared among multiple pins on a port.
1146:Generated_Source\PSoC6\pdl\drivers\peripheral\gpio/cy_gpio.h **** *
1147:Generated_Source\PSoC6\pdl\drivers\peripheral\gpio/cy_gpio.h **** * \funcusage
1148:Generated_Source\PSoC6\pdl\drivers\peripheral\gpio/cy_gpio.h **** * \snippet gpio/gpio_v1_10_sut_01.cydsn/main_cm4.c snippet_Cy_GPIO_SetDriveSel
1149:Generated_Source\PSoC6\pdl\drivers\peripheral\gpio/cy_gpio.h **** *
1150:Generated_Source\PSoC6\pdl\drivers\peripheral\gpio/cy_gpio.h **** *******************************************************************************/
1151:Generated_Source\PSoC6\pdl\drivers\peripheral\gpio/cy_gpio.h **** __STATIC_INLINE void Cy_GPIO_SetDriveSel(GPIO_PRT_Type* base, uint32_t pinNum, uint32_t value)
1152:Generated_Source\PSoC6\pdl\drivers\peripheral\gpio/cy_gpio.h **** {
1153:Generated_Source\PSoC6\pdl\drivers\peripheral\gpio/cy_gpio.h ****     uint32_t tempReg;
1154:Generated_Source\PSoC6\pdl\drivers\peripheral\gpio/cy_gpio.h ****     uint32_t pinLoc;
1155:Generated_Source\PSoC6\pdl\drivers\peripheral\gpio/cy_gpio.h **** 
1156:Generated_Source\PSoC6\pdl\drivers\peripheral\gpio/cy_gpio.h ****     CY_ASSERT_L2(CY_GPIO_IS_PIN_VALID(pinNum));
1157:Generated_Source\PSoC6\pdl\drivers\peripheral\gpio/cy_gpio.h ****     CY_ASSERT_L2(CY_GPIO_IS_DRIVE_SEL_VALID(value));
1158:Generated_Source\PSoC6\pdl\drivers\peripheral\gpio/cy_gpio.h ****     
1159:Generated_Source\PSoC6\pdl\drivers\peripheral\gpio/cy_gpio.h ****     pinLoc = (uint32_t)(pinNum << 1u) + CY_GPIO_CFG_OUT_DRIVE_OFFSET;
1160:Generated_Source\PSoC6\pdl\drivers\peripheral\gpio/cy_gpio.h ****     tempReg = GPIO_PRT_CFG_OUT(base) & ~(CY_GPIO_CFG_OUT_DRIVE_SEL_MASK << pinLoc);
1161:Generated_Source\PSoC6\pdl\drivers\peripheral\gpio/cy_gpio.h ****     GPIO_PRT_CFG_OUT(base) = tempReg | ((value & CY_GPIO_CFG_OUT_DRIVE_SEL_MASK) << pinLoc);
1162:Generated_Source\PSoC6\pdl\drivers\peripheral\gpio/cy_gpio.h **** }
1163:Generated_Source\PSoC6\pdl\drivers\peripheral\gpio/cy_gpio.h **** 
1164:Generated_Source\PSoC6\pdl\drivers\peripheral\gpio/cy_gpio.h **** 
1165:Generated_Source\PSoC6\pdl\drivers\peripheral\gpio/cy_gpio.h **** /*******************************************************************************
1166:Generated_Source\PSoC6\pdl\drivers\peripheral\gpio/cy_gpio.h **** * Function Name: Cy_GPIO_GetDriveSel
1167:Generated_Source\PSoC6\pdl\drivers\peripheral\gpio/cy_gpio.h **** ****************************************************************************//**
1168:Generated_Source\PSoC6\pdl\drivers\peripheral\gpio/cy_gpio.h **** *
1169:Generated_Source\PSoC6\pdl\drivers\peripheral\gpio/cy_gpio.h **** * Returns the pin output buffer drive strength.
1170:Generated_Source\PSoC6\pdl\drivers\peripheral\gpio/cy_gpio.h **** *
1171:Generated_Source\PSoC6\pdl\drivers\peripheral\gpio/cy_gpio.h **** * \param base
1172:Generated_Source\PSoC6\pdl\drivers\peripheral\gpio/cy_gpio.h **** * Pointer to the pin's port register base address
1173:Generated_Source\PSoC6\pdl\drivers\peripheral\gpio/cy_gpio.h **** *
1174:Generated_Source\PSoC6\pdl\drivers\peripheral\gpio/cy_gpio.h **** * \param pinNum
1175:Generated_Source\PSoC6\pdl\drivers\peripheral\gpio/cy_gpio.h **** * Position of the pin bit-field within the port register
1176:Generated_Source\PSoC6\pdl\drivers\peripheral\gpio/cy_gpio.h **** *
1177:Generated_Source\PSoC6\pdl\drivers\peripheral\gpio/cy_gpio.h **** * \return
ARM GAS  C:\Users\stijn\AppData\Local\Temp\ccD3lQ9e.s 			page 29


1178:Generated_Source\PSoC6\pdl\drivers\peripheral\gpio/cy_gpio.h **** * Pin drive strength. Options are detailed in \ref group_gpio_driveStrength macros
1179:Generated_Source\PSoC6\pdl\drivers\peripheral\gpio/cy_gpio.h **** *
1180:Generated_Source\PSoC6\pdl\drivers\peripheral\gpio/cy_gpio.h **** * \funcusage
1181:Generated_Source\PSoC6\pdl\drivers\peripheral\gpio/cy_gpio.h **** * \snippet gpio/gpio_v1_10_sut_01.cydsn/main_cm4.c snippet_Cy_GPIO_SetDriveSel
1182:Generated_Source\PSoC6\pdl\drivers\peripheral\gpio/cy_gpio.h **** *
1183:Generated_Source\PSoC6\pdl\drivers\peripheral\gpio/cy_gpio.h **** *******************************************************************************/
1184:Generated_Source\PSoC6\pdl\drivers\peripheral\gpio/cy_gpio.h **** __STATIC_INLINE uint32_t Cy_GPIO_GetDriveSel(GPIO_PRT_Type* base, uint32_t pinNum)
1185:Generated_Source\PSoC6\pdl\drivers\peripheral\gpio/cy_gpio.h **** {
1186:Generated_Source\PSoC6\pdl\drivers\peripheral\gpio/cy_gpio.h ****     CY_ASSERT_L2(CY_GPIO_IS_PIN_VALID(pinNum));
1187:Generated_Source\PSoC6\pdl\drivers\peripheral\gpio/cy_gpio.h **** 
1188:Generated_Source\PSoC6\pdl\drivers\peripheral\gpio/cy_gpio.h ****     return ((GPIO_PRT_CFG_OUT(base) >> ((uint32_t)(pinNum << 1u) + CY_GPIO_CFG_OUT_DRIVE_OFFSET)) 
1189:Generated_Source\PSoC6\pdl\drivers\peripheral\gpio/cy_gpio.h ****             & CY_GPIO_CFG_OUT_DRIVE_SEL_MASK);
1190:Generated_Source\PSoC6\pdl\drivers\peripheral\gpio/cy_gpio.h **** }
1191:Generated_Source\PSoC6\pdl\drivers\peripheral\gpio/cy_gpio.h **** 
1192:Generated_Source\PSoC6\pdl\drivers\peripheral\gpio/cy_gpio.h **** /** \} group_gpio_functions_gpio */
1193:Generated_Source\PSoC6\pdl\drivers\peripheral\gpio/cy_gpio.h **** 
1194:Generated_Source\PSoC6\pdl\drivers\peripheral\gpio/cy_gpio.h **** /**
1195:Generated_Source\PSoC6\pdl\drivers\peripheral\gpio/cy_gpio.h **** * \addtogroup group_gpio_functions_sio
1196:Generated_Source\PSoC6\pdl\drivers\peripheral\gpio/cy_gpio.h **** * \{
1197:Generated_Source\PSoC6\pdl\drivers\peripheral\gpio/cy_gpio.h **** */
1198:Generated_Source\PSoC6\pdl\drivers\peripheral\gpio/cy_gpio.h **** 
1199:Generated_Source\PSoC6\pdl\drivers\peripheral\gpio/cy_gpio.h **** /*******************************************************************************
1200:Generated_Source\PSoC6\pdl\drivers\peripheral\gpio/cy_gpio.h **** * Function Name: Cy_GPIO_SetVregEn
1201:Generated_Source\PSoC6\pdl\drivers\peripheral\gpio/cy_gpio.h **** ****************************************************************************//**
1202:Generated_Source\PSoC6\pdl\drivers\peripheral\gpio/cy_gpio.h **** *
1203:Generated_Source\PSoC6\pdl\drivers\peripheral\gpio/cy_gpio.h **** * Configures the SIO pin pair output buffer regulation mode.
1204:Generated_Source\PSoC6\pdl\drivers\peripheral\gpio/cy_gpio.h **** *
1205:Generated_Source\PSoC6\pdl\drivers\peripheral\gpio/cy_gpio.h **** * Note that this function has no effect on non-SIO pins.
1206:Generated_Source\PSoC6\pdl\drivers\peripheral\gpio/cy_gpio.h **** *
1207:Generated_Source\PSoC6\pdl\drivers\peripheral\gpio/cy_gpio.h **** * \param base
1208:Generated_Source\PSoC6\pdl\drivers\peripheral\gpio/cy_gpio.h **** * Pointer to the pin's port register base address
1209:Generated_Source\PSoC6\pdl\drivers\peripheral\gpio/cy_gpio.h **** *
1210:Generated_Source\PSoC6\pdl\drivers\peripheral\gpio/cy_gpio.h **** * \param pinNum
1211:Generated_Source\PSoC6\pdl\drivers\peripheral\gpio/cy_gpio.h **** * Position of the pin bit-field within the port register
1212:Generated_Source\PSoC6\pdl\drivers\peripheral\gpio/cy_gpio.h **** *
1213:Generated_Source\PSoC6\pdl\drivers\peripheral\gpio/cy_gpio.h **** * \param value
1214:Generated_Source\PSoC6\pdl\drivers\peripheral\gpio/cy_gpio.h **** * SIO pair output buffer regulator mode. Options are detailed in \ref group_gpio_sioVreg macros
1215:Generated_Source\PSoC6\pdl\drivers\peripheral\gpio/cy_gpio.h **** *
1216:Generated_Source\PSoC6\pdl\drivers\peripheral\gpio/cy_gpio.h **** * \note 
1217:Generated_Source\PSoC6\pdl\drivers\peripheral\gpio/cy_gpio.h **** * This function modifies a port register in a read-modify-write operation. It is
1218:Generated_Source\PSoC6\pdl\drivers\peripheral\gpio/cy_gpio.h **** * not thread safe as the resource is shared among multiple pins on a port.
1219:Generated_Source\PSoC6\pdl\drivers\peripheral\gpio/cy_gpio.h **** *
1220:Generated_Source\PSoC6\pdl\drivers\peripheral\gpio/cy_gpio.h **** * \funcusage
1221:Generated_Source\PSoC6\pdl\drivers\peripheral\gpio/cy_gpio.h **** * \snippet gpio/gpio_v1_10_sut_01.cydsn/main_cm4.c snippet_Cy_GPIO_SetVregEn
1222:Generated_Source\PSoC6\pdl\drivers\peripheral\gpio/cy_gpio.h **** *
1223:Generated_Source\PSoC6\pdl\drivers\peripheral\gpio/cy_gpio.h **** *******************************************************************************/
1224:Generated_Source\PSoC6\pdl\drivers\peripheral\gpio/cy_gpio.h **** __STATIC_INLINE void Cy_GPIO_SetVregEn(GPIO_PRT_Type* base, uint32_t pinNum, uint32_t value)
1225:Generated_Source\PSoC6\pdl\drivers\peripheral\gpio/cy_gpio.h **** {
1226:Generated_Source\PSoC6\pdl\drivers\peripheral\gpio/cy_gpio.h ****     uint32_t tempReg;
1227:Generated_Source\PSoC6\pdl\drivers\peripheral\gpio/cy_gpio.h ****     uint32_t pinLoc;
1228:Generated_Source\PSoC6\pdl\drivers\peripheral\gpio/cy_gpio.h **** 
1229:Generated_Source\PSoC6\pdl\drivers\peripheral\gpio/cy_gpio.h ****     CY_ASSERT_L2(CY_GPIO_IS_PIN_VALID(pinNum));
1230:Generated_Source\PSoC6\pdl\drivers\peripheral\gpio/cy_gpio.h ****     CY_ASSERT_L2(CY_GPIO_IS_VALUE_VALID(value));
1231:Generated_Source\PSoC6\pdl\drivers\peripheral\gpio/cy_gpio.h **** 
1232:Generated_Source\PSoC6\pdl\drivers\peripheral\gpio/cy_gpio.h ****     pinLoc = (pinNum & CY_GPIO_SIO_ODD_PIN_MASK) << CY_GPIO_CFG_SIO_OFFSET;
1233:Generated_Source\PSoC6\pdl\drivers\peripheral\gpio/cy_gpio.h ****     tempReg = GPIO_PRT_CFG_SIO(base) & ~(CY_GPIO_VREG_EN_MASK << pinLoc);
1234:Generated_Source\PSoC6\pdl\drivers\peripheral\gpio/cy_gpio.h ****     GPIO_PRT_CFG_SIO(base) = tempReg | ((value & CY_GPIO_VREG_EN_MASK) << pinLoc);
ARM GAS  C:\Users\stijn\AppData\Local\Temp\ccD3lQ9e.s 			page 30


1235:Generated_Source\PSoC6\pdl\drivers\peripheral\gpio/cy_gpio.h **** }
1236:Generated_Source\PSoC6\pdl\drivers\peripheral\gpio/cy_gpio.h **** 
1237:Generated_Source\PSoC6\pdl\drivers\peripheral\gpio/cy_gpio.h **** 
1238:Generated_Source\PSoC6\pdl\drivers\peripheral\gpio/cy_gpio.h **** /*******************************************************************************
1239:Generated_Source\PSoC6\pdl\drivers\peripheral\gpio/cy_gpio.h **** * Function Name: Cy_GPIO_GetVregEn
1240:Generated_Source\PSoC6\pdl\drivers\peripheral\gpio/cy_gpio.h **** ****************************************************************************//**
1241:Generated_Source\PSoC6\pdl\drivers\peripheral\gpio/cy_gpio.h **** *
1242:Generated_Source\PSoC6\pdl\drivers\peripheral\gpio/cy_gpio.h **** * Returns the SIO pin pair output buffer regulation mode.
1243:Generated_Source\PSoC6\pdl\drivers\peripheral\gpio/cy_gpio.h **** *
1244:Generated_Source\PSoC6\pdl\drivers\peripheral\gpio/cy_gpio.h **** * Note that this function has no effect on non-SIO pins.
1245:Generated_Source\PSoC6\pdl\drivers\peripheral\gpio/cy_gpio.h **** *
1246:Generated_Source\PSoC6\pdl\drivers\peripheral\gpio/cy_gpio.h **** * \param base
1247:Generated_Source\PSoC6\pdl\drivers\peripheral\gpio/cy_gpio.h **** * Pointer to the pin's port register base address
1248:Generated_Source\PSoC6\pdl\drivers\peripheral\gpio/cy_gpio.h **** *
1249:Generated_Source\PSoC6\pdl\drivers\peripheral\gpio/cy_gpio.h **** * \param pinNum
1250:Generated_Source\PSoC6\pdl\drivers\peripheral\gpio/cy_gpio.h **** * Position of the pin bit-field within the port register
1251:Generated_Source\PSoC6\pdl\drivers\peripheral\gpio/cy_gpio.h **** *
1252:Generated_Source\PSoC6\pdl\drivers\peripheral\gpio/cy_gpio.h **** * \return
1253:Generated_Source\PSoC6\pdl\drivers\peripheral\gpio/cy_gpio.h **** * SIO pair output buffer regulator mode. Options are detailed in \ref group_gpio_sioVreg macros
1254:Generated_Source\PSoC6\pdl\drivers\peripheral\gpio/cy_gpio.h **** *
1255:Generated_Source\PSoC6\pdl\drivers\peripheral\gpio/cy_gpio.h **** * \funcusage
1256:Generated_Source\PSoC6\pdl\drivers\peripheral\gpio/cy_gpio.h **** * \snippet gpio/gpio_v1_10_sut_01.cydsn/main_cm4.c snippet_Cy_GPIO_SetVregEn
1257:Generated_Source\PSoC6\pdl\drivers\peripheral\gpio/cy_gpio.h **** *
1258:Generated_Source\PSoC6\pdl\drivers\peripheral\gpio/cy_gpio.h **** *******************************************************************************/
1259:Generated_Source\PSoC6\pdl\drivers\peripheral\gpio/cy_gpio.h **** __STATIC_INLINE uint32_t Cy_GPIO_GetVregEn(GPIO_PRT_Type* base, uint32_t pinNum)
1260:Generated_Source\PSoC6\pdl\drivers\peripheral\gpio/cy_gpio.h **** {
1261:Generated_Source\PSoC6\pdl\drivers\peripheral\gpio/cy_gpio.h ****     CY_ASSERT_L2(CY_GPIO_IS_PIN_VALID(pinNum));
1262:Generated_Source\PSoC6\pdl\drivers\peripheral\gpio/cy_gpio.h ****     
1263:Generated_Source\PSoC6\pdl\drivers\peripheral\gpio/cy_gpio.h ****     return (GPIO_PRT_CFG_SIO(base) >> ((pinNum & CY_GPIO_SIO_ODD_PIN_MASK) << CY_GPIO_CFG_SIO_OFFSE
1264:Generated_Source\PSoC6\pdl\drivers\peripheral\gpio/cy_gpio.h **** }
1265:Generated_Source\PSoC6\pdl\drivers\peripheral\gpio/cy_gpio.h **** 
1266:Generated_Source\PSoC6\pdl\drivers\peripheral\gpio/cy_gpio.h **** 
1267:Generated_Source\PSoC6\pdl\drivers\peripheral\gpio/cy_gpio.h **** /*******************************************************************************
1268:Generated_Source\PSoC6\pdl\drivers\peripheral\gpio/cy_gpio.h **** * Function Name: Cy_GPIO_SetIbufMode
1269:Generated_Source\PSoC6\pdl\drivers\peripheral\gpio/cy_gpio.h **** ****************************************************************************//**
1270:Generated_Source\PSoC6\pdl\drivers\peripheral\gpio/cy_gpio.h **** *
1271:Generated_Source\PSoC6\pdl\drivers\peripheral\gpio/cy_gpio.h **** * Configures the SIO pin pair input buffer mode.
1272:Generated_Source\PSoC6\pdl\drivers\peripheral\gpio/cy_gpio.h **** *
1273:Generated_Source\PSoC6\pdl\drivers\peripheral\gpio/cy_gpio.h **** * Note that this function has no effect on non-SIO pins.
1274:Generated_Source\PSoC6\pdl\drivers\peripheral\gpio/cy_gpio.h **** *
1275:Generated_Source\PSoC6\pdl\drivers\peripheral\gpio/cy_gpio.h **** * \param base
1276:Generated_Source\PSoC6\pdl\drivers\peripheral\gpio/cy_gpio.h **** * Pointer to the pin's port register base address
1277:Generated_Source\PSoC6\pdl\drivers\peripheral\gpio/cy_gpio.h **** *
1278:Generated_Source\PSoC6\pdl\drivers\peripheral\gpio/cy_gpio.h **** * \param pinNum
1279:Generated_Source\PSoC6\pdl\drivers\peripheral\gpio/cy_gpio.h **** * Position of the pin bit-field within the port register
1280:Generated_Source\PSoC6\pdl\drivers\peripheral\gpio/cy_gpio.h **** *
1281:Generated_Source\PSoC6\pdl\drivers\peripheral\gpio/cy_gpio.h **** * \param value
1282:Generated_Source\PSoC6\pdl\drivers\peripheral\gpio/cy_gpio.h **** * SIO pair input buffer mode. Options are detailed in \ref group_gpio_sioIbuf macros
1283:Generated_Source\PSoC6\pdl\drivers\peripheral\gpio/cy_gpio.h **** *
1284:Generated_Source\PSoC6\pdl\drivers\peripheral\gpio/cy_gpio.h **** * \note 
1285:Generated_Source\PSoC6\pdl\drivers\peripheral\gpio/cy_gpio.h **** * This function modifies a port register in a read-modify-write operation. It is
1286:Generated_Source\PSoC6\pdl\drivers\peripheral\gpio/cy_gpio.h **** * not thread safe as the resource is shared among multiple pins on a port.
1287:Generated_Source\PSoC6\pdl\drivers\peripheral\gpio/cy_gpio.h **** *
1288:Generated_Source\PSoC6\pdl\drivers\peripheral\gpio/cy_gpio.h **** * \funcusage
1289:Generated_Source\PSoC6\pdl\drivers\peripheral\gpio/cy_gpio.h **** * \snippet gpio/gpio_v1_10_sut_01.cydsn/main_cm4.c snippet_Cy_GPIO_SetIbufMode
1290:Generated_Source\PSoC6\pdl\drivers\peripheral\gpio/cy_gpio.h **** *
1291:Generated_Source\PSoC6\pdl\drivers\peripheral\gpio/cy_gpio.h **** *******************************************************************************/
ARM GAS  C:\Users\stijn\AppData\Local\Temp\ccD3lQ9e.s 			page 31


1292:Generated_Source\PSoC6\pdl\drivers\peripheral\gpio/cy_gpio.h **** __STATIC_INLINE void Cy_GPIO_SetIbufMode(GPIO_PRT_Type* base, uint32_t pinNum, uint32_t value)
1293:Generated_Source\PSoC6\pdl\drivers\peripheral\gpio/cy_gpio.h **** {
1294:Generated_Source\PSoC6\pdl\drivers\peripheral\gpio/cy_gpio.h ****     uint32_t tempReg;
1295:Generated_Source\PSoC6\pdl\drivers\peripheral\gpio/cy_gpio.h ****     uint32_t pinLoc;
1296:Generated_Source\PSoC6\pdl\drivers\peripheral\gpio/cy_gpio.h **** 
1297:Generated_Source\PSoC6\pdl\drivers\peripheral\gpio/cy_gpio.h ****     CY_ASSERT_L2(CY_GPIO_IS_PIN_VALID(pinNum));
1298:Generated_Source\PSoC6\pdl\drivers\peripheral\gpio/cy_gpio.h ****     CY_ASSERT_L2(CY_GPIO_IS_VALUE_VALID(value));
1299:Generated_Source\PSoC6\pdl\drivers\peripheral\gpio/cy_gpio.h **** 
1300:Generated_Source\PSoC6\pdl\drivers\peripheral\gpio/cy_gpio.h ****     pinLoc = ((pinNum & CY_GPIO_SIO_ODD_PIN_MASK) << CY_GPIO_CFG_SIO_OFFSET) + CY_GPIO_IBUF_SHIFT;
1301:Generated_Source\PSoC6\pdl\drivers\peripheral\gpio/cy_gpio.h ****     tempReg = (GPIO_PRT_CFG_SIO(base) & ~(CY_GPIO_IBUF_MASK << pinLoc));
1302:Generated_Source\PSoC6\pdl\drivers\peripheral\gpio/cy_gpio.h ****     GPIO_PRT_CFG_SIO(base) = tempReg | ((value & CY_GPIO_IBUF_MASK) << pinLoc);
1303:Generated_Source\PSoC6\pdl\drivers\peripheral\gpio/cy_gpio.h **** }
1304:Generated_Source\PSoC6\pdl\drivers\peripheral\gpio/cy_gpio.h **** 
1305:Generated_Source\PSoC6\pdl\drivers\peripheral\gpio/cy_gpio.h **** 
1306:Generated_Source\PSoC6\pdl\drivers\peripheral\gpio/cy_gpio.h **** /*******************************************************************************
1307:Generated_Source\PSoC6\pdl\drivers\peripheral\gpio/cy_gpio.h **** * Function Name: Cy_GPIO_GetIbufMode
1308:Generated_Source\PSoC6\pdl\drivers\peripheral\gpio/cy_gpio.h **** ****************************************************************************//**
1309:Generated_Source\PSoC6\pdl\drivers\peripheral\gpio/cy_gpio.h **** *
1310:Generated_Source\PSoC6\pdl\drivers\peripheral\gpio/cy_gpio.h **** * Returns the SIO pin pair input buffer mode.
1311:Generated_Source\PSoC6\pdl\drivers\peripheral\gpio/cy_gpio.h **** *
1312:Generated_Source\PSoC6\pdl\drivers\peripheral\gpio/cy_gpio.h **** * Note that this function has no effect on non-SIO pins.
1313:Generated_Source\PSoC6\pdl\drivers\peripheral\gpio/cy_gpio.h **** *
1314:Generated_Source\PSoC6\pdl\drivers\peripheral\gpio/cy_gpio.h **** * \param base
1315:Generated_Source\PSoC6\pdl\drivers\peripheral\gpio/cy_gpio.h **** * Pointer to the pin's port register base address
1316:Generated_Source\PSoC6\pdl\drivers\peripheral\gpio/cy_gpio.h **** *
1317:Generated_Source\PSoC6\pdl\drivers\peripheral\gpio/cy_gpio.h **** * \param pinNum
1318:Generated_Source\PSoC6\pdl\drivers\peripheral\gpio/cy_gpio.h **** * Position of the pin bit-field within the port register
1319:Generated_Source\PSoC6\pdl\drivers\peripheral\gpio/cy_gpio.h **** *
1320:Generated_Source\PSoC6\pdl\drivers\peripheral\gpio/cy_gpio.h **** * \return
1321:Generated_Source\PSoC6\pdl\drivers\peripheral\gpio/cy_gpio.h **** * SIO pair input buffer mode. Options are detailed in \ref group_gpio_sioIbuf macros
1322:Generated_Source\PSoC6\pdl\drivers\peripheral\gpio/cy_gpio.h **** *
1323:Generated_Source\PSoC6\pdl\drivers\peripheral\gpio/cy_gpio.h **** * \funcusage
1324:Generated_Source\PSoC6\pdl\drivers\peripheral\gpio/cy_gpio.h **** * \snippet gpio/gpio_v1_10_sut_01.cydsn/main_cm4.c snippet_Cy_GPIO_SetIbufMode
1325:Generated_Source\PSoC6\pdl\drivers\peripheral\gpio/cy_gpio.h **** *
1326:Generated_Source\PSoC6\pdl\drivers\peripheral\gpio/cy_gpio.h **** *******************************************************************************/
1327:Generated_Source\PSoC6\pdl\drivers\peripheral\gpio/cy_gpio.h **** __STATIC_INLINE uint32_t Cy_GPIO_GetIbufMode(GPIO_PRT_Type* base, uint32_t pinNum)
1328:Generated_Source\PSoC6\pdl\drivers\peripheral\gpio/cy_gpio.h **** {
1329:Generated_Source\PSoC6\pdl\drivers\peripheral\gpio/cy_gpio.h ****     CY_ASSERT_L2(CY_GPIO_IS_PIN_VALID(pinNum));
1330:Generated_Source\PSoC6\pdl\drivers\peripheral\gpio/cy_gpio.h ****     
1331:Generated_Source\PSoC6\pdl\drivers\peripheral\gpio/cy_gpio.h ****     return (GPIO_PRT_CFG_SIO(base) >> (((pinNum & CY_GPIO_SIO_ODD_PIN_MASK) << CY_GPIO_CFG_SIO_OFFS
1332:Generated_Source\PSoC6\pdl\drivers\peripheral\gpio/cy_gpio.h **** }
1333:Generated_Source\PSoC6\pdl\drivers\peripheral\gpio/cy_gpio.h **** 
1334:Generated_Source\PSoC6\pdl\drivers\peripheral\gpio/cy_gpio.h **** 
1335:Generated_Source\PSoC6\pdl\drivers\peripheral\gpio/cy_gpio.h **** /*******************************************************************************
1336:Generated_Source\PSoC6\pdl\drivers\peripheral\gpio/cy_gpio.h **** * Function Name: Cy_GPIO_SetVtripSel
1337:Generated_Source\PSoC6\pdl\drivers\peripheral\gpio/cy_gpio.h **** ****************************************************************************//**
1338:Generated_Source\PSoC6\pdl\drivers\peripheral\gpio/cy_gpio.h **** *
1339:Generated_Source\PSoC6\pdl\drivers\peripheral\gpio/cy_gpio.h **** * Configures the SIO pin pair input buffer trip point.
1340:Generated_Source\PSoC6\pdl\drivers\peripheral\gpio/cy_gpio.h **** *
1341:Generated_Source\PSoC6\pdl\drivers\peripheral\gpio/cy_gpio.h **** * Note that this function has no effect on non-SIO pins.
1342:Generated_Source\PSoC6\pdl\drivers\peripheral\gpio/cy_gpio.h **** *
1343:Generated_Source\PSoC6\pdl\drivers\peripheral\gpio/cy_gpio.h **** * \param base
1344:Generated_Source\PSoC6\pdl\drivers\peripheral\gpio/cy_gpio.h **** * Pointer to the pin's port register base address
1345:Generated_Source\PSoC6\pdl\drivers\peripheral\gpio/cy_gpio.h **** *
1346:Generated_Source\PSoC6\pdl\drivers\peripheral\gpio/cy_gpio.h **** * \param pinNum
1347:Generated_Source\PSoC6\pdl\drivers\peripheral\gpio/cy_gpio.h **** * Position of the pin bit-field within the port register
1348:Generated_Source\PSoC6\pdl\drivers\peripheral\gpio/cy_gpio.h **** *
ARM GAS  C:\Users\stijn\AppData\Local\Temp\ccD3lQ9e.s 			page 32


1349:Generated_Source\PSoC6\pdl\drivers\peripheral\gpio/cy_gpio.h **** * \param value
1350:Generated_Source\PSoC6\pdl\drivers\peripheral\gpio/cy_gpio.h **** * SIO pair input buffer trip point. Options are detailed in \ref group_gpio_sioVtrip macros
1351:Generated_Source\PSoC6\pdl\drivers\peripheral\gpio/cy_gpio.h **** *
1352:Generated_Source\PSoC6\pdl\drivers\peripheral\gpio/cy_gpio.h **** * \note 
1353:Generated_Source\PSoC6\pdl\drivers\peripheral\gpio/cy_gpio.h **** * This function modifies a port register in a read-modify-write operation. It is
1354:Generated_Source\PSoC6\pdl\drivers\peripheral\gpio/cy_gpio.h **** * not thread safe as the resource is shared among multiple pins on a port.
1355:Generated_Source\PSoC6\pdl\drivers\peripheral\gpio/cy_gpio.h **** *
1356:Generated_Source\PSoC6\pdl\drivers\peripheral\gpio/cy_gpio.h **** * \funcusage
1357:Generated_Source\PSoC6\pdl\drivers\peripheral\gpio/cy_gpio.h **** * \snippet gpio/gpio_v1_10_sut_01.cydsn/main_cm4.c snippet_Cy_GPIO_SetVtripSel
1358:Generated_Source\PSoC6\pdl\drivers\peripheral\gpio/cy_gpio.h **** *
1359:Generated_Source\PSoC6\pdl\drivers\peripheral\gpio/cy_gpio.h **** *******************************************************************************/
1360:Generated_Source\PSoC6\pdl\drivers\peripheral\gpio/cy_gpio.h **** __STATIC_INLINE void Cy_GPIO_SetVtripSel(GPIO_PRT_Type* base, uint32_t pinNum, uint32_t value)
1361:Generated_Source\PSoC6\pdl\drivers\peripheral\gpio/cy_gpio.h **** {
1362:Generated_Source\PSoC6\pdl\drivers\peripheral\gpio/cy_gpio.h ****     uint32_t tempReg;
1363:Generated_Source\PSoC6\pdl\drivers\peripheral\gpio/cy_gpio.h ****     uint32_t pinLoc;
1364:Generated_Source\PSoC6\pdl\drivers\peripheral\gpio/cy_gpio.h **** 
1365:Generated_Source\PSoC6\pdl\drivers\peripheral\gpio/cy_gpio.h ****     CY_ASSERT_L2(CY_GPIO_IS_PIN_VALID(pinNum));
1366:Generated_Source\PSoC6\pdl\drivers\peripheral\gpio/cy_gpio.h ****     CY_ASSERT_L2(CY_GPIO_IS_VALUE_VALID(value));
1367:Generated_Source\PSoC6\pdl\drivers\peripheral\gpio/cy_gpio.h **** 
1368:Generated_Source\PSoC6\pdl\drivers\peripheral\gpio/cy_gpio.h ****     pinLoc = ((pinNum & CY_GPIO_SIO_ODD_PIN_MASK) << CY_GPIO_CFG_SIO_OFFSET) + CY_GPIO_VTRIP_SEL_SH
1369:Generated_Source\PSoC6\pdl\drivers\peripheral\gpio/cy_gpio.h ****     tempReg = (GPIO_PRT_CFG_SIO(base) & ~(CY_GPIO_VTRIP_SEL_MASK << pinLoc));
1370:Generated_Source\PSoC6\pdl\drivers\peripheral\gpio/cy_gpio.h ****     GPIO_PRT_CFG_SIO(base) = tempReg | ((value & CY_GPIO_VTRIP_SEL_MASK) << pinLoc);
1371:Generated_Source\PSoC6\pdl\drivers\peripheral\gpio/cy_gpio.h **** }
1372:Generated_Source\PSoC6\pdl\drivers\peripheral\gpio/cy_gpio.h **** 
1373:Generated_Source\PSoC6\pdl\drivers\peripheral\gpio/cy_gpio.h **** 
1374:Generated_Source\PSoC6\pdl\drivers\peripheral\gpio/cy_gpio.h **** /*******************************************************************************
1375:Generated_Source\PSoC6\pdl\drivers\peripheral\gpio/cy_gpio.h **** * Function Name: Cy_GPIO_GetVtripSel
1376:Generated_Source\PSoC6\pdl\drivers\peripheral\gpio/cy_gpio.h **** ****************************************************************************//**
1377:Generated_Source\PSoC6\pdl\drivers\peripheral\gpio/cy_gpio.h **** *
1378:Generated_Source\PSoC6\pdl\drivers\peripheral\gpio/cy_gpio.h **** * Returns the SIO pin pair input buffer trip point.
1379:Generated_Source\PSoC6\pdl\drivers\peripheral\gpio/cy_gpio.h **** *
1380:Generated_Source\PSoC6\pdl\drivers\peripheral\gpio/cy_gpio.h **** * Note that this function has no effect on non-SIO pins.
1381:Generated_Source\PSoC6\pdl\drivers\peripheral\gpio/cy_gpio.h **** *
1382:Generated_Source\PSoC6\pdl\drivers\peripheral\gpio/cy_gpio.h **** * \param base
1383:Generated_Source\PSoC6\pdl\drivers\peripheral\gpio/cy_gpio.h **** * Pointer to the pin's port register base address
1384:Generated_Source\PSoC6\pdl\drivers\peripheral\gpio/cy_gpio.h **** *
1385:Generated_Source\PSoC6\pdl\drivers\peripheral\gpio/cy_gpio.h **** * \param pinNum
1386:Generated_Source\PSoC6\pdl\drivers\peripheral\gpio/cy_gpio.h **** * Position of the pin bit-field within the port register
1387:Generated_Source\PSoC6\pdl\drivers\peripheral\gpio/cy_gpio.h **** *
1388:Generated_Source\PSoC6\pdl\drivers\peripheral\gpio/cy_gpio.h **** * \return
1389:Generated_Source\PSoC6\pdl\drivers\peripheral\gpio/cy_gpio.h **** * SIO pair input buffer trip point. Options are detailed in \ref group_gpio_sioVtrip macros
1390:Generated_Source\PSoC6\pdl\drivers\peripheral\gpio/cy_gpio.h **** *
1391:Generated_Source\PSoC6\pdl\drivers\peripheral\gpio/cy_gpio.h **** * \funcusage
1392:Generated_Source\PSoC6\pdl\drivers\peripheral\gpio/cy_gpio.h **** * \snippet gpio/gpio_v1_10_sut_01.cydsn/main_cm4.c snippet_Cy_GPIO_SetVtripSel
1393:Generated_Source\PSoC6\pdl\drivers\peripheral\gpio/cy_gpio.h **** *
1394:Generated_Source\PSoC6\pdl\drivers\peripheral\gpio/cy_gpio.h **** *******************************************************************************/
1395:Generated_Source\PSoC6\pdl\drivers\peripheral\gpio/cy_gpio.h **** __STATIC_INLINE uint32_t Cy_GPIO_GetVtripSel(GPIO_PRT_Type* base, uint32_t pinNum)
1396:Generated_Source\PSoC6\pdl\drivers\peripheral\gpio/cy_gpio.h **** {
1397:Generated_Source\PSoC6\pdl\drivers\peripheral\gpio/cy_gpio.h ****     CY_ASSERT_L2(CY_GPIO_IS_PIN_VALID(pinNum));
1398:Generated_Source\PSoC6\pdl\drivers\peripheral\gpio/cy_gpio.h **** 
1399:Generated_Source\PSoC6\pdl\drivers\peripheral\gpio/cy_gpio.h ****     return (GPIO_PRT_CFG_SIO(base) >> (((pinNum & CY_GPIO_SIO_ODD_PIN_MASK) << CY_GPIO_CFG_SIO_OFFS
1400:Generated_Source\PSoC6\pdl\drivers\peripheral\gpio/cy_gpio.h **** }
1401:Generated_Source\PSoC6\pdl\drivers\peripheral\gpio/cy_gpio.h **** 
1402:Generated_Source\PSoC6\pdl\drivers\peripheral\gpio/cy_gpio.h **** 
1403:Generated_Source\PSoC6\pdl\drivers\peripheral\gpio/cy_gpio.h **** /*******************************************************************************
1404:Generated_Source\PSoC6\pdl\drivers\peripheral\gpio/cy_gpio.h **** * Function Name: Cy_GPIO_SetVrefSel
1405:Generated_Source\PSoC6\pdl\drivers\peripheral\gpio/cy_gpio.h **** ****************************************************************************//**
ARM GAS  C:\Users\stijn\AppData\Local\Temp\ccD3lQ9e.s 			page 33


1406:Generated_Source\PSoC6\pdl\drivers\peripheral\gpio/cy_gpio.h **** *
1407:Generated_Source\PSoC6\pdl\drivers\peripheral\gpio/cy_gpio.h **** * Configures the SIO reference voltage for the input buffer trip point.
1408:Generated_Source\PSoC6\pdl\drivers\peripheral\gpio/cy_gpio.h **** *
1409:Generated_Source\PSoC6\pdl\drivers\peripheral\gpio/cy_gpio.h **** * Note that this function has no effect on non-SIO pins.
1410:Generated_Source\PSoC6\pdl\drivers\peripheral\gpio/cy_gpio.h **** *
1411:Generated_Source\PSoC6\pdl\drivers\peripheral\gpio/cy_gpio.h **** * \param base
1412:Generated_Source\PSoC6\pdl\drivers\peripheral\gpio/cy_gpio.h **** * Pointer to the pin's port register base address
1413:Generated_Source\PSoC6\pdl\drivers\peripheral\gpio/cy_gpio.h **** *
1414:Generated_Source\PSoC6\pdl\drivers\peripheral\gpio/cy_gpio.h **** * \param pinNum
1415:Generated_Source\PSoC6\pdl\drivers\peripheral\gpio/cy_gpio.h **** * Position of the pin bit-field within the port register
1416:Generated_Source\PSoC6\pdl\drivers\peripheral\gpio/cy_gpio.h **** *
1417:Generated_Source\PSoC6\pdl\drivers\peripheral\gpio/cy_gpio.h **** * \param value
1418:Generated_Source\PSoC6\pdl\drivers\peripheral\gpio/cy_gpio.h **** * SIO pair reference voltage. Options are detailed in \ref group_gpio_sioVref macros
1419:Generated_Source\PSoC6\pdl\drivers\peripheral\gpio/cy_gpio.h **** *
1420:Generated_Source\PSoC6\pdl\drivers\peripheral\gpio/cy_gpio.h **** * \note 
1421:Generated_Source\PSoC6\pdl\drivers\peripheral\gpio/cy_gpio.h **** * This function modifies a port register in a read-modify-write operation. It is
1422:Generated_Source\PSoC6\pdl\drivers\peripheral\gpio/cy_gpio.h **** * not thread safe as the resource is shared among multiple pins on a port.
1423:Generated_Source\PSoC6\pdl\drivers\peripheral\gpio/cy_gpio.h **** *
1424:Generated_Source\PSoC6\pdl\drivers\peripheral\gpio/cy_gpio.h **** * \funcusage
1425:Generated_Source\PSoC6\pdl\drivers\peripheral\gpio/cy_gpio.h **** * \snippet gpio/gpio_v1_10_sut_01.cydsn/main_cm4.c snippet_Cy_GPIO_SetVrefSel
1426:Generated_Source\PSoC6\pdl\drivers\peripheral\gpio/cy_gpio.h **** *
1427:Generated_Source\PSoC6\pdl\drivers\peripheral\gpio/cy_gpio.h **** *******************************************************************************/
1428:Generated_Source\PSoC6\pdl\drivers\peripheral\gpio/cy_gpio.h **** __STATIC_INLINE void Cy_GPIO_SetVrefSel(GPIO_PRT_Type* base, uint32_t pinNum, uint32_t value)
1429:Generated_Source\PSoC6\pdl\drivers\peripheral\gpio/cy_gpio.h **** {
1430:Generated_Source\PSoC6\pdl\drivers\peripheral\gpio/cy_gpio.h ****     uint32_t tempReg;
1431:Generated_Source\PSoC6\pdl\drivers\peripheral\gpio/cy_gpio.h ****     uint32_t pinLoc;
1432:Generated_Source\PSoC6\pdl\drivers\peripheral\gpio/cy_gpio.h **** 
1433:Generated_Source\PSoC6\pdl\drivers\peripheral\gpio/cy_gpio.h ****     CY_ASSERT_L2(CY_GPIO_IS_PIN_VALID(pinNum));
1434:Generated_Source\PSoC6\pdl\drivers\peripheral\gpio/cy_gpio.h ****     CY_ASSERT_L2(CY_GPIO_IS_VREF_SEL_VALID(value));
1435:Generated_Source\PSoC6\pdl\drivers\peripheral\gpio/cy_gpio.h ****     
1436:Generated_Source\PSoC6\pdl\drivers\peripheral\gpio/cy_gpio.h ****     pinLoc = ((pinNum & CY_GPIO_SIO_ODD_PIN_MASK) << CY_GPIO_CFG_SIO_OFFSET) + CY_GPIO_VREF_SEL_SHI
1437:Generated_Source\PSoC6\pdl\drivers\peripheral\gpio/cy_gpio.h ****     tempReg = (GPIO_PRT_CFG_SIO(base) & ~(CY_GPIO_VREF_SEL_MASK << pinLoc));
1438:Generated_Source\PSoC6\pdl\drivers\peripheral\gpio/cy_gpio.h ****     GPIO_PRT_CFG_SIO(base) = tempReg | ((value & CY_GPIO_VREF_SEL_MASK) << pinLoc);
1439:Generated_Source\PSoC6\pdl\drivers\peripheral\gpio/cy_gpio.h **** }
1440:Generated_Source\PSoC6\pdl\drivers\peripheral\gpio/cy_gpio.h **** 
1441:Generated_Source\PSoC6\pdl\drivers\peripheral\gpio/cy_gpio.h **** 
1442:Generated_Source\PSoC6\pdl\drivers\peripheral\gpio/cy_gpio.h **** /*******************************************************************************
1443:Generated_Source\PSoC6\pdl\drivers\peripheral\gpio/cy_gpio.h **** * Function Name: Cy_GPIO_GetVrefSel
1444:Generated_Source\PSoC6\pdl\drivers\peripheral\gpio/cy_gpio.h **** ****************************************************************************//**
1445:Generated_Source\PSoC6\pdl\drivers\peripheral\gpio/cy_gpio.h **** *
1446:Generated_Source\PSoC6\pdl\drivers\peripheral\gpio/cy_gpio.h **** * Returns the SIO reference voltage for the input buffer trip point.
1447:Generated_Source\PSoC6\pdl\drivers\peripheral\gpio/cy_gpio.h **** *
1448:Generated_Source\PSoC6\pdl\drivers\peripheral\gpio/cy_gpio.h **** * Note that this function has no effect on non-SIO pins.
1449:Generated_Source\PSoC6\pdl\drivers\peripheral\gpio/cy_gpio.h **** *
1450:Generated_Source\PSoC6\pdl\drivers\peripheral\gpio/cy_gpio.h **** * \param base
1451:Generated_Source\PSoC6\pdl\drivers\peripheral\gpio/cy_gpio.h **** * Pointer to the pin's port register base address
1452:Generated_Source\PSoC6\pdl\drivers\peripheral\gpio/cy_gpio.h **** *
1453:Generated_Source\PSoC6\pdl\drivers\peripheral\gpio/cy_gpio.h **** * \param pinNum
1454:Generated_Source\PSoC6\pdl\drivers\peripheral\gpio/cy_gpio.h **** * Position of the pin bit-field within the port register
1455:Generated_Source\PSoC6\pdl\drivers\peripheral\gpio/cy_gpio.h **** *
1456:Generated_Source\PSoC6\pdl\drivers\peripheral\gpio/cy_gpio.h **** * \return
1457:Generated_Source\PSoC6\pdl\drivers\peripheral\gpio/cy_gpio.h **** * SIO pair reference voltage. Options are detailed in \ref group_gpio_sioVref macros
1458:Generated_Source\PSoC6\pdl\drivers\peripheral\gpio/cy_gpio.h **** *
1459:Generated_Source\PSoC6\pdl\drivers\peripheral\gpio/cy_gpio.h **** * \funcusage
1460:Generated_Source\PSoC6\pdl\drivers\peripheral\gpio/cy_gpio.h **** * \snippet gpio/gpio_v1_10_sut_01.cydsn/main_cm4.c snippet_Cy_GPIO_SetVrefSel
1461:Generated_Source\PSoC6\pdl\drivers\peripheral\gpio/cy_gpio.h **** *
1462:Generated_Source\PSoC6\pdl\drivers\peripheral\gpio/cy_gpio.h **** *******************************************************************************/
ARM GAS  C:\Users\stijn\AppData\Local\Temp\ccD3lQ9e.s 			page 34


1463:Generated_Source\PSoC6\pdl\drivers\peripheral\gpio/cy_gpio.h **** __STATIC_INLINE uint32_t Cy_GPIO_GetVrefSel(GPIO_PRT_Type* base, uint32_t pinNum)
1464:Generated_Source\PSoC6\pdl\drivers\peripheral\gpio/cy_gpio.h **** {
1465:Generated_Source\PSoC6\pdl\drivers\peripheral\gpio/cy_gpio.h ****     CY_ASSERT_L2(CY_GPIO_IS_PIN_VALID(pinNum));
1466:Generated_Source\PSoC6\pdl\drivers\peripheral\gpio/cy_gpio.h ****     
1467:Generated_Source\PSoC6\pdl\drivers\peripheral\gpio/cy_gpio.h ****     return (GPIO_PRT_CFG_SIO(base) >> (((pinNum & CY_GPIO_SIO_ODD_PIN_MASK) << CY_GPIO_CFG_SIO_OFFS
1468:Generated_Source\PSoC6\pdl\drivers\peripheral\gpio/cy_gpio.h **** }
1469:Generated_Source\PSoC6\pdl\drivers\peripheral\gpio/cy_gpio.h **** 
1470:Generated_Source\PSoC6\pdl\drivers\peripheral\gpio/cy_gpio.h **** 
1471:Generated_Source\PSoC6\pdl\drivers\peripheral\gpio/cy_gpio.h **** /*******************************************************************************
1472:Generated_Source\PSoC6\pdl\drivers\peripheral\gpio/cy_gpio.h **** * Function Name: Cy_GPIO_SetVohSel
1473:Generated_Source\PSoC6\pdl\drivers\peripheral\gpio/cy_gpio.h **** ****************************************************************************//**
1474:Generated_Source\PSoC6\pdl\drivers\peripheral\gpio/cy_gpio.h **** *
1475:Generated_Source\PSoC6\pdl\drivers\peripheral\gpio/cy_gpio.h **** * Configures the regulated output reference multiplier for the SIO pin pair.
1476:Generated_Source\PSoC6\pdl\drivers\peripheral\gpio/cy_gpio.h **** *
1477:Generated_Source\PSoC6\pdl\drivers\peripheral\gpio/cy_gpio.h **** * The regulated output reference controls both the output level of digital output
1478:Generated_Source\PSoC6\pdl\drivers\peripheral\gpio/cy_gpio.h **** * pin and the input trip point of digital input pin in the SIO pair.
1479:Generated_Source\PSoC6\pdl\drivers\peripheral\gpio/cy_gpio.h **** *
1480:Generated_Source\PSoC6\pdl\drivers\peripheral\gpio/cy_gpio.h **** * Note that this function has no effect on non-SIO pins.
1481:Generated_Source\PSoC6\pdl\drivers\peripheral\gpio/cy_gpio.h **** *
1482:Generated_Source\PSoC6\pdl\drivers\peripheral\gpio/cy_gpio.h **** * \param base
1483:Generated_Source\PSoC6\pdl\drivers\peripheral\gpio/cy_gpio.h **** * Pointer to the pin's port register base address
1484:Generated_Source\PSoC6\pdl\drivers\peripheral\gpio/cy_gpio.h **** *
1485:Generated_Source\PSoC6\pdl\drivers\peripheral\gpio/cy_gpio.h **** * \param pinNum
1486:Generated_Source\PSoC6\pdl\drivers\peripheral\gpio/cy_gpio.h **** * Position of the pin bit-field within the port register
1487:Generated_Source\PSoC6\pdl\drivers\peripheral\gpio/cy_gpio.h **** *
1488:Generated_Source\PSoC6\pdl\drivers\peripheral\gpio/cy_gpio.h **** * \param value
1489:Generated_Source\PSoC6\pdl\drivers\peripheral\gpio/cy_gpio.h **** * SIO pair reference voltage. Options are detailed in \ref group_gpio_sioVoh macros
1490:Generated_Source\PSoC6\pdl\drivers\peripheral\gpio/cy_gpio.h **** *
1491:Generated_Source\PSoC6\pdl\drivers\peripheral\gpio/cy_gpio.h **** * \note 
1492:Generated_Source\PSoC6\pdl\drivers\peripheral\gpio/cy_gpio.h **** * This function modifies a port register in a read-modify-write operation. It is
1493:Generated_Source\PSoC6\pdl\drivers\peripheral\gpio/cy_gpio.h **** * not thread safe as the resource is shared among multiple pins on a port.
1494:Generated_Source\PSoC6\pdl\drivers\peripheral\gpio/cy_gpio.h **** *
1495:Generated_Source\PSoC6\pdl\drivers\peripheral\gpio/cy_gpio.h **** * \funcusage
1496:Generated_Source\PSoC6\pdl\drivers\peripheral\gpio/cy_gpio.h **** * \snippet gpio/gpio_v1_10_sut_01.cydsn/main_cm4.c snippet_Cy_GPIO_SetVohSel
1497:Generated_Source\PSoC6\pdl\drivers\peripheral\gpio/cy_gpio.h **** *
1498:Generated_Source\PSoC6\pdl\drivers\peripheral\gpio/cy_gpio.h **** *******************************************************************************/
1499:Generated_Source\PSoC6\pdl\drivers\peripheral\gpio/cy_gpio.h **** __STATIC_INLINE void Cy_GPIO_SetVohSel(GPIO_PRT_Type* base, uint32_t pinNum, uint32_t value)
1500:Generated_Source\PSoC6\pdl\drivers\peripheral\gpio/cy_gpio.h **** {
1501:Generated_Source\PSoC6\pdl\drivers\peripheral\gpio/cy_gpio.h ****     uint32_t tempReg;
1502:Generated_Source\PSoC6\pdl\drivers\peripheral\gpio/cy_gpio.h ****     uint32_t pinLoc;
1503:Generated_Source\PSoC6\pdl\drivers\peripheral\gpio/cy_gpio.h **** 
1504:Generated_Source\PSoC6\pdl\drivers\peripheral\gpio/cy_gpio.h ****     CY_ASSERT_L2(CY_GPIO_IS_PIN_VALID(pinNum));
1505:Generated_Source\PSoC6\pdl\drivers\peripheral\gpio/cy_gpio.h ****     CY_ASSERT_L2(CY_GPIO_IS_VOH_SEL_VALID(value));
1506:Generated_Source\PSoC6\pdl\drivers\peripheral\gpio/cy_gpio.h **** 
1507:Generated_Source\PSoC6\pdl\drivers\peripheral\gpio/cy_gpio.h ****     pinLoc = ((pinNum & CY_GPIO_SIO_ODD_PIN_MASK) << CY_GPIO_CFG_SIO_OFFSET) + CY_GPIO_VOH_SEL_SHIF
1508:Generated_Source\PSoC6\pdl\drivers\peripheral\gpio/cy_gpio.h ****     tempReg = (GPIO_PRT_CFG_SIO(base) & ~(CY_GPIO_VOH_SEL_MASK << pinLoc));
1509:Generated_Source\PSoC6\pdl\drivers\peripheral\gpio/cy_gpio.h ****     GPIO_PRT_CFG_SIO(base) = tempReg | ((value & CY_GPIO_VOH_SEL_MASK) << pinLoc);
1510:Generated_Source\PSoC6\pdl\drivers\peripheral\gpio/cy_gpio.h **** }
1511:Generated_Source\PSoC6\pdl\drivers\peripheral\gpio/cy_gpio.h **** 
1512:Generated_Source\PSoC6\pdl\drivers\peripheral\gpio/cy_gpio.h **** 
1513:Generated_Source\PSoC6\pdl\drivers\peripheral\gpio/cy_gpio.h **** /*******************************************************************************
1514:Generated_Source\PSoC6\pdl\drivers\peripheral\gpio/cy_gpio.h **** * Function Name: Cy_GPIO_GetVohSel
1515:Generated_Source\PSoC6\pdl\drivers\peripheral\gpio/cy_gpio.h **** ****************************************************************************//**
1516:Generated_Source\PSoC6\pdl\drivers\peripheral\gpio/cy_gpio.h **** *
1517:Generated_Source\PSoC6\pdl\drivers\peripheral\gpio/cy_gpio.h **** * Returns the regulated output reference multiplier for the SIO pin pair.
1518:Generated_Source\PSoC6\pdl\drivers\peripheral\gpio/cy_gpio.h **** *
1519:Generated_Source\PSoC6\pdl\drivers\peripheral\gpio/cy_gpio.h **** * Note that this function has no effect on non-SIO pins.
ARM GAS  C:\Users\stijn\AppData\Local\Temp\ccD3lQ9e.s 			page 35


1520:Generated_Source\PSoC6\pdl\drivers\peripheral\gpio/cy_gpio.h **** *
1521:Generated_Source\PSoC6\pdl\drivers\peripheral\gpio/cy_gpio.h **** * \param base
1522:Generated_Source\PSoC6\pdl\drivers\peripheral\gpio/cy_gpio.h **** * Pointer to the pin's port register base address
1523:Generated_Source\PSoC6\pdl\drivers\peripheral\gpio/cy_gpio.h **** *
1524:Generated_Source\PSoC6\pdl\drivers\peripheral\gpio/cy_gpio.h **** * \param pinNum
1525:Generated_Source\PSoC6\pdl\drivers\peripheral\gpio/cy_gpio.h **** * Position of the pin bit-field within the port register
1526:Generated_Source\PSoC6\pdl\drivers\peripheral\gpio/cy_gpio.h **** *
1527:Generated_Source\PSoC6\pdl\drivers\peripheral\gpio/cy_gpio.h **** * \return
1528:Generated_Source\PSoC6\pdl\drivers\peripheral\gpio/cy_gpio.h **** * SIO pair reference voltage. Options are detailed in \ref group_gpio_sioVoh macros
1529:Generated_Source\PSoC6\pdl\drivers\peripheral\gpio/cy_gpio.h **** *
1530:Generated_Source\PSoC6\pdl\drivers\peripheral\gpio/cy_gpio.h **** * \funcusage
1531:Generated_Source\PSoC6\pdl\drivers\peripheral\gpio/cy_gpio.h **** * \snippet gpio/gpio_v1_10_sut_01.cydsn/main_cm4.c snippet_Cy_GPIO_SetVohSel
1532:Generated_Source\PSoC6\pdl\drivers\peripheral\gpio/cy_gpio.h **** *
1533:Generated_Source\PSoC6\pdl\drivers\peripheral\gpio/cy_gpio.h **** *******************************************************************************/
1534:Generated_Source\PSoC6\pdl\drivers\peripheral\gpio/cy_gpio.h **** __STATIC_INLINE uint32_t Cy_GPIO_GetVohSel(GPIO_PRT_Type* base, uint32_t pinNum)
1535:Generated_Source\PSoC6\pdl\drivers\peripheral\gpio/cy_gpio.h **** {
1536:Generated_Source\PSoC6\pdl\drivers\peripheral\gpio/cy_gpio.h ****     CY_ASSERT_L2(CY_GPIO_IS_PIN_VALID(pinNum));
1537:Generated_Source\PSoC6\pdl\drivers\peripheral\gpio/cy_gpio.h ****     
1538:Generated_Source\PSoC6\pdl\drivers\peripheral\gpio/cy_gpio.h ****     return (GPIO_PRT_CFG_SIO(base) >> (((pinNum & CY_GPIO_SIO_ODD_PIN_MASK) << CY_GPIO_CFG_SIO_OFFS
1539:Generated_Source\PSoC6\pdl\drivers\peripheral\gpio/cy_gpio.h **** }
1540:Generated_Source\PSoC6\pdl\drivers\peripheral\gpio/cy_gpio.h **** 
1541:Generated_Source\PSoC6\pdl\drivers\peripheral\gpio/cy_gpio.h **** /** \} group_gpio_functions_sio */
1542:Generated_Source\PSoC6\pdl\drivers\peripheral\gpio/cy_gpio.h **** 
1543:Generated_Source\PSoC6\pdl\drivers\peripheral\gpio/cy_gpio.h **** /**
1544:Generated_Source\PSoC6\pdl\drivers\peripheral\gpio/cy_gpio.h **** * \addtogroup group_gpio_functions_interrupt
1545:Generated_Source\PSoC6\pdl\drivers\peripheral\gpio/cy_gpio.h **** * \{
1546:Generated_Source\PSoC6\pdl\drivers\peripheral\gpio/cy_gpio.h **** */
1547:Generated_Source\PSoC6\pdl\drivers\peripheral\gpio/cy_gpio.h **** 
1548:Generated_Source\PSoC6\pdl\drivers\peripheral\gpio/cy_gpio.h **** /*******************************************************************************
1549:Generated_Source\PSoC6\pdl\drivers\peripheral\gpio/cy_gpio.h **** * Function Name: Cy_GPIO_GetInterruptStatus
1550:Generated_Source\PSoC6\pdl\drivers\peripheral\gpio/cy_gpio.h **** ****************************************************************************//**
1551:Generated_Source\PSoC6\pdl\drivers\peripheral\gpio/cy_gpio.h **** *
1552:Generated_Source\PSoC6\pdl\drivers\peripheral\gpio/cy_gpio.h **** * Returns the current unmasked interrupt state of the pin.
1553:Generated_Source\PSoC6\pdl\drivers\peripheral\gpio/cy_gpio.h **** *
1554:Generated_Source\PSoC6\pdl\drivers\peripheral\gpio/cy_gpio.h **** * The core processor's NVIC is triggered by the masked interrupt bits. This 
1555:Generated_Source\PSoC6\pdl\drivers\peripheral\gpio/cy_gpio.h **** * function allows reading the unmasked interrupt state. Whether the bit
1556:Generated_Source\PSoC6\pdl\drivers\peripheral\gpio/cy_gpio.h **** * positions actually trigger the interrupt are defined by the interrupt mask bits.
1557:Generated_Source\PSoC6\pdl\drivers\peripheral\gpio/cy_gpio.h **** *
1558:Generated_Source\PSoC6\pdl\drivers\peripheral\gpio/cy_gpio.h **** * \param base
1559:Generated_Source\PSoC6\pdl\drivers\peripheral\gpio/cy_gpio.h **** * Pointer to the pin's port register base address
1560:Generated_Source\PSoC6\pdl\drivers\peripheral\gpio/cy_gpio.h **** *
1561:Generated_Source\PSoC6\pdl\drivers\peripheral\gpio/cy_gpio.h **** * \param pinNum
1562:Generated_Source\PSoC6\pdl\drivers\peripheral\gpio/cy_gpio.h **** * Position of the pin bit-field within the port register
1563:Generated_Source\PSoC6\pdl\drivers\peripheral\gpio/cy_gpio.h **** * Bit position 8 is the routed pin through the port glitch filter.
1564:Generated_Source\PSoC6\pdl\drivers\peripheral\gpio/cy_gpio.h **** *
1565:Generated_Source\PSoC6\pdl\drivers\peripheral\gpio/cy_gpio.h **** * \return
1566:Generated_Source\PSoC6\pdl\drivers\peripheral\gpio/cy_gpio.h **** * 0 = Pin interrupt condition not detected
1567:Generated_Source\PSoC6\pdl\drivers\peripheral\gpio/cy_gpio.h **** * 1 = Pin interrupt condition detected
1568:Generated_Source\PSoC6\pdl\drivers\peripheral\gpio/cy_gpio.h **** *
1569:Generated_Source\PSoC6\pdl\drivers\peripheral\gpio/cy_gpio.h **** * \funcusage
1570:Generated_Source\PSoC6\pdl\drivers\peripheral\gpio/cy_gpio.h **** * \snippet gpio/gpio_v1_10_sut_01.cydsn/main_cm4.c snippet_Cy_GPIO_GetInterruptStatus
1571:Generated_Source\PSoC6\pdl\drivers\peripheral\gpio/cy_gpio.h **** *
1572:Generated_Source\PSoC6\pdl\drivers\peripheral\gpio/cy_gpio.h **** *******************************************************************************/
1573:Generated_Source\PSoC6\pdl\drivers\peripheral\gpio/cy_gpio.h **** __STATIC_INLINE uint32_t Cy_GPIO_GetInterruptStatus(GPIO_PRT_Type* base, uint32_t pinNum)
1574:Generated_Source\PSoC6\pdl\drivers\peripheral\gpio/cy_gpio.h **** {
1575:Generated_Source\PSoC6\pdl\drivers\peripheral\gpio/cy_gpio.h ****     CY_ASSERT_L2(CY_GPIO_IS_FILTER_PIN_VALID(pinNum));
1576:Generated_Source\PSoC6\pdl\drivers\peripheral\gpio/cy_gpio.h ****     
ARM GAS  C:\Users\stijn\AppData\Local\Temp\ccD3lQ9e.s 			page 36


1577:Generated_Source\PSoC6\pdl\drivers\peripheral\gpio/cy_gpio.h ****     return (GPIO_PRT_INTR(base) >> pinNum) & CY_GPIO_INTR_STATUS_MASK;
1578:Generated_Source\PSoC6\pdl\drivers\peripheral\gpio/cy_gpio.h **** }
1579:Generated_Source\PSoC6\pdl\drivers\peripheral\gpio/cy_gpio.h **** 
1580:Generated_Source\PSoC6\pdl\drivers\peripheral\gpio/cy_gpio.h **** 
1581:Generated_Source\PSoC6\pdl\drivers\peripheral\gpio/cy_gpio.h **** /*******************************************************************************
1582:Generated_Source\PSoC6\pdl\drivers\peripheral\gpio/cy_gpio.h **** * Function Name: Cy_GPIO_ClearInterrupt
1583:Generated_Source\PSoC6\pdl\drivers\peripheral\gpio/cy_gpio.h **** ****************************************************************************//**
1584:Generated_Source\PSoC6\pdl\drivers\peripheral\gpio/cy_gpio.h **** *
1585:Generated_Source\PSoC6\pdl\drivers\peripheral\gpio/cy_gpio.h **** * Clears the triggered pin interrupt.
1586:Generated_Source\PSoC6\pdl\drivers\peripheral\gpio/cy_gpio.h **** *
1587:Generated_Source\PSoC6\pdl\drivers\peripheral\gpio/cy_gpio.h **** * \param base
1588:Generated_Source\PSoC6\pdl\drivers\peripheral\gpio/cy_gpio.h **** * Pointer to the pin's port register base address
1589:Generated_Source\PSoC6\pdl\drivers\peripheral\gpio/cy_gpio.h **** *
1590:Generated_Source\PSoC6\pdl\drivers\peripheral\gpio/cy_gpio.h **** * \param pinNum
1591:Generated_Source\PSoC6\pdl\drivers\peripheral\gpio/cy_gpio.h **** * Position of the pin bit-field within the port register
1592:Generated_Source\PSoC6\pdl\drivers\peripheral\gpio/cy_gpio.h **** * Bit position 8 is the routed pin through the port glitch filter.
1593:Generated_Source\PSoC6\pdl\drivers\peripheral\gpio/cy_gpio.h **** *
1594:Generated_Source\PSoC6\pdl\drivers\peripheral\gpio/cy_gpio.h **** * \funcusage
1595:Generated_Source\PSoC6\pdl\drivers\peripheral\gpio/cy_gpio.h **** * \snippet gpio/gpio_v1_10_sut_01.cydsn/main_cm4.c snippet_Cy_GPIO_ClearInterrupt
1596:Generated_Source\PSoC6\pdl\drivers\peripheral\gpio/cy_gpio.h **** *
1597:Generated_Source\PSoC6\pdl\drivers\peripheral\gpio/cy_gpio.h **** *******************************************************************************/
1598:Generated_Source\PSoC6\pdl\drivers\peripheral\gpio/cy_gpio.h **** __STATIC_INLINE void Cy_GPIO_ClearInterrupt(GPIO_PRT_Type* base, uint32_t pinNum)
1599:Generated_Source\PSoC6\pdl\drivers\peripheral\gpio/cy_gpio.h **** {
1600:Generated_Source\PSoC6\pdl\drivers\peripheral\gpio/cy_gpio.h ****     CY_ASSERT_L2(CY_GPIO_IS_FILTER_PIN_VALID(pinNum));
1601:Generated_Source\PSoC6\pdl\drivers\peripheral\gpio/cy_gpio.h ****     
1602:Generated_Source\PSoC6\pdl\drivers\peripheral\gpio/cy_gpio.h ****     /* Any INTR MMIO registers AHB clearing must be preceded with an AHB read access */
1603:Generated_Source\PSoC6\pdl\drivers\peripheral\gpio/cy_gpio.h ****     (void)GPIO_PRT_INTR(base);
1604:Generated_Source\PSoC6\pdl\drivers\peripheral\gpio/cy_gpio.h **** 
1605:Generated_Source\PSoC6\pdl\drivers\peripheral\gpio/cy_gpio.h ****     GPIO_PRT_INTR(base) = CY_GPIO_INTR_STATUS_MASK << pinNum;
1606:Generated_Source\PSoC6\pdl\drivers\peripheral\gpio/cy_gpio.h **** 
1607:Generated_Source\PSoC6\pdl\drivers\peripheral\gpio/cy_gpio.h ****     /* This read ensures that the initial write has been flushed out to the hardware */
1608:Generated_Source\PSoC6\pdl\drivers\peripheral\gpio/cy_gpio.h ****     (void)GPIO_PRT_INTR(base);
1609:Generated_Source\PSoC6\pdl\drivers\peripheral\gpio/cy_gpio.h **** }
1610:Generated_Source\PSoC6\pdl\drivers\peripheral\gpio/cy_gpio.h **** 
1611:Generated_Source\PSoC6\pdl\drivers\peripheral\gpio/cy_gpio.h **** 
1612:Generated_Source\PSoC6\pdl\drivers\peripheral\gpio/cy_gpio.h **** /*******************************************************************************
1613:Generated_Source\PSoC6\pdl\drivers\peripheral\gpio/cy_gpio.h **** * Function Name: Cy_GPIO_SetInterruptMask
1614:Generated_Source\PSoC6\pdl\drivers\peripheral\gpio/cy_gpio.h **** ****************************************************************************//**
1615:Generated_Source\PSoC6\pdl\drivers\peripheral\gpio/cy_gpio.h **** *
1616:Generated_Source\PSoC6\pdl\drivers\peripheral\gpio/cy_gpio.h **** * Configures the pin interrupt to be forwarded to the CPU NVIC.
1617:Generated_Source\PSoC6\pdl\drivers\peripheral\gpio/cy_gpio.h **** *
1618:Generated_Source\PSoC6\pdl\drivers\peripheral\gpio/cy_gpio.h **** * \param base
1619:Generated_Source\PSoC6\pdl\drivers\peripheral\gpio/cy_gpio.h **** * Pointer to the pin's port register base address
1620:Generated_Source\PSoC6\pdl\drivers\peripheral\gpio/cy_gpio.h **** *
1621:Generated_Source\PSoC6\pdl\drivers\peripheral\gpio/cy_gpio.h **** * \param pinNum
1622:Generated_Source\PSoC6\pdl\drivers\peripheral\gpio/cy_gpio.h **** * Position of the pin bit-field within the port register.
1623:Generated_Source\PSoC6\pdl\drivers\peripheral\gpio/cy_gpio.h **** * Bit position 8 is the routed pin through the port glitch filter.
1624:Generated_Source\PSoC6\pdl\drivers\peripheral\gpio/cy_gpio.h **** *
1625:Generated_Source\PSoC6\pdl\drivers\peripheral\gpio/cy_gpio.h **** * \param value
1626:Generated_Source\PSoC6\pdl\drivers\peripheral\gpio/cy_gpio.h **** * 0 = Pin interrupt not forwarded to CPU interrupt controller
1627:Generated_Source\PSoC6\pdl\drivers\peripheral\gpio/cy_gpio.h **** * 1 = Pin interrupt masked and forwarded to CPU interrupt controller
1628:Generated_Source\PSoC6\pdl\drivers\peripheral\gpio/cy_gpio.h **** *
1629:Generated_Source\PSoC6\pdl\drivers\peripheral\gpio/cy_gpio.h **** * \note 
1630:Generated_Source\PSoC6\pdl\drivers\peripheral\gpio/cy_gpio.h **** * This function modifies a port register in a read-modify-write operation. It is
1631:Generated_Source\PSoC6\pdl\drivers\peripheral\gpio/cy_gpio.h **** * not thread safe as the resource is shared among multiple pins on a port.
1632:Generated_Source\PSoC6\pdl\drivers\peripheral\gpio/cy_gpio.h **** *
1633:Generated_Source\PSoC6\pdl\drivers\peripheral\gpio/cy_gpio.h **** * \funcusage
ARM GAS  C:\Users\stijn\AppData\Local\Temp\ccD3lQ9e.s 			page 37


1634:Generated_Source\PSoC6\pdl\drivers\peripheral\gpio/cy_gpio.h **** * \snippet gpio/gpio_v1_10_sut_01.cydsn/main_cm4.c snippet_Cy_GPIO_SetInterruptMask
1635:Generated_Source\PSoC6\pdl\drivers\peripheral\gpio/cy_gpio.h **** *
1636:Generated_Source\PSoC6\pdl\drivers\peripheral\gpio/cy_gpio.h **** *******************************************************************************/
1637:Generated_Source\PSoC6\pdl\drivers\peripheral\gpio/cy_gpio.h **** __STATIC_INLINE void Cy_GPIO_SetInterruptMask(GPIO_PRT_Type* base, uint32_t pinNum, uint32_t value)
1638:Generated_Source\PSoC6\pdl\drivers\peripheral\gpio/cy_gpio.h **** {
 409              		.loc 1 1638 0
 410              		.cfi_startproc
 411              		@ args = 0, pretend = 0, frame = 24
 412              		@ frame_needed = 1, uses_anonymous_args = 0
 413 0000 80B5     		push	{r7, lr}
 414              		.cfi_def_cfa_offset 8
 415              		.cfi_offset 7, -8
 416              		.cfi_offset 14, -4
 417 0002 86B0     		sub	sp, sp, #24
 418              		.cfi_def_cfa_offset 32
 419 0004 00AF     		add	r7, sp, #0
 420              		.cfi_def_cfa_register 7
 421 0006 F860     		str	r0, [r7, #12]
 422 0008 B960     		str	r1, [r7, #8]
 423 000a 7A60     		str	r2, [r7, #4]
1639:Generated_Source\PSoC6\pdl\drivers\peripheral\gpio/cy_gpio.h ****     uint32_t tempReg;
1640:Generated_Source\PSoC6\pdl\drivers\peripheral\gpio/cy_gpio.h **** 
1641:Generated_Source\PSoC6\pdl\drivers\peripheral\gpio/cy_gpio.h ****     CY_ASSERT_L2(CY_GPIO_IS_FILTER_PIN_VALID(pinNum));
 424              		.loc 1 1641 0
 425 000c BB68     		ldr	r3, [r7, #8]
 426 000e 082B     		cmp	r3, #8
 427 0010 04D9     		bls	.L28
 428              		.loc 1 1641 0 is_stmt 0 discriminator 1
 429 0012 40F26961 		movw	r1, #1641
 430 0016 1048     		ldr	r0, .L30
 431 0018 FFF7FEFF 		bl	Cy_SysLib_AssertFailed
 432              	.L28:
1642:Generated_Source\PSoC6\pdl\drivers\peripheral\gpio/cy_gpio.h ****     CY_ASSERT_L2(CY_GPIO_IS_VALUE_VALID(value));
 433              		.loc 1 1642 0 is_stmt 1
 434 001c 7B68     		ldr	r3, [r7, #4]
 435 001e 012B     		cmp	r3, #1
 436 0020 04D9     		bls	.L29
 437              		.loc 1 1642 0 is_stmt 0 discriminator 1
 438 0022 40F26A61 		movw	r1, #1642
 439 0026 0C48     		ldr	r0, .L30
 440 0028 FFF7FEFF 		bl	Cy_SysLib_AssertFailed
 441              	.L29:
1643:Generated_Source\PSoC6\pdl\drivers\peripheral\gpio/cy_gpio.h **** 
1644:Generated_Source\PSoC6\pdl\drivers\peripheral\gpio/cy_gpio.h ****     tempReg= GPIO_PRT_INTR_MASK(base) & ~(CY_GPIO_INTR_EN_MASK << pinNum);
 442              		.loc 1 1644 0 is_stmt 1
 443 002c FB68     		ldr	r3, [r7, #12]
 444 002e 9A69     		ldr	r2, [r3, #24]
 445 0030 0121     		movs	r1, #1
 446 0032 BB68     		ldr	r3, [r7, #8]
 447 0034 01FA03F3 		lsl	r3, r1, r3
 448 0038 DB43     		mvns	r3, r3
 449 003a 1340     		ands	r3, r3, r2
 450 003c 7B61     		str	r3, [r7, #20]
1645:Generated_Source\PSoC6\pdl\drivers\peripheral\gpio/cy_gpio.h ****     GPIO_PRT_INTR_MASK(base) = tempReg | ((value & CY_GPIO_INTR_EN_MASK) << pinNum);
 451              		.loc 1 1645 0
 452 003e 7B68     		ldr	r3, [r7, #4]
 453 0040 03F00102 		and	r2, r3, #1
ARM GAS  C:\Users\stijn\AppData\Local\Temp\ccD3lQ9e.s 			page 38


 454 0044 BB68     		ldr	r3, [r7, #8]
 455 0046 9A40     		lsls	r2, r2, r3
 456 0048 7B69     		ldr	r3, [r7, #20]
 457 004a 1A43     		orrs	r2, r2, r3
 458 004c FB68     		ldr	r3, [r7, #12]
 459 004e 9A61     		str	r2, [r3, #24]
1646:Generated_Source\PSoC6\pdl\drivers\peripheral\gpio/cy_gpio.h **** }
 460              		.loc 1 1646 0
 461 0050 00BF     		nop
 462 0052 1837     		adds	r7, r7, #24
 463              		.cfi_def_cfa_offset 8
 464 0054 BD46     		mov	sp, r7
 465              		.cfi_def_cfa_register 13
 466              		@ sp needed
 467 0056 80BD     		pop	{r7, pc}
 468              	.L31:
 469              		.align	2
 470              	.L30:
 471 0058 00000000 		.word	.LC0
 472              		.cfi_endproc
 473              	.LFE161:
 474              		.size	Cy_GPIO_SetInterruptMask, .-Cy_GPIO_SetInterruptMask
 475              		.section	.text.Cy_GPIO_SetInterruptEdge,"ax",%progbits
 476              		.align	2
 477              		.thumb
 478              		.thumb_func
 479              		.type	Cy_GPIO_SetInterruptEdge, %function
 480              	Cy_GPIO_SetInterruptEdge:
 481              	.LFB165:
1647:Generated_Source\PSoC6\pdl\drivers\peripheral\gpio/cy_gpio.h **** 
1648:Generated_Source\PSoC6\pdl\drivers\peripheral\gpio/cy_gpio.h **** 
1649:Generated_Source\PSoC6\pdl\drivers\peripheral\gpio/cy_gpio.h **** /*******************************************************************************
1650:Generated_Source\PSoC6\pdl\drivers\peripheral\gpio/cy_gpio.h **** * Function Name: Cy_GPIO_GetInterruptMask
1651:Generated_Source\PSoC6\pdl\drivers\peripheral\gpio/cy_gpio.h **** ****************************************************************************//**
1652:Generated_Source\PSoC6\pdl\drivers\peripheral\gpio/cy_gpio.h **** *
1653:Generated_Source\PSoC6\pdl\drivers\peripheral\gpio/cy_gpio.h **** * Returns the state of the pin interrupt mask.
1654:Generated_Source\PSoC6\pdl\drivers\peripheral\gpio/cy_gpio.h **** *
1655:Generated_Source\PSoC6\pdl\drivers\peripheral\gpio/cy_gpio.h **** * This mask is used to determine whether the pin is configured to be forwarded
1656:Generated_Source\PSoC6\pdl\drivers\peripheral\gpio/cy_gpio.h **** * to the CPU NVIC.
1657:Generated_Source\PSoC6\pdl\drivers\peripheral\gpio/cy_gpio.h **** *
1658:Generated_Source\PSoC6\pdl\drivers\peripheral\gpio/cy_gpio.h **** * \param base
1659:Generated_Source\PSoC6\pdl\drivers\peripheral\gpio/cy_gpio.h **** * Pointer to the pin's port register base address
1660:Generated_Source\PSoC6\pdl\drivers\peripheral\gpio/cy_gpio.h **** *
1661:Generated_Source\PSoC6\pdl\drivers\peripheral\gpio/cy_gpio.h **** * \param pinNum
1662:Generated_Source\PSoC6\pdl\drivers\peripheral\gpio/cy_gpio.h **** * Position of the pin bit-field within the port register.
1663:Generated_Source\PSoC6\pdl\drivers\peripheral\gpio/cy_gpio.h **** * Bit position 8 is the routed pin through the port glitch filter.
1664:Generated_Source\PSoC6\pdl\drivers\peripheral\gpio/cy_gpio.h **** *
1665:Generated_Source\PSoC6\pdl\drivers\peripheral\gpio/cy_gpio.h **** * \return
1666:Generated_Source\PSoC6\pdl\drivers\peripheral\gpio/cy_gpio.h **** * 0 = Pin interrupt not forwarded to CPU interrupt controller
1667:Generated_Source\PSoC6\pdl\drivers\peripheral\gpio/cy_gpio.h **** * 1 = Pin interrupt masked and forwarded to CPU interrupt controller
1668:Generated_Source\PSoC6\pdl\drivers\peripheral\gpio/cy_gpio.h **** *
1669:Generated_Source\PSoC6\pdl\drivers\peripheral\gpio/cy_gpio.h **** * \funcusage
1670:Generated_Source\PSoC6\pdl\drivers\peripheral\gpio/cy_gpio.h **** * \snippet gpio/gpio_v1_10_sut_01.cydsn/main_cm4.c snippet_Cy_GPIO_SetInterruptMask
1671:Generated_Source\PSoC6\pdl\drivers\peripheral\gpio/cy_gpio.h **** *
1672:Generated_Source\PSoC6\pdl\drivers\peripheral\gpio/cy_gpio.h **** *******************************************************************************/
1673:Generated_Source\PSoC6\pdl\drivers\peripheral\gpio/cy_gpio.h **** __STATIC_INLINE uint32_t Cy_GPIO_GetInterruptMask(GPIO_PRT_Type* base, uint32_t pinNum)
1674:Generated_Source\PSoC6\pdl\drivers\peripheral\gpio/cy_gpio.h **** {
ARM GAS  C:\Users\stijn\AppData\Local\Temp\ccD3lQ9e.s 			page 39


1675:Generated_Source\PSoC6\pdl\drivers\peripheral\gpio/cy_gpio.h ****     CY_ASSERT_L2(CY_GPIO_IS_FILTER_PIN_VALID(pinNum));
1676:Generated_Source\PSoC6\pdl\drivers\peripheral\gpio/cy_gpio.h ****     
1677:Generated_Source\PSoC6\pdl\drivers\peripheral\gpio/cy_gpio.h ****     return (GPIO_PRT_INTR_MASK(base) >> pinNum) & CY_GPIO_INTR_EN_MASK;
1678:Generated_Source\PSoC6\pdl\drivers\peripheral\gpio/cy_gpio.h **** }
1679:Generated_Source\PSoC6\pdl\drivers\peripheral\gpio/cy_gpio.h **** 
1680:Generated_Source\PSoC6\pdl\drivers\peripheral\gpio/cy_gpio.h **** 
1681:Generated_Source\PSoC6\pdl\drivers\peripheral\gpio/cy_gpio.h **** /*******************************************************************************
1682:Generated_Source\PSoC6\pdl\drivers\peripheral\gpio/cy_gpio.h **** * Function Name: Cy_GPIO_GetInterruptStatusMasked
1683:Generated_Source\PSoC6\pdl\drivers\peripheral\gpio/cy_gpio.h **** ****************************************************************************//**
1684:Generated_Source\PSoC6\pdl\drivers\peripheral\gpio/cy_gpio.h **** *
1685:Generated_Source\PSoC6\pdl\drivers\peripheral\gpio/cy_gpio.h **** * Return the pin's current interrupt state after being masked.
1686:Generated_Source\PSoC6\pdl\drivers\peripheral\gpio/cy_gpio.h **** *
1687:Generated_Source\PSoC6\pdl\drivers\peripheral\gpio/cy_gpio.h **** * The core processor's NVIC is triggered by the masked interrupt bits. This 
1688:Generated_Source\PSoC6\pdl\drivers\peripheral\gpio/cy_gpio.h **** * function allows reading this masked interrupt state. Note that the bits that
1689:Generated_Source\PSoC6\pdl\drivers\peripheral\gpio/cy_gpio.h **** * are not masked will not be forwarded to the NVIC.
1690:Generated_Source\PSoC6\pdl\drivers\peripheral\gpio/cy_gpio.h **** *
1691:Generated_Source\PSoC6\pdl\drivers\peripheral\gpio/cy_gpio.h **** * \param base
1692:Generated_Source\PSoC6\pdl\drivers\peripheral\gpio/cy_gpio.h **** * Pointer to the pin's port register base address
1693:Generated_Source\PSoC6\pdl\drivers\peripheral\gpio/cy_gpio.h **** *
1694:Generated_Source\PSoC6\pdl\drivers\peripheral\gpio/cy_gpio.h **** * \param pinNum
1695:Generated_Source\PSoC6\pdl\drivers\peripheral\gpio/cy_gpio.h **** * Position of the pin bit-field within the port register.
1696:Generated_Source\PSoC6\pdl\drivers\peripheral\gpio/cy_gpio.h **** * Bit position 8 is the routed pin through the port glitch filter.
1697:Generated_Source\PSoC6\pdl\drivers\peripheral\gpio/cy_gpio.h **** *
1698:Generated_Source\PSoC6\pdl\drivers\peripheral\gpio/cy_gpio.h **** * \return
1699:Generated_Source\PSoC6\pdl\drivers\peripheral\gpio/cy_gpio.h **** * 0 = Pin interrupt not detected or not forwarded to CPU interrupt controller
1700:Generated_Source\PSoC6\pdl\drivers\peripheral\gpio/cy_gpio.h **** * 1 = Pin interrupt detected and forwarded to CPU interrupt controller
1701:Generated_Source\PSoC6\pdl\drivers\peripheral\gpio/cy_gpio.h **** *
1702:Generated_Source\PSoC6\pdl\drivers\peripheral\gpio/cy_gpio.h **** * \funcusage
1703:Generated_Source\PSoC6\pdl\drivers\peripheral\gpio/cy_gpio.h **** * \snippet gpio/gpio_v1_10_sut_01.cydsn/main_cm4.c snippet_Cy_GPIO_GetInterruptStatusMasked
1704:Generated_Source\PSoC6\pdl\drivers\peripheral\gpio/cy_gpio.h **** *
1705:Generated_Source\PSoC6\pdl\drivers\peripheral\gpio/cy_gpio.h **** *******************************************************************************/
1706:Generated_Source\PSoC6\pdl\drivers\peripheral\gpio/cy_gpio.h **** __STATIC_INLINE uint32_t Cy_GPIO_GetInterruptStatusMasked(GPIO_PRT_Type* base, uint32_t pinNum)
1707:Generated_Source\PSoC6\pdl\drivers\peripheral\gpio/cy_gpio.h **** {
1708:Generated_Source\PSoC6\pdl\drivers\peripheral\gpio/cy_gpio.h ****     CY_ASSERT_L2(CY_GPIO_IS_FILTER_PIN_VALID(pinNum));
1709:Generated_Source\PSoC6\pdl\drivers\peripheral\gpio/cy_gpio.h ****     
1710:Generated_Source\PSoC6\pdl\drivers\peripheral\gpio/cy_gpio.h ****     return (GPIO_PRT_INTR_MASKED(base) >> pinNum) & CY_GPIO_INTR_MASKED_MASK;
1711:Generated_Source\PSoC6\pdl\drivers\peripheral\gpio/cy_gpio.h **** }
1712:Generated_Source\PSoC6\pdl\drivers\peripheral\gpio/cy_gpio.h **** 
1713:Generated_Source\PSoC6\pdl\drivers\peripheral\gpio/cy_gpio.h **** 
1714:Generated_Source\PSoC6\pdl\drivers\peripheral\gpio/cy_gpio.h **** /*******************************************************************************
1715:Generated_Source\PSoC6\pdl\drivers\peripheral\gpio/cy_gpio.h **** * Function Name: Cy_GPIO_SetSwInterrupt
1716:Generated_Source\PSoC6\pdl\drivers\peripheral\gpio/cy_gpio.h **** ****************************************************************************//**
1717:Generated_Source\PSoC6\pdl\drivers\peripheral\gpio/cy_gpio.h **** *
1718:Generated_Source\PSoC6\pdl\drivers\peripheral\gpio/cy_gpio.h **** * Force a pin interrupt to trigger.
1719:Generated_Source\PSoC6\pdl\drivers\peripheral\gpio/cy_gpio.h **** *
1720:Generated_Source\PSoC6\pdl\drivers\peripheral\gpio/cy_gpio.h **** * \param base
1721:Generated_Source\PSoC6\pdl\drivers\peripheral\gpio/cy_gpio.h **** * Pointer to the pin's port register base address
1722:Generated_Source\PSoC6\pdl\drivers\peripheral\gpio/cy_gpio.h **** *
1723:Generated_Source\PSoC6\pdl\drivers\peripheral\gpio/cy_gpio.h **** * \param pinNum
1724:Generated_Source\PSoC6\pdl\drivers\peripheral\gpio/cy_gpio.h **** * Position of the pin bit-field within the port register.
1725:Generated_Source\PSoC6\pdl\drivers\peripheral\gpio/cy_gpio.h **** * Bit position 8 is the routed pin through the port glitch filter.
1726:Generated_Source\PSoC6\pdl\drivers\peripheral\gpio/cy_gpio.h **** *
1727:Generated_Source\PSoC6\pdl\drivers\peripheral\gpio/cy_gpio.h **** * \funcusage
1728:Generated_Source\PSoC6\pdl\drivers\peripheral\gpio/cy_gpio.h **** * \snippet gpio/gpio_v1_10_sut_01.cydsn/main_cm4.c snippet_Cy_GPIO_SetSwInterrupt
1729:Generated_Source\PSoC6\pdl\drivers\peripheral\gpio/cy_gpio.h **** *
1730:Generated_Source\PSoC6\pdl\drivers\peripheral\gpio/cy_gpio.h **** *******************************************************************************/
1731:Generated_Source\PSoC6\pdl\drivers\peripheral\gpio/cy_gpio.h **** __STATIC_INLINE void Cy_GPIO_SetSwInterrupt(GPIO_PRT_Type* base, uint32_t pinNum)
ARM GAS  C:\Users\stijn\AppData\Local\Temp\ccD3lQ9e.s 			page 40


1732:Generated_Source\PSoC6\pdl\drivers\peripheral\gpio/cy_gpio.h **** {
1733:Generated_Source\PSoC6\pdl\drivers\peripheral\gpio/cy_gpio.h ****     CY_ASSERT_L2(CY_GPIO_IS_FILTER_PIN_VALID(pinNum));
1734:Generated_Source\PSoC6\pdl\drivers\peripheral\gpio/cy_gpio.h ****     
1735:Generated_Source\PSoC6\pdl\drivers\peripheral\gpio/cy_gpio.h ****     GPIO_PRT_INTR_SET(base) = CY_GPIO_INTR_SET_MASK << pinNum;
1736:Generated_Source\PSoC6\pdl\drivers\peripheral\gpio/cy_gpio.h **** }
1737:Generated_Source\PSoC6\pdl\drivers\peripheral\gpio/cy_gpio.h **** 
1738:Generated_Source\PSoC6\pdl\drivers\peripheral\gpio/cy_gpio.h **** 
1739:Generated_Source\PSoC6\pdl\drivers\peripheral\gpio/cy_gpio.h **** /*******************************************************************************
1740:Generated_Source\PSoC6\pdl\drivers\peripheral\gpio/cy_gpio.h **** * Function Name: Cy_GPIO_SetInterruptEdge
1741:Generated_Source\PSoC6\pdl\drivers\peripheral\gpio/cy_gpio.h **** ****************************************************************************//**
1742:Generated_Source\PSoC6\pdl\drivers\peripheral\gpio/cy_gpio.h **** *
1743:Generated_Source\PSoC6\pdl\drivers\peripheral\gpio/cy_gpio.h **** * Configures the type of edge that will trigger a pin interrupt.
1744:Generated_Source\PSoC6\pdl\drivers\peripheral\gpio/cy_gpio.h **** *
1745:Generated_Source\PSoC6\pdl\drivers\peripheral\gpio/cy_gpio.h **** * \param base
1746:Generated_Source\PSoC6\pdl\drivers\peripheral\gpio/cy_gpio.h **** * Pointer to the pin's port register base address
1747:Generated_Source\PSoC6\pdl\drivers\peripheral\gpio/cy_gpio.h **** *
1748:Generated_Source\PSoC6\pdl\drivers\peripheral\gpio/cy_gpio.h **** * \param pinNum
1749:Generated_Source\PSoC6\pdl\drivers\peripheral\gpio/cy_gpio.h **** * Position of the pin bit-field within the port register.
1750:Generated_Source\PSoC6\pdl\drivers\peripheral\gpio/cy_gpio.h **** * Bit position 8 is the routed pin through the port glitch filter.
1751:Generated_Source\PSoC6\pdl\drivers\peripheral\gpio/cy_gpio.h **** *
1752:Generated_Source\PSoC6\pdl\drivers\peripheral\gpio/cy_gpio.h **** * \param value
1753:Generated_Source\PSoC6\pdl\drivers\peripheral\gpio/cy_gpio.h **** * Pin interrupt mode. Options are detailed in \ref group_gpio_interruptTrigger macros
1754:Generated_Source\PSoC6\pdl\drivers\peripheral\gpio/cy_gpio.h **** *
1755:Generated_Source\PSoC6\pdl\drivers\peripheral\gpio/cy_gpio.h **** * \note 
1756:Generated_Source\PSoC6\pdl\drivers\peripheral\gpio/cy_gpio.h **** * This function modifies a port register in a read-modify-write operation. It is
1757:Generated_Source\PSoC6\pdl\drivers\peripheral\gpio/cy_gpio.h **** * not thread safe as the resource is shared among multiple pins on a port.
1758:Generated_Source\PSoC6\pdl\drivers\peripheral\gpio/cy_gpio.h **** *
1759:Generated_Source\PSoC6\pdl\drivers\peripheral\gpio/cy_gpio.h **** * \funcusage
1760:Generated_Source\PSoC6\pdl\drivers\peripheral\gpio/cy_gpio.h **** * \snippet gpio/gpio_v1_10_sut_01.cydsn/main_cm4.c snippet_Cy_GPIO_SetInterruptEdge
1761:Generated_Source\PSoC6\pdl\drivers\peripheral\gpio/cy_gpio.h **** *
1762:Generated_Source\PSoC6\pdl\drivers\peripheral\gpio/cy_gpio.h **** *******************************************************************************/
1763:Generated_Source\PSoC6\pdl\drivers\peripheral\gpio/cy_gpio.h **** __STATIC_INLINE void Cy_GPIO_SetInterruptEdge(GPIO_PRT_Type* base, uint32_t pinNum, uint32_t value)
1764:Generated_Source\PSoC6\pdl\drivers\peripheral\gpio/cy_gpio.h **** {
 482              		.loc 1 1764 0
 483              		.cfi_startproc
 484              		@ args = 0, pretend = 0, frame = 24
 485              		@ frame_needed = 1, uses_anonymous_args = 0
 486 0000 80B5     		push	{r7, lr}
 487              		.cfi_def_cfa_offset 8
 488              		.cfi_offset 7, -8
 489              		.cfi_offset 14, -4
 490 0002 86B0     		sub	sp, sp, #24
 491              		.cfi_def_cfa_offset 32
 492 0004 00AF     		add	r7, sp, #0
 493              		.cfi_def_cfa_register 7
 494 0006 F860     		str	r0, [r7, #12]
 495 0008 B960     		str	r1, [r7, #8]
 496 000a 7A60     		str	r2, [r7, #4]
1765:Generated_Source\PSoC6\pdl\drivers\peripheral\gpio/cy_gpio.h ****     uint32_t tempReg;
1766:Generated_Source\PSoC6\pdl\drivers\peripheral\gpio/cy_gpio.h ****     uint32_t pinLoc;
1767:Generated_Source\PSoC6\pdl\drivers\peripheral\gpio/cy_gpio.h **** 
1768:Generated_Source\PSoC6\pdl\drivers\peripheral\gpio/cy_gpio.h ****     CY_ASSERT_L2(CY_GPIO_IS_FILTER_PIN_VALID(pinNum));
 497              		.loc 1 1768 0
 498 000c BB68     		ldr	r3, [r7, #8]
 499 000e 082B     		cmp	r3, #8
 500 0010 04D9     		bls	.L33
 501              		.loc 1 1768 0 is_stmt 0 discriminator 1
ARM GAS  C:\Users\stijn\AppData\Local\Temp\ccD3lQ9e.s 			page 41


 502 0012 4FF4DD61 		mov	r1, #1768
 503 0016 1D48     		ldr	r0, .L35
 504 0018 FFF7FEFF 		bl	Cy_SysLib_AssertFailed
 505              	.L33:
1769:Generated_Source\PSoC6\pdl\drivers\peripheral\gpio/cy_gpio.h ****     CY_ASSERT_L2(CY_GPIO_IS_INT_EDGE_VALID(value));
 506              		.loc 1 1769 0 is_stmt 1
 507 001c 7B68     		ldr	r3, [r7, #4]
 508 001e 002B     		cmp	r3, #0
 509 0020 0DD0     		beq	.L34
 510              		.loc 1 1769 0 is_stmt 0 discriminator 1
 511 0022 7B68     		ldr	r3, [r7, #4]
 512 0024 012B     		cmp	r3, #1
 513 0026 0AD0     		beq	.L34
 514              		.loc 1 1769 0 discriminator 2
 515 0028 7B68     		ldr	r3, [r7, #4]
 516 002a 022B     		cmp	r3, #2
 517 002c 07D0     		beq	.L34
 518              		.loc 1 1769 0 discriminator 3
 519 002e 7B68     		ldr	r3, [r7, #4]
 520 0030 032B     		cmp	r3, #3
 521 0032 04D0     		beq	.L34
 522              		.loc 1 1769 0 discriminator 4
 523 0034 40F2E961 		movw	r1, #1769
 524 0038 1448     		ldr	r0, .L35
 525 003a FFF7FEFF 		bl	Cy_SysLib_AssertFailed
 526              	.L34:
1770:Generated_Source\PSoC6\pdl\drivers\peripheral\gpio/cy_gpio.h **** 
1771:Generated_Source\PSoC6\pdl\drivers\peripheral\gpio/cy_gpio.h ****     pinLoc = pinNum << CY_GPIO_INTR_CFG_OFFSET;
 527              		.loc 1 1771 0 is_stmt 1
 528 003e BB68     		ldr	r3, [r7, #8]
 529 0040 5B00     		lsls	r3, r3, #1
 530 0042 7B61     		str	r3, [r7, #20]
1772:Generated_Source\PSoC6\pdl\drivers\peripheral\gpio/cy_gpio.h ****     tempReg = GPIO_PRT_INTR_CFG(base) & ~(CY_GPIO_INTR_EDGE_MASK << pinLoc);
 531              		.loc 1 1772 0
 532 0044 124B     		ldr	r3, .L35+4
 533 0046 1B68     		ldr	r3, [r3]
 534 0048 93F87C30 		ldrb	r3, [r3, #124]	@ zero_extendqisi2
 535 004c 1A46     		mov	r2, r3
 536 004e FB68     		ldr	r3, [r7, #12]
 537 0050 1344     		add	r3, r3, r2
 538 0052 1A68     		ldr	r2, [r3]
 539 0054 0321     		movs	r1, #3
 540 0056 7B69     		ldr	r3, [r7, #20]
 541 0058 01FA03F3 		lsl	r3, r1, r3
 542 005c DB43     		mvns	r3, r3
 543 005e 1340     		ands	r3, r3, r2
 544 0060 3B61     		str	r3, [r7, #16]
1773:Generated_Source\PSoC6\pdl\drivers\peripheral\gpio/cy_gpio.h ****     GPIO_PRT_INTR_CFG(base) = tempReg | ((value & CY_GPIO_INTR_EDGE_MASK) << pinLoc);
 545              		.loc 1 1773 0
 546 0062 0B4B     		ldr	r3, .L35+4
 547 0064 1B68     		ldr	r3, [r3]
 548 0066 93F87C30 		ldrb	r3, [r3, #124]	@ zero_extendqisi2
 549 006a 1A46     		mov	r2, r3
 550 006c FB68     		ldr	r3, [r7, #12]
 551 006e 1344     		add	r3, r3, r2
 552 0070 1946     		mov	r1, r3
 553 0072 7B68     		ldr	r3, [r7, #4]
ARM GAS  C:\Users\stijn\AppData\Local\Temp\ccD3lQ9e.s 			page 42


 554 0074 03F00302 		and	r2, r3, #3
 555 0078 7B69     		ldr	r3, [r7, #20]
 556 007a 9A40     		lsls	r2, r2, r3
 557 007c 3B69     		ldr	r3, [r7, #16]
 558 007e 1343     		orrs	r3, r3, r2
 559 0080 0B60     		str	r3, [r1]
1774:Generated_Source\PSoC6\pdl\drivers\peripheral\gpio/cy_gpio.h **** }
 560              		.loc 1 1774 0
 561 0082 00BF     		nop
 562 0084 1837     		adds	r7, r7, #24
 563              		.cfi_def_cfa_offset 8
 564 0086 BD46     		mov	sp, r7
 565              		.cfi_def_cfa_register 13
 566              		@ sp needed
 567 0088 80BD     		pop	{r7, pc}
 568              	.L36:
 569 008a 00BF     		.align	2
 570              	.L35:
 571 008c 00000000 		.word	.LC0
 572 0090 00000000 		.word	cy_device
 573              		.cfi_endproc
 574              	.LFE165:
 575              		.size	Cy_GPIO_SetInterruptEdge, .-Cy_GPIO_SetInterruptEdge
 576              		.section	.rodata
 577 003d 000000   		.align	2
 578              	.LC1:
 579 0040 47656E65 		.ascii	"Generated_Source\\PSoC6\\pdl\\drivers\\peripheral\\"
 579      72617465 
 579      645F536F 
 579      75726365 
 579      5C50536F 
 580 006e 6770696F 		.ascii	"gpio\\cy_gpio.c\000"
 580      5C63795F 
 580      6770696F 
 580      2E6300
 581              		.section	.text.Cy_GPIO_Pin_Init,"ax",%progbits
 582              		.align	2
 583              		.global	Cy_GPIO_Pin_Init
 584              		.thumb
 585              		.thumb_func
 586              		.type	Cy_GPIO_Pin_Init, %function
 587              	Cy_GPIO_Pin_Init:
 588              	.LFB173:
 589              		.file 2 "Generated_Source\\PSoC6\\pdl\\drivers\\peripheral\\gpio\\cy_gpio.c"
   1:Generated_Source\PSoC6\pdl\drivers\peripheral\gpio/cy_gpio.c **** /***************************************************************************//**
   2:Generated_Source\PSoC6\pdl\drivers\peripheral\gpio/cy_gpio.c **** * \file cy_gpio.c
   3:Generated_Source\PSoC6\pdl\drivers\peripheral\gpio/cy_gpio.c **** * \version 1.20
   4:Generated_Source\PSoC6\pdl\drivers\peripheral\gpio/cy_gpio.c **** *
   5:Generated_Source\PSoC6\pdl\drivers\peripheral\gpio/cy_gpio.c **** * Provides an API implementation of the GPIO driver
   6:Generated_Source\PSoC6\pdl\drivers\peripheral\gpio/cy_gpio.c **** *
   7:Generated_Source\PSoC6\pdl\drivers\peripheral\gpio/cy_gpio.c **** ********************************************************************************
   8:Generated_Source\PSoC6\pdl\drivers\peripheral\gpio/cy_gpio.c **** * \copyright
   9:Generated_Source\PSoC6\pdl\drivers\peripheral\gpio/cy_gpio.c **** * Copyright 2016-2018, Cypress Semiconductor Corporation. All rights reserved.
  10:Generated_Source\PSoC6\pdl\drivers\peripheral\gpio/cy_gpio.c **** * You may use this file only in accordance with the license, terms, conditions,
  11:Generated_Source\PSoC6\pdl\drivers\peripheral\gpio/cy_gpio.c **** * disclaimers, and limitations in the end user license agreement accompanying
  12:Generated_Source\PSoC6\pdl\drivers\peripheral\gpio/cy_gpio.c **** * the software package with which this file was provided.
  13:Generated_Source\PSoC6\pdl\drivers\peripheral\gpio/cy_gpio.c **** *******************************************************************************/
ARM GAS  C:\Users\stijn\AppData\Local\Temp\ccD3lQ9e.s 			page 43


  14:Generated_Source\PSoC6\pdl\drivers\peripheral\gpio/cy_gpio.c **** 
  15:Generated_Source\PSoC6\pdl\drivers\peripheral\gpio/cy_gpio.c **** #include "cy_gpio.h"
  16:Generated_Source\PSoC6\pdl\drivers\peripheral\gpio/cy_gpio.c **** 
  17:Generated_Source\PSoC6\pdl\drivers\peripheral\gpio/cy_gpio.c **** #if defined(__cplusplus)
  18:Generated_Source\PSoC6\pdl\drivers\peripheral\gpio/cy_gpio.c **** extern "C" {
  19:Generated_Source\PSoC6\pdl\drivers\peripheral\gpio/cy_gpio.c **** #endif
  20:Generated_Source\PSoC6\pdl\drivers\peripheral\gpio/cy_gpio.c **** 
  21:Generated_Source\PSoC6\pdl\drivers\peripheral\gpio/cy_gpio.c **** 
  22:Generated_Source\PSoC6\pdl\drivers\peripheral\gpio/cy_gpio.c **** /* Define for AMUX A splitters */
  23:Generated_Source\PSoC6\pdl\drivers\peripheral\gpio/cy_gpio.c **** #define GPIO_AMUXA_SPLITTER_MASK     (uint32_t)(HSIOM_AMUX_SPLIT_CTL_SWITCH_AA_SL_Msk \
  24:Generated_Source\PSoC6\pdl\drivers\peripheral\gpio/cy_gpio.c ****                                               | HSIOM_AMUX_SPLIT_CTL_SWITCH_AA_SR_Msk \
  25:Generated_Source\PSoC6\pdl\drivers\peripheral\gpio/cy_gpio.c ****                                               | HSIOM_AMUX_SPLIT_CTL_SWITCH_AA_S0_Msk)
  26:Generated_Source\PSoC6\pdl\drivers\peripheral\gpio/cy_gpio.c **** 
  27:Generated_Source\PSoC6\pdl\drivers\peripheral\gpio/cy_gpio.c **** /* Define for AMUX B splitters */
  28:Generated_Source\PSoC6\pdl\drivers\peripheral\gpio/cy_gpio.c **** #define GPIO_AMUXB_SPLITTER_MASK     (uint32_t)(HSIOM_AMUX_SPLIT_CTL_SWITCH_BB_SL_Msk \
  29:Generated_Source\PSoC6\pdl\drivers\peripheral\gpio/cy_gpio.c ****                                               | HSIOM_AMUX_SPLIT_CTL_SWITCH_BB_SR_Msk \
  30:Generated_Source\PSoC6\pdl\drivers\peripheral\gpio/cy_gpio.c ****                                               | HSIOM_AMUX_SPLIT_CTL_SWITCH_BB_S0_Msk)
  31:Generated_Source\PSoC6\pdl\drivers\peripheral\gpio/cy_gpio.c **** 
  32:Generated_Source\PSoC6\pdl\drivers\peripheral\gpio/cy_gpio.c **** 
  33:Generated_Source\PSoC6\pdl\drivers\peripheral\gpio/cy_gpio.c **** 
  34:Generated_Source\PSoC6\pdl\drivers\peripheral\gpio/cy_gpio.c **** /*******************************************************************************
  35:Generated_Source\PSoC6\pdl\drivers\peripheral\gpio/cy_gpio.c **** * Function Name: Cy_GPIO_Pin_Init
  36:Generated_Source\PSoC6\pdl\drivers\peripheral\gpio/cy_gpio.c **** ****************************************************************************//**
  37:Generated_Source\PSoC6\pdl\drivers\peripheral\gpio/cy_gpio.c **** *
  38:Generated_Source\PSoC6\pdl\drivers\peripheral\gpio/cy_gpio.c **** * Initializes all pin configuration settings for the specified pin.
  39:Generated_Source\PSoC6\pdl\drivers\peripheral\gpio/cy_gpio.c **** *
  40:Generated_Source\PSoC6\pdl\drivers\peripheral\gpio/cy_gpio.c **** * \param base
  41:Generated_Source\PSoC6\pdl\drivers\peripheral\gpio/cy_gpio.c **** * Pointer to the pin's port register base address
  42:Generated_Source\PSoC6\pdl\drivers\peripheral\gpio/cy_gpio.c **** *
  43:Generated_Source\PSoC6\pdl\drivers\peripheral\gpio/cy_gpio.c **** * \param pinNum
  44:Generated_Source\PSoC6\pdl\drivers\peripheral\gpio/cy_gpio.c **** * Position of the pin bit-field within the port register
  45:Generated_Source\PSoC6\pdl\drivers\peripheral\gpio/cy_gpio.c **** *
  46:Generated_Source\PSoC6\pdl\drivers\peripheral\gpio/cy_gpio.c **** * \param config
  47:Generated_Source\PSoC6\pdl\drivers\peripheral\gpio/cy_gpio.c **** * Pointer to the pin config structure base address
  48:Generated_Source\PSoC6\pdl\drivers\peripheral\gpio/cy_gpio.c **** *
  49:Generated_Source\PSoC6\pdl\drivers\peripheral\gpio/cy_gpio.c **** * \return
  50:Generated_Source\PSoC6\pdl\drivers\peripheral\gpio/cy_gpio.c **** * Initialization status
  51:Generated_Source\PSoC6\pdl\drivers\peripheral\gpio/cy_gpio.c **** *
  52:Generated_Source\PSoC6\pdl\drivers\peripheral\gpio/cy_gpio.c **** * \note 
  53:Generated_Source\PSoC6\pdl\drivers\peripheral\gpio/cy_gpio.c **** * This function modifies port registers in read-modify-write operations. It is
  54:Generated_Source\PSoC6\pdl\drivers\peripheral\gpio/cy_gpio.c **** * not thread safe as the resource is shared among multiple pins on a port.
  55:Generated_Source\PSoC6\pdl\drivers\peripheral\gpio/cy_gpio.c **** *
  56:Generated_Source\PSoC6\pdl\drivers\peripheral\gpio/cy_gpio.c **** * \funcusage
  57:Generated_Source\PSoC6\pdl\drivers\peripheral\gpio/cy_gpio.c **** * \snippet gpio/gpio_v1_10_sut_01.cydsn/main_cm4.c snippet_Cy_GPIO_Pin_Init
  58:Generated_Source\PSoC6\pdl\drivers\peripheral\gpio/cy_gpio.c **** *
  59:Generated_Source\PSoC6\pdl\drivers\peripheral\gpio/cy_gpio.c **** *******************************************************************************/
  60:Generated_Source\PSoC6\pdl\drivers\peripheral\gpio/cy_gpio.c **** cy_en_gpio_status_t Cy_GPIO_Pin_Init(GPIO_PRT_Type *base, uint32_t pinNum, const cy_stc_gpio_pin_co
  61:Generated_Source\PSoC6\pdl\drivers\peripheral\gpio/cy_gpio.c **** {
 590              		.loc 2 61 0
 591              		.cfi_startproc
 592              		@ args = 0, pretend = 0, frame = 32
 593              		@ frame_needed = 1, uses_anonymous_args = 0
 594 0000 80B5     		push	{r7, lr}
 595              		.cfi_def_cfa_offset 8
 596              		.cfi_offset 7, -8
 597              		.cfi_offset 14, -4
 598 0002 88B0     		sub	sp, sp, #32
ARM GAS  C:\Users\stijn\AppData\Local\Temp\ccD3lQ9e.s 			page 44


 599              		.cfi_def_cfa_offset 40
 600 0004 00AF     		add	r7, sp, #0
 601              		.cfi_def_cfa_register 7
 602 0006 F860     		str	r0, [r7, #12]
 603 0008 B960     		str	r1, [r7, #8]
 604 000a 7A60     		str	r2, [r7, #4]
  62:Generated_Source\PSoC6\pdl\drivers\peripheral\gpio/cy_gpio.c ****     cy_en_gpio_status_t status = CY_GPIO_BAD_PARAM;
 605              		.loc 2 62 0
 606 000c A74B     		ldr	r3, .L54
 607 000e FB61     		str	r3, [r7, #28]
  63:Generated_Source\PSoC6\pdl\drivers\peripheral\gpio/cy_gpio.c **** 
  64:Generated_Source\PSoC6\pdl\drivers\peripheral\gpio/cy_gpio.c ****     if ((NULL != base) && (NULL != config))
 608              		.loc 2 64 0
 609 0010 FB68     		ldr	r3, [r7, #12]
 610 0012 002B     		cmp	r3, #0
 611 0014 00F05281 		beq	.L38
 612              		.loc 2 64 0 is_stmt 0 discriminator 1
 613 0018 7B68     		ldr	r3, [r7, #4]
 614 001a 002B     		cmp	r3, #0
 615 001c 00F04E81 		beq	.L38
 616              	.LBB2:
  65:Generated_Source\PSoC6\pdl\drivers\peripheral\gpio/cy_gpio.c ****     {
  66:Generated_Source\PSoC6\pdl\drivers\peripheral\gpio/cy_gpio.c ****         uint32_t maskCfgOut;
  67:Generated_Source\PSoC6\pdl\drivers\peripheral\gpio/cy_gpio.c ****         uint32_t tempReg;
  68:Generated_Source\PSoC6\pdl\drivers\peripheral\gpio/cy_gpio.c ****         
  69:Generated_Source\PSoC6\pdl\drivers\peripheral\gpio/cy_gpio.c ****         CY_ASSERT_L2(CY_GPIO_IS_PIN_VALID(pinNum));
 617              		.loc 2 69 0 is_stmt 1
 618 0020 BB68     		ldr	r3, [r7, #8]
 619 0022 072B     		cmp	r3, #7
 620 0024 03D9     		bls	.L39
 621              		.loc 2 69 0 is_stmt 0 discriminator 1
 622 0026 4521     		movs	r1, #69
 623 0028 A148     		ldr	r0, .L54+4
 624 002a FFF7FEFF 		bl	Cy_SysLib_AssertFailed
 625              	.L39:
  70:Generated_Source\PSoC6\pdl\drivers\peripheral\gpio/cy_gpio.c ****         CY_ASSERT_L2(CY_GPIO_IS_VALUE_VALID(config->outVal));
 626              		.loc 2 70 0 is_stmt 1
 627 002e 7B68     		ldr	r3, [r7, #4]
 628 0030 1B68     		ldr	r3, [r3]
 629 0032 012B     		cmp	r3, #1
 630 0034 03D9     		bls	.L40
 631              		.loc 2 70 0 is_stmt 0 discriminator 1
 632 0036 4621     		movs	r1, #70
 633 0038 9D48     		ldr	r0, .L54+4
 634 003a FFF7FEFF 		bl	Cy_SysLib_AssertFailed
 635              	.L40:
  71:Generated_Source\PSoC6\pdl\drivers\peripheral\gpio/cy_gpio.c ****         CY_ASSERT_L2(CY_GPIO_IS_DM_VALID(config->driveMode));
 636              		.loc 2 71 0 is_stmt 1
 637 003e 7B68     		ldr	r3, [r7, #4]
 638 0040 5B68     		ldr	r3, [r3, #4]
 639 0042 23F00F03 		bic	r3, r3, #15
 640 0046 002B     		cmp	r3, #0
 641 0048 03D0     		beq	.L41
 642              		.loc 2 71 0 is_stmt 0 discriminator 1
 643 004a 4721     		movs	r1, #71
 644 004c 9848     		ldr	r0, .L54+4
 645 004e FFF7FEFF 		bl	Cy_SysLib_AssertFailed
ARM GAS  C:\Users\stijn\AppData\Local\Temp\ccD3lQ9e.s 			page 45


 646              	.L41:
  72:Generated_Source\PSoC6\pdl\drivers\peripheral\gpio/cy_gpio.c ****         CY_ASSERT_L2(CY_GPIO_IS_HSIOM_VALID(config->hsiom));  
 647              		.loc 2 72 0 is_stmt 1
 648 0052 7B68     		ldr	r3, [r7, #4]
 649 0054 1B7A     		ldrb	r3, [r3, #8]	@ zero_extendqisi2
 650 0056 23F01F03 		bic	r3, r3, #31
 651 005a 002B     		cmp	r3, #0
 652 005c 03D0     		beq	.L42
 653              		.loc 2 72 0 is_stmt 0 discriminator 1
 654 005e 4821     		movs	r1, #72
 655 0060 9348     		ldr	r0, .L54+4
 656 0062 FFF7FEFF 		bl	Cy_SysLib_AssertFailed
 657              	.L42:
  73:Generated_Source\PSoC6\pdl\drivers\peripheral\gpio/cy_gpio.c ****         CY_ASSERT_L2(CY_GPIO_IS_INT_EDGE_VALID(config->intEdge)); 
 658              		.loc 2 73 0 is_stmt 1
 659 0066 7B68     		ldr	r3, [r7, #4]
 660 0068 DB68     		ldr	r3, [r3, #12]
 661 006a 002B     		cmp	r3, #0
 662 006c 0FD0     		beq	.L43
 663              		.loc 2 73 0 is_stmt 0 discriminator 1
 664 006e 7B68     		ldr	r3, [r7, #4]
 665 0070 DB68     		ldr	r3, [r3, #12]
 666 0072 012B     		cmp	r3, #1
 667 0074 0BD0     		beq	.L43
 668              		.loc 2 73 0 discriminator 2
 669 0076 7B68     		ldr	r3, [r7, #4]
 670 0078 DB68     		ldr	r3, [r3, #12]
 671 007a 022B     		cmp	r3, #2
 672 007c 07D0     		beq	.L43
 673              		.loc 2 73 0 discriminator 3
 674 007e 7B68     		ldr	r3, [r7, #4]
 675 0080 DB68     		ldr	r3, [r3, #12]
 676 0082 032B     		cmp	r3, #3
 677 0084 03D0     		beq	.L43
 678              		.loc 2 73 0 discriminator 4
 679 0086 4921     		movs	r1, #73
 680 0088 8948     		ldr	r0, .L54+4
 681 008a FFF7FEFF 		bl	Cy_SysLib_AssertFailed
 682              	.L43:
  74:Generated_Source\PSoC6\pdl\drivers\peripheral\gpio/cy_gpio.c ****         CY_ASSERT_L2(CY_GPIO_IS_VALUE_VALID(config->intMask));
 683              		.loc 2 74 0 is_stmt 1
 684 008e 7B68     		ldr	r3, [r7, #4]
 685 0090 1B69     		ldr	r3, [r3, #16]
 686 0092 012B     		cmp	r3, #1
 687 0094 03D9     		bls	.L44
 688              		.loc 2 74 0 is_stmt 0 discriminator 1
 689 0096 4A21     		movs	r1, #74
 690 0098 8548     		ldr	r0, .L54+4
 691 009a FFF7FEFF 		bl	Cy_SysLib_AssertFailed
 692              	.L44:
  75:Generated_Source\PSoC6\pdl\drivers\peripheral\gpio/cy_gpio.c ****         CY_ASSERT_L2(CY_GPIO_IS_VALUE_VALID(config->vtrip));
 693              		.loc 2 75 0 is_stmt 1
 694 009e 7B68     		ldr	r3, [r7, #4]
 695 00a0 5B69     		ldr	r3, [r3, #20]
 696 00a2 012B     		cmp	r3, #1
 697 00a4 03D9     		bls	.L45
 698              		.loc 2 75 0 is_stmt 0 discriminator 1
ARM GAS  C:\Users\stijn\AppData\Local\Temp\ccD3lQ9e.s 			page 46


 699 00a6 4B21     		movs	r1, #75
 700 00a8 8148     		ldr	r0, .L54+4
 701 00aa FFF7FEFF 		bl	Cy_SysLib_AssertFailed
 702              	.L45:
  76:Generated_Source\PSoC6\pdl\drivers\peripheral\gpio/cy_gpio.c ****         CY_ASSERT_L2(CY_GPIO_IS_VALUE_VALID(config->slewRate));
 703              		.loc 2 76 0 is_stmt 1
 704 00ae 7B68     		ldr	r3, [r7, #4]
 705 00b0 9B69     		ldr	r3, [r3, #24]
 706 00b2 012B     		cmp	r3, #1
 707 00b4 03D9     		bls	.L46
 708              		.loc 2 76 0 is_stmt 0 discriminator 1
 709 00b6 4C21     		movs	r1, #76
 710 00b8 7D48     		ldr	r0, .L54+4
 711 00ba FFF7FEFF 		bl	Cy_SysLib_AssertFailed
 712              	.L46:
  77:Generated_Source\PSoC6\pdl\drivers\peripheral\gpio/cy_gpio.c ****         CY_ASSERT_L2(CY_GPIO_IS_DRIVE_SEL_VALID(config->driveSel));
 713              		.loc 2 77 0 is_stmt 1
 714 00be 7B68     		ldr	r3, [r7, #4]
 715 00c0 DB69     		ldr	r3, [r3, #28]
 716 00c2 002B     		cmp	r3, #0
 717 00c4 0FD0     		beq	.L47
 718              		.loc 2 77 0 is_stmt 0 discriminator 1
 719 00c6 7B68     		ldr	r3, [r7, #4]
 720 00c8 DB69     		ldr	r3, [r3, #28]
 721 00ca 012B     		cmp	r3, #1
 722 00cc 0BD0     		beq	.L47
 723              		.loc 2 77 0 discriminator 2
 724 00ce 7B68     		ldr	r3, [r7, #4]
 725 00d0 DB69     		ldr	r3, [r3, #28]
 726 00d2 022B     		cmp	r3, #2
 727 00d4 07D0     		beq	.L47
 728              		.loc 2 77 0 discriminator 3
 729 00d6 7B68     		ldr	r3, [r7, #4]
 730 00d8 DB69     		ldr	r3, [r3, #28]
 731 00da 032B     		cmp	r3, #3
 732 00dc 03D0     		beq	.L47
 733              		.loc 2 77 0 discriminator 4
 734 00de 4D21     		movs	r1, #77
 735 00e0 7348     		ldr	r0, .L54+4
 736 00e2 FFF7FEFF 		bl	Cy_SysLib_AssertFailed
 737              	.L47:
  78:Generated_Source\PSoC6\pdl\drivers\peripheral\gpio/cy_gpio.c ****         CY_ASSERT_L2(CY_GPIO_IS_VALUE_VALID(config->vregEn));
 738              		.loc 2 78 0 is_stmt 1
 739 00e6 7B68     		ldr	r3, [r7, #4]
 740 00e8 1B6A     		ldr	r3, [r3, #32]
 741 00ea 012B     		cmp	r3, #1
 742 00ec 03D9     		bls	.L48
 743              		.loc 2 78 0 is_stmt 0 discriminator 1
 744 00ee 4E21     		movs	r1, #78
 745 00f0 6F48     		ldr	r0, .L54+4
 746 00f2 FFF7FEFF 		bl	Cy_SysLib_AssertFailed
 747              	.L48:
  79:Generated_Source\PSoC6\pdl\drivers\peripheral\gpio/cy_gpio.c ****         CY_ASSERT_L2(CY_GPIO_IS_VALUE_VALID(config->ibufMode));
 748              		.loc 2 79 0 is_stmt 1
 749 00f6 7B68     		ldr	r3, [r7, #4]
 750 00f8 5B6A     		ldr	r3, [r3, #36]
 751 00fa 012B     		cmp	r3, #1
ARM GAS  C:\Users\stijn\AppData\Local\Temp\ccD3lQ9e.s 			page 47


 752 00fc 03D9     		bls	.L49
 753              		.loc 2 79 0 is_stmt 0 discriminator 1
 754 00fe 4F21     		movs	r1, #79
 755 0100 6B48     		ldr	r0, .L54+4
 756 0102 FFF7FEFF 		bl	Cy_SysLib_AssertFailed
 757              	.L49:
  80:Generated_Source\PSoC6\pdl\drivers\peripheral\gpio/cy_gpio.c ****         CY_ASSERT_L2(CY_GPIO_IS_VALUE_VALID(config->vtripSel));
 758              		.loc 2 80 0 is_stmt 1
 759 0106 7B68     		ldr	r3, [r7, #4]
 760 0108 9B6A     		ldr	r3, [r3, #40]
 761 010a 012B     		cmp	r3, #1
 762 010c 03D9     		bls	.L50
 763              		.loc 2 80 0 is_stmt 0 discriminator 1
 764 010e 5021     		movs	r1, #80
 765 0110 6748     		ldr	r0, .L54+4
 766 0112 FFF7FEFF 		bl	Cy_SysLib_AssertFailed
 767              	.L50:
  81:Generated_Source\PSoC6\pdl\drivers\peripheral\gpio/cy_gpio.c ****         CY_ASSERT_L2(CY_GPIO_IS_VREF_SEL_VALID(config->vrefSel));
 768              		.loc 2 81 0 is_stmt 1
 769 0116 7B68     		ldr	r3, [r7, #4]
 770 0118 DB6A     		ldr	r3, [r3, #44]
 771 011a 002B     		cmp	r3, #0
 772 011c 0FD0     		beq	.L51
 773              		.loc 2 81 0 is_stmt 0 discriminator 1
 774 011e 7B68     		ldr	r3, [r7, #4]
 775 0120 DB6A     		ldr	r3, [r3, #44]
 776 0122 012B     		cmp	r3, #1
 777 0124 0BD0     		beq	.L51
 778              		.loc 2 81 0 discriminator 2
 779 0126 7B68     		ldr	r3, [r7, #4]
 780 0128 DB6A     		ldr	r3, [r3, #44]
 781 012a 022B     		cmp	r3, #2
 782 012c 07D0     		beq	.L51
 783              		.loc 2 81 0 discriminator 3
 784 012e 7B68     		ldr	r3, [r7, #4]
 785 0130 DB6A     		ldr	r3, [r3, #44]
 786 0132 032B     		cmp	r3, #3
 787 0134 03D0     		beq	.L51
 788              		.loc 2 81 0 discriminator 4
 789 0136 5121     		movs	r1, #81
 790 0138 5D48     		ldr	r0, .L54+4
 791 013a FFF7FEFF 		bl	Cy_SysLib_AssertFailed
 792              	.L51:
  82:Generated_Source\PSoC6\pdl\drivers\peripheral\gpio/cy_gpio.c ****         CY_ASSERT_L2(CY_GPIO_IS_VOH_SEL_VALID(config->vohSel));
 793              		.loc 2 82 0 is_stmt 1
 794 013e 7B68     		ldr	r3, [r7, #4]
 795 0140 1B6B     		ldr	r3, [r3, #48]
 796 0142 002B     		cmp	r3, #0
 797 0144 1FD0     		beq	.L52
 798              		.loc 2 82 0 is_stmt 0 discriminator 1
 799 0146 7B68     		ldr	r3, [r7, #4]
 800 0148 1B6B     		ldr	r3, [r3, #48]
 801 014a 012B     		cmp	r3, #1
 802 014c 1BD0     		beq	.L52
 803              		.loc 2 82 0 discriminator 2
 804 014e 7B68     		ldr	r3, [r7, #4]
 805 0150 1B6B     		ldr	r3, [r3, #48]
ARM GAS  C:\Users\stijn\AppData\Local\Temp\ccD3lQ9e.s 			page 48


 806 0152 022B     		cmp	r3, #2
 807 0154 17D0     		beq	.L52
 808              		.loc 2 82 0 discriminator 3
 809 0156 7B68     		ldr	r3, [r7, #4]
 810 0158 1B6B     		ldr	r3, [r3, #48]
 811 015a 032B     		cmp	r3, #3
 812 015c 13D0     		beq	.L52
 813              		.loc 2 82 0 discriminator 4
 814 015e 7B68     		ldr	r3, [r7, #4]
 815 0160 1B6B     		ldr	r3, [r3, #48]
 816 0162 042B     		cmp	r3, #4
 817 0164 0FD0     		beq	.L52
 818              		.loc 2 82 0 discriminator 5
 819 0166 7B68     		ldr	r3, [r7, #4]
 820 0168 1B6B     		ldr	r3, [r3, #48]
 821 016a 052B     		cmp	r3, #5
 822 016c 0BD0     		beq	.L52
 823              		.loc 2 82 0 discriminator 6
 824 016e 7B68     		ldr	r3, [r7, #4]
 825 0170 1B6B     		ldr	r3, [r3, #48]
 826 0172 062B     		cmp	r3, #6
 827 0174 07D0     		beq	.L52
 828              		.loc 2 82 0 discriminator 7
 829 0176 7B68     		ldr	r3, [r7, #4]
 830 0178 1B6B     		ldr	r3, [r3, #48]
 831 017a 072B     		cmp	r3, #7
 832 017c 03D0     		beq	.L52
 833              		.loc 2 82 0 discriminator 8
 834 017e 5221     		movs	r1, #82
 835 0180 4B48     		ldr	r0, .L54+4
 836 0182 FFF7FEFF 		bl	Cy_SysLib_AssertFailed
 837              	.L52:
  83:Generated_Source\PSoC6\pdl\drivers\peripheral\gpio/cy_gpio.c ****     
  84:Generated_Source\PSoC6\pdl\drivers\peripheral\gpio/cy_gpio.c ****         Cy_GPIO_Write(base, pinNum, config->outVal);
 838              		.loc 2 84 0 is_stmt 1
 839 0186 7B68     		ldr	r3, [r7, #4]
 840 0188 1B68     		ldr	r3, [r3]
 841 018a 1A46     		mov	r2, r3
 842 018c B968     		ldr	r1, [r7, #8]
 843 018e F868     		ldr	r0, [r7, #12]
 844 0190 FFF7FEFF 		bl	Cy_GPIO_Write
  85:Generated_Source\PSoC6\pdl\drivers\peripheral\gpio/cy_gpio.c ****         Cy_GPIO_SetDrivemode(base, pinNum, config->driveMode);
 845              		.loc 2 85 0
 846 0194 7B68     		ldr	r3, [r7, #4]
 847 0196 5B68     		ldr	r3, [r3, #4]
 848 0198 1A46     		mov	r2, r3
 849 019a B968     		ldr	r1, [r7, #8]
 850 019c F868     		ldr	r0, [r7, #12]
 851 019e FFF7FEFF 		bl	Cy_GPIO_SetDrivemode
  86:Generated_Source\PSoC6\pdl\drivers\peripheral\gpio/cy_gpio.c ****         Cy_GPIO_SetHSIOM(base, pinNum, config->hsiom);
 852              		.loc 2 86 0
 853 01a2 7B68     		ldr	r3, [r7, #4]
 854 01a4 1B7A     		ldrb	r3, [r3, #8]	@ zero_extendqisi2
 855 01a6 1A46     		mov	r2, r3
 856 01a8 B968     		ldr	r1, [r7, #8]
 857 01aa F868     		ldr	r0, [r7, #12]
 858 01ac FFF7FEFF 		bl	Cy_GPIO_SetHSIOM
ARM GAS  C:\Users\stijn\AppData\Local\Temp\ccD3lQ9e.s 			page 49


  87:Generated_Source\PSoC6\pdl\drivers\peripheral\gpio/cy_gpio.c **** 
  88:Generated_Source\PSoC6\pdl\drivers\peripheral\gpio/cy_gpio.c ****         Cy_GPIO_SetInterruptEdge(base, pinNum, config->intEdge);
 859              		.loc 2 88 0
 860 01b0 7B68     		ldr	r3, [r7, #4]
 861 01b2 DB68     		ldr	r3, [r3, #12]
 862 01b4 1A46     		mov	r2, r3
 863 01b6 B968     		ldr	r1, [r7, #8]
 864 01b8 F868     		ldr	r0, [r7, #12]
 865 01ba FFF7FEFF 		bl	Cy_GPIO_SetInterruptEdge
  89:Generated_Source\PSoC6\pdl\drivers\peripheral\gpio/cy_gpio.c ****         Cy_GPIO_SetInterruptMask(base, pinNum, config->intMask);
 866              		.loc 2 89 0
 867 01be 7B68     		ldr	r3, [r7, #4]
 868 01c0 1B69     		ldr	r3, [r3, #16]
 869 01c2 1A46     		mov	r2, r3
 870 01c4 B968     		ldr	r1, [r7, #8]
 871 01c6 F868     		ldr	r0, [r7, #12]
 872 01c8 FFF7FEFF 		bl	Cy_GPIO_SetInterruptMask
  90:Generated_Source\PSoC6\pdl\drivers\peripheral\gpio/cy_gpio.c ****         Cy_GPIO_SetVtrip(base, pinNum, config->vtrip);
 873              		.loc 2 90 0
 874 01cc 7B68     		ldr	r3, [r7, #4]
 875 01ce 5B69     		ldr	r3, [r3, #20]
 876 01d0 1A46     		mov	r2, r3
 877 01d2 B968     		ldr	r1, [r7, #8]
 878 01d4 F868     		ldr	r0, [r7, #12]
 879 01d6 FFF7FEFF 		bl	Cy_GPIO_SetVtrip
  91:Generated_Source\PSoC6\pdl\drivers\peripheral\gpio/cy_gpio.c **** 
  92:Generated_Source\PSoC6\pdl\drivers\peripheral\gpio/cy_gpio.c ****         /* Slew rate and Driver strength */
  93:Generated_Source\PSoC6\pdl\drivers\peripheral\gpio/cy_gpio.c ****         maskCfgOut = (CY_GPIO_CFG_OUT_SLOW_MASK << pinNum) 
 880              		.loc 2 93 0
 881 01da 0122     		movs	r2, #1
 882 01dc BB68     		ldr	r3, [r7, #8]
 883 01de 9A40     		lsls	r2, r2, r3
  94:Generated_Source\PSoC6\pdl\drivers\peripheral\gpio/cy_gpio.c ****                      | (CY_GPIO_CFG_OUT_DRIVE_SEL_MASK << ((uint32_t)(pinNum << 1U) + CY_GPIO_CFG_O
 884              		.loc 2 94 0
 885 01e0 BB68     		ldr	r3, [r7, #8]
 886 01e2 5B00     		lsls	r3, r3, #1
 887 01e4 1033     		adds	r3, r3, #16
 888 01e6 0321     		movs	r1, #3
 889 01e8 01FA03F3 		lsl	r3, r1, r3
  93:Generated_Source\PSoC6\pdl\drivers\peripheral\gpio/cy_gpio.c ****                      | (CY_GPIO_CFG_OUT_DRIVE_SEL_MASK << ((uint32_t)(pinNum << 1U) + CY_GPIO_CFG_O
 890              		.loc 2 93 0
 891 01ec 1343     		orrs	r3, r3, r2
 892 01ee BB61     		str	r3, [r7, #24]
  95:Generated_Source\PSoC6\pdl\drivers\peripheral\gpio/cy_gpio.c ****         tempReg = GPIO_PRT_CFG_OUT(base) & ~(maskCfgOut);
 893              		.loc 2 95 0
 894 01f0 304B     		ldr	r3, .L54+8
 895 01f2 1B68     		ldr	r3, [r3]
 896 01f4 93F87F30 		ldrb	r3, [r3, #127]	@ zero_extendqisi2
 897 01f8 1A46     		mov	r2, r3
 898 01fa FB68     		ldr	r3, [r7, #12]
 899 01fc 1344     		add	r3, r3, r2
 900 01fe 1A68     		ldr	r2, [r3]
 901 0200 BB69     		ldr	r3, [r7, #24]
 902 0202 DB43     		mvns	r3, r3
 903 0204 1340     		ands	r3, r3, r2
 904 0206 7B61     		str	r3, [r7, #20]
  96:Generated_Source\PSoC6\pdl\drivers\peripheral\gpio/cy_gpio.c ****         
ARM GAS  C:\Users\stijn\AppData\Local\Temp\ccD3lQ9e.s 			page 50


  97:Generated_Source\PSoC6\pdl\drivers\peripheral\gpio/cy_gpio.c ****         GPIO_PRT_CFG_OUT(base) = tempReg | ((config->slewRate & CY_GPIO_CFG_OUT_SLOW_MASK) << pinNu
 905              		.loc 2 97 0
 906 0208 2A4B     		ldr	r3, .L54+8
 907 020a 1B68     		ldr	r3, [r3]
 908 020c 93F87F30 		ldrb	r3, [r3, #127]	@ zero_extendqisi2
 909 0210 1A46     		mov	r2, r3
 910 0212 FB68     		ldr	r3, [r7, #12]
 911 0214 1344     		add	r3, r3, r2
 912 0216 1846     		mov	r0, r3
 913 0218 7B68     		ldr	r3, [r7, #4]
 914 021a 9B69     		ldr	r3, [r3, #24]
 915 021c 03F00102 		and	r2, r3, #1
 916 0220 BB68     		ldr	r3, [r7, #8]
 917 0222 9A40     		lsls	r2, r2, r3
 918 0224 7B69     		ldr	r3, [r7, #20]
 919 0226 1A43     		orrs	r2, r2, r3
  98:Generated_Source\PSoC6\pdl\drivers\peripheral\gpio/cy_gpio.c ****                             | ((config->driveSel & CY_GPIO_CFG_OUT_DRIVE_SEL_MASK) << ((uint32_t)(p
 920              		.loc 2 98 0
 921 0228 7B68     		ldr	r3, [r7, #4]
 922 022a DB69     		ldr	r3, [r3, #28]
 923 022c 03F00301 		and	r1, r3, #3
 924 0230 BB68     		ldr	r3, [r7, #8]
 925 0232 5B00     		lsls	r3, r3, #1
 926 0234 1033     		adds	r3, r3, #16
 927 0236 01FA03F3 		lsl	r3, r1, r3
 928 023a 1343     		orrs	r3, r3, r2
  97:Generated_Source\PSoC6\pdl\drivers\peripheral\gpio/cy_gpio.c ****                             | ((config->driveSel & CY_GPIO_CFG_OUT_DRIVE_SEL_MASK) << ((uint32_t)(p
 929              		.loc 2 97 0
 930 023c 0360     		str	r3, [r0]
  99:Generated_Source\PSoC6\pdl\drivers\peripheral\gpio/cy_gpio.c **** 
 100:Generated_Source\PSoC6\pdl\drivers\peripheral\gpio/cy_gpio.c ****         /* SIO specific configuration */
 101:Generated_Source\PSoC6\pdl\drivers\peripheral\gpio/cy_gpio.c ****         tempReg = GPIO_PRT_CFG_SIO(base) & ~(CY_GPIO_SIO_PIN_MASK);
 931              		.loc 2 101 0
 932 023e 1D4B     		ldr	r3, .L54+8
 933 0240 1B68     		ldr	r3, [r3]
 934 0242 93F88030 		ldrb	r3, [r3, #128]	@ zero_extendqisi2
 935 0246 1A46     		mov	r2, r3
 936 0248 FB68     		ldr	r3, [r7, #12]
 937 024a 1344     		add	r3, r3, r2
 938 024c 1B68     		ldr	r3, [r3]
 939 024e 23F0FF03 		bic	r3, r3, #255
 940 0252 7B61     		str	r3, [r7, #20]
 102:Generated_Source\PSoC6\pdl\drivers\peripheral\gpio/cy_gpio.c ****         GPIO_PRT_CFG_SIO(base) = tempReg | (((config->vregEn & CY_GPIO_VREG_EN_MASK)
 941              		.loc 2 102 0
 942 0254 174B     		ldr	r3, .L54+8
 943 0256 1B68     		ldr	r3, [r3]
 944 0258 93F88030 		ldrb	r3, [r3, #128]	@ zero_extendqisi2
 945 025c 1A46     		mov	r2, r3
 946 025e FB68     		ldr	r3, [r7, #12]
 947 0260 1344     		add	r3, r3, r2
 948 0262 1946     		mov	r1, r3
 949 0264 7B68     		ldr	r3, [r7, #4]
 950 0266 1B6A     		ldr	r3, [r3, #32]
 951 0268 03F00102 		and	r2, r3, #1
 103:Generated_Source\PSoC6\pdl\drivers\peripheral\gpio/cy_gpio.c ****                                          | ((config->ibufMode & CY_GPIO_IBUF_MASK) << CY_GPIO_IBUF_
 952              		.loc 2 103 0
 953 026c 7B68     		ldr	r3, [r7, #4]
ARM GAS  C:\Users\stijn\AppData\Local\Temp\ccD3lQ9e.s 			page 51


 954 026e 5B6A     		ldr	r3, [r3, #36]
 955 0270 5B00     		lsls	r3, r3, #1
 956 0272 03F00203 		and	r3, r3, #2
 957 0276 1A43     		orrs	r2, r2, r3
 104:Generated_Source\PSoC6\pdl\drivers\peripheral\gpio/cy_gpio.c ****                                          | ((config->vtripSel & CY_GPIO_VTRIP_SEL_MASK) << CY_GPIO_
 958              		.loc 2 104 0
 959 0278 7B68     		ldr	r3, [r7, #4]
 960 027a 9B6A     		ldr	r3, [r3, #40]
 961 027c 9B00     		lsls	r3, r3, #2
 962 027e 03F00403 		and	r3, r3, #4
 963 0282 1A43     		orrs	r2, r2, r3
 105:Generated_Source\PSoC6\pdl\drivers\peripheral\gpio/cy_gpio.c ****                                          | ((config->vrefSel & CY_GPIO_VREF_SEL_MASK)  << CY_GPIO_V
 964              		.loc 2 105 0
 965 0284 7B68     		ldr	r3, [r7, #4]
 966 0286 DB6A     		ldr	r3, [r3, #44]
 967 0288 DB00     		lsls	r3, r3, #3
 968 028a 03F01803 		and	r3, r3, #24
 969 028e 1A43     		orrs	r2, r2, r3
 106:Generated_Source\PSoC6\pdl\drivers\peripheral\gpio/cy_gpio.c ****                                          | ((config->vohSel & CY_GPIO_VOH_SEL_MASK) << CY_GPIO_VOH_
 970              		.loc 2 106 0
 971 0290 7B68     		ldr	r3, [r7, #4]
 972 0292 1B6B     		ldr	r3, [r3, #48]
 973 0294 5B01     		lsls	r3, r3, #5
 974 0296 DBB2     		uxtb	r3, r3
 975 0298 1A43     		orrs	r2, r2, r3
 107:Generated_Source\PSoC6\pdl\drivers\peripheral\gpio/cy_gpio.c ****                                            << ((pinNum & CY_GPIO_SIO_ODD_PIN_MASK) << CY_GPIO_CFG_S
 976              		.loc 2 107 0
 977 029a BB68     		ldr	r3, [r7, #8]
 978 029c 9B00     		lsls	r3, r3, #2
 979 029e 03F47E73 		and	r3, r3, #1016
 980 02a2 9A40     		lsls	r2, r2, r3
 102:Generated_Source\PSoC6\pdl\drivers\peripheral\gpio/cy_gpio.c ****                                          | ((config->ibufMode & CY_GPIO_IBUF_MASK) << CY_GPIO_IBUF_
 981              		.loc 2 102 0
 982 02a4 7B69     		ldr	r3, [r7, #20]
 983 02a6 1343     		orrs	r3, r3, r2
 984 02a8 0B60     		str	r3, [r1]
 985 02aa 05E0     		b	.L55
 986              	.L56:
 987              		.align	2
 988              	.L54:
 989 02ac 01005A00 		.word	5898241
 990 02b0 40000000 		.word	.LC1
 991 02b4 00000000 		.word	cy_device
 992              	.L55:
 108:Generated_Source\PSoC6\pdl\drivers\peripheral\gpio/cy_gpio.c **** 
