ARM GAS  C:\Users\stijn\AppData\Local\Temp\ccLepBqo.s 			page 1


   1              		.syntax unified
   2              		.cpu cortex-m4
   3              		.eabi_attribute 27, 1
   4              		.fpu fpv4-sp-d16
   5              		.eabi_attribute 20, 1
   6              		.eabi_attribute 21, 1
   7              		.eabi_attribute 23, 3
   8              		.eabi_attribute 24, 1
   9              		.eabi_attribute 25, 1
  10              		.eabi_attribute 26, 1
  11              		.eabi_attribute 30, 6
  12              		.eabi_attribute 34, 1
  13              		.eabi_attribute 18, 4
  14              		.thumb
  15              		.syntax unified
  16              		.file	"cy_syslib.c"
  17              		.text
  18              	.Ltext0:
  19              		.cfi_sections	.debug_frame
  20              		.global	cy_assertFileName
  21              		.section	.noinit,"aw",%progbits
  22              		.align	2
  23              		.type	cy_assertFileName, %object
  24              		.size	cy_assertFileName, 24
  25              	cy_assertFileName:
  26 0000 00000000 		.space	24
  26      00000000 
  26      00000000 
  26      00000000 
  26      00000000 
  27              		.global	cy_assertLine
  28              		.align	2
  29              		.type	cy_assertLine, %object
  30              		.size	cy_assertLine, 4
  31              	cy_assertLine:
  32 0018 00000000 		.space	4
  33              		.global	cy_faultFrame
  34              		.align	2
  35              		.type	cy_faultFrame, %object
  36              		.size	cy_faultFrame, 120
  37              	cy_faultFrame:
  38 001c 00000000 		.space	120
  38      00000000 
  38      00000000 
  38      00000000 
  38      00000000 
  39              		.section	.text.Cy_SysLib_Delay,"ax",%progbits
  40              		.align	2
  41              		.global	Cy_SysLib_Delay
  42              		.thumb
  43              		.thumb_func
  44              		.type	Cy_SysLib_Delay, %function
  45              	Cy_SysLib_Delay:
  46              	.LFB151:
  47              		.file 1 "Generated_Source\\PSoC6\\pdl\\drivers\\peripheral\\syslib\\cy_syslib.c"
   1:Generated_Source\PSoC6\pdl\drivers\peripheral\syslib/cy_syslib.c **** /***************************************************************************//**
   2:Generated_Source\PSoC6\pdl\drivers\peripheral\syslib/cy_syslib.c **** * \file cy_syslib.c
ARM GAS  C:\Users\stijn\AppData\Local\Temp\ccLepBqo.s 			page 2


   3:Generated_Source\PSoC6\pdl\drivers\peripheral\syslib/cy_syslib.c **** * \version 2.10
   4:Generated_Source\PSoC6\pdl\drivers\peripheral\syslib/cy_syslib.c **** *
   5:Generated_Source\PSoC6\pdl\drivers\peripheral\syslib/cy_syslib.c **** *  Description:
   6:Generated_Source\PSoC6\pdl\drivers\peripheral\syslib/cy_syslib.c **** *   Provides system API implementation for the SysLib driver.
   7:Generated_Source\PSoC6\pdl\drivers\peripheral\syslib/cy_syslib.c **** *
   8:Generated_Source\PSoC6\pdl\drivers\peripheral\syslib/cy_syslib.c **** ********************************************************************************
   9:Generated_Source\PSoC6\pdl\drivers\peripheral\syslib/cy_syslib.c **** * Copyright 2016-2018, Cypress Semiconductor Corporation. All rights reserved.
  10:Generated_Source\PSoC6\pdl\drivers\peripheral\syslib/cy_syslib.c **** * You may use this file only in accordance with the license, terms, conditions,
  11:Generated_Source\PSoC6\pdl\drivers\peripheral\syslib/cy_syslib.c **** * disclaimers, and limitations in the end user license agreement accompanying
  12:Generated_Source\PSoC6\pdl\drivers\peripheral\syslib/cy_syslib.c **** * the software package with which this file was provided.
  13:Generated_Source\PSoC6\pdl\drivers\peripheral\syslib/cy_syslib.c **** *******************************************************************************/
  14:Generated_Source\PSoC6\pdl\drivers\peripheral\syslib/cy_syslib.c **** 
  15:Generated_Source\PSoC6\pdl\drivers\peripheral\syslib/cy_syslib.c **** #include "cy_syslib.h"
  16:Generated_Source\PSoC6\pdl\drivers\peripheral\syslib/cy_syslib.c **** #include "cy_ipc_drv.h"
  17:Generated_Source\PSoC6\pdl\drivers\peripheral\syslib/cy_syslib.c **** #if !defined(NDEBUG)
  18:Generated_Source\PSoC6\pdl\drivers\peripheral\syslib/cy_syslib.c ****     #include <string.h>
  19:Generated_Source\PSoC6\pdl\drivers\peripheral\syslib/cy_syslib.c **** #endif /* NDEBUG */
  20:Generated_Source\PSoC6\pdl\drivers\peripheral\syslib/cy_syslib.c **** 
  21:Generated_Source\PSoC6\pdl\drivers\peripheral\syslib/cy_syslib.c **** /* Flash wait states (ULP mode at 0.9v) */
  22:Generated_Source\PSoC6\pdl\drivers\peripheral\syslib/cy_syslib.c **** #define CY_SYSLIB_FLASH_ULP_WS_0_FREQ_MAX    ( 16UL)
  23:Generated_Source\PSoC6\pdl\drivers\peripheral\syslib/cy_syslib.c **** #define CY_SYSLIB_FLASH_ULP_WS_1_FREQ_MAX    ( 33UL)
  24:Generated_Source\PSoC6\pdl\drivers\peripheral\syslib/cy_syslib.c **** #define CY_SYSLIB_FLASH_ULP_WS_2_FREQ_MAX    ( 50UL)
  25:Generated_Source\PSoC6\pdl\drivers\peripheral\syslib/cy_syslib.c **** 
  26:Generated_Source\PSoC6\pdl\drivers\peripheral\syslib/cy_syslib.c **** /* ROM and SRAM wait states for the slow clock domain (LP mode at 1.1v) */
  27:Generated_Source\PSoC6\pdl\drivers\peripheral\syslib/cy_syslib.c **** #define CY_SYSLIB_LP_SLOW_WS_0_FREQ_MAX      (100UL)
  28:Generated_Source\PSoC6\pdl\drivers\peripheral\syslib/cy_syslib.c **** #define CY_SYSLIB_LP_SLOW_WS_1_FREQ_MAX      (120UL)
  29:Generated_Source\PSoC6\pdl\drivers\peripheral\syslib/cy_syslib.c **** 
  30:Generated_Source\PSoC6\pdl\drivers\peripheral\syslib/cy_syslib.c **** /* ROM and SRAM wait states for the slow clock domain (ULP mode at 0.9v) */
  31:Generated_Source\PSoC6\pdl\drivers\peripheral\syslib/cy_syslib.c **** #define CY_SYSLIB_ULP_SLOW_WS_0_FREQ_MAX     ( 25UL)
  32:Generated_Source\PSoC6\pdl\drivers\peripheral\syslib/cy_syslib.c **** #define CY_SYSLIB_ULP_SLOW_WS_1_FREQ_MAX     ( 50UL)
  33:Generated_Source\PSoC6\pdl\drivers\peripheral\syslib/cy_syslib.c **** 
  34:Generated_Source\PSoC6\pdl\drivers\peripheral\syslib/cy_syslib.c **** 
  35:Generated_Source\PSoC6\pdl\drivers\peripheral\syslib/cy_syslib.c **** #if !defined(NDEBUG)
  36:Generated_Source\PSoC6\pdl\drivers\peripheral\syslib/cy_syslib.c ****     CY_NOINIT char_t cy_assertFileName[CY_MAX_FILE_NAME_SIZE];
  37:Generated_Source\PSoC6\pdl\drivers\peripheral\syslib/cy_syslib.c ****     CY_NOINIT uint32_t cy_assertLine;
  38:Generated_Source\PSoC6\pdl\drivers\peripheral\syslib/cy_syslib.c **** #endif /* NDEBUG */
  39:Generated_Source\PSoC6\pdl\drivers\peripheral\syslib/cy_syslib.c **** 
  40:Generated_Source\PSoC6\pdl\drivers\peripheral\syslib/cy_syslib.c **** #if (CY_ARM_FAULT_DEBUG == CY_ARM_FAULT_DEBUG_ENABLED)
  41:Generated_Source\PSoC6\pdl\drivers\peripheral\syslib/cy_syslib.c ****     CY_NOINIT cy_stc_fault_frame_t cy_faultFrame;
  42:Generated_Source\PSoC6\pdl\drivers\peripheral\syslib/cy_syslib.c **** #endif /* (CY_ARM_FAULT_DEBUG == CY_ARM_FAULT_DEBUG_ENABLED) */
  43:Generated_Source\PSoC6\pdl\drivers\peripheral\syslib/cy_syslib.c **** 
  44:Generated_Source\PSoC6\pdl\drivers\peripheral\syslib/cy_syslib.c **** #if defined(__ARMCC_VERSION)
  45:Generated_Source\PSoC6\pdl\drivers\peripheral\syslib/cy_syslib.c ****     static __ASM void Cy_SysLib_AsmInfiniteLoop(void) { b . };
  46:Generated_Source\PSoC6\pdl\drivers\peripheral\syslib/cy_syslib.c **** #endif  /* (__ARMCC_VERSION) */
  47:Generated_Source\PSoC6\pdl\drivers\peripheral\syslib/cy_syslib.c **** 
  48:Generated_Source\PSoC6\pdl\drivers\peripheral\syslib/cy_syslib.c **** 
  49:Generated_Source\PSoC6\pdl\drivers\peripheral\syslib/cy_syslib.c **** /*******************************************************************************
  50:Generated_Source\PSoC6\pdl\drivers\peripheral\syslib/cy_syslib.c **** * Function Name: Cy_SysLib_Delay
  51:Generated_Source\PSoC6\pdl\drivers\peripheral\syslib/cy_syslib.c **** ****************************************************************************//**
  52:Generated_Source\PSoC6\pdl\drivers\peripheral\syslib/cy_syslib.c **** *
  53:Generated_Source\PSoC6\pdl\drivers\peripheral\syslib/cy_syslib.c **** * The function delays by the specified number of milliseconds.
  54:Generated_Source\PSoC6\pdl\drivers\peripheral\syslib/cy_syslib.c **** * By default, the number of cycles to delay is calculated based on the
  55:Generated_Source\PSoC6\pdl\drivers\peripheral\syslib/cy_syslib.c **** * \ref SystemCoreClock.
  56:Generated_Source\PSoC6\pdl\drivers\peripheral\syslib/cy_syslib.c **** *
  57:Generated_Source\PSoC6\pdl\drivers\peripheral\syslib/cy_syslib.c **** * \param milliseconds  The number of milliseconds to delay.
  58:Generated_Source\PSoC6\pdl\drivers\peripheral\syslib/cy_syslib.c **** *
  59:Generated_Source\PSoC6\pdl\drivers\peripheral\syslib/cy_syslib.c **** * \note The function calls \ref Cy_SysLib_DelayCycles() API to generate a delay.
ARM GAS  C:\Users\stijn\AppData\Local\Temp\ccLepBqo.s 			page 3


  60:Generated_Source\PSoC6\pdl\drivers\peripheral\syslib/cy_syslib.c **** *       If the function parameter (milliseconds) is bigger than 
  61:Generated_Source\PSoC6\pdl\drivers\peripheral\syslib/cy_syslib.c **** *       CY_DELAY_MS_OVERFLOW constant, then an additional loop runs to prevent
  62:Generated_Source\PSoC6\pdl\drivers\peripheral\syslib/cy_syslib.c **** *       an overflow in parameter passed to \ref Cy_SysLib_DelayCycles() API.
  63:Generated_Source\PSoC6\pdl\drivers\peripheral\syslib/cy_syslib.c **** *
  64:Generated_Source\PSoC6\pdl\drivers\peripheral\syslib/cy_syslib.c **** *******************************************************************************/
  65:Generated_Source\PSoC6\pdl\drivers\peripheral\syslib/cy_syslib.c **** void Cy_SysLib_Delay(uint32_t milliseconds)
  66:Generated_Source\PSoC6\pdl\drivers\peripheral\syslib/cy_syslib.c **** {
  48              		.loc 1 66 0
  49              		.cfi_startproc
  50              		@ args = 0, pretend = 0, frame = 8
  51              		@ frame_needed = 1, uses_anonymous_args = 0
  52 0000 80B5     		push	{r7, lr}
  53              		.cfi_def_cfa_offset 8
  54              		.cfi_offset 7, -8
  55              		.cfi_offset 14, -4
  56 0002 82B0     		sub	sp, sp, #8
  57              		.cfi_def_cfa_offset 16
  58 0004 00AF     		add	r7, sp, #0
  59              		.cfi_def_cfa_register 7
  60 0006 7860     		str	r0, [r7, #4]
  67:Generated_Source\PSoC6\pdl\drivers\peripheral\syslib/cy_syslib.c ****     while(milliseconds > CY_DELAY_MS_OVERFLOW)
  61              		.loc 1 67 0
  62 0008 08E0     		b	.L2
  63              	.L3:
  68:Generated_Source\PSoC6\pdl\drivers\peripheral\syslib/cy_syslib.c ****     {
  69:Generated_Source\PSoC6\pdl\drivers\peripheral\syslib/cy_syslib.c ****         /* This loop prevents an overflow in value passed to Cy_SysLib_DelayCycles() API.
  70:Generated_Source\PSoC6\pdl\drivers\peripheral\syslib/cy_syslib.c ****          * At 100 MHz, (milliseconds * cy_delayFreqKhz) product overflows
  71:Generated_Source\PSoC6\pdl\drivers\peripheral\syslib/cy_syslib.c ****          * in case if milliseconds parameter is more than 42 seconds.
  72:Generated_Source\PSoC6\pdl\drivers\peripheral\syslib/cy_syslib.c ****          */
  73:Generated_Source\PSoC6\pdl\drivers\peripheral\syslib/cy_syslib.c ****         Cy_SysLib_DelayCycles(cy_delay32kMs);
  64              		.loc 1 73 0
  65 000a 0C4B     		ldr	r3, .L4
  66 000c 1B68     		ldr	r3, [r3]
  67 000e 1846     		mov	r0, r3
  68 0010 FFF7FEFF 		bl	Cy_SysLib_DelayCycles
  74:Generated_Source\PSoC6\pdl\drivers\peripheral\syslib/cy_syslib.c ****         milliseconds -= CY_DELAY_MS_OVERFLOW;
  69              		.loc 1 74 0
  70 0014 7B68     		ldr	r3, [r7, #4]
  71 0016 A3F50043 		sub	r3, r3, #32768
  72 001a 7B60     		str	r3, [r7, #4]
  73              	.L2:
  67:Generated_Source\PSoC6\pdl\drivers\peripheral\syslib/cy_syslib.c ****     while(milliseconds > CY_DELAY_MS_OVERFLOW)
  74              		.loc 1 67 0
  75 001c 7B68     		ldr	r3, [r7, #4]
  76 001e B3F5004F 		cmp	r3, #32768
  77 0022 F2D8     		bhi	.L3
  75:Generated_Source\PSoC6\pdl\drivers\peripheral\syslib/cy_syslib.c ****     }
  76:Generated_Source\PSoC6\pdl\drivers\peripheral\syslib/cy_syslib.c **** 
  77:Generated_Source\PSoC6\pdl\drivers\peripheral\syslib/cy_syslib.c ****     Cy_SysLib_DelayCycles(milliseconds * cy_delayFreqKhz);
  78              		.loc 1 77 0
  79 0024 064B     		ldr	r3, .L4+4
  80 0026 1B68     		ldr	r3, [r3]
  81 0028 7A68     		ldr	r2, [r7, #4]
  82 002a 02FB03F3 		mul	r3, r2, r3
  83 002e 1846     		mov	r0, r3
  84 0030 FFF7FEFF 		bl	Cy_SysLib_DelayCycles
  78:Generated_Source\PSoC6\pdl\drivers\peripheral\syslib/cy_syslib.c **** }
ARM GAS  C:\Users\stijn\AppData\Local\Temp\ccLepBqo.s 			page 4


  85              		.loc 1 78 0
  86 0034 00BF     		nop
  87 0036 0837     		adds	r7, r7, #8
  88              		.cfi_def_cfa_offset 8
  89 0038 BD46     		mov	sp, r7
  90              		.cfi_def_cfa_register 13
  91              		@ sp needed
  92 003a 80BD     		pop	{r7, pc}
  93              	.L5:
  94              		.align	2
  95              	.L4:
  96 003c 00000000 		.word	cy_delay32kMs
  97 0040 00000000 		.word	cy_delayFreqKhz
  98              		.cfi_endproc
  99              	.LFE151:
 100              		.size	Cy_SysLib_Delay, .-Cy_SysLib_Delay
 101              		.section	.text.Cy_SysLib_DelayUs,"ax",%progbits
 102              		.align	2
 103              		.global	Cy_SysLib_DelayUs
 104              		.thumb
 105              		.thumb_func
 106              		.type	Cy_SysLib_DelayUs, %function
 107              	Cy_SysLib_DelayUs:
 108              	.LFB152:
  79:Generated_Source\PSoC6\pdl\drivers\peripheral\syslib/cy_syslib.c **** 
  80:Generated_Source\PSoC6\pdl\drivers\peripheral\syslib/cy_syslib.c **** 
  81:Generated_Source\PSoC6\pdl\drivers\peripheral\syslib/cy_syslib.c **** /*******************************************************************************
  82:Generated_Source\PSoC6\pdl\drivers\peripheral\syslib/cy_syslib.c **** * Function Name: Cy_SysLib_DelayUs
  83:Generated_Source\PSoC6\pdl\drivers\peripheral\syslib/cy_syslib.c **** ****************************************************************************//**
  84:Generated_Source\PSoC6\pdl\drivers\peripheral\syslib/cy_syslib.c **** *
  85:Generated_Source\PSoC6\pdl\drivers\peripheral\syslib/cy_syslib.c **** * The function delays by the specified number of microseconds.
  86:Generated_Source\PSoC6\pdl\drivers\peripheral\syslib/cy_syslib.c **** * By default, the number of cycles to delay is calculated based on the
  87:Generated_Source\PSoC6\pdl\drivers\peripheral\syslib/cy_syslib.c **** * \ref SystemCoreClock.
  88:Generated_Source\PSoC6\pdl\drivers\peripheral\syslib/cy_syslib.c **** *
  89:Generated_Source\PSoC6\pdl\drivers\peripheral\syslib/cy_syslib.c **** * \param microseconds  The number of microseconds to delay.
  90:Generated_Source\PSoC6\pdl\drivers\peripheral\syslib/cy_syslib.c **** *
  91:Generated_Source\PSoC6\pdl\drivers\peripheral\syslib/cy_syslib.c **** * \note If the CPU frequency is a small non-integer number, the actual delay
  92:Generated_Source\PSoC6\pdl\drivers\peripheral\syslib/cy_syslib.c **** *       can be up to twice as long as the nominal value. The actual delay
  93:Generated_Source\PSoC6\pdl\drivers\peripheral\syslib/cy_syslib.c **** *       cannot be shorter than the nominal one.
  94:Generated_Source\PSoC6\pdl\drivers\peripheral\syslib/cy_syslib.c **** *
  95:Generated_Source\PSoC6\pdl\drivers\peripheral\syslib/cy_syslib.c **** *******************************************************************************/
  96:Generated_Source\PSoC6\pdl\drivers\peripheral\syslib/cy_syslib.c **** void Cy_SysLib_DelayUs(uint16_t microseconds)
  97:Generated_Source\PSoC6\pdl\drivers\peripheral\syslib/cy_syslib.c **** {
 109              		.loc 1 97 0
 110              		.cfi_startproc
 111              		@ args = 0, pretend = 0, frame = 8
 112              		@ frame_needed = 1, uses_anonymous_args = 0
 113 0000 80B5     		push	{r7, lr}
 114              		.cfi_def_cfa_offset 8
 115              		.cfi_offset 7, -8
 116              		.cfi_offset 14, -4
 117 0002 82B0     		sub	sp, sp, #8
 118              		.cfi_def_cfa_offset 16
 119 0004 00AF     		add	r7, sp, #0
 120              		.cfi_def_cfa_register 7
 121 0006 0346     		mov	r3, r0
 122 0008 FB80     		strh	r3, [r7, #6]	@ movhi
ARM GAS  C:\Users\stijn\AppData\Local\Temp\ccLepBqo.s 			page 5


  98:Generated_Source\PSoC6\pdl\drivers\peripheral\syslib/cy_syslib.c ****     Cy_SysLib_DelayCycles((uint32_t) microseconds * cy_delayFreqMhz);
 123              		.loc 1 98 0
 124 000a FB88     		ldrh	r3, [r7, #6]
 125 000c 054A     		ldr	r2, .L7
 126 000e 1278     		ldrb	r2, [r2]	@ zero_extendqisi2
 127 0010 02FB03F3 		mul	r3, r2, r3
 128 0014 1846     		mov	r0, r3
 129 0016 FFF7FEFF 		bl	Cy_SysLib_DelayCycles
  99:Generated_Source\PSoC6\pdl\drivers\peripheral\syslib/cy_syslib.c **** }
 130              		.loc 1 99 0
 131 001a 00BF     		nop
 132 001c 0837     		adds	r7, r7, #8
 133              		.cfi_def_cfa_offset 8
 134 001e BD46     		mov	sp, r7
 135              		.cfi_def_cfa_register 13
 136              		@ sp needed
 137 0020 80BD     		pop	{r7, pc}
 138              	.L8:
 139 0022 00BF     		.align	2
 140              	.L7:
 141 0024 00000000 		.word	cy_delayFreqMhz
 142              		.cfi_endproc
 143              	.LFE152:
 144              		.size	Cy_SysLib_DelayUs, .-Cy_SysLib_DelayUs
 145              		.section	.text.Cy_SysLib_Halt,"ax",%progbits
 146              		.align	2
 147              		.global	Cy_SysLib_Halt
 148              		.thumb
 149              		.thumb_func
 150              		.type	Cy_SysLib_Halt, %function
 151              	Cy_SysLib_Halt:
 152              	.LFB153:
 100:Generated_Source\PSoC6\pdl\drivers\peripheral\syslib/cy_syslib.c **** 
 101:Generated_Source\PSoC6\pdl\drivers\peripheral\syslib/cy_syslib.c **** 
 102:Generated_Source\PSoC6\pdl\drivers\peripheral\syslib/cy_syslib.c **** /*******************************************************************************
 103:Generated_Source\PSoC6\pdl\drivers\peripheral\syslib/cy_syslib.c **** * Function Name: Cy_SysLib_Halt
 104:Generated_Source\PSoC6\pdl\drivers\peripheral\syslib/cy_syslib.c **** ****************************************************************************//**
 105:Generated_Source\PSoC6\pdl\drivers\peripheral\syslib/cy_syslib.c **** *
 106:Generated_Source\PSoC6\pdl\drivers\peripheral\syslib/cy_syslib.c **** * This function halts the CPU but only the CPU which calls the function.
 107:Generated_Source\PSoC6\pdl\drivers\peripheral\syslib/cy_syslib.c **** * It doesn't affect other CPUs.
 108:Generated_Source\PSoC6\pdl\drivers\peripheral\syslib/cy_syslib.c **** *
 109:Generated_Source\PSoC6\pdl\drivers\peripheral\syslib/cy_syslib.c **** * \param reason  The value to be used during debugging.
 110:Generated_Source\PSoC6\pdl\drivers\peripheral\syslib/cy_syslib.c **** *
 111:Generated_Source\PSoC6\pdl\drivers\peripheral\syslib/cy_syslib.c **** * \note The function executes the BKPT instruction for halting CPU and is
 112:Generated_Source\PSoC6\pdl\drivers\peripheral\syslib/cy_syslib.c **** *       intended to be used for the debug purpose. A regular use case requires
 113:Generated_Source\PSoC6\pdl\drivers\peripheral\syslib/cy_syslib.c **** *       Debugger attachment before the function call.
 114:Generated_Source\PSoC6\pdl\drivers\peripheral\syslib/cy_syslib.c **** *       The BKPT instruction causes the CPU to enter the Debug state. Debug
 115:Generated_Source\PSoC6\pdl\drivers\peripheral\syslib/cy_syslib.c **** *       tools can use this to investigate the system state, when the
 116:Generated_Source\PSoC6\pdl\drivers\peripheral\syslib/cy_syslib.c **** *       instruction at a particular address is reached.
 117:Generated_Source\PSoC6\pdl\drivers\peripheral\syslib/cy_syslib.c **** *
 118:Generated_Source\PSoC6\pdl\drivers\peripheral\syslib/cy_syslib.c **** * \note Execution of a BKPT instruction without a debugger attached produces
 119:Generated_Source\PSoC6\pdl\drivers\peripheral\syslib/cy_syslib.c **** *       a fault. The fault results in the HardFault exception being taken
 120:Generated_Source\PSoC6\pdl\drivers\peripheral\syslib/cy_syslib.c **** *       or causes a Lockup state if it occurs in the NMI or HardFault handler.
 121:Generated_Source\PSoC6\pdl\drivers\peripheral\syslib/cy_syslib.c **** *       The default HardFault handler make a software reset if the build option
 122:Generated_Source\PSoC6\pdl\drivers\peripheral\syslib/cy_syslib.c **** *       is the release mode (NDEBUG). If the build option is the debug mode,
 123:Generated_Source\PSoC6\pdl\drivers\peripheral\syslib/cy_syslib.c **** *       the system will stay in the infinite loop of the
 124:Generated_Source\PSoC6\pdl\drivers\peripheral\syslib/cy_syslib.c **** *       \ref Cy_SysLib_ProcessingFault() function.
ARM GAS  C:\Users\stijn\AppData\Local\Temp\ccLepBqo.s 			page 6


 125:Generated_Source\PSoC6\pdl\drivers\peripheral\syslib/cy_syslib.c **** *
 126:Generated_Source\PSoC6\pdl\drivers\peripheral\syslib/cy_syslib.c **** *******************************************************************************/
 127:Generated_Source\PSoC6\pdl\drivers\peripheral\syslib/cy_syslib.c **** __NO_RETURN void Cy_SysLib_Halt(uint32_t reason)
 128:Generated_Source\PSoC6\pdl\drivers\peripheral\syslib/cy_syslib.c **** {
 153              		.loc 1 128 0
 154              		.cfi_startproc
 155              		@ args = 0, pretend = 0, frame = 8
 156              		@ frame_needed = 1, uses_anonymous_args = 0
 157              		@ link register save eliminated.
 158 0000 80B4     		push	{r7}
 159              		.cfi_def_cfa_offset 4
 160              		.cfi_offset 7, -4
 161 0002 83B0     		sub	sp, sp, #12
 162              		.cfi_def_cfa_offset 16
 163 0004 00AF     		add	r7, sp, #0
 164              		.cfi_def_cfa_register 7
 165 0006 7860     		str	r0, [r7, #4]
 129:Generated_Source\PSoC6\pdl\drivers\peripheral\syslib/cy_syslib.c ****     if(0U != reason)
 130:Generated_Source\PSoC6\pdl\drivers\peripheral\syslib/cy_syslib.c ****     {
 131:Generated_Source\PSoC6\pdl\drivers\peripheral\syslib/cy_syslib.c ****         /* To remove an unreferenced local variable warning */
 132:Generated_Source\PSoC6\pdl\drivers\peripheral\syslib/cy_syslib.c ****     }
 133:Generated_Source\PSoC6\pdl\drivers\peripheral\syslib/cy_syslib.c **** 
 134:Generated_Source\PSoC6\pdl\drivers\peripheral\syslib/cy_syslib.c ****     #if defined (__ARMCC_VERSION)
 135:Generated_Source\PSoC6\pdl\drivers\peripheral\syslib/cy_syslib.c ****         __breakpoint(0x0);
 136:Generated_Source\PSoC6\pdl\drivers\peripheral\syslib/cy_syslib.c ****     #elif defined(__GNUC__)
 137:Generated_Source\PSoC6\pdl\drivers\peripheral\syslib/cy_syslib.c ****         __asm("    bkpt    1");
 166              		.loc 1 137 0
 167              		.syntax unified
 168              	@ 137 "Generated_Source\PSoC6\pdl\drivers\peripheral\syslib\cy_syslib.c" 1
 169 0008 01BE     		    bkpt    1
 170              	@ 0 "" 2
 171              		.thumb
 172              		.syntax unified
 173              	.L10:
 138:Generated_Source\PSoC6\pdl\drivers\peripheral\syslib/cy_syslib.c ****     #elif defined (__ICCARM__)
 139:Generated_Source\PSoC6\pdl\drivers\peripheral\syslib/cy_syslib.c ****         __asm("    bkpt    1");
 140:Generated_Source\PSoC6\pdl\drivers\peripheral\syslib/cy_syslib.c ****     #else
 141:Generated_Source\PSoC6\pdl\drivers\peripheral\syslib/cy_syslib.c ****         #error "An unsupported toolchain"
 142:Generated_Source\PSoC6\pdl\drivers\peripheral\syslib/cy_syslib.c ****     #endif  /* (__ARMCC_VERSION) */
 143:Generated_Source\PSoC6\pdl\drivers\peripheral\syslib/cy_syslib.c **** 
 144:Generated_Source\PSoC6\pdl\drivers\peripheral\syslib/cy_syslib.c ****     while(1) {}
 174              		.loc 1 144 0 discriminator 1
 175 000a FEE7     		b	.L10
 176              		.cfi_endproc
 177              	.LFE153:
 178              		.size	Cy_SysLib_Halt, .-Cy_SysLib_Halt
 179              		.section	.text.Cy_SysLib_AssertFailed,"ax",%progbits
 180              		.align	2
 181              		.weak	Cy_SysLib_AssertFailed
 182              		.thumb
 183              		.thumb_func
 184              		.type	Cy_SysLib_AssertFailed, %function
 185              	Cy_SysLib_AssertFailed:
 186              	.LFB154:
 145:Generated_Source\PSoC6\pdl\drivers\peripheral\syslib/cy_syslib.c **** }
 146:Generated_Source\PSoC6\pdl\drivers\peripheral\syslib/cy_syslib.c **** 
 147:Generated_Source\PSoC6\pdl\drivers\peripheral\syslib/cy_syslib.c **** 
ARM GAS  C:\Users\stijn\AppData\Local\Temp\ccLepBqo.s 			page 7


 148:Generated_Source\PSoC6\pdl\drivers\peripheral\syslib/cy_syslib.c **** #if !defined(NDEBUG) || defined(CY_DOXYGEN)
 149:Generated_Source\PSoC6\pdl\drivers\peripheral\syslib/cy_syslib.c **** /*******************************************************************************
 150:Generated_Source\PSoC6\pdl\drivers\peripheral\syslib/cy_syslib.c **** * Macro Name: Cy_SysLib_AssertFailed
 151:Generated_Source\PSoC6\pdl\drivers\peripheral\syslib/cy_syslib.c **** ****************************************************************************//**
 152:Generated_Source\PSoC6\pdl\drivers\peripheral\syslib/cy_syslib.c **** *
 153:Generated_Source\PSoC6\pdl\drivers\peripheral\syslib/cy_syslib.c **** * This function stores the ASSERT location of the file name (including path
 154:Generated_Source\PSoC6\pdl\drivers\peripheral\syslib/cy_syslib.c **** * to file) and line number in a non-zero init area for debugging. Also it calls
 155:Generated_Source\PSoC6\pdl\drivers\peripheral\syslib/cy_syslib.c **** * the \ref Cy_SysLib_Halt() function to halt the processor.
 156:Generated_Source\PSoC6\pdl\drivers\peripheral\syslib/cy_syslib.c **** *
 157:Generated_Source\PSoC6\pdl\drivers\peripheral\syslib/cy_syslib.c **** * \param file  The file name of the ASSERT location.
 158:Generated_Source\PSoC6\pdl\drivers\peripheral\syslib/cy_syslib.c **** * \param line  The line number of the ASSERT location.
 159:Generated_Source\PSoC6\pdl\drivers\peripheral\syslib/cy_syslib.c **** *
 160:Generated_Source\PSoC6\pdl\drivers\peripheral\syslib/cy_syslib.c **** * \note A stored file name and line number could be accessed by
 161:Generated_Source\PSoC6\pdl\drivers\peripheral\syslib/cy_syslib.c **** *       cy_assertFileName and cy_assertLine global variables.
 162:Generated_Source\PSoC6\pdl\drivers\peripheral\syslib/cy_syslib.c **** * \note This function has the WEAK option, so the user can redefine
 163:Generated_Source\PSoC6\pdl\drivers\peripheral\syslib/cy_syslib.c **** *       the function for a custom processing.
 164:Generated_Source\PSoC6\pdl\drivers\peripheral\syslib/cy_syslib.c **** *
 165:Generated_Source\PSoC6\pdl\drivers\peripheral\syslib/cy_syslib.c **** *******************************************************************************/
 166:Generated_Source\PSoC6\pdl\drivers\peripheral\syslib/cy_syslib.c **** __WEAK void Cy_SysLib_AssertFailed(const char_t * file, uint32_t line)
 167:Generated_Source\PSoC6\pdl\drivers\peripheral\syslib/cy_syslib.c **** {
 187              		.loc 1 167 0
 188              		.cfi_startproc
 189              		@ args = 0, pretend = 0, frame = 8
 190              		@ frame_needed = 1, uses_anonymous_args = 0
 191 0000 80B5     		push	{r7, lr}
 192              		.cfi_def_cfa_offset 8
 193              		.cfi_offset 7, -8
 194              		.cfi_offset 14, -4
 195 0002 82B0     		sub	sp, sp, #8
 196              		.cfi_def_cfa_offset 16
 197 0004 00AF     		add	r7, sp, #0
 198              		.cfi_def_cfa_register 7
 199 0006 7860     		str	r0, [r7, #4]
 200 0008 3960     		str	r1, [r7]
 168:Generated_Source\PSoC6\pdl\drivers\peripheral\syslib/cy_syslib.c ****     (void) strncpy(cy_assertFileName, file, CY_MAX_FILE_NAME_SIZE);
 201              		.loc 1 168 0
 202 000a 1822     		movs	r2, #24
 203 000c 7968     		ldr	r1, [r7, #4]
 204 000e 0448     		ldr	r0, .L12
 205 0010 FFF7FEFF 		bl	strncpy
 169:Generated_Source\PSoC6\pdl\drivers\peripheral\syslib/cy_syslib.c ****     cy_assertLine = line;
 206              		.loc 1 169 0
 207 0014 034A     		ldr	r2, .L12+4
 208 0016 3B68     		ldr	r3, [r7]
 209 0018 1360     		str	r3, [r2]
 170:Generated_Source\PSoC6\pdl\drivers\peripheral\syslib/cy_syslib.c ****     Cy_SysLib_Halt(0UL);
 210              		.loc 1 170 0
 211 001a 0020     		movs	r0, #0
 212 001c FFF7FEFF 		bl	Cy_SysLib_Halt
 213              	.L13:
 214              		.align	2
 215              	.L12:
 216 0020 00000000 		.word	cy_assertFileName
 217 0024 00000000 		.word	cy_assertLine
 218              		.cfi_endproc
 219              	.LFE154:
 220              		.size	Cy_SysLib_AssertFailed, .-Cy_SysLib_AssertFailed
ARM GAS  C:\Users\stijn\AppData\Local\Temp\ccLepBqo.s 			page 8


 221              		.section	.text.Cy_SysLib_ClearFlashCacheAndBuffer,"ax",%progbits
 222              		.align	2
 223              		.global	Cy_SysLib_ClearFlashCacheAndBuffer
 224              		.thumb
 225              		.thumb_func
 226              		.type	Cy_SysLib_ClearFlashCacheAndBuffer, %function
 227              	Cy_SysLib_ClearFlashCacheAndBuffer:
 228              	.LFB155:
 171:Generated_Source\PSoC6\pdl\drivers\peripheral\syslib/cy_syslib.c **** }
 172:Generated_Source\PSoC6\pdl\drivers\peripheral\syslib/cy_syslib.c **** #endif  /* !defined(NDEBUG) || defined(CY_DOXYGEN) */
 173:Generated_Source\PSoC6\pdl\drivers\peripheral\syslib/cy_syslib.c **** 
 174:Generated_Source\PSoC6\pdl\drivers\peripheral\syslib/cy_syslib.c **** 
 175:Generated_Source\PSoC6\pdl\drivers\peripheral\syslib/cy_syslib.c **** /*******************************************************************************
 176:Generated_Source\PSoC6\pdl\drivers\peripheral\syslib/cy_syslib.c **** * Function Name: Cy_SysLib_ClearFlashCacheAndBuffer
 177:Generated_Source\PSoC6\pdl\drivers\peripheral\syslib/cy_syslib.c **** ****************************************************************************//**
 178:Generated_Source\PSoC6\pdl\drivers\peripheral\syslib/cy_syslib.c **** *
 179:Generated_Source\PSoC6\pdl\drivers\peripheral\syslib/cy_syslib.c **** * This function invalidates the flash cache and buffer. It ensures the valid
 180:Generated_Source\PSoC6\pdl\drivers\peripheral\syslib/cy_syslib.c **** * data is read from flash instead of using outdated data from the cache.
 181:Generated_Source\PSoC6\pdl\drivers\peripheral\syslib/cy_syslib.c **** * The caches' LRU structure is also reset to their default state.
 182:Generated_Source\PSoC6\pdl\drivers\peripheral\syslib/cy_syslib.c **** *
 183:Generated_Source\PSoC6\pdl\drivers\peripheral\syslib/cy_syslib.c **** * \note The operation takes a maximum of three clock cycles on the slowest of
 184:Generated_Source\PSoC6\pdl\drivers\peripheral\syslib/cy_syslib.c **** *       the clk_slow and clk_fast clocks.
 185:Generated_Source\PSoC6\pdl\drivers\peripheral\syslib/cy_syslib.c **** *
 186:Generated_Source\PSoC6\pdl\drivers\peripheral\syslib/cy_syslib.c **** *******************************************************************************/
 187:Generated_Source\PSoC6\pdl\drivers\peripheral\syslib/cy_syslib.c **** void Cy_SysLib_ClearFlashCacheAndBuffer(void)
 188:Generated_Source\PSoC6\pdl\drivers\peripheral\syslib/cy_syslib.c **** {
 229              		.loc 1 188 0
 230              		.cfi_startproc
 231              		@ args = 0, pretend = 0, frame = 0
 232              		@ frame_needed = 1, uses_anonymous_args = 0
 233              		@ link register save eliminated.
 234 0000 80B4     		push	{r7}
 235              		.cfi_def_cfa_offset 4
 236              		.cfi_offset 7, -4
 237 0002 00AF     		add	r7, sp, #0
 238              		.cfi_def_cfa_register 7
 189:Generated_Source\PSoC6\pdl\drivers\peripheral\syslib/cy_syslib.c ****     FLASHC_FLASH_CMD = FLASHC_FLASH_CMD_INV_Msk;
 239              		.loc 1 189 0
 240 0004 054B     		ldr	r3, .L15
 241 0006 1B68     		ldr	r3, [r3]
 242 0008 5B68     		ldr	r3, [r3, #4]
 243 000a 1A46     		mov	r2, r3
 244 000c 0123     		movs	r3, #1
 245 000e 9360     		str	r3, [r2, #8]
 190:Generated_Source\PSoC6\pdl\drivers\peripheral\syslib/cy_syslib.c **** }
 246              		.loc 1 190 0
 247 0010 00BF     		nop
 248 0012 BD46     		mov	sp, r7
 249              		.cfi_def_cfa_register 13
 250              		@ sp needed
 251 0014 5DF8047B 		ldr	r7, [sp], #4
 252              		.cfi_restore 7
 253              		.cfi_def_cfa_offset 0
 254 0018 7047     		bx	lr
 255              	.L16:
 256 001a 00BF     		.align	2
 257              	.L15:
ARM GAS  C:\Users\stijn\AppData\Local\Temp\ccLepBqo.s 			page 9


 258 001c 00000000 		.word	cy_device
 259              		.cfi_endproc
 260              	.LFE155:
 261              		.size	Cy_SysLib_ClearFlashCacheAndBuffer, .-Cy_SysLib_ClearFlashCacheAndBuffer
 262              		.section	.text.Cy_SysLib_ResetBackupDomain,"ax",%progbits
 263              		.align	2
 264              		.global	Cy_SysLib_ResetBackupDomain
 265              		.thumb
 266              		.thumb_func
 267              		.type	Cy_SysLib_ResetBackupDomain, %function
 268              	Cy_SysLib_ResetBackupDomain:
 269              	.LFB156:
 191:Generated_Source\PSoC6\pdl\drivers\peripheral\syslib/cy_syslib.c **** 
 192:Generated_Source\PSoC6\pdl\drivers\peripheral\syslib/cy_syslib.c **** 
 193:Generated_Source\PSoC6\pdl\drivers\peripheral\syslib/cy_syslib.c **** /*******************************************************************************
 194:Generated_Source\PSoC6\pdl\drivers\peripheral\syslib/cy_syslib.c **** * Function Name: Cy_SysLib_ResetBackupDomain
 195:Generated_Source\PSoC6\pdl\drivers\peripheral\syslib/cy_syslib.c **** ****************************************************************************//**
 196:Generated_Source\PSoC6\pdl\drivers\peripheral\syslib/cy_syslib.c **** *
 197:Generated_Source\PSoC6\pdl\drivers\peripheral\syslib/cy_syslib.c **** * This function resets the backup domain power to avoid the ILO glitch. The
 198:Generated_Source\PSoC6\pdl\drivers\peripheral\syslib/cy_syslib.c **** * glitch can occur when the device is reset due to POR/BOD/XRES while
 199:Generated_Source\PSoC6\pdl\drivers\peripheral\syslib/cy_syslib.c **** * the backup voltage is supplied into the system.
 200:Generated_Source\PSoC6\pdl\drivers\peripheral\syslib/cy_syslib.c **** *
 201:Generated_Source\PSoC6\pdl\drivers\peripheral\syslib/cy_syslib.c **** * \note Writing 1 to BACKUP->RESET resets the backup logic. Hardware clears it
 202:Generated_Source\PSoC6\pdl\drivers\peripheral\syslib/cy_syslib.c **** *       when the reset is complete. After setting the register, this function
 203:Generated_Source\PSoC6\pdl\drivers\peripheral\syslib/cy_syslib.c **** *       reads the register immediately for returning the result of the backup
 204:Generated_Source\PSoC6\pdl\drivers\peripheral\syslib/cy_syslib.c **** *       domain reset state. The reading register is important because the Read
 205:Generated_Source\PSoC6\pdl\drivers\peripheral\syslib/cy_syslib.c **** *       itself takes multiple AHB clock cycles, and the reset is actually
 206:Generated_Source\PSoC6\pdl\drivers\peripheral\syslib/cy_syslib.c **** *       finishing during that time.
 207:Generated_Source\PSoC6\pdl\drivers\peripheral\syslib/cy_syslib.c **** *
 208:Generated_Source\PSoC6\pdl\drivers\peripheral\syslib/cy_syslib.c **** * \return CY_SYSLIB_SUCCESS, if BACKUP->RESET read-back is 0.
 209:Generated_Source\PSoC6\pdl\drivers\peripheral\syslib/cy_syslib.c **** *         Otherwise returns CY_SYSLIB_INVALID_STATE.
 210:Generated_Source\PSoC6\pdl\drivers\peripheral\syslib/cy_syslib.c **** *
 211:Generated_Source\PSoC6\pdl\drivers\peripheral\syslib/cy_syslib.c **** *******************************************************************************/
 212:Generated_Source\PSoC6\pdl\drivers\peripheral\syslib/cy_syslib.c **** cy_en_syslib_status_t Cy_SysLib_ResetBackupDomain(void)
 213:Generated_Source\PSoC6\pdl\drivers\peripheral\syslib/cy_syslib.c **** {
 270              		.loc 1 213 0
 271              		.cfi_startproc
 272              		@ args = 0, pretend = 0, frame = 0
 273              		@ frame_needed = 1, uses_anonymous_args = 0
 274              		@ link register save eliminated.
 275 0000 80B4     		push	{r7}
 276              		.cfi_def_cfa_offset 4
 277              		.cfi_offset 7, -4
 278 0002 00AF     		add	r7, sp, #0
 279              		.cfi_def_cfa_register 7
 214:Generated_Source\PSoC6\pdl\drivers\peripheral\syslib/cy_syslib.c ****     BACKUP_RESET = BACKUP_RESET_RESET_Msk;
 280              		.loc 1 214 0
 281 0004 074B     		ldr	r3, .L21
 282 0006 4FF00042 		mov	r2, #-2147483648
 283 000a 9A64     		str	r2, [r3, #72]
 215:Generated_Source\PSoC6\pdl\drivers\peripheral\syslib/cy_syslib.c **** 
 216:Generated_Source\PSoC6\pdl\drivers\peripheral\syslib/cy_syslib.c ****     return ( ((BACKUP_RESET & BACKUP_RESET_RESET_Msk) == 0UL) ? CY_SYSLIB_SUCCESS : CY_SYSLIB_INVAL
 284              		.loc 1 216 0
 285 000c 054B     		ldr	r3, .L21
 286 000e 9B6C     		ldr	r3, [r3, #72]
 287 0010 002B     		cmp	r3, #0
 288 0012 01DB     		blt	.L18
ARM GAS  C:\Users\stijn\AppData\Local\Temp\ccLepBqo.s 			page 10


 289              		.loc 1 216 0 is_stmt 0 discriminator 1
 290 0014 0023     		movs	r3, #0
 291 0016 00E0     		b	.L20
 292              	.L18:
 293              		.loc 1 216 0 discriminator 2
 294 0018 034B     		ldr	r3, .L21+4
 295              	.L20:
 217:Generated_Source\PSoC6\pdl\drivers\peripheral\syslib/cy_syslib.c **** }
 296              		.loc 1 217 0 is_stmt 1 discriminator 5
 297 001a 1846     		mov	r0, r3
 298 001c BD46     		mov	sp, r7
 299              		.cfi_def_cfa_register 13
 300              		@ sp needed
 301 001e 5DF8047B 		ldr	r7, [sp], #4
 302              		.cfi_restore 7
 303              		.cfi_def_cfa_offset 0
 304 0022 7047     		bx	lr
 305              	.L22:
 306              		.align	2
 307              	.L21:
 308 0024 00002740 		.word	1076297728
 309 0028 03004600 		.word	4587523
 310              		.cfi_endproc
 311              	.LFE156:
 312              		.size	Cy_SysLib_ResetBackupDomain, .-Cy_SysLib_ResetBackupDomain
 313              		.section	.text.Cy_SysLib_GetResetReason,"ax",%progbits
 314              		.align	2
 315              		.global	Cy_SysLib_GetResetReason
 316              		.thumb
 317              		.thumb_func
 318              		.type	Cy_SysLib_GetResetReason, %function
 319              	Cy_SysLib_GetResetReason:
 320              	.LFB157:
 218:Generated_Source\PSoC6\pdl\drivers\peripheral\syslib/cy_syslib.c **** 
 219:Generated_Source\PSoC6\pdl\drivers\peripheral\syslib/cy_syslib.c **** 
 220:Generated_Source\PSoC6\pdl\drivers\peripheral\syslib/cy_syslib.c **** /*******************************************************************************
 221:Generated_Source\PSoC6\pdl\drivers\peripheral\syslib/cy_syslib.c **** * Function Name: Cy_SysLib_GetResetReason
 222:Generated_Source\PSoC6\pdl\drivers\peripheral\syslib/cy_syslib.c **** ****************************************************************************//**
 223:Generated_Source\PSoC6\pdl\drivers\peripheral\syslib/cy_syslib.c **** *
 224:Generated_Source\PSoC6\pdl\drivers\peripheral\syslib/cy_syslib.c **** * The function returns the cause for the latest reset(s) that occurred in
 225:Generated_Source\PSoC6\pdl\drivers\peripheral\syslib/cy_syslib.c **** * the system. The reset causes include an HFCLK error, system faults, and
 226:Generated_Source\PSoC6\pdl\drivers\peripheral\syslib/cy_syslib.c **** * device reset on a wakeup from Hibernate mode.
 227:Generated_Source\PSoC6\pdl\drivers\peripheral\syslib/cy_syslib.c **** * The return results are consolidated reset causes from reading RES_CAUSE,
 228:Generated_Source\PSoC6\pdl\drivers\peripheral\syslib/cy_syslib.c **** * RES_CAUSE2 and PWR_HIBERNATE token registers.
 229:Generated_Source\PSoC6\pdl\drivers\peripheral\syslib/cy_syslib.c **** *
 230:Generated_Source\PSoC6\pdl\drivers\peripheral\syslib/cy_syslib.c **** * \return The cause of a system reset.
 231:Generated_Source\PSoC6\pdl\drivers\peripheral\syslib/cy_syslib.c **** *
 232:Generated_Source\PSoC6\pdl\drivers\peripheral\syslib/cy_syslib.c **** * | Name                          | Value
 233:Generated_Source\PSoC6\pdl\drivers\peripheral\syslib/cy_syslib.c **** * |-------------------------------|---------------------
 234:Generated_Source\PSoC6\pdl\drivers\peripheral\syslib/cy_syslib.c **** * | CY_SYSLIB_RESET_HWWDT         | 0x00001 (bit0)
 235:Generated_Source\PSoC6\pdl\drivers\peripheral\syslib/cy_syslib.c **** * | CY_SYSLIB_RESET_ACT_FAULT     | 0x00002 (bit1)
 236:Generated_Source\PSoC6\pdl\drivers\peripheral\syslib/cy_syslib.c **** * | CY_SYSLIB_RESET_DPSLP_FAULT   | 0x00004 (bit2)
 237:Generated_Source\PSoC6\pdl\drivers\peripheral\syslib/cy_syslib.c **** * | CY_SYSLIB_RESET_CSV_WCO_LOSS  | 0x00008 (bit3)
 238:Generated_Source\PSoC6\pdl\drivers\peripheral\syslib/cy_syslib.c **** * | CY_SYSLIB_RESET_SOFT          | 0x00010 (bit4)
 239:Generated_Source\PSoC6\pdl\drivers\peripheral\syslib/cy_syslib.c **** * | CY_SYSLIB_RESET_SWWDT0        | 0x00020 (bit5)
 240:Generated_Source\PSoC6\pdl\drivers\peripheral\syslib/cy_syslib.c **** * | CY_SYSLIB_RESET_SWWDT1        | 0x00040 (bit6)
 241:Generated_Source\PSoC6\pdl\drivers\peripheral\syslib/cy_syslib.c **** * | CY_SYSLIB_RESET_SWWDT2        | 0x00080 (bit7)
ARM GAS  C:\Users\stijn\AppData\Local\Temp\ccLepBqo.s 			page 11


 242:Generated_Source\PSoC6\pdl\drivers\peripheral\syslib/cy_syslib.c **** * | CY_SYSLIB_RESET_SWWDT3        | 0x00100 (bit8)
 243:Generated_Source\PSoC6\pdl\drivers\peripheral\syslib/cy_syslib.c **** * | CY_SYSLIB_RESET_HFCLK_LOSS    | 0x10000 (bit16)
 244:Generated_Source\PSoC6\pdl\drivers\peripheral\syslib/cy_syslib.c **** * | CY_SYSLIB_RESET_HFCLK_ERR     | 0x20000 (bit17)
 245:Generated_Source\PSoC6\pdl\drivers\peripheral\syslib/cy_syslib.c **** * | CY_SYSLIB_RESET_HIB_WAKEUP    | 0x40000 (bit18)
 246:Generated_Source\PSoC6\pdl\drivers\peripheral\syslib/cy_syslib.c **** *
 247:Generated_Source\PSoC6\pdl\drivers\peripheral\syslib/cy_syslib.c **** * \note CY_SYSLIB_RESET_CSV_WCO_LOSS, CY_SYSLIB_RESET_HFCLK_LOSS and
 248:Generated_Source\PSoC6\pdl\drivers\peripheral\syslib/cy_syslib.c **** *       CY_SYSLIB_RESET_HFCLK_ERR causes of a system reset available only if
 249:Generated_Source\PSoC6\pdl\drivers\peripheral\syslib/cy_syslib.c **** *       WCO CSV present in the device.
 250:Generated_Source\PSoC6\pdl\drivers\peripheral\syslib/cy_syslib.c **** *
 251:Generated_Source\PSoC6\pdl\drivers\peripheral\syslib/cy_syslib.c **** *******************************************************************************/
 252:Generated_Source\PSoC6\pdl\drivers\peripheral\syslib/cy_syslib.c **** uint32_t Cy_SysLib_GetResetReason(void)
 253:Generated_Source\PSoC6\pdl\drivers\peripheral\syslib/cy_syslib.c **** {
 321              		.loc 1 253 0
 322              		.cfi_startproc
 323              		@ args = 0, pretend = 0, frame = 8
 324              		@ frame_needed = 1, uses_anonymous_args = 0
 325              		@ link register save eliminated.
 326 0000 80B4     		push	{r7}
 327              		.cfi_def_cfa_offset 4
 328              		.cfi_offset 7, -4
 329 0002 83B0     		sub	sp, sp, #12
 330              		.cfi_def_cfa_offset 16
 331 0004 00AF     		add	r7, sp, #0
 332              		.cfi_def_cfa_register 7
 254:Generated_Source\PSoC6\pdl\drivers\peripheral\syslib/cy_syslib.c ****     uint32_t retVal = SRSS_RES_CAUSE;
 333              		.loc 1 254 0
 334 0006 0A4B     		ldr	r3, .L26
 335 0008 D3F80038 		ldr	r3, [r3, #2048]
 336 000c 7B60     		str	r3, [r7, #4]
 255:Generated_Source\PSoC6\pdl\drivers\peripheral\syslib/cy_syslib.c **** 
 256:Generated_Source\PSoC6\pdl\drivers\peripheral\syslib/cy_syslib.c ****     if(0U != _FLD2VAL(SRSS_PWR_HIBERNATE_TOKEN, SRSS_PWR_HIBERNATE))
 337              		.loc 1 256 0
 338 000e 084B     		ldr	r3, .L26
 339 0010 5B68     		ldr	r3, [r3, #4]
 340 0012 DBB2     		uxtb	r3, r3
 341 0014 002B     		cmp	r3, #0
 342 0016 03D0     		beq	.L24
 257:Generated_Source\PSoC6\pdl\drivers\peripheral\syslib/cy_syslib.c ****     {
 258:Generated_Source\PSoC6\pdl\drivers\peripheral\syslib/cy_syslib.c ****         retVal |= CY_SYSLIB_RESET_HIB_WAKEUP;
 343              		.loc 1 258 0
 344 0018 7B68     		ldr	r3, [r7, #4]
 345 001a 43F48023 		orr	r3, r3, #262144
 346 001e 7B60     		str	r3, [r7, #4]
 347              	.L24:
 259:Generated_Source\PSoC6\pdl\drivers\peripheral\syslib/cy_syslib.c ****     }
 260:Generated_Source\PSoC6\pdl\drivers\peripheral\syslib/cy_syslib.c **** 
 261:Generated_Source\PSoC6\pdl\drivers\peripheral\syslib/cy_syslib.c ****     return (retVal);
 348              		.loc 1 261 0
 349 0020 7B68     		ldr	r3, [r7, #4]
 262:Generated_Source\PSoC6\pdl\drivers\peripheral\syslib/cy_syslib.c **** }
 350              		.loc 1 262 0
 351 0022 1846     		mov	r0, r3
 352 0024 0C37     		adds	r7, r7, #12
 353              		.cfi_def_cfa_offset 4
 354 0026 BD46     		mov	sp, r7
 355              		.cfi_def_cfa_register 13
 356              		@ sp needed
ARM GAS  C:\Users\stijn\AppData\Local\Temp\ccLepBqo.s 			page 12


 357 0028 5DF8047B 		ldr	r7, [sp], #4
 358              		.cfi_restore 7
 359              		.cfi_def_cfa_offset 0
 360 002c 7047     		bx	lr
 361              	.L27:
 362 002e 00BF     		.align	2
 363              	.L26:
 364 0030 00002640 		.word	1076232192
 365              		.cfi_endproc
 366              	.LFE157:
 367              		.size	Cy_SysLib_GetResetReason, .-Cy_SysLib_GetResetReason
 368              		.section	.text.Cy_SysLib_ClearResetReason,"ax",%progbits
 369              		.align	2
 370              		.global	Cy_SysLib_ClearResetReason
 371              		.thumb
 372              		.thumb_func
 373              		.type	Cy_SysLib_ClearResetReason, %function
 374              	Cy_SysLib_ClearResetReason:
 375              	.LFB158:
 263:Generated_Source\PSoC6\pdl\drivers\peripheral\syslib/cy_syslib.c **** 
 264:Generated_Source\PSoC6\pdl\drivers\peripheral\syslib/cy_syslib.c **** 
 265:Generated_Source\PSoC6\pdl\drivers\peripheral\syslib/cy_syslib.c **** /*******************************************************************************
 266:Generated_Source\PSoC6\pdl\drivers\peripheral\syslib/cy_syslib.c **** * Function Name: Cy_SysLib_ClearResetReason
 267:Generated_Source\PSoC6\pdl\drivers\peripheral\syslib/cy_syslib.c **** ****************************************************************************//**
 268:Generated_Source\PSoC6\pdl\drivers\peripheral\syslib/cy_syslib.c **** *
 269:Generated_Source\PSoC6\pdl\drivers\peripheral\syslib/cy_syslib.c **** * This function clears the values of RES_CAUSE and RES_CAUSE2. Also it clears
 270:Generated_Source\PSoC6\pdl\drivers\peripheral\syslib/cy_syslib.c **** * PWR_HIBERNATE token, which indicates reset event on waking up from HIBERNATE.
 271:Generated_Source\PSoC6\pdl\drivers\peripheral\syslib/cy_syslib.c **** *
 272:Generated_Source\PSoC6\pdl\drivers\peripheral\syslib/cy_syslib.c **** *******************************************************************************/
 273:Generated_Source\PSoC6\pdl\drivers\peripheral\syslib/cy_syslib.c **** void Cy_SysLib_ClearResetReason(void)
 274:Generated_Source\PSoC6\pdl\drivers\peripheral\syslib/cy_syslib.c **** {
 376              		.loc 1 274 0
 377              		.cfi_startproc
 378              		@ args = 0, pretend = 0, frame = 0
 379              		@ frame_needed = 1, uses_anonymous_args = 0
 380              		@ link register save eliminated.
 381 0000 80B4     		push	{r7}
 382              		.cfi_def_cfa_offset 4
 383              		.cfi_offset 7, -4
 384 0002 00AF     		add	r7, sp, #0
 385              		.cfi_def_cfa_register 7
 275:Generated_Source\PSoC6\pdl\drivers\peripheral\syslib/cy_syslib.c ****     /* RES_CAUSE and RES_CAUSE2 register's bits are RW1C (every bit is cleared upon writing 1),
 276:Generated_Source\PSoC6\pdl\drivers\peripheral\syslib/cy_syslib.c ****      * so write all ones to clear all the reset reasons.
 277:Generated_Source\PSoC6\pdl\drivers\peripheral\syslib/cy_syslib.c ****      */
 278:Generated_Source\PSoC6\pdl\drivers\peripheral\syslib/cy_syslib.c ****     SRSS_RES_CAUSE  = 0xFFFFFFFFU;
 386              		.loc 1 278 0
 387 0004 0C4B     		ldr	r3, .L31
 388 0006 4FF0FF32 		mov	r2, #-1
 389 000a C3F80028 		str	r2, [r3, #2048]
 279:Generated_Source\PSoC6\pdl\drivers\peripheral\syslib/cy_syslib.c ****     SRSS_RES_CAUSE2 = 0xFFFFFFFFU;
 390              		.loc 1 279 0
 391 000e 0A4B     		ldr	r3, .L31
 392 0010 4FF0FF32 		mov	r2, #-1
 393 0014 C3F80428 		str	r2, [r3, #2052]
 280:Generated_Source\PSoC6\pdl\drivers\peripheral\syslib/cy_syslib.c ****     
 281:Generated_Source\PSoC6\pdl\drivers\peripheral\syslib/cy_syslib.c ****     if(0U != _FLD2VAL(SRSS_PWR_HIBERNATE_TOKEN, SRSS_PWR_HIBERNATE))
 394              		.loc 1 281 0
ARM GAS  C:\Users\stijn\AppData\Local\Temp\ccLepBqo.s 			page 13


 395 0018 074B     		ldr	r3, .L31
 396 001a 5B68     		ldr	r3, [r3, #4]
 397 001c DBB2     		uxtb	r3, r3
 398 001e 002B     		cmp	r3, #0
 399 0020 05D0     		beq	.L30
 282:Generated_Source\PSoC6\pdl\drivers\peripheral\syslib/cy_syslib.c ****     {
 283:Generated_Source\PSoC6\pdl\drivers\peripheral\syslib/cy_syslib.c ****         /* Clears PWR_HIBERNATE token */
 284:Generated_Source\PSoC6\pdl\drivers\peripheral\syslib/cy_syslib.c ****         SRSS_PWR_HIBERNATE &= ~SRSS_PWR_HIBERNATE_TOKEN_Msk;
 400              		.loc 1 284 0
 401 0022 054A     		ldr	r2, .L31
 402 0024 044B     		ldr	r3, .L31
 403 0026 5B68     		ldr	r3, [r3, #4]
 404 0028 23F0FF03 		bic	r3, r3, #255
 405 002c 5360     		str	r3, [r2, #4]
 406              	.L30:
 285:Generated_Source\PSoC6\pdl\drivers\peripheral\syslib/cy_syslib.c ****     }
 286:Generated_Source\PSoC6\pdl\drivers\peripheral\syslib/cy_syslib.c **** }
 407              		.loc 1 286 0
 408 002e 00BF     		nop
 409 0030 BD46     		mov	sp, r7
 410              		.cfi_def_cfa_register 13
 411              		@ sp needed
 412 0032 5DF8047B 		ldr	r7, [sp], #4
 413              		.cfi_restore 7
 414              		.cfi_def_cfa_offset 0
 415 0036 7047     		bx	lr
 416              	.L32:
 417              		.align	2
 418              	.L31:
 419 0038 00002640 		.word	1076232192
 420              		.cfi_endproc
 421              	.LFE158:
 422              		.size	Cy_SysLib_ClearResetReason, .-Cy_SysLib_ClearResetReason
 423              		.section	.text.Cy_SysLib_GetUniqueId,"ax",%progbits
 424              		.align	2
 425              		.global	Cy_SysLib_GetUniqueId
 426              		.thumb
 427              		.thumb_func
 428              		.type	Cy_SysLib_GetUniqueId, %function
 429              	Cy_SysLib_GetUniqueId:
 430              	.LFB159:
 287:Generated_Source\PSoC6\pdl\drivers\peripheral\syslib/cy_syslib.c **** 
 288:Generated_Source\PSoC6\pdl\drivers\peripheral\syslib/cy_syslib.c **** 
 289:Generated_Source\PSoC6\pdl\drivers\peripheral\syslib/cy_syslib.c **** #if (CY_CPU_CORTEX_M0P) || defined(CY_DOXYGEN)
 290:Generated_Source\PSoC6\pdl\drivers\peripheral\syslib/cy_syslib.c **** /*******************************************************************************
 291:Generated_Source\PSoC6\pdl\drivers\peripheral\syslib/cy_syslib.c **** * Function Name: Cy_SysLib_SoftResetCM4
 292:Generated_Source\PSoC6\pdl\drivers\peripheral\syslib/cy_syslib.c **** ****************************************************************************//**
 293:Generated_Source\PSoC6\pdl\drivers\peripheral\syslib/cy_syslib.c **** *
 294:Generated_Source\PSoC6\pdl\drivers\peripheral\syslib/cy_syslib.c **** * This function performs a CM4 Core software reset using the CM4_PWR_CTL
 295:Generated_Source\PSoC6\pdl\drivers\peripheral\syslib/cy_syslib.c **** * register. The register is accessed by CM0 Core by using a command transferred
 296:Generated_Source\PSoC6\pdl\drivers\peripheral\syslib/cy_syslib.c **** * to SROM API through the IPC channel. When the command is sent, the API waits
 297:Generated_Source\PSoC6\pdl\drivers\peripheral\syslib/cy_syslib.c **** * for the IPC channel release.
 298:Generated_Source\PSoC6\pdl\drivers\peripheral\syslib/cy_syslib.c **** *
 299:Generated_Source\PSoC6\pdl\drivers\peripheral\syslib/cy_syslib.c **** * \note This function should be called only when the CM4 core is in Deep
 300:Generated_Source\PSoC6\pdl\drivers\peripheral\syslib/cy_syslib.c **** *       Sleep mode.
 301:Generated_Source\PSoC6\pdl\drivers\peripheral\syslib/cy_syslib.c **** * \note This function will not reset CM0+ Core.
 302:Generated_Source\PSoC6\pdl\drivers\peripheral\syslib/cy_syslib.c **** * \note This function waits for an IPC channel release state.
ARM GAS  C:\Users\stijn\AppData\Local\Temp\ccLepBqo.s 			page 14


 303:Generated_Source\PSoC6\pdl\drivers\peripheral\syslib/cy_syslib.c **** *
 304:Generated_Source\PSoC6\pdl\drivers\peripheral\syslib/cy_syslib.c **** *******************************************************************************/
 305:Generated_Source\PSoC6\pdl\drivers\peripheral\syslib/cy_syslib.c **** void Cy_SysLib_SoftResetCM4(void)
 306:Generated_Source\PSoC6\pdl\drivers\peripheral\syslib/cy_syslib.c **** {
 307:Generated_Source\PSoC6\pdl\drivers\peripheral\syslib/cy_syslib.c ****     static uint32_t msg = CY_IPC_DATA_FOR_CM4_SOFT_RESET;
 308:Generated_Source\PSoC6\pdl\drivers\peripheral\syslib/cy_syslib.c **** 
 309:Generated_Source\PSoC6\pdl\drivers\peripheral\syslib/cy_syslib.c ****     /* Tries to acquire the IPC structure and pass the arguments to SROM API.
 310:Generated_Source\PSoC6\pdl\drivers\peripheral\syslib/cy_syslib.c ****     *  SROM API parameters:
 311:Generated_Source\PSoC6\pdl\drivers\peripheral\syslib/cy_syslib.c ****     *   ipcPtr: IPC Structure 0 reserved for M0+ Secure Access.
 312:Generated_Source\PSoC6\pdl\drivers\peripheral\syslib/cy_syslib.c ****     *   notifyEvent_Intr: 1U - IPC Interrupt Structure 1 is used for Releasing IPC 0 (M0+ NMI Handl
 313:Generated_Source\PSoC6\pdl\drivers\peripheral\syslib/cy_syslib.c ****     *   msgPtr: &msg - The address of SRAM with the API's parameters.
 314:Generated_Source\PSoC6\pdl\drivers\peripheral\syslib/cy_syslib.c ****     */
 315:Generated_Source\PSoC6\pdl\drivers\peripheral\syslib/cy_syslib.c ****     if(CY_IPC_DRV_SUCCESS != Cy_IPC_Drv_SendMsgPtr(Cy_IPC_Drv_GetIpcBaseAddress(CY_IPC_CHAN_SYSCALL
 316:Generated_Source\PSoC6\pdl\drivers\peripheral\syslib/cy_syslib.c ****     {
 317:Generated_Source\PSoC6\pdl\drivers\peripheral\syslib/cy_syslib.c ****         CY_ASSERT(0U != 0U);
 318:Generated_Source\PSoC6\pdl\drivers\peripheral\syslib/cy_syslib.c ****     }
 319:Generated_Source\PSoC6\pdl\drivers\peripheral\syslib/cy_syslib.c **** 
 320:Generated_Source\PSoC6\pdl\drivers\peripheral\syslib/cy_syslib.c ****     while(Cy_IPC_Drv_IsLockAcquired(Cy_IPC_Drv_GetIpcBaseAddress(CY_IPC_CHAN_SYSCALL_CM0)))
 321:Generated_Source\PSoC6\pdl\drivers\peripheral\syslib/cy_syslib.c ****     {
 322:Generated_Source\PSoC6\pdl\drivers\peripheral\syslib/cy_syslib.c ****         /* Waits until SROM API runs the command (sent over the IPC channel) and releases the IPC0 
 323:Generated_Source\PSoC6\pdl\drivers\peripheral\syslib/cy_syslib.c ****     }
 324:Generated_Source\PSoC6\pdl\drivers\peripheral\syslib/cy_syslib.c **** }
 325:Generated_Source\PSoC6\pdl\drivers\peripheral\syslib/cy_syslib.c **** #endif /* CY_CPU_CORTEX_M0P || defined(CY_DOXYGEN) */
 326:Generated_Source\PSoC6\pdl\drivers\peripheral\syslib/cy_syslib.c **** 
 327:Generated_Source\PSoC6\pdl\drivers\peripheral\syslib/cy_syslib.c **** 
 328:Generated_Source\PSoC6\pdl\drivers\peripheral\syslib/cy_syslib.c **** /*******************************************************************************
 329:Generated_Source\PSoC6\pdl\drivers\peripheral\syslib/cy_syslib.c **** * Function Name: Cy_SysLib_GetUniqueId
 330:Generated_Source\PSoC6\pdl\drivers\peripheral\syslib/cy_syslib.c **** ****************************************************************************//**
 331:Generated_Source\PSoC6\pdl\drivers\peripheral\syslib/cy_syslib.c **** *
 332:Generated_Source\PSoC6\pdl\drivers\peripheral\syslib/cy_syslib.c **** * This function returns the silicon unique ID.
 333:Generated_Source\PSoC6\pdl\drivers\peripheral\syslib/cy_syslib.c **** * The ID includes Die lot[3]#, Die Wafer#, Die X, Die Y, Die Sort#, Die Minor
 334:Generated_Source\PSoC6\pdl\drivers\peripheral\syslib/cy_syslib.c **** * and Die Year.
 335:Generated_Source\PSoC6\pdl\drivers\peripheral\syslib/cy_syslib.c **** *
 336:Generated_Source\PSoC6\pdl\drivers\peripheral\syslib/cy_syslib.c **** * \return  A combined 64-bit unique ID.
 337:Generated_Source\PSoC6\pdl\drivers\peripheral\syslib/cy_syslib.c **** *          [63:57] - DIE_YEAR
 338:Generated_Source\PSoC6\pdl\drivers\peripheral\syslib/cy_syslib.c **** *          [56:56] - DIE_MINOR
 339:Generated_Source\PSoC6\pdl\drivers\peripheral\syslib/cy_syslib.c **** *          [55:48] - DIE_SORT
 340:Generated_Source\PSoC6\pdl\drivers\peripheral\syslib/cy_syslib.c **** *          [47:40] - DIE_Y
 341:Generated_Source\PSoC6\pdl\drivers\peripheral\syslib/cy_syslib.c **** *          [39:32] - DIE_X
 342:Generated_Source\PSoC6\pdl\drivers\peripheral\syslib/cy_syslib.c **** *          [31:24] - DIE_WAFER
 343:Generated_Source\PSoC6\pdl\drivers\peripheral\syslib/cy_syslib.c **** *          [23:16] - DIE_LOT[2]
 344:Generated_Source\PSoC6\pdl\drivers\peripheral\syslib/cy_syslib.c **** *          [15: 8] - DIE_LOT[1]
 345:Generated_Source\PSoC6\pdl\drivers\peripheral\syslib/cy_syslib.c **** *          [ 7: 0] - DIE_LOT[0]
 346:Generated_Source\PSoC6\pdl\drivers\peripheral\syslib/cy_syslib.c **** *
 347:Generated_Source\PSoC6\pdl\drivers\peripheral\syslib/cy_syslib.c **** *******************************************************************************/
 348:Generated_Source\PSoC6\pdl\drivers\peripheral\syslib/cy_syslib.c **** uint64_t Cy_SysLib_GetUniqueId(void)
 349:Generated_Source\PSoC6\pdl\drivers\peripheral\syslib/cy_syslib.c **** {
 431              		.loc 1 349 0
 432              		.cfi_startproc
 433              		@ args = 0, pretend = 0, frame = 8
 434              		@ frame_needed = 1, uses_anonymous_args = 0
 435              		@ link register save eliminated.
 436 0000 90B4     		push	{r4, r7}
 437              		.cfi_def_cfa_offset 8
 438              		.cfi_offset 4, -8
 439              		.cfi_offset 7, -4
 440 0002 82B0     		sub	sp, sp, #8
ARM GAS  C:\Users\stijn\AppData\Local\Temp\ccLepBqo.s 			page 15


 441              		.cfi_def_cfa_offset 16
 442 0004 00AF     		add	r7, sp, #0
 443              		.cfi_def_cfa_register 7
 350:Generated_Source\PSoC6\pdl\drivers\peripheral\syslib/cy_syslib.c ****     uint32_t uniqueIdHi;
 351:Generated_Source\PSoC6\pdl\drivers\peripheral\syslib/cy_syslib.c ****     uint32_t uniqueIdLo;
 352:Generated_Source\PSoC6\pdl\drivers\peripheral\syslib/cy_syslib.c **** 
 353:Generated_Source\PSoC6\pdl\drivers\peripheral\syslib/cy_syslib.c ****     uniqueIdHi = ((uint32_t) SFLASH_DIE_YEAR        << (CY_UNIQUE_ID_DIE_YEAR_Pos  - CY_UNIQUE_ID_D
 444              		.loc 1 353 0
 445 0006 4FF0B052 		mov	r2, #369098752
 446 000a 92F80A26 		ldrb	r2, [r2, #1546]
 447 000e D2B2     		uxtb	r2, r2
 448 0010 5106     		lsls	r1, r2, #25
 354:Generated_Source\PSoC6\pdl\drivers\peripheral\syslib/cy_syslib.c ****                  (((uint32_t)SFLASH_DIE_MINOR & 1U) << (CY_UNIQUE_ID_DIE_MINOR_Pos - CY_UNIQUE_ID_D
 449              		.loc 1 354 0
 450 0012 4FF0B052 		mov	r2, #369098752
 451 0016 92F80726 		ldrb	r2, [r2, #1543]
 452 001a D2B2     		uxtb	r2, r2
 453 001c 02F00102 		and	r2, r2, #1
 454 0020 1206     		lsls	r2, r2, #24
 353:Generated_Source\PSoC6\pdl\drivers\peripheral\syslib/cy_syslib.c ****                  (((uint32_t)SFLASH_DIE_MINOR & 1U) << (CY_UNIQUE_ID_DIE_MINOR_Pos - CY_UNIQUE_ID_D
 455              		.loc 1 353 0
 456 0022 1143     		orrs	r1, r1, r2
 355:Generated_Source\PSoC6\pdl\drivers\peripheral\syslib/cy_syslib.c ****                  ((uint32_t) SFLASH_DIE_SORT        << (CY_UNIQUE_ID_DIE_SORT_Pos  - CY_UNIQUE_ID_D
 457              		.loc 1 355 0
 458 0024 4FF0B052 		mov	r2, #369098752
 459 0028 92F80626 		ldrb	r2, [r2, #1542]
 460 002c D2B2     		uxtb	r2, r2
 461 002e 1204     		lsls	r2, r2, #16
 354:Generated_Source\PSoC6\pdl\drivers\peripheral\syslib/cy_syslib.c ****                  (((uint32_t)SFLASH_DIE_MINOR & 1U) << (CY_UNIQUE_ID_DIE_MINOR_Pos - CY_UNIQUE_ID_D
 462              		.loc 1 354 0
 463 0030 1143     		orrs	r1, r1, r2
 356:Generated_Source\PSoC6\pdl\drivers\peripheral\syslib/cy_syslib.c ****                  ((uint32_t) SFLASH_DIE_Y           << (CY_UNIQUE_ID_DIE_Y_Pos     - CY_UNIQUE_ID_D
 464              		.loc 1 356 0
 465 0032 4FF0B052 		mov	r2, #369098752
 466 0036 92F80526 		ldrb	r2, [r2, #1541]
 467 003a D2B2     		uxtb	r2, r2
 468 003c 1202     		lsls	r2, r2, #8
 355:Generated_Source\PSoC6\pdl\drivers\peripheral\syslib/cy_syslib.c ****                  ((uint32_t) SFLASH_DIE_SORT        << (CY_UNIQUE_ID_DIE_SORT_Pos  - CY_UNIQUE_ID_D
 469              		.loc 1 355 0
 470 003e 0A43     		orrs	r2, r2, r1
 357:Generated_Source\PSoC6\pdl\drivers\peripheral\syslib/cy_syslib.c ****                  ((uint32_t) SFLASH_DIE_X);
 471              		.loc 1 357 0
 472 0040 4FF0B051 		mov	r1, #369098752
 473 0044 91F80416 		ldrb	r1, [r1, #1540]
 474 0048 C9B2     		uxtb	r1, r1
 353:Generated_Source\PSoC6\pdl\drivers\peripheral\syslib/cy_syslib.c ****                  (((uint32_t)SFLASH_DIE_MINOR & 1U) << (CY_UNIQUE_ID_DIE_MINOR_Pos - CY_UNIQUE_ID_D
 475              		.loc 1 353 0
 476 004a 0A43     		orrs	r2, r2, r1
 477 004c 7A60     		str	r2, [r7, #4]
 358:Generated_Source\PSoC6\pdl\drivers\peripheral\syslib/cy_syslib.c **** 
 359:Generated_Source\PSoC6\pdl\drivers\peripheral\syslib/cy_syslib.c ****     uniqueIdLo = ((uint32_t) SFLASH_DIE_WAFER       << CY_UNIQUE_ID_DIE_WAFER_Pos) |
 478              		.loc 1 359 0
 479 004e 4FF0B052 		mov	r2, #369098752
 480 0052 92F80326 		ldrb	r2, [r2, #1539]
 481 0056 D2B2     		uxtb	r2, r2
 482 0058 1106     		lsls	r1, r2, #24
 360:Generated_Source\PSoC6\pdl\drivers\peripheral\syslib/cy_syslib.c ****                  ((uint32_t) SFLASH_DIE_LOT(2U)     << CY_UNIQUE_ID_DIE_LOT_2_Pos) |
ARM GAS  C:\Users\stijn\AppData\Local\Temp\ccLepBqo.s 			page 16


 483              		.loc 1 360 0
 484 005a 4FF0B052 		mov	r2, #369098752
 485 005e 92F80226 		ldrb	r2, [r2, #1538]
 486 0062 D2B2     		uxtb	r2, r2
 487 0064 1204     		lsls	r2, r2, #16
 359:Generated_Source\PSoC6\pdl\drivers\peripheral\syslib/cy_syslib.c ****                  ((uint32_t) SFLASH_DIE_LOT(2U)     << CY_UNIQUE_ID_DIE_LOT_2_Pos) |
 488              		.loc 1 359 0
 489 0066 1143     		orrs	r1, r1, r2
 361:Generated_Source\PSoC6\pdl\drivers\peripheral\syslib/cy_syslib.c ****                  ((uint32_t) SFLASH_DIE_LOT(1U)     << CY_UNIQUE_ID_DIE_LOT_1_Pos) |
 490              		.loc 1 361 0
 491 0068 4FF0B052 		mov	r2, #369098752
 492 006c 92F80126 		ldrb	r2, [r2, #1537]
 493 0070 D2B2     		uxtb	r2, r2
 494 0072 1202     		lsls	r2, r2, #8
 360:Generated_Source\PSoC6\pdl\drivers\peripheral\syslib/cy_syslib.c ****                  ((uint32_t) SFLASH_DIE_LOT(2U)     << CY_UNIQUE_ID_DIE_LOT_2_Pos) |
 495              		.loc 1 360 0
 496 0074 0A43     		orrs	r2, r2, r1
 362:Generated_Source\PSoC6\pdl\drivers\peripheral\syslib/cy_syslib.c ****                  ((uint32_t) SFLASH_DIE_LOT(0U));
 497              		.loc 1 362 0
 498 0076 4FF0B051 		mov	r1, #369098752
 499 007a 91F80016 		ldrb	r1, [r1, #1536]
 500 007e C9B2     		uxtb	r1, r1
 359:Generated_Source\PSoC6\pdl\drivers\peripheral\syslib/cy_syslib.c ****                  ((uint32_t) SFLASH_DIE_LOT(2U)     << CY_UNIQUE_ID_DIE_LOT_2_Pos) |
 501              		.loc 1 359 0
 502 0080 0A43     		orrs	r2, r2, r1
 503 0082 3A60     		str	r2, [r7]
 363:Generated_Source\PSoC6\pdl\drivers\peripheral\syslib/cy_syslib.c **** 
 364:Generated_Source\PSoC6\pdl\drivers\peripheral\syslib/cy_syslib.c ****     return (((uint64_t) uniqueIdHi << CY_UNIQUE_ID_DIE_X_Pos) | uniqueIdLo);
 504              		.loc 1 364 0
 505 0084 7A68     		ldr	r2, [r7, #4]
 506 0086 1146     		mov	r1, r2
 507 0088 4FF00002 		mov	r2, #0
 508 008c 0C00     		movs	r4, r1
 509 008e 0023     		movs	r3, #0
 510 0090 3A68     		ldr	r2, [r7]
 511 0092 1146     		mov	r1, r2
 512 0094 4FF00002 		mov	r2, #0
 513 0098 43EA0103 		orr	r3, r3, r1
 514 009c 44EA0204 		orr	r4, r4, r2
 365:Generated_Source\PSoC6\pdl\drivers\peripheral\syslib/cy_syslib.c **** }
 515              		.loc 1 365 0
 516 00a0 1846     		mov	r0, r3
 517 00a2 2146     		mov	r1, r4
 518 00a4 0837     		adds	r7, r7, #8
 519              		.cfi_def_cfa_offset 8
 520 00a6 BD46     		mov	sp, r7
 521              		.cfi_def_cfa_register 13
 522              		@ sp needed
 523 00a8 90BC     		pop	{r4, r7}
 524              		.cfi_restore 7
 525              		.cfi_restore 4
 526              		.cfi_def_cfa_offset 0
 527 00aa 7047     		bx	lr
 528              		.cfi_endproc
 529              	.LFE159:
 530              		.size	Cy_SysLib_GetUniqueId, .-Cy_SysLib_GetUniqueId
 531              		.section	.text.Cy_SysLib_FaultHandler,"ax",%progbits
ARM GAS  C:\Users\stijn\AppData\Local\Temp\ccLepBqo.s 			page 17


 532              		.align	2
 533              		.global	Cy_SysLib_FaultHandler
 534              		.thumb
 535              		.thumb_func
 536              		.type	Cy_SysLib_FaultHandler, %function
 537              	Cy_SysLib_FaultHandler:
 538              	.LFB160:
 366:Generated_Source\PSoC6\pdl\drivers\peripheral\syslib/cy_syslib.c **** 
 367:Generated_Source\PSoC6\pdl\drivers\peripheral\syslib/cy_syslib.c **** 
 368:Generated_Source\PSoC6\pdl\drivers\peripheral\syslib/cy_syslib.c **** #if (CY_ARM_FAULT_DEBUG == CY_ARM_FAULT_DEBUG_ENABLED) || defined(CY_DOXYGEN)
 369:Generated_Source\PSoC6\pdl\drivers\peripheral\syslib/cy_syslib.c **** /*******************************************************************************
 370:Generated_Source\PSoC6\pdl\drivers\peripheral\syslib/cy_syslib.c **** * Function Name: Cy_SysLib_FaultHandler
 371:Generated_Source\PSoC6\pdl\drivers\peripheral\syslib/cy_syslib.c **** ****************************************************************************//**
 372:Generated_Source\PSoC6\pdl\drivers\peripheral\syslib/cy_syslib.c **** *
 373:Generated_Source\PSoC6\pdl\drivers\peripheral\syslib/cy_syslib.c **** * This function stores the ARM Cortex registers into a non-zero init area for
 374:Generated_Source\PSoC6\pdl\drivers\peripheral\syslib/cy_syslib.c **** * debugging. This function calls Cy_SysLib_ProcessingFault() after storing all
 375:Generated_Source\PSoC6\pdl\drivers\peripheral\syslib/cy_syslib.c **** * information.
 376:Generated_Source\PSoC6\pdl\drivers\peripheral\syslib/cy_syslib.c **** *
 377:Generated_Source\PSoC6\pdl\drivers\peripheral\syslib/cy_syslib.c **** * \param faultStackAddr The address of the stack pointer, indicates the lowest
 378:Generated_Source\PSoC6\pdl\drivers\peripheral\syslib/cy_syslib.c **** *                       address in the fault stack frame to be stored.
 379:Generated_Source\PSoC6\pdl\drivers\peripheral\syslib/cy_syslib.c **** * \note This function stores the fault stack frame only for the first occurred
 380:Generated_Source\PSoC6\pdl\drivers\peripheral\syslib/cy_syslib.c **** *       fault.
 381:Generated_Source\PSoC6\pdl\drivers\peripheral\syslib/cy_syslib.c **** * \note The PDL doesn't provide an API to analyze the stored register
 382:Generated_Source\PSoC6\pdl\drivers\peripheral\syslib/cy_syslib.c **** *       values. The user has to add additional functions for the analysis,
 383:Generated_Source\PSoC6\pdl\drivers\peripheral\syslib/cy_syslib.c **** *       if necessary.
 384:Generated_Source\PSoC6\pdl\drivers\peripheral\syslib/cy_syslib.c **** * \note The CY_ARM_FAULT_DEBUG macro defines if the Fault Handler is enabled.
 385:Generated_Source\PSoC6\pdl\drivers\peripheral\syslib/cy_syslib.c **** *       By default it is set to CY_ARM_FAULT_DEBUG_ENABLED and enables the
 386:Generated_Source\PSoC6\pdl\drivers\peripheral\syslib/cy_syslib.c **** *       Fault Handler.
 387:Generated_Source\PSoC6\pdl\drivers\peripheral\syslib/cy_syslib.c **** *       If there is a necessity to save memory or have some specific custom
 388:Generated_Source\PSoC6\pdl\drivers\peripheral\syslib/cy_syslib.c **** *       handler, etc. then CY_ARM_FAULT_DEBUG should be redefined as
 389:Generated_Source\PSoC6\pdl\drivers\peripheral\syslib/cy_syslib.c **** *       CY_ARM_FAULT_DEBUG_DISABLED. To do this, the following definition should
 390:Generated_Source\PSoC6\pdl\drivers\peripheral\syslib/cy_syslib.c **** *       be added to the compiler Command Line (through the project Build
 391:Generated_Source\PSoC6\pdl\drivers\peripheral\syslib/cy_syslib.c **** *       Settings): "-D CY_ARM_FAULT_DEBUG=0".
 392:Generated_Source\PSoC6\pdl\drivers\peripheral\syslib/cy_syslib.c **** *
 393:Generated_Source\PSoC6\pdl\drivers\peripheral\syslib/cy_syslib.c **** *******************************************************************************/
 394:Generated_Source\PSoC6\pdl\drivers\peripheral\syslib/cy_syslib.c **** void Cy_SysLib_FaultHandler(uint32_t const *faultStackAddr)
 395:Generated_Source\PSoC6\pdl\drivers\peripheral\syslib/cy_syslib.c **** {
 539              		.loc 1 395 0
 540              		.cfi_startproc
 541              		@ args = 0, pretend = 0, frame = 16
 542              		@ frame_needed = 1, uses_anonymous_args = 0
 543 0000 80B5     		push	{r7, lr}
 544              		.cfi_def_cfa_offset 8
 545              		.cfi_offset 7, -8
 546              		.cfi_offset 14, -4
 547 0002 84B0     		sub	sp, sp, #16
 548              		.cfi_def_cfa_offset 24
 549 0004 00AF     		add	r7, sp, #0
 550              		.cfi_def_cfa_register 7
 551 0006 7860     		str	r0, [r7, #4]
 396:Generated_Source\PSoC6\pdl\drivers\peripheral\syslib/cy_syslib.c ****     /* Stores general registers */
 397:Generated_Source\PSoC6\pdl\drivers\peripheral\syslib/cy_syslib.c ****     cy_faultFrame.r0  = faultStackAddr[CY_R0_Pos];
 552              		.loc 1 397 0
 553 0008 7B68     		ldr	r3, [r7, #4]
 554 000a 1B68     		ldr	r3, [r3]
 555 000c 414A     		ldr	r2, .L38
 556 000e 1360     		str	r3, [r2]
ARM GAS  C:\Users\stijn\AppData\Local\Temp\ccLepBqo.s 			page 18


 398:Generated_Source\PSoC6\pdl\drivers\peripheral\syslib/cy_syslib.c ****     cy_faultFrame.r1  = faultStackAddr[CY_R1_Pos];
 557              		.loc 1 398 0
 558 0010 7B68     		ldr	r3, [r7, #4]
 559 0012 5B68     		ldr	r3, [r3, #4]
 560 0014 3F4A     		ldr	r2, .L38
 561 0016 5360     		str	r3, [r2, #4]
 399:Generated_Source\PSoC6\pdl\drivers\peripheral\syslib/cy_syslib.c ****     cy_faultFrame.r2  = faultStackAddr[CY_R2_Pos];
 562              		.loc 1 399 0
 563 0018 7B68     		ldr	r3, [r7, #4]
 564 001a 9B68     		ldr	r3, [r3, #8]
 565 001c 3D4A     		ldr	r2, .L38
 566 001e 9360     		str	r3, [r2, #8]
 400:Generated_Source\PSoC6\pdl\drivers\peripheral\syslib/cy_syslib.c ****     cy_faultFrame.r3  = faultStackAddr[CY_R3_Pos];
 567              		.loc 1 400 0
 568 0020 7B68     		ldr	r3, [r7, #4]
 569 0022 DB68     		ldr	r3, [r3, #12]
 570 0024 3B4A     		ldr	r2, .L38
 571 0026 D360     		str	r3, [r2, #12]
 401:Generated_Source\PSoC6\pdl\drivers\peripheral\syslib/cy_syslib.c ****     cy_faultFrame.r12 = faultStackAddr[CY_R12_Pos];
 572              		.loc 1 401 0
 573 0028 7B68     		ldr	r3, [r7, #4]
 574 002a 1B69     		ldr	r3, [r3, #16]
 575 002c 394A     		ldr	r2, .L38
 576 002e 1361     		str	r3, [r2, #16]
 402:Generated_Source\PSoC6\pdl\drivers\peripheral\syslib/cy_syslib.c ****     cy_faultFrame.lr  = faultStackAddr[CY_LR_Pos];
 577              		.loc 1 402 0
 578 0030 7B68     		ldr	r3, [r7, #4]
 579 0032 5B69     		ldr	r3, [r3, #20]
 580 0034 374A     		ldr	r2, .L38
 581 0036 5361     		str	r3, [r2, #20]
 403:Generated_Source\PSoC6\pdl\drivers\peripheral\syslib/cy_syslib.c ****     cy_faultFrame.pc  = faultStackAddr[CY_PC_Pos];
 582              		.loc 1 403 0
 583 0038 7B68     		ldr	r3, [r7, #4]
 584 003a 9B69     		ldr	r3, [r3, #24]
 585 003c 354A     		ldr	r2, .L38
 586 003e 9361     		str	r3, [r2, #24]
 404:Generated_Source\PSoC6\pdl\drivers\peripheral\syslib/cy_syslib.c ****     cy_faultFrame.psr = faultStackAddr[CY_PSR_Pos];
 587              		.loc 1 404 0
 588 0040 7B68     		ldr	r3, [r7, #4]
 589 0042 DB69     		ldr	r3, [r3, #28]
 590 0044 334A     		ldr	r2, .L38
 591 0046 D361     		str	r3, [r2, #28]
 405:Generated_Source\PSoC6\pdl\drivers\peripheral\syslib/cy_syslib.c **** 
 406:Generated_Source\PSoC6\pdl\drivers\peripheral\syslib/cy_syslib.c ****     #if (CY_CPU_CORTEX_M4)
 407:Generated_Source\PSoC6\pdl\drivers\peripheral\syslib/cy_syslib.c ****         /* Stores the Configurable Fault Status Register state with the fault cause */
 408:Generated_Source\PSoC6\pdl\drivers\peripheral\syslib/cy_syslib.c ****         cy_faultFrame.cfsr.cfsrReg = SCB->CFSR;
 592              		.loc 1 408 0
 593 0048 334B     		ldr	r3, .L38+4
 594 004a 9B6A     		ldr	r3, [r3, #40]
 595 004c 314A     		ldr	r2, .L38
 596 004e 1362     		str	r3, [r2, #32]
 409:Generated_Source\PSoC6\pdl\drivers\peripheral\syslib/cy_syslib.c ****         /* Stores the Hard Fault Status Register */
 410:Generated_Source\PSoC6\pdl\drivers\peripheral\syslib/cy_syslib.c ****         cy_faultFrame.hfsr.hfsrReg = SCB->HFSR;
 597              		.loc 1 410 0
 598 0050 314B     		ldr	r3, .L38+4
 599 0052 DB6A     		ldr	r3, [r3, #44]
 600 0054 2F4A     		ldr	r2, .L38
ARM GAS  C:\Users\stijn\AppData\Local\Temp\ccLepBqo.s 			page 19


 601 0056 5362     		str	r3, [r2, #36]
 411:Generated_Source\PSoC6\pdl\drivers\peripheral\syslib/cy_syslib.c ****         /* Stores the System Handler Control and State Register */
 412:Generated_Source\PSoC6\pdl\drivers\peripheral\syslib/cy_syslib.c ****         cy_faultFrame.shcsr.shcsrReg = SCB->SHCSR;
 602              		.loc 1 412 0
 603 0058 2F4B     		ldr	r3, .L38+4
 604 005a 5B6A     		ldr	r3, [r3, #36]
 605 005c 2D4A     		ldr	r2, .L38
 606 005e 9362     		str	r3, [r2, #40]
 413:Generated_Source\PSoC6\pdl\drivers\peripheral\syslib/cy_syslib.c ****         /* Store MemMange fault address */
 414:Generated_Source\PSoC6\pdl\drivers\peripheral\syslib/cy_syslib.c ****         cy_faultFrame.mmfar = SCB->MMFAR;
 607              		.loc 1 414 0
 608 0060 2D4B     		ldr	r3, .L38+4
 609 0062 5B6B     		ldr	r3, [r3, #52]
 610 0064 2B4A     		ldr	r2, .L38
 611 0066 D362     		str	r3, [r2, #44]
 415:Generated_Source\PSoC6\pdl\drivers\peripheral\syslib/cy_syslib.c ****         /* Store Bus fault address */
 416:Generated_Source\PSoC6\pdl\drivers\peripheral\syslib/cy_syslib.c ****         cy_faultFrame.bfar = SCB->BFAR;
 612              		.loc 1 416 0
 613 0068 2B4B     		ldr	r3, .L38+4
 614 006a 9B6B     		ldr	r3, [r3, #56]
 615 006c 294A     		ldr	r2, .L38
 616 006e 1363     		str	r3, [r2, #48]
 617              	.LBB4:
 618              	.LBB5:
 619              		.file 2 "Generated_Source\\PSoC6\\pdl\\cmsis/include/cmsis_gcc.h"
   1:Generated_Source\PSoC6\pdl\cmsis/include/cmsis_gcc.h **** /**************************************************************************//**
   2:Generated_Source\PSoC6\pdl\cmsis/include/cmsis_gcc.h ****  * @file     cmsis_gcc.h
   3:Generated_Source\PSoC6\pdl\cmsis/include/cmsis_gcc.h ****  * @brief    CMSIS compiler GCC header file
   4:Generated_Source\PSoC6\pdl\cmsis/include/cmsis_gcc.h ****  * @version  V5.0.3
   5:Generated_Source\PSoC6\pdl\cmsis/include/cmsis_gcc.h ****  * @date     16. January 2018
   6:Generated_Source\PSoC6\pdl\cmsis/include/cmsis_gcc.h ****  ******************************************************************************/
   7:Generated_Source\PSoC6\pdl\cmsis/include/cmsis_gcc.h **** /*
   8:Generated_Source\PSoC6\pdl\cmsis/include/cmsis_gcc.h ****  * Copyright (c) 2009-2017 ARM Limited. All rights reserved.
   9:Generated_Source\PSoC6\pdl\cmsis/include/cmsis_gcc.h ****  *
  10:Generated_Source\PSoC6\pdl\cmsis/include/cmsis_gcc.h ****  * SPDX-License-Identifier: Apache-2.0
  11:Generated_Source\PSoC6\pdl\cmsis/include/cmsis_gcc.h ****  *
  12:Generated_Source\PSoC6\pdl\cmsis/include/cmsis_gcc.h ****  * Licensed under the Apache License, Version 2.0 (the License); you may
  13:Generated_Source\PSoC6\pdl\cmsis/include/cmsis_gcc.h ****  * not use this file except in compliance with the License.
  14:Generated_Source\PSoC6\pdl\cmsis/include/cmsis_gcc.h ****  * You may obtain a copy of the License at
  15:Generated_Source\PSoC6\pdl\cmsis/include/cmsis_gcc.h ****  *
  16:Generated_Source\PSoC6\pdl\cmsis/include/cmsis_gcc.h ****  * www.apache.org/licenses/LICENSE-2.0
  17:Generated_Source\PSoC6\pdl\cmsis/include/cmsis_gcc.h ****  *
  18:Generated_Source\PSoC6\pdl\cmsis/include/cmsis_gcc.h ****  * Unless required by applicable law or agreed to in writing, software
  19:Generated_Source\PSoC6\pdl\cmsis/include/cmsis_gcc.h ****  * distributed under the License is distributed on an AS IS BASIS, WITHOUT
  20:Generated_Source\PSoC6\pdl\cmsis/include/cmsis_gcc.h ****  * WARRANTIES OR CONDITIONS OF ANY KIND, either express or implied.
  21:Generated_Source\PSoC6\pdl\cmsis/include/cmsis_gcc.h ****  * See the License for the specific language governing permissions and
  22:Generated_Source\PSoC6\pdl\cmsis/include/cmsis_gcc.h ****  * limitations under the License.
  23:Generated_Source\PSoC6\pdl\cmsis/include/cmsis_gcc.h ****  */
  24:Generated_Source\PSoC6\pdl\cmsis/include/cmsis_gcc.h **** 
  25:Generated_Source\PSoC6\pdl\cmsis/include/cmsis_gcc.h **** #ifndef __CMSIS_GCC_H
  26:Generated_Source\PSoC6\pdl\cmsis/include/cmsis_gcc.h **** #define __CMSIS_GCC_H
  27:Generated_Source\PSoC6\pdl\cmsis/include/cmsis_gcc.h **** 
  28:Generated_Source\PSoC6\pdl\cmsis/include/cmsis_gcc.h **** /* ignore some GCC warnings */
  29:Generated_Source\PSoC6\pdl\cmsis/include/cmsis_gcc.h **** #pragma GCC diagnostic push
  30:Generated_Source\PSoC6\pdl\cmsis/include/cmsis_gcc.h **** #pragma GCC diagnostic ignored "-Wsign-conversion"
  31:Generated_Source\PSoC6\pdl\cmsis/include/cmsis_gcc.h **** #pragma GCC diagnostic ignored "-Wconversion"
  32:Generated_Source\PSoC6\pdl\cmsis/include/cmsis_gcc.h **** #pragma GCC diagnostic ignored "-Wunused-parameter"
ARM GAS  C:\Users\stijn\AppData\Local\Temp\ccLepBqo.s 			page 20


  33:Generated_Source\PSoC6\pdl\cmsis/include/cmsis_gcc.h **** 
  34:Generated_Source\PSoC6\pdl\cmsis/include/cmsis_gcc.h **** /* Fallback for __has_builtin */
  35:Generated_Source\PSoC6\pdl\cmsis/include/cmsis_gcc.h **** #ifndef __has_builtin
  36:Generated_Source\PSoC6\pdl\cmsis/include/cmsis_gcc.h ****   #define __has_builtin(x) (0)
  37:Generated_Source\PSoC6\pdl\cmsis/include/cmsis_gcc.h **** #endif
  38:Generated_Source\PSoC6\pdl\cmsis/include/cmsis_gcc.h **** 
  39:Generated_Source\PSoC6\pdl\cmsis/include/cmsis_gcc.h **** /* CMSIS compiler specific defines */
  40:Generated_Source\PSoC6\pdl\cmsis/include/cmsis_gcc.h **** #ifndef   __ASM
  41:Generated_Source\PSoC6\pdl\cmsis/include/cmsis_gcc.h ****   #define __ASM                                  __asm
  42:Generated_Source\PSoC6\pdl\cmsis/include/cmsis_gcc.h **** #endif
  43:Generated_Source\PSoC6\pdl\cmsis/include/cmsis_gcc.h **** #ifndef   __INLINE
  44:Generated_Source\PSoC6\pdl\cmsis/include/cmsis_gcc.h ****   #define __INLINE                               inline
  45:Generated_Source\PSoC6\pdl\cmsis/include/cmsis_gcc.h **** #endif
  46:Generated_Source\PSoC6\pdl\cmsis/include/cmsis_gcc.h **** #ifndef   __STATIC_INLINE
  47:Generated_Source\PSoC6\pdl\cmsis/include/cmsis_gcc.h ****   #define __STATIC_INLINE                        static inline
  48:Generated_Source\PSoC6\pdl\cmsis/include/cmsis_gcc.h **** #endif
  49:Generated_Source\PSoC6\pdl\cmsis/include/cmsis_gcc.h **** #ifndef   __STATIC_FORCEINLINE                 
  50:Generated_Source\PSoC6\pdl\cmsis/include/cmsis_gcc.h ****   #define __STATIC_FORCEINLINE                   __attribute__((always_inline)) static inline
  51:Generated_Source\PSoC6\pdl\cmsis/include/cmsis_gcc.h **** #endif                                           
  52:Generated_Source\PSoC6\pdl\cmsis/include/cmsis_gcc.h **** #ifndef   __NO_RETURN
  53:Generated_Source\PSoC6\pdl\cmsis/include/cmsis_gcc.h ****   #define __NO_RETURN                            __attribute__((__noreturn__))
  54:Generated_Source\PSoC6\pdl\cmsis/include/cmsis_gcc.h **** #endif
  55:Generated_Source\PSoC6\pdl\cmsis/include/cmsis_gcc.h **** #ifndef   __USED
  56:Generated_Source\PSoC6\pdl\cmsis/include/cmsis_gcc.h ****   #define __USED                                 __attribute__((used))
  57:Generated_Source\PSoC6\pdl\cmsis/include/cmsis_gcc.h **** #endif
  58:Generated_Source\PSoC6\pdl\cmsis/include/cmsis_gcc.h **** #ifndef   __WEAK
  59:Generated_Source\PSoC6\pdl\cmsis/include/cmsis_gcc.h ****   #define __WEAK                                 __attribute__((weak))
  60:Generated_Source\PSoC6\pdl\cmsis/include/cmsis_gcc.h **** #endif
  61:Generated_Source\PSoC6\pdl\cmsis/include/cmsis_gcc.h **** #ifndef   __PACKED
  62:Generated_Source\PSoC6\pdl\cmsis/include/cmsis_gcc.h ****   #define __PACKED                               __attribute__((packed, aligned(1)))
  63:Generated_Source\PSoC6\pdl\cmsis/include/cmsis_gcc.h **** #endif
  64:Generated_Source\PSoC6\pdl\cmsis/include/cmsis_gcc.h **** #ifndef   __PACKED_STRUCT
  65:Generated_Source\PSoC6\pdl\cmsis/include/cmsis_gcc.h ****   #define __PACKED_STRUCT                        struct __attribute__((packed, aligned(1)))
  66:Generated_Source\PSoC6\pdl\cmsis/include/cmsis_gcc.h **** #endif
  67:Generated_Source\PSoC6\pdl\cmsis/include/cmsis_gcc.h **** #ifndef   __PACKED_UNION
  68:Generated_Source\PSoC6\pdl\cmsis/include/cmsis_gcc.h ****   #define __PACKED_UNION                         union __attribute__((packed, aligned(1)))
  69:Generated_Source\PSoC6\pdl\cmsis/include/cmsis_gcc.h **** #endif
  70:Generated_Source\PSoC6\pdl\cmsis/include/cmsis_gcc.h **** #ifndef   __UNALIGNED_UINT32        /* deprecated */
  71:Generated_Source\PSoC6\pdl\cmsis/include/cmsis_gcc.h ****   #pragma GCC diagnostic push
  72:Generated_Source\PSoC6\pdl\cmsis/include/cmsis_gcc.h ****   #pragma GCC diagnostic ignored "-Wpacked"
  73:Generated_Source\PSoC6\pdl\cmsis/include/cmsis_gcc.h ****   #pragma GCC diagnostic ignored "-Wattributes"
  74:Generated_Source\PSoC6\pdl\cmsis/include/cmsis_gcc.h ****   struct __attribute__((packed)) T_UINT32 { uint32_t v; };
  75:Generated_Source\PSoC6\pdl\cmsis/include/cmsis_gcc.h ****   #pragma GCC diagnostic pop
  76:Generated_Source\PSoC6\pdl\cmsis/include/cmsis_gcc.h ****   #define __UNALIGNED_UINT32(x)                  (((struct T_UINT32 *)(x))->v)
  77:Generated_Source\PSoC6\pdl\cmsis/include/cmsis_gcc.h **** #endif
  78:Generated_Source\PSoC6\pdl\cmsis/include/cmsis_gcc.h **** #ifndef   __UNALIGNED_UINT16_WRITE
  79:Generated_Source\PSoC6\pdl\cmsis/include/cmsis_gcc.h ****   #pragma GCC diagnostic push
  80:Generated_Source\PSoC6\pdl\cmsis/include/cmsis_gcc.h ****   #pragma GCC diagnostic ignored "-Wpacked"
  81:Generated_Source\PSoC6\pdl\cmsis/include/cmsis_gcc.h ****   #pragma GCC diagnostic ignored "-Wattributes"
  82:Generated_Source\PSoC6\pdl\cmsis/include/cmsis_gcc.h ****   __PACKED_STRUCT T_UINT16_WRITE { uint16_t v; };
  83:Generated_Source\PSoC6\pdl\cmsis/include/cmsis_gcc.h ****   #pragma GCC diagnostic pop
  84:Generated_Source\PSoC6\pdl\cmsis/include/cmsis_gcc.h ****   #define __UNALIGNED_UINT16_WRITE(addr, val)    (void)((((struct T_UINT16_WRITE *)(void *)(addr))-
  85:Generated_Source\PSoC6\pdl\cmsis/include/cmsis_gcc.h **** #endif
  86:Generated_Source\PSoC6\pdl\cmsis/include/cmsis_gcc.h **** #ifndef   __UNALIGNED_UINT16_READ
  87:Generated_Source\PSoC6\pdl\cmsis/include/cmsis_gcc.h ****   #pragma GCC diagnostic push
  88:Generated_Source\PSoC6\pdl\cmsis/include/cmsis_gcc.h ****   #pragma GCC diagnostic ignored "-Wpacked"
  89:Generated_Source\PSoC6\pdl\cmsis/include/cmsis_gcc.h ****   #pragma GCC diagnostic ignored "-Wattributes"
ARM GAS  C:\Users\stijn\AppData\Local\Temp\ccLepBqo.s 			page 21


  90:Generated_Source\PSoC6\pdl\cmsis/include/cmsis_gcc.h ****   __PACKED_STRUCT T_UINT16_READ { uint16_t v; };
  91:Generated_Source\PSoC6\pdl\cmsis/include/cmsis_gcc.h ****   #pragma GCC diagnostic pop
  92:Generated_Source\PSoC6\pdl\cmsis/include/cmsis_gcc.h ****   #define __UNALIGNED_UINT16_READ(addr)          (((const struct T_UINT16_READ *)(const void *)(add
  93:Generated_Source\PSoC6\pdl\cmsis/include/cmsis_gcc.h **** #endif
  94:Generated_Source\PSoC6\pdl\cmsis/include/cmsis_gcc.h **** #ifndef   __UNALIGNED_UINT32_WRITE
  95:Generated_Source\PSoC6\pdl\cmsis/include/cmsis_gcc.h ****   #pragma GCC diagnostic push
  96:Generated_Source\PSoC6\pdl\cmsis/include/cmsis_gcc.h ****   #pragma GCC diagnostic ignored "-Wpacked"
  97:Generated_Source\PSoC6\pdl\cmsis/include/cmsis_gcc.h ****   #pragma GCC diagnostic ignored "-Wattributes"
  98:Generated_Source\PSoC6\pdl\cmsis/include/cmsis_gcc.h ****   __PACKED_STRUCT T_UINT32_WRITE { uint32_t v; };
  99:Generated_Source\PSoC6\pdl\cmsis/include/cmsis_gcc.h ****   #pragma GCC diagnostic pop
 100:Generated_Source\PSoC6\pdl\cmsis/include/cmsis_gcc.h ****   #define __UNALIGNED_UINT32_WRITE(addr, val)    (void)((((struct T_UINT32_WRITE *)(void *)(addr))-
 101:Generated_Source\PSoC6\pdl\cmsis/include/cmsis_gcc.h **** #endif
 102:Generated_Source\PSoC6\pdl\cmsis/include/cmsis_gcc.h **** #ifndef   __UNALIGNED_UINT32_READ
 103:Generated_Source\PSoC6\pdl\cmsis/include/cmsis_gcc.h ****   #pragma GCC diagnostic push
 104:Generated_Source\PSoC6\pdl\cmsis/include/cmsis_gcc.h ****   #pragma GCC diagnostic ignored "-Wpacked"
 105:Generated_Source\PSoC6\pdl\cmsis/include/cmsis_gcc.h ****   #pragma GCC diagnostic ignored "-Wattributes"
 106:Generated_Source\PSoC6\pdl\cmsis/include/cmsis_gcc.h ****   __PACKED_STRUCT T_UINT32_READ { uint32_t v; };
 107:Generated_Source\PSoC6\pdl\cmsis/include/cmsis_gcc.h ****   #pragma GCC diagnostic pop
 108:Generated_Source\PSoC6\pdl\cmsis/include/cmsis_gcc.h ****   #define __UNALIGNED_UINT32_READ(addr)          (((const struct T_UINT32_READ *)(const void *)(add
 109:Generated_Source\PSoC6\pdl\cmsis/include/cmsis_gcc.h **** #endif
 110:Generated_Source\PSoC6\pdl\cmsis/include/cmsis_gcc.h **** #ifndef   __ALIGNED
 111:Generated_Source\PSoC6\pdl\cmsis/include/cmsis_gcc.h ****   #define __ALIGNED(x)                           __attribute__((aligned(x)))
 112:Generated_Source\PSoC6\pdl\cmsis/include/cmsis_gcc.h **** #endif
 113:Generated_Source\PSoC6\pdl\cmsis/include/cmsis_gcc.h **** #ifndef   __RESTRICT
 114:Generated_Source\PSoC6\pdl\cmsis/include/cmsis_gcc.h ****   #define __RESTRICT                             __restrict
 115:Generated_Source\PSoC6\pdl\cmsis/include/cmsis_gcc.h **** #endif
 116:Generated_Source\PSoC6\pdl\cmsis/include/cmsis_gcc.h **** 
 117:Generated_Source\PSoC6\pdl\cmsis/include/cmsis_gcc.h **** 
 118:Generated_Source\PSoC6\pdl\cmsis/include/cmsis_gcc.h **** /* ###########################  Core Function Access  ########################### */
 119:Generated_Source\PSoC6\pdl\cmsis/include/cmsis_gcc.h **** /** \ingroup  CMSIS_Core_FunctionInterface
 120:Generated_Source\PSoC6\pdl\cmsis/include/cmsis_gcc.h ****     \defgroup CMSIS_Core_RegAccFunctions CMSIS Core Register Access Functions
 121:Generated_Source\PSoC6\pdl\cmsis/include/cmsis_gcc.h ****   @{
 122:Generated_Source\PSoC6\pdl\cmsis/include/cmsis_gcc.h ****  */
 123:Generated_Source\PSoC6\pdl\cmsis/include/cmsis_gcc.h **** 
 124:Generated_Source\PSoC6\pdl\cmsis/include/cmsis_gcc.h **** /**
 125:Generated_Source\PSoC6\pdl\cmsis/include/cmsis_gcc.h ****   \brief   Enable IRQ Interrupts
 126:Generated_Source\PSoC6\pdl\cmsis/include/cmsis_gcc.h ****   \details Enables IRQ interrupts by clearing the I-bit in the CPSR.
 127:Generated_Source\PSoC6\pdl\cmsis/include/cmsis_gcc.h ****            Can only be executed in Privileged modes.
 128:Generated_Source\PSoC6\pdl\cmsis/include/cmsis_gcc.h ****  */
 129:Generated_Source\PSoC6\pdl\cmsis/include/cmsis_gcc.h **** __STATIC_FORCEINLINE void __enable_irq(void)
 130:Generated_Source\PSoC6\pdl\cmsis/include/cmsis_gcc.h **** {
 131:Generated_Source\PSoC6\pdl\cmsis/include/cmsis_gcc.h ****   __ASM volatile ("cpsie i" : : : "memory");
 132:Generated_Source\PSoC6\pdl\cmsis/include/cmsis_gcc.h **** }
 133:Generated_Source\PSoC6\pdl\cmsis/include/cmsis_gcc.h **** 
 134:Generated_Source\PSoC6\pdl\cmsis/include/cmsis_gcc.h **** 
 135:Generated_Source\PSoC6\pdl\cmsis/include/cmsis_gcc.h **** /**
 136:Generated_Source\PSoC6\pdl\cmsis/include/cmsis_gcc.h ****   \brief   Disable IRQ Interrupts
 137:Generated_Source\PSoC6\pdl\cmsis/include/cmsis_gcc.h ****   \details Disables IRQ interrupts by setting the I-bit in the CPSR.
 138:Generated_Source\PSoC6\pdl\cmsis/include/cmsis_gcc.h ****            Can only be executed in Privileged modes.
 139:Generated_Source\PSoC6\pdl\cmsis/include/cmsis_gcc.h ****  */
 140:Generated_Source\PSoC6\pdl\cmsis/include/cmsis_gcc.h **** __STATIC_FORCEINLINE void __disable_irq(void)
 141:Generated_Source\PSoC6\pdl\cmsis/include/cmsis_gcc.h **** {
 142:Generated_Source\PSoC6\pdl\cmsis/include/cmsis_gcc.h ****   __ASM volatile ("cpsid i" : : : "memory");
 143:Generated_Source\PSoC6\pdl\cmsis/include/cmsis_gcc.h **** }
 144:Generated_Source\PSoC6\pdl\cmsis/include/cmsis_gcc.h **** 
 145:Generated_Source\PSoC6\pdl\cmsis/include/cmsis_gcc.h **** 
 146:Generated_Source\PSoC6\pdl\cmsis/include/cmsis_gcc.h **** /**
ARM GAS  C:\Users\stijn\AppData\Local\Temp\ccLepBqo.s 			page 22


 147:Generated_Source\PSoC6\pdl\cmsis/include/cmsis_gcc.h ****   \brief   Get Control Register
 148:Generated_Source\PSoC6\pdl\cmsis/include/cmsis_gcc.h ****   \details Returns the content of the Control Register.
 149:Generated_Source\PSoC6\pdl\cmsis/include/cmsis_gcc.h ****   \return               Control Register value
 150:Generated_Source\PSoC6\pdl\cmsis/include/cmsis_gcc.h ****  */
 151:Generated_Source\PSoC6\pdl\cmsis/include/cmsis_gcc.h **** __STATIC_FORCEINLINE uint32_t __get_CONTROL(void)
 152:Generated_Source\PSoC6\pdl\cmsis/include/cmsis_gcc.h **** {
 153:Generated_Source\PSoC6\pdl\cmsis/include/cmsis_gcc.h ****   uint32_t result;
 154:Generated_Source\PSoC6\pdl\cmsis/include/cmsis_gcc.h **** 
 155:Generated_Source\PSoC6\pdl\cmsis/include/cmsis_gcc.h ****   __ASM volatile ("MRS %0, control" : "=r" (result) );
 156:Generated_Source\PSoC6\pdl\cmsis/include/cmsis_gcc.h ****   return(result);
 157:Generated_Source\PSoC6\pdl\cmsis/include/cmsis_gcc.h **** }
 158:Generated_Source\PSoC6\pdl\cmsis/include/cmsis_gcc.h **** 
 159:Generated_Source\PSoC6\pdl\cmsis/include/cmsis_gcc.h **** 
 160:Generated_Source\PSoC6\pdl\cmsis/include/cmsis_gcc.h **** #if (defined (__ARM_FEATURE_CMSE ) && (__ARM_FEATURE_CMSE == 3))
 161:Generated_Source\PSoC6\pdl\cmsis/include/cmsis_gcc.h **** /**
 162:Generated_Source\PSoC6\pdl\cmsis/include/cmsis_gcc.h ****   \brief   Get Control Register (non-secure)
 163:Generated_Source\PSoC6\pdl\cmsis/include/cmsis_gcc.h ****   \details Returns the content of the non-secure Control Register when in secure mode.
 164:Generated_Source\PSoC6\pdl\cmsis/include/cmsis_gcc.h ****   \return               non-secure Control Register value
 165:Generated_Source\PSoC6\pdl\cmsis/include/cmsis_gcc.h ****  */
 166:Generated_Source\PSoC6\pdl\cmsis/include/cmsis_gcc.h **** __STATIC_FORCEINLINE uint32_t __TZ_get_CONTROL_NS(void)
 167:Generated_Source\PSoC6\pdl\cmsis/include/cmsis_gcc.h **** {
 168:Generated_Source\PSoC6\pdl\cmsis/include/cmsis_gcc.h ****   uint32_t result;
 169:Generated_Source\PSoC6\pdl\cmsis/include/cmsis_gcc.h **** 
 170:Generated_Source\PSoC6\pdl\cmsis/include/cmsis_gcc.h ****   __ASM volatile ("MRS %0, control_ns" : "=r" (result) );
 171:Generated_Source\PSoC6\pdl\cmsis/include/cmsis_gcc.h ****   return(result);
 172:Generated_Source\PSoC6\pdl\cmsis/include/cmsis_gcc.h **** }
 173:Generated_Source\PSoC6\pdl\cmsis/include/cmsis_gcc.h **** #endif
 174:Generated_Source\PSoC6\pdl\cmsis/include/cmsis_gcc.h **** 
 175:Generated_Source\PSoC6\pdl\cmsis/include/cmsis_gcc.h **** 
 176:Generated_Source\PSoC6\pdl\cmsis/include/cmsis_gcc.h **** /**
 177:Generated_Source\PSoC6\pdl\cmsis/include/cmsis_gcc.h ****   \brief   Set Control Register
 178:Generated_Source\PSoC6\pdl\cmsis/include/cmsis_gcc.h ****   \details Writes the given value to the Control Register.
 179:Generated_Source\PSoC6\pdl\cmsis/include/cmsis_gcc.h ****   \param [in]    control  Control Register value to set
 180:Generated_Source\PSoC6\pdl\cmsis/include/cmsis_gcc.h ****  */
 181:Generated_Source\PSoC6\pdl\cmsis/include/cmsis_gcc.h **** __STATIC_FORCEINLINE void __set_CONTROL(uint32_t control)
 182:Generated_Source\PSoC6\pdl\cmsis/include/cmsis_gcc.h **** {
 183:Generated_Source\PSoC6\pdl\cmsis/include/cmsis_gcc.h ****   __ASM volatile ("MSR control, %0" : : "r" (control) : "memory");
 184:Generated_Source\PSoC6\pdl\cmsis/include/cmsis_gcc.h **** }
 185:Generated_Source\PSoC6\pdl\cmsis/include/cmsis_gcc.h **** 
 186:Generated_Source\PSoC6\pdl\cmsis/include/cmsis_gcc.h **** 
 187:Generated_Source\PSoC6\pdl\cmsis/include/cmsis_gcc.h **** #if (defined (__ARM_FEATURE_CMSE ) && (__ARM_FEATURE_CMSE == 3))
 188:Generated_Source\PSoC6\pdl\cmsis/include/cmsis_gcc.h **** /**
 189:Generated_Source\PSoC6\pdl\cmsis/include/cmsis_gcc.h ****   \brief   Set Control Register (non-secure)
 190:Generated_Source\PSoC6\pdl\cmsis/include/cmsis_gcc.h ****   \details Writes the given value to the non-secure Control Register when in secure state.
 191:Generated_Source\PSoC6\pdl\cmsis/include/cmsis_gcc.h ****   \param [in]    control  Control Register value to set
 192:Generated_Source\PSoC6\pdl\cmsis/include/cmsis_gcc.h ****  */
 193:Generated_Source\PSoC6\pdl\cmsis/include/cmsis_gcc.h **** __STATIC_FORCEINLINE void __TZ_set_CONTROL_NS(uint32_t control)
 194:Generated_Source\PSoC6\pdl\cmsis/include/cmsis_gcc.h **** {
 195:Generated_Source\PSoC6\pdl\cmsis/include/cmsis_gcc.h ****   __ASM volatile ("MSR control_ns, %0" : : "r" (control) : "memory");
 196:Generated_Source\PSoC6\pdl\cmsis/include/cmsis_gcc.h **** }
 197:Generated_Source\PSoC6\pdl\cmsis/include/cmsis_gcc.h **** #endif
 198:Generated_Source\PSoC6\pdl\cmsis/include/cmsis_gcc.h **** 
 199:Generated_Source\PSoC6\pdl\cmsis/include/cmsis_gcc.h **** 
 200:Generated_Source\PSoC6\pdl\cmsis/include/cmsis_gcc.h **** /**
 201:Generated_Source\PSoC6\pdl\cmsis/include/cmsis_gcc.h ****   \brief   Get IPSR Register
 202:Generated_Source\PSoC6\pdl\cmsis/include/cmsis_gcc.h ****   \details Returns the content of the IPSR Register.
 203:Generated_Source\PSoC6\pdl\cmsis/include/cmsis_gcc.h ****   \return               IPSR Register value
ARM GAS  C:\Users\stijn\AppData\Local\Temp\ccLepBqo.s 			page 23


 204:Generated_Source\PSoC6\pdl\cmsis/include/cmsis_gcc.h ****  */
 205:Generated_Source\PSoC6\pdl\cmsis/include/cmsis_gcc.h **** __STATIC_FORCEINLINE uint32_t __get_IPSR(void)
 206:Generated_Source\PSoC6\pdl\cmsis/include/cmsis_gcc.h **** {
 207:Generated_Source\PSoC6\pdl\cmsis/include/cmsis_gcc.h ****   uint32_t result;
 208:Generated_Source\PSoC6\pdl\cmsis/include/cmsis_gcc.h **** 
 209:Generated_Source\PSoC6\pdl\cmsis/include/cmsis_gcc.h ****   __ASM volatile ("MRS %0, ipsr" : "=r" (result) );
 210:Generated_Source\PSoC6\pdl\cmsis/include/cmsis_gcc.h ****   return(result);
 211:Generated_Source\PSoC6\pdl\cmsis/include/cmsis_gcc.h **** }
 212:Generated_Source\PSoC6\pdl\cmsis/include/cmsis_gcc.h **** 
 213:Generated_Source\PSoC6\pdl\cmsis/include/cmsis_gcc.h **** 
 214:Generated_Source\PSoC6\pdl\cmsis/include/cmsis_gcc.h **** /**
 215:Generated_Source\PSoC6\pdl\cmsis/include/cmsis_gcc.h ****   \brief   Get APSR Register
 216:Generated_Source\PSoC6\pdl\cmsis/include/cmsis_gcc.h ****   \details Returns the content of the APSR Register.
 217:Generated_Source\PSoC6\pdl\cmsis/include/cmsis_gcc.h ****   \return               APSR Register value
 218:Generated_Source\PSoC6\pdl\cmsis/include/cmsis_gcc.h ****  */
 219:Generated_Source\PSoC6\pdl\cmsis/include/cmsis_gcc.h **** __STATIC_FORCEINLINE uint32_t __get_APSR(void)
 220:Generated_Source\PSoC6\pdl\cmsis/include/cmsis_gcc.h **** {
 221:Generated_Source\PSoC6\pdl\cmsis/include/cmsis_gcc.h ****   uint32_t result;
 222:Generated_Source\PSoC6\pdl\cmsis/include/cmsis_gcc.h **** 
 223:Generated_Source\PSoC6\pdl\cmsis/include/cmsis_gcc.h ****   __ASM volatile ("MRS %0, apsr" : "=r" (result) );
 224:Generated_Source\PSoC6\pdl\cmsis/include/cmsis_gcc.h ****   return(result);
 225:Generated_Source\PSoC6\pdl\cmsis/include/cmsis_gcc.h **** }
 226:Generated_Source\PSoC6\pdl\cmsis/include/cmsis_gcc.h **** 
 227:Generated_Source\PSoC6\pdl\cmsis/include/cmsis_gcc.h **** 
 228:Generated_Source\PSoC6\pdl\cmsis/include/cmsis_gcc.h **** /**
 229:Generated_Source\PSoC6\pdl\cmsis/include/cmsis_gcc.h ****   \brief   Get xPSR Register
 230:Generated_Source\PSoC6\pdl\cmsis/include/cmsis_gcc.h ****   \details Returns the content of the xPSR Register.
 231:Generated_Source\PSoC6\pdl\cmsis/include/cmsis_gcc.h ****   \return               xPSR Register value
 232:Generated_Source\PSoC6\pdl\cmsis/include/cmsis_gcc.h ****  */
 233:Generated_Source\PSoC6\pdl\cmsis/include/cmsis_gcc.h **** __STATIC_FORCEINLINE uint32_t __get_xPSR(void)
 234:Generated_Source\PSoC6\pdl\cmsis/include/cmsis_gcc.h **** {
 235:Generated_Source\PSoC6\pdl\cmsis/include/cmsis_gcc.h ****   uint32_t result;
 236:Generated_Source\PSoC6\pdl\cmsis/include/cmsis_gcc.h **** 
 237:Generated_Source\PSoC6\pdl\cmsis/include/cmsis_gcc.h ****   __ASM volatile ("MRS %0, xpsr" : "=r" (result) );
 238:Generated_Source\PSoC6\pdl\cmsis/include/cmsis_gcc.h ****   return(result);
 239:Generated_Source\PSoC6\pdl\cmsis/include/cmsis_gcc.h **** }
 240:Generated_Source\PSoC6\pdl\cmsis/include/cmsis_gcc.h **** 
 241:Generated_Source\PSoC6\pdl\cmsis/include/cmsis_gcc.h **** 
 242:Generated_Source\PSoC6\pdl\cmsis/include/cmsis_gcc.h **** /**
 243:Generated_Source\PSoC6\pdl\cmsis/include/cmsis_gcc.h ****   \brief   Get Process Stack Pointer
 244:Generated_Source\PSoC6\pdl\cmsis/include/cmsis_gcc.h ****   \details Returns the current value of the Process Stack Pointer (PSP).
 245:Generated_Source\PSoC6\pdl\cmsis/include/cmsis_gcc.h ****   \return               PSP Register value
 246:Generated_Source\PSoC6\pdl\cmsis/include/cmsis_gcc.h ****  */
 247:Generated_Source\PSoC6\pdl\cmsis/include/cmsis_gcc.h **** __STATIC_FORCEINLINE uint32_t __get_PSP(void)
 248:Generated_Source\PSoC6\pdl\cmsis/include/cmsis_gcc.h **** {
 249:Generated_Source\PSoC6\pdl\cmsis/include/cmsis_gcc.h ****   register uint32_t result;
 250:Generated_Source\PSoC6\pdl\cmsis/include/cmsis_gcc.h **** 
 251:Generated_Source\PSoC6\pdl\cmsis/include/cmsis_gcc.h ****   __ASM volatile ("MRS %0, psp"  : "=r" (result) );
 252:Generated_Source\PSoC6\pdl\cmsis/include/cmsis_gcc.h ****   return(result);
 253:Generated_Source\PSoC6\pdl\cmsis/include/cmsis_gcc.h **** }
 254:Generated_Source\PSoC6\pdl\cmsis/include/cmsis_gcc.h **** 
 255:Generated_Source\PSoC6\pdl\cmsis/include/cmsis_gcc.h **** 
 256:Generated_Source\PSoC6\pdl\cmsis/include/cmsis_gcc.h **** #if (defined (__ARM_FEATURE_CMSE ) && (__ARM_FEATURE_CMSE == 3))
 257:Generated_Source\PSoC6\pdl\cmsis/include/cmsis_gcc.h **** /**
 258:Generated_Source\PSoC6\pdl\cmsis/include/cmsis_gcc.h ****   \brief   Get Process Stack Pointer (non-secure)
 259:Generated_Source\PSoC6\pdl\cmsis/include/cmsis_gcc.h ****   \details Returns the current value of the non-secure Process Stack Pointer (PSP) when in secure s
 260:Generated_Source\PSoC6\pdl\cmsis/include/cmsis_gcc.h ****   \return               PSP Register value
ARM GAS  C:\Users\stijn\AppData\Local\Temp\ccLepBqo.s 			page 24


 261:Generated_Source\PSoC6\pdl\cmsis/include/cmsis_gcc.h ****  */
 262:Generated_Source\PSoC6\pdl\cmsis/include/cmsis_gcc.h **** __STATIC_FORCEINLINE uint32_t __TZ_get_PSP_NS(void)
 263:Generated_Source\PSoC6\pdl\cmsis/include/cmsis_gcc.h **** {
 264:Generated_Source\PSoC6\pdl\cmsis/include/cmsis_gcc.h ****   register uint32_t result;
 265:Generated_Source\PSoC6\pdl\cmsis/include/cmsis_gcc.h **** 
 266:Generated_Source\PSoC6\pdl\cmsis/include/cmsis_gcc.h ****   __ASM volatile ("MRS %0, psp_ns"  : "=r" (result) );
 267:Generated_Source\PSoC6\pdl\cmsis/include/cmsis_gcc.h ****   return(result);
 268:Generated_Source\PSoC6\pdl\cmsis/include/cmsis_gcc.h **** }
 269:Generated_Source\PSoC6\pdl\cmsis/include/cmsis_gcc.h **** #endif
 270:Generated_Source\PSoC6\pdl\cmsis/include/cmsis_gcc.h **** 
 271:Generated_Source\PSoC6\pdl\cmsis/include/cmsis_gcc.h **** 
 272:Generated_Source\PSoC6\pdl\cmsis/include/cmsis_gcc.h **** /**
 273:Generated_Source\PSoC6\pdl\cmsis/include/cmsis_gcc.h ****   \brief   Set Process Stack Pointer
 274:Generated_Source\PSoC6\pdl\cmsis/include/cmsis_gcc.h ****   \details Assigns the given value to the Process Stack Pointer (PSP).
 275:Generated_Source\PSoC6\pdl\cmsis/include/cmsis_gcc.h ****   \param [in]    topOfProcStack  Process Stack Pointer value to set
 276:Generated_Source\PSoC6\pdl\cmsis/include/cmsis_gcc.h ****  */
 277:Generated_Source\PSoC6\pdl\cmsis/include/cmsis_gcc.h **** __STATIC_FORCEINLINE void __set_PSP(uint32_t topOfProcStack)
 278:Generated_Source\PSoC6\pdl\cmsis/include/cmsis_gcc.h **** {
 279:Generated_Source\PSoC6\pdl\cmsis/include/cmsis_gcc.h ****   __ASM volatile ("MSR psp, %0" : : "r" (topOfProcStack) : );
 280:Generated_Source\PSoC6\pdl\cmsis/include/cmsis_gcc.h **** }
 281:Generated_Source\PSoC6\pdl\cmsis/include/cmsis_gcc.h **** 
 282:Generated_Source\PSoC6\pdl\cmsis/include/cmsis_gcc.h **** 
 283:Generated_Source\PSoC6\pdl\cmsis/include/cmsis_gcc.h **** #if (defined (__ARM_FEATURE_CMSE ) && (__ARM_FEATURE_CMSE == 3))
 284:Generated_Source\PSoC6\pdl\cmsis/include/cmsis_gcc.h **** /**
 285:Generated_Source\PSoC6\pdl\cmsis/include/cmsis_gcc.h ****   \brief   Set Process Stack Pointer (non-secure)
 286:Generated_Source\PSoC6\pdl\cmsis/include/cmsis_gcc.h ****   \details Assigns the given value to the non-secure Process Stack Pointer (PSP) when in secure sta
 287:Generated_Source\PSoC6\pdl\cmsis/include/cmsis_gcc.h ****   \param [in]    topOfProcStack  Process Stack Pointer value to set
 288:Generated_Source\PSoC6\pdl\cmsis/include/cmsis_gcc.h ****  */
 289:Generated_Source\PSoC6\pdl\cmsis/include/cmsis_gcc.h **** __STATIC_FORCEINLINE void __TZ_set_PSP_NS(uint32_t topOfProcStack)
 290:Generated_Source\PSoC6\pdl\cmsis/include/cmsis_gcc.h **** {
 291:Generated_Source\PSoC6\pdl\cmsis/include/cmsis_gcc.h ****   __ASM volatile ("MSR psp_ns, %0" : : "r" (topOfProcStack) : );
 292:Generated_Source\PSoC6\pdl\cmsis/include/cmsis_gcc.h **** }
 293:Generated_Source\PSoC6\pdl\cmsis/include/cmsis_gcc.h **** #endif
 294:Generated_Source\PSoC6\pdl\cmsis/include/cmsis_gcc.h **** 
 295:Generated_Source\PSoC6\pdl\cmsis/include/cmsis_gcc.h **** 
 296:Generated_Source\PSoC6\pdl\cmsis/include/cmsis_gcc.h **** /**
 297:Generated_Source\PSoC6\pdl\cmsis/include/cmsis_gcc.h ****   \brief   Get Main Stack Pointer
 298:Generated_Source\PSoC6\pdl\cmsis/include/cmsis_gcc.h ****   \details Returns the current value of the Main Stack Pointer (MSP).
 299:Generated_Source\PSoC6\pdl\cmsis/include/cmsis_gcc.h ****   \return               MSP Register value
 300:Generated_Source\PSoC6\pdl\cmsis/include/cmsis_gcc.h ****  */
 301:Generated_Source\PSoC6\pdl\cmsis/include/cmsis_gcc.h **** __STATIC_FORCEINLINE uint32_t __get_MSP(void)
 302:Generated_Source\PSoC6\pdl\cmsis/include/cmsis_gcc.h **** {
 303:Generated_Source\PSoC6\pdl\cmsis/include/cmsis_gcc.h ****   register uint32_t result;
 304:Generated_Source\PSoC6\pdl\cmsis/include/cmsis_gcc.h **** 
 305:Generated_Source\PSoC6\pdl\cmsis/include/cmsis_gcc.h ****   __ASM volatile ("MRS %0, msp" : "=r" (result) );
 306:Generated_Source\PSoC6\pdl\cmsis/include/cmsis_gcc.h ****   return(result);
 307:Generated_Source\PSoC6\pdl\cmsis/include/cmsis_gcc.h **** }
 308:Generated_Source\PSoC6\pdl\cmsis/include/cmsis_gcc.h **** 
 309:Generated_Source\PSoC6\pdl\cmsis/include/cmsis_gcc.h **** 
 310:Generated_Source\PSoC6\pdl\cmsis/include/cmsis_gcc.h **** #if (defined (__ARM_FEATURE_CMSE ) && (__ARM_FEATURE_CMSE == 3))
 311:Generated_Source\PSoC6\pdl\cmsis/include/cmsis_gcc.h **** /**
 312:Generated_Source\PSoC6\pdl\cmsis/include/cmsis_gcc.h ****   \brief   Get Main Stack Pointer (non-secure)
 313:Generated_Source\PSoC6\pdl\cmsis/include/cmsis_gcc.h ****   \details Returns the current value of the non-secure Main Stack Pointer (MSP) when in secure stat
 314:Generated_Source\PSoC6\pdl\cmsis/include/cmsis_gcc.h ****   \return               MSP Register value
 315:Generated_Source\PSoC6\pdl\cmsis/include/cmsis_gcc.h ****  */
 316:Generated_Source\PSoC6\pdl\cmsis/include/cmsis_gcc.h **** __STATIC_FORCEINLINE uint32_t __TZ_get_MSP_NS(void)
 317:Generated_Source\PSoC6\pdl\cmsis/include/cmsis_gcc.h **** {
ARM GAS  C:\Users\stijn\AppData\Local\Temp\ccLepBqo.s 			page 25


 318:Generated_Source\PSoC6\pdl\cmsis/include/cmsis_gcc.h ****   register uint32_t result;
 319:Generated_Source\PSoC6\pdl\cmsis/include/cmsis_gcc.h **** 
 320:Generated_Source\PSoC6\pdl\cmsis/include/cmsis_gcc.h ****   __ASM volatile ("MRS %0, msp_ns" : "=r" (result) );
 321:Generated_Source\PSoC6\pdl\cmsis/include/cmsis_gcc.h ****   return(result);
 322:Generated_Source\PSoC6\pdl\cmsis/include/cmsis_gcc.h **** }
 323:Generated_Source\PSoC6\pdl\cmsis/include/cmsis_gcc.h **** #endif
 324:Generated_Source\PSoC6\pdl\cmsis/include/cmsis_gcc.h **** 
 325:Generated_Source\PSoC6\pdl\cmsis/include/cmsis_gcc.h **** 
 326:Generated_Source\PSoC6\pdl\cmsis/include/cmsis_gcc.h **** /**
 327:Generated_Source\PSoC6\pdl\cmsis/include/cmsis_gcc.h ****   \brief   Set Main Stack Pointer
 328:Generated_Source\PSoC6\pdl\cmsis/include/cmsis_gcc.h ****   \details Assigns the given value to the Main Stack Pointer (MSP).
 329:Generated_Source\PSoC6\pdl\cmsis/include/cmsis_gcc.h ****   \param [in]    topOfMainStack  Main Stack Pointer value to set
 330:Generated_Source\PSoC6\pdl\cmsis/include/cmsis_gcc.h ****  */
 331:Generated_Source\PSoC6\pdl\cmsis/include/cmsis_gcc.h **** __STATIC_FORCEINLINE void __set_MSP(uint32_t topOfMainStack)
 332:Generated_Source\PSoC6\pdl\cmsis/include/cmsis_gcc.h **** {
 333:Generated_Source\PSoC6\pdl\cmsis/include/cmsis_gcc.h ****   __ASM volatile ("MSR msp, %0" : : "r" (topOfMainStack) : );
 334:Generated_Source\PSoC6\pdl\cmsis/include/cmsis_gcc.h **** }
 335:Generated_Source\PSoC6\pdl\cmsis/include/cmsis_gcc.h **** 
 336:Generated_Source\PSoC6\pdl\cmsis/include/cmsis_gcc.h **** 
 337:Generated_Source\PSoC6\pdl\cmsis/include/cmsis_gcc.h **** #if (defined (__ARM_FEATURE_CMSE ) && (__ARM_FEATURE_CMSE == 3))
 338:Generated_Source\PSoC6\pdl\cmsis/include/cmsis_gcc.h **** /**
 339:Generated_Source\PSoC6\pdl\cmsis/include/cmsis_gcc.h ****   \brief   Set Main Stack Pointer (non-secure)
 340:Generated_Source\PSoC6\pdl\cmsis/include/cmsis_gcc.h ****   \details Assigns the given value to the non-secure Main Stack Pointer (MSP) when in secure state.
 341:Generated_Source\PSoC6\pdl\cmsis/include/cmsis_gcc.h ****   \param [in]    topOfMainStack  Main Stack Pointer value to set
 342:Generated_Source\PSoC6\pdl\cmsis/include/cmsis_gcc.h ****  */
 343:Generated_Source\PSoC6\pdl\cmsis/include/cmsis_gcc.h **** __STATIC_FORCEINLINE void __TZ_set_MSP_NS(uint32_t topOfMainStack)
 344:Generated_Source\PSoC6\pdl\cmsis/include/cmsis_gcc.h **** {
 345:Generated_Source\PSoC6\pdl\cmsis/include/cmsis_gcc.h ****   __ASM volatile ("MSR msp_ns, %0" : : "r" (topOfMainStack) : );
 346:Generated_Source\PSoC6\pdl\cmsis/include/cmsis_gcc.h **** }
 347:Generated_Source\PSoC6\pdl\cmsis/include/cmsis_gcc.h **** #endif
 348:Generated_Source\PSoC6\pdl\cmsis/include/cmsis_gcc.h **** 
 349:Generated_Source\PSoC6\pdl\cmsis/include/cmsis_gcc.h **** 
 350:Generated_Source\PSoC6\pdl\cmsis/include/cmsis_gcc.h **** #if (defined (__ARM_FEATURE_CMSE ) && (__ARM_FEATURE_CMSE == 3))
 351:Generated_Source\PSoC6\pdl\cmsis/include/cmsis_gcc.h **** /**
 352:Generated_Source\PSoC6\pdl\cmsis/include/cmsis_gcc.h ****   \brief   Get Stack Pointer (non-secure)
 353:Generated_Source\PSoC6\pdl\cmsis/include/cmsis_gcc.h ****   \details Returns the current value of the non-secure Stack Pointer (SP) when in secure state.
 354:Generated_Source\PSoC6\pdl\cmsis/include/cmsis_gcc.h ****   \return               SP Register value
 355:Generated_Source\PSoC6\pdl\cmsis/include/cmsis_gcc.h ****  */
 356:Generated_Source\PSoC6\pdl\cmsis/include/cmsis_gcc.h **** __STATIC_FORCEINLINE uint32_t __TZ_get_SP_NS(void)
 357:Generated_Source\PSoC6\pdl\cmsis/include/cmsis_gcc.h **** {
 358:Generated_Source\PSoC6\pdl\cmsis/include/cmsis_gcc.h ****   register uint32_t result;
 359:Generated_Source\PSoC6\pdl\cmsis/include/cmsis_gcc.h **** 
 360:Generated_Source\PSoC6\pdl\cmsis/include/cmsis_gcc.h ****   __ASM volatile ("MRS %0, sp_ns" : "=r" (result) );
 361:Generated_Source\PSoC6\pdl\cmsis/include/cmsis_gcc.h ****   return(result);
 362:Generated_Source\PSoC6\pdl\cmsis/include/cmsis_gcc.h **** }
 363:Generated_Source\PSoC6\pdl\cmsis/include/cmsis_gcc.h **** 
 364:Generated_Source\PSoC6\pdl\cmsis/include/cmsis_gcc.h **** 
 365:Generated_Source\PSoC6\pdl\cmsis/include/cmsis_gcc.h **** /**
 366:Generated_Source\PSoC6\pdl\cmsis/include/cmsis_gcc.h ****   \brief   Set Stack Pointer (non-secure)
 367:Generated_Source\PSoC6\pdl\cmsis/include/cmsis_gcc.h ****   \details Assigns the given value to the non-secure Stack Pointer (SP) when in secure state.
 368:Generated_Source\PSoC6\pdl\cmsis/include/cmsis_gcc.h ****   \param [in]    topOfStack  Stack Pointer value to set
 369:Generated_Source\PSoC6\pdl\cmsis/include/cmsis_gcc.h ****  */
 370:Generated_Source\PSoC6\pdl\cmsis/include/cmsis_gcc.h **** __STATIC_FORCEINLINE void __TZ_set_SP_NS(uint32_t topOfStack)
 371:Generated_Source\PSoC6\pdl\cmsis/include/cmsis_gcc.h **** {
 372:Generated_Source\PSoC6\pdl\cmsis/include/cmsis_gcc.h ****   __ASM volatile ("MSR sp_ns, %0" : : "r" (topOfStack) : );
 373:Generated_Source\PSoC6\pdl\cmsis/include/cmsis_gcc.h **** }
 374:Generated_Source\PSoC6\pdl\cmsis/include/cmsis_gcc.h **** #endif
ARM GAS  C:\Users\stijn\AppData\Local\Temp\ccLepBqo.s 			page 26


 375:Generated_Source\PSoC6\pdl\cmsis/include/cmsis_gcc.h **** 
 376:Generated_Source\PSoC6\pdl\cmsis/include/cmsis_gcc.h **** 
 377:Generated_Source\PSoC6\pdl\cmsis/include/cmsis_gcc.h **** /**
 378:Generated_Source\PSoC6\pdl\cmsis/include/cmsis_gcc.h ****   \brief   Get Priority Mask
 379:Generated_Source\PSoC6\pdl\cmsis/include/cmsis_gcc.h ****   \details Returns the current state of the priority mask bit from the Priority Mask Register.
 380:Generated_Source\PSoC6\pdl\cmsis/include/cmsis_gcc.h ****   \return               Priority Mask value
 381:Generated_Source\PSoC6\pdl\cmsis/include/cmsis_gcc.h ****  */
 382:Generated_Source\PSoC6\pdl\cmsis/include/cmsis_gcc.h **** __STATIC_FORCEINLINE uint32_t __get_PRIMASK(void)
 383:Generated_Source\PSoC6\pdl\cmsis/include/cmsis_gcc.h **** {
 384:Generated_Source\PSoC6\pdl\cmsis/include/cmsis_gcc.h ****   uint32_t result;
 385:Generated_Source\PSoC6\pdl\cmsis/include/cmsis_gcc.h **** 
 386:Generated_Source\PSoC6\pdl\cmsis/include/cmsis_gcc.h ****   __ASM volatile ("MRS %0, primask" : "=r" (result) :: "memory");
 387:Generated_Source\PSoC6\pdl\cmsis/include/cmsis_gcc.h ****   return(result);
 388:Generated_Source\PSoC6\pdl\cmsis/include/cmsis_gcc.h **** }
 389:Generated_Source\PSoC6\pdl\cmsis/include/cmsis_gcc.h **** 
 390:Generated_Source\PSoC6\pdl\cmsis/include/cmsis_gcc.h **** 
 391:Generated_Source\PSoC6\pdl\cmsis/include/cmsis_gcc.h **** #if (defined (__ARM_FEATURE_CMSE ) && (__ARM_FEATURE_CMSE == 3))
 392:Generated_Source\PSoC6\pdl\cmsis/include/cmsis_gcc.h **** /**
 393:Generated_Source\PSoC6\pdl\cmsis/include/cmsis_gcc.h ****   \brief   Get Priority Mask (non-secure)
 394:Generated_Source\PSoC6\pdl\cmsis/include/cmsis_gcc.h ****   \details Returns the current state of the non-secure priority mask bit from the Priority Mask Reg
 395:Generated_Source\PSoC6\pdl\cmsis/include/cmsis_gcc.h ****   \return               Priority Mask value
 396:Generated_Source\PSoC6\pdl\cmsis/include/cmsis_gcc.h ****  */
 397:Generated_Source\PSoC6\pdl\cmsis/include/cmsis_gcc.h **** __STATIC_FORCEINLINE uint32_t __TZ_get_PRIMASK_NS(void)
 398:Generated_Source\PSoC6\pdl\cmsis/include/cmsis_gcc.h **** {
 399:Generated_Source\PSoC6\pdl\cmsis/include/cmsis_gcc.h ****   uint32_t result;
 400:Generated_Source\PSoC6\pdl\cmsis/include/cmsis_gcc.h **** 
 401:Generated_Source\PSoC6\pdl\cmsis/include/cmsis_gcc.h ****   __ASM volatile ("MRS %0, primask_ns" : "=r" (result) :: "memory");
 402:Generated_Source\PSoC6\pdl\cmsis/include/cmsis_gcc.h ****   return(result);
 403:Generated_Source\PSoC6\pdl\cmsis/include/cmsis_gcc.h **** }
 404:Generated_Source\PSoC6\pdl\cmsis/include/cmsis_gcc.h **** #endif
 405:Generated_Source\PSoC6\pdl\cmsis/include/cmsis_gcc.h **** 
 406:Generated_Source\PSoC6\pdl\cmsis/include/cmsis_gcc.h **** 
 407:Generated_Source\PSoC6\pdl\cmsis/include/cmsis_gcc.h **** /**
 408:Generated_Source\PSoC6\pdl\cmsis/include/cmsis_gcc.h ****   \brief   Set Priority Mask
 409:Generated_Source\PSoC6\pdl\cmsis/include/cmsis_gcc.h ****   \details Assigns the given value to the Priority Mask Register.
 410:Generated_Source\PSoC6\pdl\cmsis/include/cmsis_gcc.h ****   \param [in]    priMask  Priority Mask
 411:Generated_Source\PSoC6\pdl\cmsis/include/cmsis_gcc.h ****  */
 412:Generated_Source\PSoC6\pdl\cmsis/include/cmsis_gcc.h **** __STATIC_FORCEINLINE void __set_PRIMASK(uint32_t priMask)
 413:Generated_Source\PSoC6\pdl\cmsis/include/cmsis_gcc.h **** {
 414:Generated_Source\PSoC6\pdl\cmsis/include/cmsis_gcc.h ****   __ASM volatile ("MSR primask, %0" : : "r" (priMask) : "memory");
 415:Generated_Source\PSoC6\pdl\cmsis/include/cmsis_gcc.h **** }
 416:Generated_Source\PSoC6\pdl\cmsis/include/cmsis_gcc.h **** 
 417:Generated_Source\PSoC6\pdl\cmsis/include/cmsis_gcc.h **** 
 418:Generated_Source\PSoC6\pdl\cmsis/include/cmsis_gcc.h **** #if (defined (__ARM_FEATURE_CMSE ) && (__ARM_FEATURE_CMSE == 3))
 419:Generated_Source\PSoC6\pdl\cmsis/include/cmsis_gcc.h **** /**
 420:Generated_Source\PSoC6\pdl\cmsis/include/cmsis_gcc.h ****   \brief   Set Priority Mask (non-secure)
 421:Generated_Source\PSoC6\pdl\cmsis/include/cmsis_gcc.h ****   \details Assigns the given value to the non-secure Priority Mask Register when in secure state.
 422:Generated_Source\PSoC6\pdl\cmsis/include/cmsis_gcc.h ****   \param [in]    priMask  Priority Mask
 423:Generated_Source\PSoC6\pdl\cmsis/include/cmsis_gcc.h ****  */
 424:Generated_Source\PSoC6\pdl\cmsis/include/cmsis_gcc.h **** __STATIC_FORCEINLINE void __TZ_set_PRIMASK_NS(uint32_t priMask)
 425:Generated_Source\PSoC6\pdl\cmsis/include/cmsis_gcc.h **** {
 426:Generated_Source\PSoC6\pdl\cmsis/include/cmsis_gcc.h ****   __ASM volatile ("MSR primask_ns, %0" : : "r" (priMask) : "memory");
 427:Generated_Source\PSoC6\pdl\cmsis/include/cmsis_gcc.h **** }
 428:Generated_Source\PSoC6\pdl\cmsis/include/cmsis_gcc.h **** #endif
 429:Generated_Source\PSoC6\pdl\cmsis/include/cmsis_gcc.h **** 
 430:Generated_Source\PSoC6\pdl\cmsis/include/cmsis_gcc.h **** 
 431:Generated_Source\PSoC6\pdl\cmsis/include/cmsis_gcc.h **** #if ((defined (__ARM_ARCH_7M__      ) && (__ARM_ARCH_7M__      == 1)) || \
ARM GAS  C:\Users\stijn\AppData\Local\Temp\ccLepBqo.s 			page 27


 432:Generated_Source\PSoC6\pdl\cmsis/include/cmsis_gcc.h ****      (defined (__ARM_ARCH_7EM__     ) && (__ARM_ARCH_7EM__     == 1)) || \
 433:Generated_Source\PSoC6\pdl\cmsis/include/cmsis_gcc.h ****      (defined (__ARM_ARCH_8M_MAIN__ ) && (__ARM_ARCH_8M_MAIN__ == 1))    )
 434:Generated_Source\PSoC6\pdl\cmsis/include/cmsis_gcc.h **** /**
 435:Generated_Source\PSoC6\pdl\cmsis/include/cmsis_gcc.h ****   \brief   Enable FIQ
 436:Generated_Source\PSoC6\pdl\cmsis/include/cmsis_gcc.h ****   \details Enables FIQ interrupts by clearing the F-bit in the CPSR.
 437:Generated_Source\PSoC6\pdl\cmsis/include/cmsis_gcc.h ****            Can only be executed in Privileged modes.
 438:Generated_Source\PSoC6\pdl\cmsis/include/cmsis_gcc.h ****  */
 439:Generated_Source\PSoC6\pdl\cmsis/include/cmsis_gcc.h **** __STATIC_FORCEINLINE void __enable_fault_irq(void)
 440:Generated_Source\PSoC6\pdl\cmsis/include/cmsis_gcc.h **** {
 441:Generated_Source\PSoC6\pdl\cmsis/include/cmsis_gcc.h ****   __ASM volatile ("cpsie f" : : : "memory");
 442:Generated_Source\PSoC6\pdl\cmsis/include/cmsis_gcc.h **** }
 443:Generated_Source\PSoC6\pdl\cmsis/include/cmsis_gcc.h **** 
 444:Generated_Source\PSoC6\pdl\cmsis/include/cmsis_gcc.h **** 
 445:Generated_Source\PSoC6\pdl\cmsis/include/cmsis_gcc.h **** /**
 446:Generated_Source\PSoC6\pdl\cmsis/include/cmsis_gcc.h ****   \brief   Disable FIQ
 447:Generated_Source\PSoC6\pdl\cmsis/include/cmsis_gcc.h ****   \details Disables FIQ interrupts by setting the F-bit in the CPSR.
 448:Generated_Source\PSoC6\pdl\cmsis/include/cmsis_gcc.h ****            Can only be executed in Privileged modes.
 449:Generated_Source\PSoC6\pdl\cmsis/include/cmsis_gcc.h ****  */
 450:Generated_Source\PSoC6\pdl\cmsis/include/cmsis_gcc.h **** __STATIC_FORCEINLINE void __disable_fault_irq(void)
 451:Generated_Source\PSoC6\pdl\cmsis/include/cmsis_gcc.h **** {
 452:Generated_Source\PSoC6\pdl\cmsis/include/cmsis_gcc.h ****   __ASM volatile ("cpsid f" : : : "memory");
 453:Generated_Source\PSoC6\pdl\cmsis/include/cmsis_gcc.h **** }
 454:Generated_Source\PSoC6\pdl\cmsis/include/cmsis_gcc.h **** 
 455:Generated_Source\PSoC6\pdl\cmsis/include/cmsis_gcc.h **** 
 456:Generated_Source\PSoC6\pdl\cmsis/include/cmsis_gcc.h **** /**
 457:Generated_Source\PSoC6\pdl\cmsis/include/cmsis_gcc.h ****   \brief   Get Base Priority
 458:Generated_Source\PSoC6\pdl\cmsis/include/cmsis_gcc.h ****   \details Returns the current value of the Base Priority register.
 459:Generated_Source\PSoC6\pdl\cmsis/include/cmsis_gcc.h ****   \return               Base Priority register value
 460:Generated_Source\PSoC6\pdl\cmsis/include/cmsis_gcc.h ****  */
 461:Generated_Source\PSoC6\pdl\cmsis/include/cmsis_gcc.h **** __STATIC_FORCEINLINE uint32_t __get_BASEPRI(void)
 462:Generated_Source\PSoC6\pdl\cmsis/include/cmsis_gcc.h **** {
 463:Generated_Source\PSoC6\pdl\cmsis/include/cmsis_gcc.h ****   uint32_t result;
 464:Generated_Source\PSoC6\pdl\cmsis/include/cmsis_gcc.h **** 
 465:Generated_Source\PSoC6\pdl\cmsis/include/cmsis_gcc.h ****   __ASM volatile ("MRS %0, basepri" : "=r" (result) );
 466:Generated_Source\PSoC6\pdl\cmsis/include/cmsis_gcc.h ****   return(result);
 467:Generated_Source\PSoC6\pdl\cmsis/include/cmsis_gcc.h **** }
 468:Generated_Source\PSoC6\pdl\cmsis/include/cmsis_gcc.h **** 
 469:Generated_Source\PSoC6\pdl\cmsis/include/cmsis_gcc.h **** 
 470:Generated_Source\PSoC6\pdl\cmsis/include/cmsis_gcc.h **** #if (defined (__ARM_FEATURE_CMSE ) && (__ARM_FEATURE_CMSE == 3))
 471:Generated_Source\PSoC6\pdl\cmsis/include/cmsis_gcc.h **** /**
 472:Generated_Source\PSoC6\pdl\cmsis/include/cmsis_gcc.h ****   \brief   Get Base Priority (non-secure)
 473:Generated_Source\PSoC6\pdl\cmsis/include/cmsis_gcc.h ****   \details Returns the current value of the non-secure Base Priority register when in secure state.
 474:Generated_Source\PSoC6\pdl\cmsis/include/cmsis_gcc.h ****   \return               Base Priority register value
 475:Generated_Source\PSoC6\pdl\cmsis/include/cmsis_gcc.h ****  */
 476:Generated_Source\PSoC6\pdl\cmsis/include/cmsis_gcc.h **** __STATIC_FORCEINLINE uint32_t __TZ_get_BASEPRI_NS(void)
 477:Generated_Source\PSoC6\pdl\cmsis/include/cmsis_gcc.h **** {
 478:Generated_Source\PSoC6\pdl\cmsis/include/cmsis_gcc.h ****   uint32_t result;
 479:Generated_Source\PSoC6\pdl\cmsis/include/cmsis_gcc.h **** 
 480:Generated_Source\PSoC6\pdl\cmsis/include/cmsis_gcc.h ****   __ASM volatile ("MRS %0, basepri_ns" : "=r" (result) );
 481:Generated_Source\PSoC6\pdl\cmsis/include/cmsis_gcc.h ****   return(result);
 482:Generated_Source\PSoC6\pdl\cmsis/include/cmsis_gcc.h **** }
 483:Generated_Source\PSoC6\pdl\cmsis/include/cmsis_gcc.h **** #endif
 484:Generated_Source\PSoC6\pdl\cmsis/include/cmsis_gcc.h **** 
 485:Generated_Source\PSoC6\pdl\cmsis/include/cmsis_gcc.h **** 
 486:Generated_Source\PSoC6\pdl\cmsis/include/cmsis_gcc.h **** /**
 487:Generated_Source\PSoC6\pdl\cmsis/include/cmsis_gcc.h ****   \brief   Set Base Priority
 488:Generated_Source\PSoC6\pdl\cmsis/include/cmsis_gcc.h ****   \details Assigns the given value to the Base Priority register.
ARM GAS  C:\Users\stijn\AppData\Local\Temp\ccLepBqo.s 			page 28


 489:Generated_Source\PSoC6\pdl\cmsis/include/cmsis_gcc.h ****   \param [in]    basePri  Base Priority value to set
 490:Generated_Source\PSoC6\pdl\cmsis/include/cmsis_gcc.h ****  */
 491:Generated_Source\PSoC6\pdl\cmsis/include/cmsis_gcc.h **** __STATIC_FORCEINLINE void __set_BASEPRI(uint32_t basePri)
 492:Generated_Source\PSoC6\pdl\cmsis/include/cmsis_gcc.h **** {
 493:Generated_Source\PSoC6\pdl\cmsis/include/cmsis_gcc.h ****   __ASM volatile ("MSR basepri, %0" : : "r" (basePri) : "memory");
 494:Generated_Source\PSoC6\pdl\cmsis/include/cmsis_gcc.h **** }
 495:Generated_Source\PSoC6\pdl\cmsis/include/cmsis_gcc.h **** 
 496:Generated_Source\PSoC6\pdl\cmsis/include/cmsis_gcc.h **** 
 497:Generated_Source\PSoC6\pdl\cmsis/include/cmsis_gcc.h **** #if (defined (__ARM_FEATURE_CMSE ) && (__ARM_FEATURE_CMSE == 3))
 498:Generated_Source\PSoC6\pdl\cmsis/include/cmsis_gcc.h **** /**
 499:Generated_Source\PSoC6\pdl\cmsis/include/cmsis_gcc.h ****   \brief   Set Base Priority (non-secure)
 500:Generated_Source\PSoC6\pdl\cmsis/include/cmsis_gcc.h ****   \details Assigns the given value to the non-secure Base Priority register when in secure state.
 501:Generated_Source\PSoC6\pdl\cmsis/include/cmsis_gcc.h ****   \param [in]    basePri  Base Priority value to set
 502:Generated_Source\PSoC6\pdl\cmsis/include/cmsis_gcc.h ****  */
 503:Generated_Source\PSoC6\pdl\cmsis/include/cmsis_gcc.h **** __STATIC_FORCEINLINE void __TZ_set_BASEPRI_NS(uint32_t basePri)
 504:Generated_Source\PSoC6\pdl\cmsis/include/cmsis_gcc.h **** {
 505:Generated_Source\PSoC6\pdl\cmsis/include/cmsis_gcc.h ****   __ASM volatile ("MSR basepri_ns, %0" : : "r" (basePri) : "memory");
 506:Generated_Source\PSoC6\pdl\cmsis/include/cmsis_gcc.h **** }
 507:Generated_Source\PSoC6\pdl\cmsis/include/cmsis_gcc.h **** #endif
 508:Generated_Source\PSoC6\pdl\cmsis/include/cmsis_gcc.h **** 
 509:Generated_Source\PSoC6\pdl\cmsis/include/cmsis_gcc.h **** 
 510:Generated_Source\PSoC6\pdl\cmsis/include/cmsis_gcc.h **** /**
 511:Generated_Source\PSoC6\pdl\cmsis/include/cmsis_gcc.h ****   \brief   Set Base Priority with condition
 512:Generated_Source\PSoC6\pdl\cmsis/include/cmsis_gcc.h ****   \details Assigns the given value to the Base Priority register only if BASEPRI masking is disable
 513:Generated_Source\PSoC6\pdl\cmsis/include/cmsis_gcc.h ****            or the new value increases the BASEPRI priority level.
 514:Generated_Source\PSoC6\pdl\cmsis/include/cmsis_gcc.h ****   \param [in]    basePri  Base Priority value to set
 515:Generated_Source\PSoC6\pdl\cmsis/include/cmsis_gcc.h ****  */
 516:Generated_Source\PSoC6\pdl\cmsis/include/cmsis_gcc.h **** __STATIC_FORCEINLINE void __set_BASEPRI_MAX(uint32_t basePri)
 517:Generated_Source\PSoC6\pdl\cmsis/include/cmsis_gcc.h **** {
 518:Generated_Source\PSoC6\pdl\cmsis/include/cmsis_gcc.h ****   __ASM volatile ("MSR basepri_max, %0" : : "r" (basePri) : "memory");
 519:Generated_Source\PSoC6\pdl\cmsis/include/cmsis_gcc.h **** }
 520:Generated_Source\PSoC6\pdl\cmsis/include/cmsis_gcc.h **** 
 521:Generated_Source\PSoC6\pdl\cmsis/include/cmsis_gcc.h **** 
 522:Generated_Source\PSoC6\pdl\cmsis/include/cmsis_gcc.h **** /**
 523:Generated_Source\PSoC6\pdl\cmsis/include/cmsis_gcc.h ****   \brief   Get Fault Mask
 524:Generated_Source\PSoC6\pdl\cmsis/include/cmsis_gcc.h ****   \details Returns the current value of the Fault Mask register.
 525:Generated_Source\PSoC6\pdl\cmsis/include/cmsis_gcc.h ****   \return               Fault Mask register value
 526:Generated_Source\PSoC6\pdl\cmsis/include/cmsis_gcc.h ****  */
 527:Generated_Source\PSoC6\pdl\cmsis/include/cmsis_gcc.h **** __STATIC_FORCEINLINE uint32_t __get_FAULTMASK(void)
 528:Generated_Source\PSoC6\pdl\cmsis/include/cmsis_gcc.h **** {
 529:Generated_Source\PSoC6\pdl\cmsis/include/cmsis_gcc.h ****   uint32_t result;
 530:Generated_Source\PSoC6\pdl\cmsis/include/cmsis_gcc.h **** 
 531:Generated_Source\PSoC6\pdl\cmsis/include/cmsis_gcc.h ****   __ASM volatile ("MRS %0, faultmask" : "=r" (result) );
 532:Generated_Source\PSoC6\pdl\cmsis/include/cmsis_gcc.h ****   return(result);
 533:Generated_Source\PSoC6\pdl\cmsis/include/cmsis_gcc.h **** }
 534:Generated_Source\PSoC6\pdl\cmsis/include/cmsis_gcc.h **** 
 535:Generated_Source\PSoC6\pdl\cmsis/include/cmsis_gcc.h **** 
 536:Generated_Source\PSoC6\pdl\cmsis/include/cmsis_gcc.h **** #if (defined (__ARM_FEATURE_CMSE ) && (__ARM_FEATURE_CMSE == 3))
 537:Generated_Source\PSoC6\pdl\cmsis/include/cmsis_gcc.h **** /**
 538:Generated_Source\PSoC6\pdl\cmsis/include/cmsis_gcc.h ****   \brief   Get Fault Mask (non-secure)
 539:Generated_Source\PSoC6\pdl\cmsis/include/cmsis_gcc.h ****   \details Returns the current value of the non-secure Fault Mask register when in secure state.
 540:Generated_Source\PSoC6\pdl\cmsis/include/cmsis_gcc.h ****   \return               Fault Mask register value
 541:Generated_Source\PSoC6\pdl\cmsis/include/cmsis_gcc.h ****  */
 542:Generated_Source\PSoC6\pdl\cmsis/include/cmsis_gcc.h **** __STATIC_FORCEINLINE uint32_t __TZ_get_FAULTMASK_NS(void)
 543:Generated_Source\PSoC6\pdl\cmsis/include/cmsis_gcc.h **** {
 544:Generated_Source\PSoC6\pdl\cmsis/include/cmsis_gcc.h ****   uint32_t result;
 545:Generated_Source\PSoC6\pdl\cmsis/include/cmsis_gcc.h **** 
ARM GAS  C:\Users\stijn\AppData\Local\Temp\ccLepBqo.s 			page 29


 546:Generated_Source\PSoC6\pdl\cmsis/include/cmsis_gcc.h ****   __ASM volatile ("MRS %0, faultmask_ns" : "=r" (result) );
 547:Generated_Source\PSoC6\pdl\cmsis/include/cmsis_gcc.h ****   return(result);
 548:Generated_Source\PSoC6\pdl\cmsis/include/cmsis_gcc.h **** }
 549:Generated_Source\PSoC6\pdl\cmsis/include/cmsis_gcc.h **** #endif
 550:Generated_Source\PSoC6\pdl\cmsis/include/cmsis_gcc.h **** 
 551:Generated_Source\PSoC6\pdl\cmsis/include/cmsis_gcc.h **** 
 552:Generated_Source\PSoC6\pdl\cmsis/include/cmsis_gcc.h **** /**
 553:Generated_Source\PSoC6\pdl\cmsis/include/cmsis_gcc.h ****   \brief   Set Fault Mask
 554:Generated_Source\PSoC6\pdl\cmsis/include/cmsis_gcc.h ****   \details Assigns the given value to the Fault Mask register.
 555:Generated_Source\PSoC6\pdl\cmsis/include/cmsis_gcc.h ****   \param [in]    faultMask  Fault Mask value to set
 556:Generated_Source\PSoC6\pdl\cmsis/include/cmsis_gcc.h ****  */
 557:Generated_Source\PSoC6\pdl\cmsis/include/cmsis_gcc.h **** __STATIC_FORCEINLINE void __set_FAULTMASK(uint32_t faultMask)
 558:Generated_Source\PSoC6\pdl\cmsis/include/cmsis_gcc.h **** {
 559:Generated_Source\PSoC6\pdl\cmsis/include/cmsis_gcc.h ****   __ASM volatile ("MSR faultmask, %0" : : "r" (faultMask) : "memory");
 560:Generated_Source\PSoC6\pdl\cmsis/include/cmsis_gcc.h **** }
 561:Generated_Source\PSoC6\pdl\cmsis/include/cmsis_gcc.h **** 
 562:Generated_Source\PSoC6\pdl\cmsis/include/cmsis_gcc.h **** 
 563:Generated_Source\PSoC6\pdl\cmsis/include/cmsis_gcc.h **** #if (defined (__ARM_FEATURE_CMSE ) && (__ARM_FEATURE_CMSE == 3))
 564:Generated_Source\PSoC6\pdl\cmsis/include/cmsis_gcc.h **** /**
 565:Generated_Source\PSoC6\pdl\cmsis/include/cmsis_gcc.h ****   \brief   Set Fault Mask (non-secure)
 566:Generated_Source\PSoC6\pdl\cmsis/include/cmsis_gcc.h ****   \details Assigns the given value to the non-secure Fault Mask register when in secure state.
 567:Generated_Source\PSoC6\pdl\cmsis/include/cmsis_gcc.h ****   \param [in]    faultMask  Fault Mask value to set
 568:Generated_Source\PSoC6\pdl\cmsis/include/cmsis_gcc.h ****  */
 569:Generated_Source\PSoC6\pdl\cmsis/include/cmsis_gcc.h **** __STATIC_FORCEINLINE void __TZ_set_FAULTMASK_NS(uint32_t faultMask)
 570:Generated_Source\PSoC6\pdl\cmsis/include/cmsis_gcc.h **** {
 571:Generated_Source\PSoC6\pdl\cmsis/include/cmsis_gcc.h ****   __ASM volatile ("MSR faultmask_ns, %0" : : "r" (faultMask) : "memory");
 572:Generated_Source\PSoC6\pdl\cmsis/include/cmsis_gcc.h **** }
 573:Generated_Source\PSoC6\pdl\cmsis/include/cmsis_gcc.h **** #endif
 574:Generated_Source\PSoC6\pdl\cmsis/include/cmsis_gcc.h **** 
 575:Generated_Source\PSoC6\pdl\cmsis/include/cmsis_gcc.h **** #endif /* ((defined (__ARM_ARCH_7M__      ) && (__ARM_ARCH_7M__      == 1)) || \
 576:Generated_Source\PSoC6\pdl\cmsis/include/cmsis_gcc.h ****            (defined (__ARM_ARCH_7EM__     ) && (__ARM_ARCH_7EM__     == 1)) || \
 577:Generated_Source\PSoC6\pdl\cmsis/include/cmsis_gcc.h ****            (defined (__ARM_ARCH_8M_MAIN__ ) && (__ARM_ARCH_8M_MAIN__ == 1))    ) */
 578:Generated_Source\PSoC6\pdl\cmsis/include/cmsis_gcc.h **** 
 579:Generated_Source\PSoC6\pdl\cmsis/include/cmsis_gcc.h **** 
 580:Generated_Source\PSoC6\pdl\cmsis/include/cmsis_gcc.h **** #if ((defined (__ARM_ARCH_8M_MAIN__ ) && (__ARM_ARCH_8M_MAIN__ == 1)) || \
 581:Generated_Source\PSoC6\pdl\cmsis/include/cmsis_gcc.h ****      (defined (__ARM_ARCH_8M_BASE__ ) && (__ARM_ARCH_8M_BASE__ == 1))    )
 582:Generated_Source\PSoC6\pdl\cmsis/include/cmsis_gcc.h **** 
 583:Generated_Source\PSoC6\pdl\cmsis/include/cmsis_gcc.h **** /**
 584:Generated_Source\PSoC6\pdl\cmsis/include/cmsis_gcc.h ****   \brief   Get Process Stack Pointer Limit
 585:Generated_Source\PSoC6\pdl\cmsis/include/cmsis_gcc.h ****   Devices without ARMv8-M Main Extensions (i.e. Cortex-M23) lack the non-secure
 586:Generated_Source\PSoC6\pdl\cmsis/include/cmsis_gcc.h ****   Stack Pointer Limit register hence zero is returned always in non-secure
 587:Generated_Source\PSoC6\pdl\cmsis/include/cmsis_gcc.h ****   mode.
 588:Generated_Source\PSoC6\pdl\cmsis/include/cmsis_gcc.h ****   
 589:Generated_Source\PSoC6\pdl\cmsis/include/cmsis_gcc.h ****   \details Returns the current value of the Process Stack Pointer Limit (PSPLIM).
 590:Generated_Source\PSoC6\pdl\cmsis/include/cmsis_gcc.h ****   \return               PSPLIM Register value
 591:Generated_Source\PSoC6\pdl\cmsis/include/cmsis_gcc.h ****  */
 592:Generated_Source\PSoC6\pdl\cmsis/include/cmsis_gcc.h **** __STATIC_FORCEINLINE uint32_t __get_PSPLIM(void)
 593:Generated_Source\PSoC6\pdl\cmsis/include/cmsis_gcc.h **** {
 594:Generated_Source\PSoC6\pdl\cmsis/include/cmsis_gcc.h **** #if (!(defined (__ARM_ARCH_8M_MAIN__ ) && (__ARM_ARCH_8M_MAIN__ == 1)) && \
 595:Generated_Source\PSoC6\pdl\cmsis/include/cmsis_gcc.h ****     (!defined (__ARM_FEATURE_CMSE) || (__ARM_FEATURE_CMSE < 3)))
 596:Generated_Source\PSoC6\pdl\cmsis/include/cmsis_gcc.h ****     // without main extensions, the non-secure PSPLIM is RAZ/WI
 597:Generated_Source\PSoC6\pdl\cmsis/include/cmsis_gcc.h ****   return 0U;
 598:Generated_Source\PSoC6\pdl\cmsis/include/cmsis_gcc.h **** #else
 599:Generated_Source\PSoC6\pdl\cmsis/include/cmsis_gcc.h ****   register uint32_t result;
 600:Generated_Source\PSoC6\pdl\cmsis/include/cmsis_gcc.h ****   __ASM volatile ("MRS %0, psplim"  : "=r" (result) );
 601:Generated_Source\PSoC6\pdl\cmsis/include/cmsis_gcc.h ****   return result;
 602:Generated_Source\PSoC6\pdl\cmsis/include/cmsis_gcc.h **** #endif
ARM GAS  C:\Users\stijn\AppData\Local\Temp\ccLepBqo.s 			page 30


 603:Generated_Source\PSoC6\pdl\cmsis/include/cmsis_gcc.h **** }
 604:Generated_Source\PSoC6\pdl\cmsis/include/cmsis_gcc.h **** 
 605:Generated_Source\PSoC6\pdl\cmsis/include/cmsis_gcc.h **** #if (defined (__ARM_FEATURE_CMSE) && (__ARM_FEATURE_CMSE == 3))
 606:Generated_Source\PSoC6\pdl\cmsis/include/cmsis_gcc.h **** /**
 607:Generated_Source\PSoC6\pdl\cmsis/include/cmsis_gcc.h ****   \brief   Get Process Stack Pointer Limit (non-secure)
 608:Generated_Source\PSoC6\pdl\cmsis/include/cmsis_gcc.h ****   Devices without ARMv8-M Main Extensions (i.e. Cortex-M23) lack the non-secure
 609:Generated_Source\PSoC6\pdl\cmsis/include/cmsis_gcc.h ****   Stack Pointer Limit register hence zero is returned always.
 610:Generated_Source\PSoC6\pdl\cmsis/include/cmsis_gcc.h **** 
 611:Generated_Source\PSoC6\pdl\cmsis/include/cmsis_gcc.h ****   \details Returns the current value of the non-secure Process Stack Pointer Limit (PSPLIM) when in
 612:Generated_Source\PSoC6\pdl\cmsis/include/cmsis_gcc.h ****   \return               PSPLIM Register value
 613:Generated_Source\PSoC6\pdl\cmsis/include/cmsis_gcc.h ****  */
 614:Generated_Source\PSoC6\pdl\cmsis/include/cmsis_gcc.h **** __STATIC_FORCEINLINE uint32_t __TZ_get_PSPLIM_NS(void)
 615:Generated_Source\PSoC6\pdl\cmsis/include/cmsis_gcc.h **** {
 616:Generated_Source\PSoC6\pdl\cmsis/include/cmsis_gcc.h **** #if (!(defined (__ARM_ARCH_8M_MAIN__ ) && (__ARM_ARCH_8M_MAIN__ == 1)))
 617:Generated_Source\PSoC6\pdl\cmsis/include/cmsis_gcc.h ****   // without main extensions, the non-secure PSPLIM is RAZ/WI
 618:Generated_Source\PSoC6\pdl\cmsis/include/cmsis_gcc.h ****   return 0U;
 619:Generated_Source\PSoC6\pdl\cmsis/include/cmsis_gcc.h **** #else
 620:Generated_Source\PSoC6\pdl\cmsis/include/cmsis_gcc.h ****   register uint32_t result;
 621:Generated_Source\PSoC6\pdl\cmsis/include/cmsis_gcc.h ****   __ASM volatile ("MRS %0, psplim_ns"  : "=r" (result) );
 622:Generated_Source\PSoC6\pdl\cmsis/include/cmsis_gcc.h ****   return result;
 623:Generated_Source\PSoC6\pdl\cmsis/include/cmsis_gcc.h **** #endif
 624:Generated_Source\PSoC6\pdl\cmsis/include/cmsis_gcc.h **** }
 625:Generated_Source\PSoC6\pdl\cmsis/include/cmsis_gcc.h **** #endif
 626:Generated_Source\PSoC6\pdl\cmsis/include/cmsis_gcc.h **** 
 627:Generated_Source\PSoC6\pdl\cmsis/include/cmsis_gcc.h **** 
 628:Generated_Source\PSoC6\pdl\cmsis/include/cmsis_gcc.h **** /**
 629:Generated_Source\PSoC6\pdl\cmsis/include/cmsis_gcc.h ****   \brief   Set Process Stack Pointer Limit
 630:Generated_Source\PSoC6\pdl\cmsis/include/cmsis_gcc.h ****   Devices without ARMv8-M Main Extensions (i.e. Cortex-M23) lack the non-secure
 631:Generated_Source\PSoC6\pdl\cmsis/include/cmsis_gcc.h ****   Stack Pointer Limit register hence the write is silently ignored in non-secure
 632:Generated_Source\PSoC6\pdl\cmsis/include/cmsis_gcc.h ****   mode.
 633:Generated_Source\PSoC6\pdl\cmsis/include/cmsis_gcc.h ****   
 634:Generated_Source\PSoC6\pdl\cmsis/include/cmsis_gcc.h ****   \details Assigns the given value to the Process Stack Pointer Limit (PSPLIM).
 635:Generated_Source\PSoC6\pdl\cmsis/include/cmsis_gcc.h ****   \param [in]    ProcStackPtrLimit  Process Stack Pointer Limit value to set
 636:Generated_Source\PSoC6\pdl\cmsis/include/cmsis_gcc.h ****  */
 637:Generated_Source\PSoC6\pdl\cmsis/include/cmsis_gcc.h **** __STATIC_FORCEINLINE void __set_PSPLIM(uint32_t ProcStackPtrLimit)
 638:Generated_Source\PSoC6\pdl\cmsis/include/cmsis_gcc.h **** {
 639:Generated_Source\PSoC6\pdl\cmsis/include/cmsis_gcc.h **** #if (!(defined (__ARM_ARCH_8M_MAIN__ ) && (__ARM_ARCH_8M_MAIN__ == 1)) && \
 640:Generated_Source\PSoC6\pdl\cmsis/include/cmsis_gcc.h ****     (!defined (__ARM_FEATURE_CMSE) || (__ARM_FEATURE_CMSE < 3)))
 641:Generated_Source\PSoC6\pdl\cmsis/include/cmsis_gcc.h ****   // without main extensions, the non-secure PSPLIM is RAZ/WI
 642:Generated_Source\PSoC6\pdl\cmsis/include/cmsis_gcc.h ****   (void)ProcStackPtrLimit;
 643:Generated_Source\PSoC6\pdl\cmsis/include/cmsis_gcc.h **** #else
 644:Generated_Source\PSoC6\pdl\cmsis/include/cmsis_gcc.h ****   __ASM volatile ("MSR psplim, %0" : : "r" (ProcStackPtrLimit));
 645:Generated_Source\PSoC6\pdl\cmsis/include/cmsis_gcc.h **** #endif
 646:Generated_Source\PSoC6\pdl\cmsis/include/cmsis_gcc.h **** }
 647:Generated_Source\PSoC6\pdl\cmsis/include/cmsis_gcc.h **** 
 648:Generated_Source\PSoC6\pdl\cmsis/include/cmsis_gcc.h **** 
 649:Generated_Source\PSoC6\pdl\cmsis/include/cmsis_gcc.h **** #if (defined (__ARM_FEATURE_CMSE  ) && (__ARM_FEATURE_CMSE   == 3))
 650:Generated_Source\PSoC6\pdl\cmsis/include/cmsis_gcc.h **** /**
 651:Generated_Source\PSoC6\pdl\cmsis/include/cmsis_gcc.h ****   \brief   Set Process Stack Pointer (non-secure)
 652:Generated_Source\PSoC6\pdl\cmsis/include/cmsis_gcc.h ****   Devices without ARMv8-M Main Extensions (i.e. Cortex-M23) lack the non-secure
 653:Generated_Source\PSoC6\pdl\cmsis/include/cmsis_gcc.h ****   Stack Pointer Limit register hence the write is silently ignored.
 654:Generated_Source\PSoC6\pdl\cmsis/include/cmsis_gcc.h **** 
 655:Generated_Source\PSoC6\pdl\cmsis/include/cmsis_gcc.h ****   \details Assigns the given value to the non-secure Process Stack Pointer Limit (PSPLIM) when in s
 656:Generated_Source\PSoC6\pdl\cmsis/include/cmsis_gcc.h ****   \param [in]    ProcStackPtrLimit  Process Stack Pointer Limit value to set
 657:Generated_Source\PSoC6\pdl\cmsis/include/cmsis_gcc.h ****  */
 658:Generated_Source\PSoC6\pdl\cmsis/include/cmsis_gcc.h **** __STATIC_FORCEINLINE void __TZ_set_PSPLIM_NS(uint32_t ProcStackPtrLimit)
 659:Generated_Source\PSoC6\pdl\cmsis/include/cmsis_gcc.h **** {
ARM GAS  C:\Users\stijn\AppData\Local\Temp\ccLepBqo.s 			page 31


 660:Generated_Source\PSoC6\pdl\cmsis/include/cmsis_gcc.h **** #if (!(defined (__ARM_ARCH_8M_MAIN__ ) && (__ARM_ARCH_8M_MAIN__ == 1)))
 661:Generated_Source\PSoC6\pdl\cmsis/include/cmsis_gcc.h ****   // without main extensions, the non-secure PSPLIM is RAZ/WI
 662:Generated_Source\PSoC6\pdl\cmsis/include/cmsis_gcc.h ****   (void)ProcStackPtrLimit;
 663:Generated_Source\PSoC6\pdl\cmsis/include/cmsis_gcc.h **** #else
 664:Generated_Source\PSoC6\pdl\cmsis/include/cmsis_gcc.h ****   __ASM volatile ("MSR psplim_ns, %0\n" : : "r" (ProcStackPtrLimit));
 665:Generated_Source\PSoC6\pdl\cmsis/include/cmsis_gcc.h **** #endif
 666:Generated_Source\PSoC6\pdl\cmsis/include/cmsis_gcc.h **** }
 667:Generated_Source\PSoC6\pdl\cmsis/include/cmsis_gcc.h **** #endif
 668:Generated_Source\PSoC6\pdl\cmsis/include/cmsis_gcc.h **** 
 669:Generated_Source\PSoC6\pdl\cmsis/include/cmsis_gcc.h **** 
 670:Generated_Source\PSoC6\pdl\cmsis/include/cmsis_gcc.h **** /**
 671:Generated_Source\PSoC6\pdl\cmsis/include/cmsis_gcc.h ****   \brief   Get Main Stack Pointer Limit
 672:Generated_Source\PSoC6\pdl\cmsis/include/cmsis_gcc.h ****   Devices without ARMv8-M Main Extensions (i.e. Cortex-M23) lack the non-secure
 673:Generated_Source\PSoC6\pdl\cmsis/include/cmsis_gcc.h ****   Stack Pointer Limit register hence zero is returned always in non-secure
 674:Generated_Source\PSoC6\pdl\cmsis/include/cmsis_gcc.h ****   mode.
 675:Generated_Source\PSoC6\pdl\cmsis/include/cmsis_gcc.h **** 
 676:Generated_Source\PSoC6\pdl\cmsis/include/cmsis_gcc.h ****   \details Returns the current value of the Main Stack Pointer Limit (MSPLIM).
 677:Generated_Source\PSoC6\pdl\cmsis/include/cmsis_gcc.h ****   \return               MSPLIM Register value
 678:Generated_Source\PSoC6\pdl\cmsis/include/cmsis_gcc.h ****  */
 679:Generated_Source\PSoC6\pdl\cmsis/include/cmsis_gcc.h **** __STATIC_FORCEINLINE uint32_t __get_MSPLIM(void)
 680:Generated_Source\PSoC6\pdl\cmsis/include/cmsis_gcc.h **** {
 681:Generated_Source\PSoC6\pdl\cmsis/include/cmsis_gcc.h **** #if (!(defined (__ARM_ARCH_8M_MAIN__ ) && (__ARM_ARCH_8M_MAIN__ == 1)) && \
 682:Generated_Source\PSoC6\pdl\cmsis/include/cmsis_gcc.h ****     (!defined (__ARM_FEATURE_CMSE) || (__ARM_FEATURE_CMSE < 3)))
 683:Generated_Source\PSoC6\pdl\cmsis/include/cmsis_gcc.h ****   // without main extensions, the non-secure MSPLIM is RAZ/WI
 684:Generated_Source\PSoC6\pdl\cmsis/include/cmsis_gcc.h ****   return 0U;
 685:Generated_Source\PSoC6\pdl\cmsis/include/cmsis_gcc.h **** #else
 686:Generated_Source\PSoC6\pdl\cmsis/include/cmsis_gcc.h ****   register uint32_t result;
 687:Generated_Source\PSoC6\pdl\cmsis/include/cmsis_gcc.h ****   __ASM volatile ("MRS %0, msplim" : "=r" (result) );
 688:Generated_Source\PSoC6\pdl\cmsis/include/cmsis_gcc.h ****   return result;
 689:Generated_Source\PSoC6\pdl\cmsis/include/cmsis_gcc.h **** #endif
 690:Generated_Source\PSoC6\pdl\cmsis/include/cmsis_gcc.h **** }
 691:Generated_Source\PSoC6\pdl\cmsis/include/cmsis_gcc.h **** 
 692:Generated_Source\PSoC6\pdl\cmsis/include/cmsis_gcc.h **** 
 693:Generated_Source\PSoC6\pdl\cmsis/include/cmsis_gcc.h **** #if (defined (__ARM_FEATURE_CMSE  ) && (__ARM_FEATURE_CMSE   == 3))
 694:Generated_Source\PSoC6\pdl\cmsis/include/cmsis_gcc.h **** /**
 695:Generated_Source\PSoC6\pdl\cmsis/include/cmsis_gcc.h ****   \brief   Get Main Stack Pointer Limit (non-secure)
 696:Generated_Source\PSoC6\pdl\cmsis/include/cmsis_gcc.h ****   Devices without ARMv8-M Main Extensions (i.e. Cortex-M23) lack the non-secure
 697:Generated_Source\PSoC6\pdl\cmsis/include/cmsis_gcc.h ****   Stack Pointer Limit register hence zero is returned always.
 698:Generated_Source\PSoC6\pdl\cmsis/include/cmsis_gcc.h **** 
 699:Generated_Source\PSoC6\pdl\cmsis/include/cmsis_gcc.h ****   \details Returns the current value of the non-secure Main Stack Pointer Limit(MSPLIM) when in sec
 700:Generated_Source\PSoC6\pdl\cmsis/include/cmsis_gcc.h ****   \return               MSPLIM Register value
 701:Generated_Source\PSoC6\pdl\cmsis/include/cmsis_gcc.h ****  */
 702:Generated_Source\PSoC6\pdl\cmsis/include/cmsis_gcc.h **** __STATIC_FORCEINLINE uint32_t __TZ_get_MSPLIM_NS(void)
 703:Generated_Source\PSoC6\pdl\cmsis/include/cmsis_gcc.h **** {
 704:Generated_Source\PSoC6\pdl\cmsis/include/cmsis_gcc.h **** #if (!(defined (__ARM_ARCH_8M_MAIN__ ) && (__ARM_ARCH_8M_MAIN__ == 1)))
 705:Generated_Source\PSoC6\pdl\cmsis/include/cmsis_gcc.h ****   // without main extensions, the non-secure MSPLIM is RAZ/WI
 706:Generated_Source\PSoC6\pdl\cmsis/include/cmsis_gcc.h ****   return 0U;
 707:Generated_Source\PSoC6\pdl\cmsis/include/cmsis_gcc.h **** #else
 708:Generated_Source\PSoC6\pdl\cmsis/include/cmsis_gcc.h ****   register uint32_t result;
 709:Generated_Source\PSoC6\pdl\cmsis/include/cmsis_gcc.h ****   __ASM volatile ("MRS %0, msplim_ns" : "=r" (result) );
 710:Generated_Source\PSoC6\pdl\cmsis/include/cmsis_gcc.h ****   return result;
 711:Generated_Source\PSoC6\pdl\cmsis/include/cmsis_gcc.h **** #endif
 712:Generated_Source\PSoC6\pdl\cmsis/include/cmsis_gcc.h **** }
 713:Generated_Source\PSoC6\pdl\cmsis/include/cmsis_gcc.h **** #endif
 714:Generated_Source\PSoC6\pdl\cmsis/include/cmsis_gcc.h **** 
 715:Generated_Source\PSoC6\pdl\cmsis/include/cmsis_gcc.h **** 
 716:Generated_Source\PSoC6\pdl\cmsis/include/cmsis_gcc.h **** /**
ARM GAS  C:\Users\stijn\AppData\Local\Temp\ccLepBqo.s 			page 32


 717:Generated_Source\PSoC6\pdl\cmsis/include/cmsis_gcc.h ****   \brief   Set Main Stack Pointer Limit
 718:Generated_Source\PSoC6\pdl\cmsis/include/cmsis_gcc.h ****   Devices without ARMv8-M Main Extensions (i.e. Cortex-M23) lack the non-secure
 719:Generated_Source\PSoC6\pdl\cmsis/include/cmsis_gcc.h ****   Stack Pointer Limit register hence the write is silently ignored in non-secure
 720:Generated_Source\PSoC6\pdl\cmsis/include/cmsis_gcc.h ****   mode.
 721:Generated_Source\PSoC6\pdl\cmsis/include/cmsis_gcc.h **** 
 722:Generated_Source\PSoC6\pdl\cmsis/include/cmsis_gcc.h ****   \details Assigns the given value to the Main Stack Pointer Limit (MSPLIM).
 723:Generated_Source\PSoC6\pdl\cmsis/include/cmsis_gcc.h ****   \param [in]    MainStackPtrLimit  Main Stack Pointer Limit value to set
 724:Generated_Source\PSoC6\pdl\cmsis/include/cmsis_gcc.h ****  */
 725:Generated_Source\PSoC6\pdl\cmsis/include/cmsis_gcc.h **** __STATIC_FORCEINLINE void __set_MSPLIM(uint32_t MainStackPtrLimit)
 726:Generated_Source\PSoC6\pdl\cmsis/include/cmsis_gcc.h **** {
 727:Generated_Source\PSoC6\pdl\cmsis/include/cmsis_gcc.h **** #if (!(defined (__ARM_ARCH_8M_MAIN__ ) && (__ARM_ARCH_8M_MAIN__ == 1)) && \
 728:Generated_Source\PSoC6\pdl\cmsis/include/cmsis_gcc.h ****     (!defined (__ARM_FEATURE_CMSE) || (__ARM_FEATURE_CMSE < 3)))
 729:Generated_Source\PSoC6\pdl\cmsis/include/cmsis_gcc.h ****   // without main extensions, the non-secure MSPLIM is RAZ/WI
 730:Generated_Source\PSoC6\pdl\cmsis/include/cmsis_gcc.h ****   (void)MainStackPtrLimit;
 731:Generated_Source\PSoC6\pdl\cmsis/include/cmsis_gcc.h **** #else
 732:Generated_Source\PSoC6\pdl\cmsis/include/cmsis_gcc.h ****   __ASM volatile ("MSR msplim, %0" : : "r" (MainStackPtrLimit));
 733:Generated_Source\PSoC6\pdl\cmsis/include/cmsis_gcc.h **** #endif
 734:Generated_Source\PSoC6\pdl\cmsis/include/cmsis_gcc.h **** }
 735:Generated_Source\PSoC6\pdl\cmsis/include/cmsis_gcc.h **** 
 736:Generated_Source\PSoC6\pdl\cmsis/include/cmsis_gcc.h **** 
 737:Generated_Source\PSoC6\pdl\cmsis/include/cmsis_gcc.h **** #if (defined (__ARM_FEATURE_CMSE  ) && (__ARM_FEATURE_CMSE   == 3))
 738:Generated_Source\PSoC6\pdl\cmsis/include/cmsis_gcc.h **** /**
 739:Generated_Source\PSoC6\pdl\cmsis/include/cmsis_gcc.h ****   \brief   Set Main Stack Pointer Limit (non-secure)
 740:Generated_Source\PSoC6\pdl\cmsis/include/cmsis_gcc.h ****   Devices without ARMv8-M Main Extensions (i.e. Cortex-M23) lack the non-secure
 741:Generated_Source\PSoC6\pdl\cmsis/include/cmsis_gcc.h ****   Stack Pointer Limit register hence the write is silently ignored.
 742:Generated_Source\PSoC6\pdl\cmsis/include/cmsis_gcc.h **** 
 743:Generated_Source\PSoC6\pdl\cmsis/include/cmsis_gcc.h ****   \details Assigns the given value to the non-secure Main Stack Pointer Limit (MSPLIM) when in secu
 744:Generated_Source\PSoC6\pdl\cmsis/include/cmsis_gcc.h ****   \param [in]    MainStackPtrLimit  Main Stack Pointer value to set
 745:Generated_Source\PSoC6\pdl\cmsis/include/cmsis_gcc.h ****  */
 746:Generated_Source\PSoC6\pdl\cmsis/include/cmsis_gcc.h **** __STATIC_FORCEINLINE void __TZ_set_MSPLIM_NS(uint32_t MainStackPtrLimit)
 747:Generated_Source\PSoC6\pdl\cmsis/include/cmsis_gcc.h **** {
 748:Generated_Source\PSoC6\pdl\cmsis/include/cmsis_gcc.h **** #if (!(defined (__ARM_ARCH_8M_MAIN__ ) && (__ARM_ARCH_8M_MAIN__ == 1)))
 749:Generated_Source\PSoC6\pdl\cmsis/include/cmsis_gcc.h ****   // without main extensions, the non-secure MSPLIM is RAZ/WI
 750:Generated_Source\PSoC6\pdl\cmsis/include/cmsis_gcc.h ****   (void)MainStackPtrLimit;
 751:Generated_Source\PSoC6\pdl\cmsis/include/cmsis_gcc.h **** #else
 752:Generated_Source\PSoC6\pdl\cmsis/include/cmsis_gcc.h ****   __ASM volatile ("MSR msplim_ns, %0" : : "r" (MainStackPtrLimit));
 753:Generated_Source\PSoC6\pdl\cmsis/include/cmsis_gcc.h **** #endif
 754:Generated_Source\PSoC6\pdl\cmsis/include/cmsis_gcc.h **** }
 755:Generated_Source\PSoC6\pdl\cmsis/include/cmsis_gcc.h **** #endif
 756:Generated_Source\PSoC6\pdl\cmsis/include/cmsis_gcc.h **** 
 757:Generated_Source\PSoC6\pdl\cmsis/include/cmsis_gcc.h **** #endif /* ((defined (__ARM_ARCH_8M_MAIN__ ) && (__ARM_ARCH_8M_MAIN__ == 1)) || \
 758:Generated_Source\PSoC6\pdl\cmsis/include/cmsis_gcc.h ****            (defined (__ARM_ARCH_8M_BASE__ ) && (__ARM_ARCH_8M_BASE__ == 1))    ) */
 759:Generated_Source\PSoC6\pdl\cmsis/include/cmsis_gcc.h **** 
 760:Generated_Source\PSoC6\pdl\cmsis/include/cmsis_gcc.h **** 
 761:Generated_Source\PSoC6\pdl\cmsis/include/cmsis_gcc.h **** #if ((defined (__ARM_ARCH_7EM__     ) && (__ARM_ARCH_7EM__     == 1)) || \
 762:Generated_Source\PSoC6\pdl\cmsis/include/cmsis_gcc.h ****      (defined (__ARM_ARCH_8M_MAIN__ ) && (__ARM_ARCH_8M_MAIN__ == 1))    )
 763:Generated_Source\PSoC6\pdl\cmsis/include/cmsis_gcc.h **** 
 764:Generated_Source\PSoC6\pdl\cmsis/include/cmsis_gcc.h **** /**
 765:Generated_Source\PSoC6\pdl\cmsis/include/cmsis_gcc.h ****   \brief   Get FPSCR
 766:Generated_Source\PSoC6\pdl\cmsis/include/cmsis_gcc.h ****   \details Returns the current value of the Floating Point Status/Control register.
 767:Generated_Source\PSoC6\pdl\cmsis/include/cmsis_gcc.h ****   \return               Floating Point Status/Control register value
 768:Generated_Source\PSoC6\pdl\cmsis/include/cmsis_gcc.h ****  */
 769:Generated_Source\PSoC6\pdl\cmsis/include/cmsis_gcc.h **** __STATIC_FORCEINLINE uint32_t __get_FPSCR(void)
 770:Generated_Source\PSoC6\pdl\cmsis/include/cmsis_gcc.h **** {
 771:Generated_Source\PSoC6\pdl\cmsis/include/cmsis_gcc.h **** #if ((defined (__FPU_PRESENT) && (__FPU_PRESENT == 1U)) && \
 772:Generated_Source\PSoC6\pdl\cmsis/include/cmsis_gcc.h ****      (defined (__FPU_USED   ) && (__FPU_USED    == 1U))     )
 773:Generated_Source\PSoC6\pdl\cmsis/include/cmsis_gcc.h **** #if __has_builtin(__builtin_arm_get_fpscr) || (__GNUC__ > 7) || (__GNUC__ == 7 && __GNUC_MINOR__ >=
ARM GAS  C:\Users\stijn\AppData\Local\Temp\ccLepBqo.s 			page 33


 774:Generated_Source\PSoC6\pdl\cmsis/include/cmsis_gcc.h ****   /* see https://gcc.gnu.org/ml/gcc-patches/2017-04/msg00443.html */
 775:Generated_Source\PSoC6\pdl\cmsis/include/cmsis_gcc.h ****   return __builtin_arm_get_fpscr();
 776:Generated_Source\PSoC6\pdl\cmsis/include/cmsis_gcc.h **** #else
 777:Generated_Source\PSoC6\pdl\cmsis/include/cmsis_gcc.h ****   uint32_t result;
 778:Generated_Source\PSoC6\pdl\cmsis/include/cmsis_gcc.h **** 
 779:Generated_Source\PSoC6\pdl\cmsis/include/cmsis_gcc.h ****   __ASM volatile ("VMRS %0, fpscr" : "=r" (result) );
 620              		.loc 2 779 0
 621              		.syntax unified
 622              	@ 779 "Generated_Source\PSoC6\pdl\cmsis/include/cmsis_gcc.h" 1
 623 0070 F1EE103A 		VMRS r3, fpscr
 624              	@ 0 "" 2
 625              		.thumb
 626              		.syntax unified
 627 0074 FB60     		str	r3, [r7, #12]
 780:Generated_Source\PSoC6\pdl\cmsis/include/cmsis_gcc.h ****   return(result);
 628              		.loc 2 780 0
 629 0076 FB68     		ldr	r3, [r7, #12]
 630              	.LBE5:
 631              	.LBE4:
 417:Generated_Source\PSoC6\pdl\drivers\peripheral\syslib/cy_syslib.c **** 
 418:Generated_Source\PSoC6\pdl\drivers\peripheral\syslib/cy_syslib.c ****         #if ((defined (__FPU_PRESENT) && (__FPU_PRESENT == 1U)) && \
 419:Generated_Source\PSoC6\pdl\drivers\peripheral\syslib/cy_syslib.c ****              (defined (__FPU_USED   ) && (__FPU_USED    == 1U)))
 420:Generated_Source\PSoC6\pdl\drivers\peripheral\syslib/cy_syslib.c ****             /* Checks cumulative exception bits for floating-point exceptions */
 421:Generated_Source\PSoC6\pdl\drivers\peripheral\syslib/cy_syslib.c ****             if(0U != (__get_FPSCR() & (CY_FPSCR_IXC_Msk | CY_FPSCR_IDC_Msk)))
 632              		.loc 1 421 0
 633 0078 03F09003 		and	r3, r3, #144
 634 007c 002B     		cmp	r3, #0
 635 007e 43D0     		beq	.L37
 422:Generated_Source\PSoC6\pdl\drivers\peripheral\syslib/cy_syslib.c ****             {
 423:Generated_Source\PSoC6\pdl\drivers\peripheral\syslib/cy_syslib.c ****                 cy_faultFrame.s0    = faultStackAddr[CY_S0_Pos];
 636              		.loc 1 423 0
 637 0080 7B68     		ldr	r3, [r7, #4]
 638 0082 1B6A     		ldr	r3, [r3, #32]
 639 0084 234A     		ldr	r2, .L38
 640 0086 5363     		str	r3, [r2, #52]
 424:Generated_Source\PSoC6\pdl\drivers\peripheral\syslib/cy_syslib.c ****                 cy_faultFrame.s1    = faultStackAddr[CY_S1_Pos];
 641              		.loc 1 424 0
 642 0088 7B68     		ldr	r3, [r7, #4]
 643 008a 5B6A     		ldr	r3, [r3, #36]
 644 008c 214A     		ldr	r2, .L38
 645 008e 9363     		str	r3, [r2, #56]
 425:Generated_Source\PSoC6\pdl\drivers\peripheral\syslib/cy_syslib.c ****                 cy_faultFrame.s2    = faultStackAddr[CY_S2_Pos];
 646              		.loc 1 425 0
 647 0090 7B68     		ldr	r3, [r7, #4]
 648 0092 9B6A     		ldr	r3, [r3, #40]
 649 0094 1F4A     		ldr	r2, .L38
 650 0096 D363     		str	r3, [r2, #60]
 426:Generated_Source\PSoC6\pdl\drivers\peripheral\syslib/cy_syslib.c ****                 cy_faultFrame.s3    = faultStackAddr[CY_S3_Pos];
 651              		.loc 1 426 0
 652 0098 7B68     		ldr	r3, [r7, #4]
 653 009a DB6A     		ldr	r3, [r3, #44]
 654 009c 1D4A     		ldr	r2, .L38
 655 009e 1364     		str	r3, [r2, #64]
 427:Generated_Source\PSoC6\pdl\drivers\peripheral\syslib/cy_syslib.c ****                 cy_faultFrame.s4    = faultStackAddr[CY_S4_Pos];
 656              		.loc 1 427 0
 657 00a0 7B68     		ldr	r3, [r7, #4]
 658 00a2 1B6B     		ldr	r3, [r3, #48]
ARM GAS  C:\Users\stijn\AppData\Local\Temp\ccLepBqo.s 			page 34


 659 00a4 1B4A     		ldr	r2, .L38
 660 00a6 5364     		str	r3, [r2, #68]
 428:Generated_Source\PSoC6\pdl\drivers\peripheral\syslib/cy_syslib.c ****                 cy_faultFrame.s5    = faultStackAddr[CY_S5_Pos];
 661              		.loc 1 428 0
 662 00a8 7B68     		ldr	r3, [r7, #4]
 663 00aa 5B6B     		ldr	r3, [r3, #52]
 664 00ac 194A     		ldr	r2, .L38
 665 00ae 9364     		str	r3, [r2, #72]
 429:Generated_Source\PSoC6\pdl\drivers\peripheral\syslib/cy_syslib.c ****                 cy_faultFrame.s6    = faultStackAddr[CY_S6_Pos];
 666              		.loc 1 429 0
 667 00b0 7B68     		ldr	r3, [r7, #4]
 668 00b2 9B6B     		ldr	r3, [r3, #56]
 669 00b4 174A     		ldr	r2, .L38
 670 00b6 D364     		str	r3, [r2, #76]
 430:Generated_Source\PSoC6\pdl\drivers\peripheral\syslib/cy_syslib.c ****                 cy_faultFrame.s7    = faultStackAddr[CY_S7_Pos];
 671              		.loc 1 430 0
 672 00b8 7B68     		ldr	r3, [r7, #4]
 673 00ba DB6B     		ldr	r3, [r3, #60]
 674 00bc 154A     		ldr	r2, .L38
 675 00be 1365     		str	r3, [r2, #80]
 431:Generated_Source\PSoC6\pdl\drivers\peripheral\syslib/cy_syslib.c ****                 cy_faultFrame.s8    = faultStackAddr[CY_S8_Pos];
 676              		.loc 1 431 0
 677 00c0 7B68     		ldr	r3, [r7, #4]
 678 00c2 1B6C     		ldr	r3, [r3, #64]
 679 00c4 134A     		ldr	r2, .L38
 680 00c6 5365     		str	r3, [r2, #84]
 432:Generated_Source\PSoC6\pdl\drivers\peripheral\syslib/cy_syslib.c ****                 cy_faultFrame.s9    = faultStackAddr[CY_S9_Pos];
 681              		.loc 1 432 0
 682 00c8 7B68     		ldr	r3, [r7, #4]
 683 00ca 5B6C     		ldr	r3, [r3, #68]
 684 00cc 114A     		ldr	r2, .L38
 685 00ce 9365     		str	r3, [r2, #88]
 433:Generated_Source\PSoC6\pdl\drivers\peripheral\syslib/cy_syslib.c ****                 cy_faultFrame.s10   = faultStackAddr[CY_S10_Pos];
 686              		.loc 1 433 0
 687 00d0 7B68     		ldr	r3, [r7, #4]
 688 00d2 9B6C     		ldr	r3, [r3, #72]
 689 00d4 0F4A     		ldr	r2, .L38
 690 00d6 D365     		str	r3, [r2, #92]
 434:Generated_Source\PSoC6\pdl\drivers\peripheral\syslib/cy_syslib.c ****                 cy_faultFrame.s11   = faultStackAddr[CY_S11_Pos];
 691              		.loc 1 434 0
 692 00d8 7B68     		ldr	r3, [r7, #4]
 693 00da DB6C     		ldr	r3, [r3, #76]
 694 00dc 0D4A     		ldr	r2, .L38
 695 00de 1366     		str	r3, [r2, #96]
 435:Generated_Source\PSoC6\pdl\drivers\peripheral\syslib/cy_syslib.c ****                 cy_faultFrame.s12   = faultStackAddr[CY_S12_Pos];
 696              		.loc 1 435 0
 697 00e0 7B68     		ldr	r3, [r7, #4]
 698 00e2 1B6D     		ldr	r3, [r3, #80]
 699 00e4 0B4A     		ldr	r2, .L38
 700 00e6 5366     		str	r3, [r2, #100]
 436:Generated_Source\PSoC6\pdl\drivers\peripheral\syslib/cy_syslib.c ****                 cy_faultFrame.s13   = faultStackAddr[CY_S13_Pos];
 701              		.loc 1 436 0
 702 00e8 7B68     		ldr	r3, [r7, #4]
 703 00ea 5B6D     		ldr	r3, [r3, #84]
 704 00ec 094A     		ldr	r2, .L38
 705 00ee 9366     		str	r3, [r2, #104]
 437:Generated_Source\PSoC6\pdl\drivers\peripheral\syslib/cy_syslib.c ****                 cy_faultFrame.s14   = faultStackAddr[CY_S14_Pos];
ARM GAS  C:\Users\stijn\AppData\Local\Temp\ccLepBqo.s 			page 35


 706              		.loc 1 437 0
 707 00f0 7B68     		ldr	r3, [r7, #4]
 708 00f2 9B6D     		ldr	r3, [r3, #88]
 709 00f4 074A     		ldr	r2, .L38
 710 00f6 D366     		str	r3, [r2, #108]
 438:Generated_Source\PSoC6\pdl\drivers\peripheral\syslib/cy_syslib.c ****                 cy_faultFrame.s15   = faultStackAddr[CY_S15_Pos];
 711              		.loc 1 438 0
 712 00f8 7B68     		ldr	r3, [r7, #4]
 713 00fa DB6D     		ldr	r3, [r3, #92]
 714 00fc 054A     		ldr	r2, .L38
 715 00fe 1367     		str	r3, [r2, #112]
 439:Generated_Source\PSoC6\pdl\drivers\peripheral\syslib/cy_syslib.c ****                 cy_faultFrame.fpscr = faultStackAddr[CY_FPSCR_Pos];
 716              		.loc 1 439 0
 717 0100 7B68     		ldr	r3, [r7, #4]
 718 0102 1B6E     		ldr	r3, [r3, #96]
 719 0104 034A     		ldr	r2, .L38
 720 0106 5367     		str	r3, [r2, #116]
 721              	.L37:
 440:Generated_Source\PSoC6\pdl\drivers\peripheral\syslib/cy_syslib.c ****             }
 441:Generated_Source\PSoC6\pdl\drivers\peripheral\syslib/cy_syslib.c ****         #endif /* __FPU_PRESENT */
 442:Generated_Source\PSoC6\pdl\drivers\peripheral\syslib/cy_syslib.c ****     #endif /* CY_CPU_CORTEX_M4 */
 443:Generated_Source\PSoC6\pdl\drivers\peripheral\syslib/cy_syslib.c **** 
 444:Generated_Source\PSoC6\pdl\drivers\peripheral\syslib/cy_syslib.c ****     Cy_SysLib_ProcessingFault();
 722              		.loc 1 444 0
 723 0108 FFF7FEFF 		bl	Cy_SysLib_ProcessingFault
 445:Generated_Source\PSoC6\pdl\drivers\peripheral\syslib/cy_syslib.c **** }
 724              		.loc 1 445 0
 725 010c 00BF     		nop
 726 010e 1037     		adds	r7, r7, #16
 727              		.cfi_def_cfa_offset 8
 728 0110 BD46     		mov	sp, r7
 729              		.cfi_def_cfa_register 13
 730              		@ sp needed
 731 0112 80BD     		pop	{r7, pc}
 732              	.L39:
 733              		.align	2
 734              	.L38:
 735 0114 00000000 		.word	cy_faultFrame
 736 0118 00ED00E0 		.word	-536810240
 737              		.cfi_endproc
 738              	.LFE160:
 739              		.size	Cy_SysLib_FaultHandler, .-Cy_SysLib_FaultHandler
 740              		.section	.text.Cy_SysLib_ProcessingFault,"ax",%progbits
 741              		.align	2
 742              		.weak	Cy_SysLib_ProcessingFault
 743              		.thumb
 744              		.thumb_func
 745              		.type	Cy_SysLib_ProcessingFault, %function
 746              	Cy_SysLib_ProcessingFault:
 747              	.LFB161:
 446:Generated_Source\PSoC6\pdl\drivers\peripheral\syslib/cy_syslib.c **** 
 447:Generated_Source\PSoC6\pdl\drivers\peripheral\syslib/cy_syslib.c **** 
 448:Generated_Source\PSoC6\pdl\drivers\peripheral\syslib/cy_syslib.c **** /*******************************************************************************
 449:Generated_Source\PSoC6\pdl\drivers\peripheral\syslib/cy_syslib.c **** * Function Name: Cy_SysLib_ProcessingFault
 450:Generated_Source\PSoC6\pdl\drivers\peripheral\syslib/cy_syslib.c **** ****************************************************************************//**
 451:Generated_Source\PSoC6\pdl\drivers\peripheral\syslib/cy_syslib.c **** *
 452:Generated_Source\PSoC6\pdl\drivers\peripheral\syslib/cy_syslib.c **** * This function determines how to process the current fault state. By default
ARM GAS  C:\Users\stijn\AppData\Local\Temp\ccLepBqo.s 			page 36


 453:Generated_Source\PSoC6\pdl\drivers\peripheral\syslib/cy_syslib.c **** * in case of exception the system will stay in the infinite loop of this
 454:Generated_Source\PSoC6\pdl\drivers\peripheral\syslib/cy_syslib.c **** * function.
 455:Generated_Source\PSoC6\pdl\drivers\peripheral\syslib/cy_syslib.c **** *
 456:Generated_Source\PSoC6\pdl\drivers\peripheral\syslib/cy_syslib.c **** * \note This function has the WEAK option, so the user can redefine the function
 457:Generated_Source\PSoC6\pdl\drivers\peripheral\syslib/cy_syslib.c **** *       behavior for a custom processing.
 458:Generated_Source\PSoC6\pdl\drivers\peripheral\syslib/cy_syslib.c **** *       For example, the function redefinition could be constructed from fault
 459:Generated_Source\PSoC6\pdl\drivers\peripheral\syslib/cy_syslib.c **** *       stack processing and NVIC_SystemReset() function call.
 460:Generated_Source\PSoC6\pdl\drivers\peripheral\syslib/cy_syslib.c **** *
 461:Generated_Source\PSoC6\pdl\drivers\peripheral\syslib/cy_syslib.c **** *******************************************************************************/
 462:Generated_Source\PSoC6\pdl\drivers\peripheral\syslib/cy_syslib.c **** __WEAK void Cy_SysLib_ProcessingFault(void)
 463:Generated_Source\PSoC6\pdl\drivers\peripheral\syslib/cy_syslib.c **** {
 748              		.loc 1 463 0
 749              		.cfi_startproc
 750              		@ args = 0, pretend = 0, frame = 0
 751              		@ frame_needed = 1, uses_anonymous_args = 0
 752              		@ link register save eliminated.
 753 0000 80B4     		push	{r7}
 754              		.cfi_def_cfa_offset 4
 755              		.cfi_offset 7, -4
 756 0002 00AF     		add	r7, sp, #0
 757              		.cfi_def_cfa_register 7
 758              	.L41:
 464:Generated_Source\PSoC6\pdl\drivers\peripheral\syslib/cy_syslib.c ****     #if defined(__ARMCC_VERSION)
 465:Generated_Source\PSoC6\pdl\drivers\peripheral\syslib/cy_syslib.c ****         /* Assembly implementation of an infinite loop
 466:Generated_Source\PSoC6\pdl\drivers\peripheral\syslib/cy_syslib.c ****          * is used for the armcc compiler to preserve the call stack.
 467:Generated_Source\PSoC6\pdl\drivers\peripheral\syslib/cy_syslib.c ****          * Otherwise, the compiler destroys the call stack,
 468:Generated_Source\PSoC6\pdl\drivers\peripheral\syslib/cy_syslib.c ****          * because treats this API as a no return function.
 469:Generated_Source\PSoC6\pdl\drivers\peripheral\syslib/cy_syslib.c ****          */
 470:Generated_Source\PSoC6\pdl\drivers\peripheral\syslib/cy_syslib.c ****         Cy_SysLib_AsmInfiniteLoop();
 471:Generated_Source\PSoC6\pdl\drivers\peripheral\syslib/cy_syslib.c ****     #else
 472:Generated_Source\PSoC6\pdl\drivers\peripheral\syslib/cy_syslib.c ****         while(1) {}
 759              		.loc 1 472 0 discriminator 1
 760 0004 FEE7     		b	.L41
 761              		.cfi_endproc
 762              	.LFE161:
 763              		.size	Cy_SysLib_ProcessingFault, .-Cy_SysLib_ProcessingFault
 764 0006 00BF     		.section	.text.Cy_SysLib_SetWaitStates,"ax",%progbits
 765              		.align	2
 766              		.global	Cy_SysLib_SetWaitStates
 767              		.thumb
 768              		.thumb_func
 769              		.type	Cy_SysLib_SetWaitStates, %function
 770              	Cy_SysLib_SetWaitStates:
 771              	.LFB162:
 473:Generated_Source\PSoC6\pdl\drivers\peripheral\syslib/cy_syslib.c ****     #endif  /* (__ARMCC_VERSION) */
 474:Generated_Source\PSoC6\pdl\drivers\peripheral\syslib/cy_syslib.c **** }
 475:Generated_Source\PSoC6\pdl\drivers\peripheral\syslib/cy_syslib.c **** #endif /* (CY_ARM_FAULT_DEBUG == CY_ARM_FAULT_DEBUG_ENABLED) || defined(CY_DOXYGEN) */
 476:Generated_Source\PSoC6\pdl\drivers\peripheral\syslib/cy_syslib.c **** 
 477:Generated_Source\PSoC6\pdl\drivers\peripheral\syslib/cy_syslib.c **** 
 478:Generated_Source\PSoC6\pdl\drivers\peripheral\syslib/cy_syslib.c **** /*******************************************************************************
 479:Generated_Source\PSoC6\pdl\drivers\peripheral\syslib/cy_syslib.c **** * Function Name: Cy_SysLib_SetWaitStates
 480:Generated_Source\PSoC6\pdl\drivers\peripheral\syslib/cy_syslib.c **** ****************************************************************************//**
 481:Generated_Source\PSoC6\pdl\drivers\peripheral\syslib/cy_syslib.c **** *
 482:Generated_Source\PSoC6\pdl\drivers\peripheral\syslib/cy_syslib.c **** * Sets the number of clock cycles the cache will wait for, before it samples
 483:Generated_Source\PSoC6\pdl\drivers\peripheral\syslib/cy_syslib.c **** * data coming back from ROM, SRAM, and Flash.
 484:Generated_Source\PSoC6\pdl\drivers\peripheral\syslib/cy_syslib.c **** *
 485:Generated_Source\PSoC6\pdl\drivers\peripheral\syslib/cy_syslib.c **** * Call this function before increasing the HFClk0 High Frequency clock.
ARM GAS  C:\Users\stijn\AppData\Local\Temp\ccLepBqo.s 			page 37


 486:Generated_Source\PSoC6\pdl\drivers\peripheral\syslib/cy_syslib.c **** * Call this function optionally after lowering the HFClk0 High Frequency clock
 487:Generated_Source\PSoC6\pdl\drivers\peripheral\syslib/cy_syslib.c **** * in order to improve the CPU performance.
 488:Generated_Source\PSoC6\pdl\drivers\peripheral\syslib/cy_syslib.c **** *
 489:Generated_Source\PSoC6\pdl\drivers\peripheral\syslib/cy_syslib.c **** * Also, call this function before switching the core supply regulator voltage
 490:Generated_Source\PSoC6\pdl\drivers\peripheral\syslib/cy_syslib.c **** * (LDO or SIMO Buck) from 1.1V to 0.9V.
 491:Generated_Source\PSoC6\pdl\drivers\peripheral\syslib/cy_syslib.c **** * Call this function optionally after switching the core supply regulator
 492:Generated_Source\PSoC6\pdl\drivers\peripheral\syslib/cy_syslib.c **** * voltage from 0.9V to 1.1V in order to improve the CPU performance.
 493:Generated_Source\PSoC6\pdl\drivers\peripheral\syslib/cy_syslib.c **** *
 494:Generated_Source\PSoC6\pdl\drivers\peripheral\syslib/cy_syslib.c **** * \param ulpMode  The device power mode.
 495:Generated_Source\PSoC6\pdl\drivers\peripheral\syslib/cy_syslib.c **** *        true  if the device should be switched to the ULP mode (nominal
 496:Generated_Source\PSoC6\pdl\drivers\peripheral\syslib/cy_syslib.c **** *              voltage of the core supply regulator should be switched to 0.9V);
 497:Generated_Source\PSoC6\pdl\drivers\peripheral\syslib/cy_syslib.c **** *        false if the device should be switched to the LP mode (nominal
 498:Generated_Source\PSoC6\pdl\drivers\peripheral\syslib/cy_syslib.c **** *              voltage of the core supply regulator should be switched to 1.1V).
 499:Generated_Source\PSoC6\pdl\drivers\peripheral\syslib/cy_syslib.c **** *
 500:Generated_Source\PSoC6\pdl\drivers\peripheral\syslib/cy_syslib.c **** * \note Refer to the device TRM for the low power modes description.
 501:Generated_Source\PSoC6\pdl\drivers\peripheral\syslib/cy_syslib.c **** *
 502:Generated_Source\PSoC6\pdl\drivers\peripheral\syslib/cy_syslib.c **** * \param clkHfMHz  The HFClk0 clock frequency in MHz. Specifying a frequency
 503:Generated_Source\PSoC6\pdl\drivers\peripheral\syslib/cy_syslib.c **** *                  above the supported maximum will set the wait states as for
 504:Generated_Source\PSoC6\pdl\drivers\peripheral\syslib/cy_syslib.c **** *                  the maximum frequency.
 505:Generated_Source\PSoC6\pdl\drivers\peripheral\syslib/cy_syslib.c **** *
 506:Generated_Source\PSoC6\pdl\drivers\peripheral\syslib/cy_syslib.c **** *******************************************************************************/
 507:Generated_Source\PSoC6\pdl\drivers\peripheral\syslib/cy_syslib.c **** void Cy_SysLib_SetWaitStates(bool ulpMode, uint32_t clkHfMHz)
 508:Generated_Source\PSoC6\pdl\drivers\peripheral\syslib/cy_syslib.c **** {
 772              		.loc 1 508 0
 773              		.cfi_startproc
 774              		@ args = 0, pretend = 0, frame = 16
 775              		@ frame_needed = 1, uses_anonymous_args = 0
 776              		@ link register save eliminated.
 777 0000 80B4     		push	{r7}
 778              		.cfi_def_cfa_offset 4
 779              		.cfi_offset 7, -4
 780 0002 85B0     		sub	sp, sp, #20
 781              		.cfi_def_cfa_offset 24
 782 0004 00AF     		add	r7, sp, #0
 783              		.cfi_def_cfa_register 7
 784 0006 0346     		mov	r3, r0
 785 0008 3960     		str	r1, [r7]
 786 000a FB71     		strb	r3, [r7, #7]
 509:Generated_Source\PSoC6\pdl\drivers\peripheral\syslib/cy_syslib.c ****     uint32_t waitStates;
 510:Generated_Source\PSoC6\pdl\drivers\peripheral\syslib/cy_syslib.c ****     uint32_t freqMax;
 511:Generated_Source\PSoC6\pdl\drivers\peripheral\syslib/cy_syslib.c **** 
 512:Generated_Source\PSoC6\pdl\drivers\peripheral\syslib/cy_syslib.c ****     freqMax = ulpMode ? CY_SYSLIB_ULP_SLOW_WS_0_FREQ_MAX : CY_SYSLIB_LP_SLOW_WS_0_FREQ_MAX;
 787              		.loc 1 512 0
 788 000c FB79     		ldrb	r3, [r7, #7]	@ zero_extendqisi2
 789 000e 002B     		cmp	r3, #0
 790 0010 01D0     		beq	.L43
 791              		.loc 1 512 0 is_stmt 0 discriminator 1
 792 0012 1923     		movs	r3, #25
 793 0014 00E0     		b	.L44
 794              	.L43:
 795              		.loc 1 512 0 discriminator 2
 796 0016 6423     		movs	r3, #100
 797              	.L44:
 798              		.loc 1 512 0 discriminator 4
 799 0018 BB60     		str	r3, [r7, #8]
 513:Generated_Source\PSoC6\pdl\drivers\peripheral\syslib/cy_syslib.c ****     waitStates = (clkHfMHz <= freqMax) ? 0UL : 1UL;
 800              		.loc 1 513 0 is_stmt 1 discriminator 4
ARM GAS  C:\Users\stijn\AppData\Local\Temp\ccLepBqo.s 			page 38


 801 001a 3A68     		ldr	r2, [r7]
 802 001c BB68     		ldr	r3, [r7, #8]
 803 001e 9A42     		cmp	r2, r3
 804 0020 8CBF     		ite	hi
 805 0022 0123     		movhi	r3, #1
 806 0024 0023     		movls	r3, #0
 807 0026 DBB2     		uxtb	r3, r3
 808 0028 FB60     		str	r3, [r7, #12]
 514:Generated_Source\PSoC6\pdl\drivers\peripheral\syslib/cy_syslib.c **** 
 515:Generated_Source\PSoC6\pdl\drivers\peripheral\syslib/cy_syslib.c ****     /* ROM */
 516:Generated_Source\PSoC6\pdl\drivers\peripheral\syslib/cy_syslib.c ****     CPUSS_ROM_CTL = _CLR_SET_FLD32U(CPUSS_ROM_CTL, CPUSS_ROM_CTL_SLOW_WS, waitStates);
 809              		.loc 1 516 0 discriminator 4
 810 002a 5A4B     		ldr	r3, .L61
 811 002c 1B68     		ldr	r3, [r3]
 812 002e 1B68     		ldr	r3, [r3]
 813 0030 584A     		ldr	r2, .L61
 814 0032 1268     		ldr	r2, [r2]
 815 0034 B2F8A820 		ldrh	r2, [r2, #168]
 816 0038 1344     		add	r3, r3, r2
 817 003a 1946     		mov	r1, r3
 818 003c 554B     		ldr	r3, .L61
 819 003e 1B68     		ldr	r3, [r3]
 820 0040 1B68     		ldr	r3, [r3]
 821 0042 544A     		ldr	r2, .L61
 822 0044 1268     		ldr	r2, [r2]
 823 0046 B2F8A820 		ldrh	r2, [r2, #168]
 824 004a 1344     		add	r3, r3, r2
 825 004c 1B68     		ldr	r3, [r3]
 826 004e 23F00302 		bic	r2, r3, #3
 827 0052 FB68     		ldr	r3, [r7, #12]
 828 0054 03F00303 		and	r3, r3, #3
 829 0058 1343     		orrs	r3, r3, r2
 830 005a 0B60     		str	r3, [r1]
 517:Generated_Source\PSoC6\pdl\drivers\peripheral\syslib/cy_syslib.c ****     CPUSS_ROM_CTL = _CLR_SET_FLD32U(CPUSS_ROM_CTL, CPUSS_ROM_CTL_FAST_WS, 0UL);
 831              		.loc 1 517 0 discriminator 4
 832 005c 4D4B     		ldr	r3, .L61
 833 005e 1B68     		ldr	r3, [r3]
 834 0060 1B68     		ldr	r3, [r3]
 835 0062 4C4A     		ldr	r2, .L61
 836 0064 1268     		ldr	r2, [r2]
 837 0066 B2F8A820 		ldrh	r2, [r2, #168]
 838 006a 1344     		add	r3, r3, r2
 839 006c 1946     		mov	r1, r3
 840 006e 494B     		ldr	r3, .L61
 841 0070 1B68     		ldr	r3, [r3]
 842 0072 1B68     		ldr	r3, [r3]
 843 0074 474A     		ldr	r2, .L61
 844 0076 1268     		ldr	r2, [r2]
 845 0078 B2F8A820 		ldrh	r2, [r2, #168]
 846 007c 1344     		add	r3, r3, r2
 847 007e 1B68     		ldr	r3, [r3]
 848 0080 23F44073 		bic	r3, r3, #768
 849 0084 0B60     		str	r3, [r1]
 518:Generated_Source\PSoC6\pdl\drivers\peripheral\syslib/cy_syslib.c **** 
 519:Generated_Source\PSoC6\pdl\drivers\peripheral\syslib/cy_syslib.c ****     /* SRAM */
 520:Generated_Source\PSoC6\pdl\drivers\peripheral\syslib/cy_syslib.c ****     CPUSS_RAM0_CTL0 = _CLR_SET_FLD32U(CPUSS_RAM0_CTL0, CPUSS_RAM0_CTL0_SLOW_WS, waitStates);
 850              		.loc 1 520 0 discriminator 4
ARM GAS  C:\Users\stijn\AppData\Local\Temp\ccLepBqo.s 			page 39


 851 0086 434B     		ldr	r3, .L61
 852 0088 1B68     		ldr	r3, [r3]
 853 008a 1B68     		ldr	r3, [r3]
 854 008c 414A     		ldr	r2, .L61
 855 008e 1268     		ldr	r2, [r2]
 856 0090 B2F8AA20 		ldrh	r2, [r2, #170]
 857 0094 1344     		add	r3, r3, r2
 858 0096 1946     		mov	r1, r3
 859 0098 3E4B     		ldr	r3, .L61
 860 009a 1B68     		ldr	r3, [r3]
 861 009c 1B68     		ldr	r3, [r3]
 862 009e 3D4A     		ldr	r2, .L61
 863 00a0 1268     		ldr	r2, [r2]
 864 00a2 B2F8AA20 		ldrh	r2, [r2, #170]
 865 00a6 1344     		add	r3, r3, r2
 866 00a8 1B68     		ldr	r3, [r3]
 867 00aa 23F00302 		bic	r2, r3, #3
 868 00ae FB68     		ldr	r3, [r7, #12]
 869 00b0 03F00303 		and	r3, r3, #3
 870 00b4 1343     		orrs	r3, r3, r2
 871 00b6 0B60     		str	r3, [r1]
 521:Generated_Source\PSoC6\pdl\drivers\peripheral\syslib/cy_syslib.c ****     CPUSS_RAM0_CTL0 = _CLR_SET_FLD32U(CPUSS_RAM0_CTL0, CPUSS_RAM0_CTL0_FAST_WS, 0UL);
 872              		.loc 1 521 0 discriminator 4
 873 00b8 364B     		ldr	r3, .L61
 874 00ba 1B68     		ldr	r3, [r3]
 875 00bc 1B68     		ldr	r3, [r3]
 876 00be 354A     		ldr	r2, .L61
 877 00c0 1268     		ldr	r2, [r2]
 878 00c2 B2F8AA20 		ldrh	r2, [r2, #170]
 879 00c6 1344     		add	r3, r3, r2
 880 00c8 1946     		mov	r1, r3
 881 00ca 324B     		ldr	r3, .L61
 882 00cc 1B68     		ldr	r3, [r3]
 883 00ce 1B68     		ldr	r3, [r3]
 884 00d0 304A     		ldr	r2, .L61
 885 00d2 1268     		ldr	r2, [r2]
 886 00d4 B2F8AA20 		ldrh	r2, [r2, #170]
 887 00d8 1344     		add	r3, r3, r2
 888 00da 1B68     		ldr	r3, [r3]
 889 00dc 23F44073 		bic	r3, r3, #768
 890 00e0 0B60     		str	r3, [r1]
 522:Generated_Source\PSoC6\pdl\drivers\peripheral\syslib/cy_syslib.c ****     #if defined (RAMC1_PRESENT) && (RAMC1_PRESENT == 1UL)
 523:Generated_Source\PSoC6\pdl\drivers\peripheral\syslib/cy_syslib.c ****         CPUSS_RAM1_CTL0 = _CLR_SET_FLD32U(CPUSS_RAM1_CTL0, CPUSS_RAM1_CTL0_SLOW_WS, waitStates);
 524:Generated_Source\PSoC6\pdl\drivers\peripheral\syslib/cy_syslib.c ****         CPUSS_RAM1_CTL0 = _CLR_SET_FLD32U(CPUSS_RAM1_CTL0, CPUSS_RAM1_CTL0_FAST_WS, 0UL);
 525:Generated_Source\PSoC6\pdl\drivers\peripheral\syslib/cy_syslib.c ****     #endif /* defined (RAMC1_PRESENT) && (RAMC1_PRESENT == 1UL) */
 526:Generated_Source\PSoC6\pdl\drivers\peripheral\syslib/cy_syslib.c ****     #if defined (RAMC2_PRESENT) && (RAMC2_PRESENT == 1UL)
 527:Generated_Source\PSoC6\pdl\drivers\peripheral\syslib/cy_syslib.c ****         CPUSS_RAM2_CTL0 = _CLR_SET_FLD32U(CPUSS_RAM2_CTL0, CPUSS_RAM2_CTL0_SLOW_WS, waitStates);
 528:Generated_Source\PSoC6\pdl\drivers\peripheral\syslib/cy_syslib.c ****         CPUSS_RAM2_CTL0 = _CLR_SET_FLD32U(CPUSS_RAM2_CTL0, CPUSS_RAM2_CTL0_FAST_WS, 0UL);
 529:Generated_Source\PSoC6\pdl\drivers\peripheral\syslib/cy_syslib.c ****     #endif /* defined (RAMC2_PRESENT) && (RAMC2_PRESENT == 1UL) */
 530:Generated_Source\PSoC6\pdl\drivers\peripheral\syslib/cy_syslib.c **** 
 531:Generated_Source\PSoC6\pdl\drivers\peripheral\syslib/cy_syslib.c ****     /* Flash */
 532:Generated_Source\PSoC6\pdl\drivers\peripheral\syslib/cy_syslib.c ****     if (ulpMode)
 891              		.loc 1 532 0 discriminator 4
 892 00e2 FB79     		ldrb	r3, [r7, #7]	@ zero_extendqisi2
 893 00e4 002B     		cmp	r3, #0
 894 00e6 0CD0     		beq	.L45
 533:Generated_Source\PSoC6\pdl\drivers\peripheral\syslib/cy_syslib.c ****     {
ARM GAS  C:\Users\stijn\AppData\Local\Temp\ccLepBqo.s 			page 40


 534:Generated_Source\PSoC6\pdl\drivers\peripheral\syslib/cy_syslib.c ****         waitStates =  (clkHfMHz <= CY_SYSLIB_FLASH_ULP_WS_0_FREQ_MAX) ? 0UL :
 895              		.loc 1 534 0
 896 00e8 3B68     		ldr	r3, [r7]
 897 00ea 102B     		cmp	r3, #16
 898 00ec 06D9     		bls	.L46
 535:Generated_Source\PSoC6\pdl\drivers\peripheral\syslib/cy_syslib.c ****                      ((clkHfMHz <= CY_SYSLIB_FLASH_ULP_WS_1_FREQ_MAX) ? 1UL : 2UL);
 899              		.loc 1 535 0
 900 00ee 3B68     		ldr	r3, [r7]
 901 00f0 212B     		cmp	r3, #33
 902 00f2 01D8     		bhi	.L47
 903              		.loc 1 535 0 is_stmt 0 discriminator 1
 904 00f4 0123     		movs	r3, #1
 905 00f6 02E0     		b	.L49
 906              	.L47:
 907              		.loc 1 535 0 discriminator 2
 908 00f8 0223     		movs	r3, #2
 909 00fa 00E0     		b	.L49
 910              	.L46:
 534:Generated_Source\PSoC6\pdl\drivers\peripheral\syslib/cy_syslib.c ****                      ((clkHfMHz <= CY_SYSLIB_FLASH_ULP_WS_1_FREQ_MAX) ? 1UL : 2UL);
 911              		.loc 1 534 0 is_stmt 1 discriminator 1
 912 00fc 0023     		movs	r3, #0
 913              	.L49:
 534:Generated_Source\PSoC6\pdl\drivers\peripheral\syslib/cy_syslib.c ****                      ((clkHfMHz <= CY_SYSLIB_FLASH_ULP_WS_1_FREQ_MAX) ? 1UL : 2UL);
 914              		.loc 1 534 0 is_stmt 0 discriminator 3
 915 00fe FB60     		str	r3, [r7, #12]
 916 0100 33E0     		b	.L50
 917              	.L45:
 536:Generated_Source\PSoC6\pdl\drivers\peripheral\syslib/cy_syslib.c ****     }
 537:Generated_Source\PSoC6\pdl\drivers\peripheral\syslib/cy_syslib.c ****     else
 538:Generated_Source\PSoC6\pdl\drivers\peripheral\syslib/cy_syslib.c ****     {
 539:Generated_Source\PSoC6\pdl\drivers\peripheral\syslib/cy_syslib.c ****         waitStates =  (clkHfMHz <= cy_device->flashCtlMainWs0Freq) ? 0UL :
 918              		.loc 1 539 0 is_stmt 1
 919 0102 244B     		ldr	r3, .L61
 920 0104 1B68     		ldr	r3, [r3]
 921 0106 93F85530 		ldrb	r3, [r3, #85]	@ zero_extendqisi2
 922 010a 1A46     		mov	r2, r3
 923 010c 3B68     		ldr	r3, [r7]
 924 010e 9A42     		cmp	r2, r3
 925 0110 29D2     		bcs	.L51
 540:Generated_Source\PSoC6\pdl\drivers\peripheral\syslib/cy_syslib.c ****                      ((clkHfMHz <= cy_device->flashCtlMainWs1Freq) ? 1UL :
 926              		.loc 1 540 0
 927 0112 204B     		ldr	r3, .L61
 928 0114 1B68     		ldr	r3, [r3]
 929 0116 93F85630 		ldrb	r3, [r3, #86]	@ zero_extendqisi2
 930 011a 1A46     		mov	r2, r3
 931 011c 3B68     		ldr	r3, [r7]
 932 011e 9A42     		cmp	r2, r3
 933 0120 1FD2     		bcs	.L52
 541:Generated_Source\PSoC6\pdl\drivers\peripheral\syslib/cy_syslib.c ****                      ((clkHfMHz <= cy_device->flashCtlMainWs2Freq) ? 2UL :
 934              		.loc 1 541 0
 935 0122 1C4B     		ldr	r3, .L61
 936 0124 1B68     		ldr	r3, [r3]
 937 0126 93F85730 		ldrb	r3, [r3, #87]	@ zero_extendqisi2
 938 012a 1A46     		mov	r2, r3
 939 012c 3B68     		ldr	r3, [r7]
 940 012e 9A42     		cmp	r2, r3
 941 0130 15D2     		bcs	.L53
ARM GAS  C:\Users\stijn\AppData\Local\Temp\ccLepBqo.s 			page 41


 542:Generated_Source\PSoC6\pdl\drivers\peripheral\syslib/cy_syslib.c ****                      ((clkHfMHz <= cy_device->flashCtlMainWs3Freq) ? 3UL : 
 942              		.loc 1 542 0
 943 0132 184B     		ldr	r3, .L61
 944 0134 1B68     		ldr	r3, [r3]
 945 0136 93F85830 		ldrb	r3, [r3, #88]	@ zero_extendqisi2
 946 013a 1A46     		mov	r2, r3
 947 013c 3B68     		ldr	r3, [r7]
 948 013e 9A42     		cmp	r2, r3
 949 0140 0BD2     		bcs	.L54
 543:Generated_Source\PSoC6\pdl\drivers\peripheral\syslib/cy_syslib.c ****                      ((clkHfMHz <= cy_device->flashCtlMainWs4Freq) ? 4UL : 5UL))));
 950              		.loc 1 543 0
 951 0142 144B     		ldr	r3, .L61
 952 0144 1B68     		ldr	r3, [r3]
 953 0146 93F85930 		ldrb	r3, [r3, #89]	@ zero_extendqisi2
 954 014a 1A46     		mov	r2, r3
 955 014c 3B68     		ldr	r3, [r7]
 956 014e 9A42     		cmp	r2, r3
 957 0150 01D3     		bcc	.L55
 958              		.loc 1 543 0 is_stmt 0 discriminator 1
 959 0152 0423     		movs	r3, #4
 960 0154 08E0     		b	.L60
 961              	.L55:
 962              		.loc 1 543 0 discriminator 2
 963 0156 0523     		movs	r3, #5
 964 0158 06E0     		b	.L60
 965              	.L54:
 542:Generated_Source\PSoC6\pdl\drivers\peripheral\syslib/cy_syslib.c ****                      ((clkHfMHz <= cy_device->flashCtlMainWs3Freq) ? 3UL : 
 966              		.loc 1 542 0 is_stmt 1 discriminator 1
 967 015a 0323     		movs	r3, #3
 968 015c 04E0     		b	.L60
 969              	.L53:
 541:Generated_Source\PSoC6\pdl\drivers\peripheral\syslib/cy_syslib.c ****                      ((clkHfMHz <= cy_device->flashCtlMainWs2Freq) ? 2UL :
 970              		.loc 1 541 0 discriminator 1
 971 015e 0223     		movs	r3, #2
 972 0160 02E0     		b	.L60
 973              	.L52:
 540:Generated_Source\PSoC6\pdl\drivers\peripheral\syslib/cy_syslib.c ****                      ((clkHfMHz <= cy_device->flashCtlMainWs2Freq) ? 2UL :
 974              		.loc 1 540 0 discriminator 1
 975 0162 0123     		movs	r3, #1
 976 0164 00E0     		b	.L60
 977              	.L51:
 539:Generated_Source\PSoC6\pdl\drivers\peripheral\syslib/cy_syslib.c ****                      ((clkHfMHz <= cy_device->flashCtlMainWs1Freq) ? 1UL :
 978              		.loc 1 539 0 discriminator 1
 979 0166 0023     		movs	r3, #0
 980              	.L60:
 539:Generated_Source\PSoC6\pdl\drivers\peripheral\syslib/cy_syslib.c ****                      ((clkHfMHz <= cy_device->flashCtlMainWs1Freq) ? 1UL :
 981              		.loc 1 539 0 is_stmt 0 discriminator 3
 982 0168 FB60     		str	r3, [r7, #12]
 983              	.L50:
 544:Generated_Source\PSoC6\pdl\drivers\peripheral\syslib/cy_syslib.c ****     }
 545:Generated_Source\PSoC6\pdl\drivers\peripheral\syslib/cy_syslib.c **** 
 546:Generated_Source\PSoC6\pdl\drivers\peripheral\syslib/cy_syslib.c ****     FLASHC_FLASH_CTL = _CLR_SET_FLD32U(FLASHC_FLASH_CTL, FLASHC_FLASH_CTL_MAIN_WS, waitStates);
 984              		.loc 1 546 0 is_stmt 1
 985 016a 0A4B     		ldr	r3, .L61
 986 016c 1B68     		ldr	r3, [r3]
 987 016e 5B68     		ldr	r3, [r3, #4]
 988 0170 1946     		mov	r1, r3
ARM GAS  C:\Users\stijn\AppData\Local\Temp\ccLepBqo.s 			page 42


 989 0172 084B     		ldr	r3, .L61
 990 0174 1B68     		ldr	r3, [r3]
 991 0176 5B68     		ldr	r3, [r3, #4]
 992 0178 1B68     		ldr	r3, [r3]
 993 017a 23F00F02 		bic	r2, r3, #15
 994 017e FB68     		ldr	r3, [r7, #12]
 995 0180 03F00F03 		and	r3, r3, #15
 996 0184 1343     		orrs	r3, r3, r2
 997 0186 0B60     		str	r3, [r1]
 547:Generated_Source\PSoC6\pdl\drivers\peripheral\syslib/cy_syslib.c **** }
 998              		.loc 1 547 0
 999 0188 00BF     		nop
 1000 018a 1437     		adds	r7, r7, #20
 1001              		.cfi_def_cfa_offset 4
 1002 018c BD46     		mov	sp, r7
 1003              		.cfi_def_cfa_register 13
 1004              		@ sp needed
 1005 018e 5DF8047B 		ldr	r7, [sp], #4
 1006              		.cfi_restore 7
 1007              		.cfi_def_cfa_offset 0
 1008 0192 7047     		bx	lr
 1009              	.L62:
 1010              		.align	2
 1011              	.L61:
 1012 0194 00000000 		.word	cy_device
 1013              		.cfi_endproc
 1014              	.LFE162:
 1015              		.size	Cy_SysLib_SetWaitStates, .-Cy_SysLib_SetWaitStates
 1016              		.text
 1017              	.Letext0:
 1018              		.file 3 "c:\\program files (x86)\\cypress\\psoc creator\\4.2\\psoc creator\\import\\gnu\\arm\\5.4.
 1019              		.file 4 "c:\\program files (x86)\\cypress\\psoc creator\\4.2\\psoc creator\\import\\gnu\\arm\\5.4.
 1020              		.file 5 "Generated_Source\\PSoC6\\pdl\\devices/psoc6/include/ip/cyip_flashc.h"
 1021              		.file 6 "Generated_Source\\PSoC6\\pdl\\devices/psoc6/include/ip/cyip_sflash.h"
 1022              		.file 7 "Generated_Source\\PSoC6\\pdl\\devices/psoc6/include/ip/cyip_srss.h"
 1023              		.file 8 "Generated_Source\\PSoC6\\pdl\\devices/psoc6/include/ip/cyip_backup.h"
 1024              		.file 9 "Generated_Source\\PSoC6\\pdl\\drivers/peripheral/device/cy_device.h"
 1025              		.file 10 "Generated_Source\\PSoC6\\pdl\\cmsis/include/core_cm4.h"
 1026              		.file 11 "Generated_Source\\PSoC6\\pdl\\devices/psoc6/include/psoc6_01_config.h"
 1027              		.file 12 "Generated_Source\\PSoC6\\pdl\\drivers\\peripheral\\syslib\\cy_syslib.h"
 1028              		.file 13 "./system_psoc6.h"