ARM GAS  C:\Users\stijn\AppData\Local\Temp\ccLepBqo.s 			page 1


   1              		.syntax unified
   2              		.cpu cortex-m4
   3              		.eabi_attribute 27, 1
   4              		.fpu fpv4-sp-d16
   5              		.eabi_attribute 20, 1
   6              		.eabi_attribute 21, 1
   7              		.eabi_attribute 23, 3
   8              		.eabi_attribute 24, 1
   9              		.eabi_attribute 25, 1
  10              		.eabi_attribute 26, 1
  11              		.eabi_attribute 30, 6
  12              		.eabi_attribute 34, 1
  13              		.eabi_attribute 18, 4
  14              		.thumb
  15              		.syntax unified
  16              		.file	"cy_syslib.c"
  17              		.text
  18              	.Ltext0:
  19              		.cfi_sections	.debug_frame
  20              		.global	cy_assertFileName
  21              		.section	.noinit,"aw",%progbits
  22              		.align	2
  23              		.type	cy_assertFileName, %object
  24              		.size	cy_assertFileName, 24
  25              	cy_assertFileName:
  26 0000 00000000 		.space	24
  26      00000000 
  26      00000000 
  26      00000000 
  26      00000000 
  27              		.global	cy_assertLine
  28              		.align	2
  29              		.type	cy_assertLine, %object
  30              		.size	cy_assertLine, 4
  31              	cy_assertLine:
  32 0018 00000000 		.space	4
  33              		.global	cy_faultFrame
  34              		.align	2
  35              		.type	cy_faultFrame, %object
  36              		.size	cy_faultFrame, 120
  37              	cy_faultFrame:
  38 001c 00000000 		.space	120
  38      00000000 
  38      00000000 
  38      00000000 
  38      00000000 
  39              		.section	.text.Cy_SysLib_Delay,"ax",%progbits
  40              		.align	2
  41              		.global	Cy_SysLib_Delay
  42              		.thumb
  43              		.thumb_func
  44              		.type	Cy_SysLib_Delay, %function
  45              	Cy_SysLib_Delay:
  46              	.LFB151:
  47              		.file 1 "Generated_Source\\PSoC6\\pdl\\drivers\\peripheral\\syslib\\cy_syslib.c"
   1:Generated_Source\PSoC6\pdl\drivers\peripheral\syslib/cy_syslib.c **** /***************************************************************************//**
   2:Generated_Source\PSoC6\pdl\drivers\peripheral\syslib/cy_syslib.c **** * \file cy_syslib.c
ARM GAS  C:\Users\stijn\AppData\Local\Temp\ccLepBqo.s 			page 2


   3:Generated_Source\PSoC6\pdl\drivers\peripheral\syslib/cy_syslib.c **** * \version 2.10
   4:Generated_Source\PSoC6\pdl\drivers\peripheral\syslib/cy_syslib.c **** *
   5:Generated_Source\PSoC6\pdl\drivers\peripheral\syslib/cy_syslib.c **** *  Description:
   6:Generated_Source\PSoC6\pdl\drivers\peripheral\syslib/cy_syslib.c **** *   Provides system API implementation for the SysLib driver.
   7:Generated_Source\PSoC6\pdl\drivers\peripheral\syslib/cy_syslib.c **** *
   8:Generated_Source\PSoC6\pdl\drivers\peripheral\syslib/cy_syslib.c **** ********************************************************************************
   9:Generated_Source\PSoC6\pdl\drivers\peripheral\syslib/cy_syslib.c **** * Copyright 2016-2018, Cypress Semiconductor Corporation. All rights reserved.
  10:Generated_Source\PSoC6\pdl\drivers\peripheral\syslib/cy_syslib.c **** * You may use this file only in accordance with the license, terms, conditions,
  11:Generated_Source\PSoC6\pdl\drivers\peripheral\syslib/cy_syslib.c **** * disclaimers, and limitations in the end user license agreement accompanying
  12:Generated_Source\PSoC6\pdl\drivers\peripheral\syslib/cy_syslib.c **** * the software package with which this file was provided.
  13:Generated_Source\PSoC6\pdl\drivers\peripheral\syslib/cy_syslib.c **** *******************************************************************************/
  14:Generated_Source\PSoC6\pdl\drivers\peripheral\syslib/cy_syslib.c **** 
  15:Generated_Source\PSoC6\pdl\drivers\peripheral\syslib/cy_syslib.c **** #include "cy_syslib.h"
  16:Generated_Source\PSoC6\pdl\drivers\peripheral\syslib/cy_syslib.c **** #include "cy_ipc_drv.h"
  17:Generated_Source\PSoC6\pdl\drivers\peripheral\syslib/cy_syslib.c **** #if !defined(NDEBUG)
  18:Generated_Source\PSoC6\pdl\drivers\peripheral\syslib/cy_syslib.c ****     #include <string.h>
  19:Generated_Source\PSoC6\pdl\drivers\peripheral\syslib/cy_syslib.c **** #endif /* NDEBUG */
  20:Generated_Source\PSoC6\pdl\drivers\peripheral\syslib/cy_syslib.c **** 
  21:Generated_Source\PSoC6\pdl\drivers\peripheral\syslib/cy_syslib.c **** /* Flash wait states (ULP mode at 0.9v) */
  22:Generated_Source\PSoC6\pdl\drivers\peripheral\syslib/cy_syslib.c **** #define CY_SYSLIB_FLASH_ULP_WS_0_FREQ_MAX    ( 16UL)
  23:Generated_Source\PSoC6\pdl\drivers\peripheral\syslib/cy_syslib.c **** #define CY_SYSLIB_FLASH_ULP_WS_1_FREQ_MAX    ( 33UL)
  24:Generated_Source\PSoC6\pdl\drivers\peripheral\syslib/cy_syslib.c **** #define CY_SYSLIB_FLASH_ULP_WS_2_FREQ_MAX    ( 50UL)
  25:Generated_Source\PSoC6\pdl\drivers\peripheral\syslib/cy_syslib.c **** 
  26:Generated_Source\PSoC6\pdl\drivers\peripheral\syslib/cy_syslib.c **** /* ROM and SRAM wait states for the slow clock domain (LP mode at 1.1v) */
  27:Generated_Source\PSoC6\pdl\drivers\peripheral\syslib/cy_syslib.c **** #define CY_SYSLIB_LP_SLOW_WS_0_FREQ_MAX      (100UL)
  28:Generated_Source\PSoC6\pdl\drivers\peripheral\syslib/cy_syslib.c **** #define CY_SYSLIB_LP_SLOW_WS_1_FREQ_MAX      (120UL)
  29:Generated_Source\PSoC6\pdl\drivers\peripheral\syslib/cy_syslib.c **** 
  30:Generated_Source\PSoC6\pdl\drivers\peripheral\syslib/cy_syslib.c **** /* ROM and SRAM wait states for the slow clock domain (ULP mode at 0.9v) */
  31:Generated_Source\PSoC6\pdl\drivers\peripheral\syslib/cy_syslib.c **** #define CY_SYSLIB_ULP_SLOW_WS_0_FREQ_MAX     ( 25UL)
  32:Generated_Source\PSoC6\pdl\drivers\peripheral\syslib/cy_syslib.c **** #define CY_SYSLIB_ULP_SLOW_WS_1_FREQ_MAX     ( 50UL)
  33:Generated_Source\PSoC6\pdl\drivers\peripheral\syslib/cy_syslib.c **** 
  34:Generated_Source\PSoC6\pdl\drivers\peripheral\syslib/cy_syslib.c **** 
  35:Generated_Source\PSoC6\pdl\drivers\peripheral\syslib/cy_syslib.c **** #if !defined(NDEBUG)
  36:Generated_Source\PSoC6\pdl\drivers\peripheral\syslib/cy_syslib.c ****     CY_NOINIT char_t cy_assertFileName[CY_MAX_FILE_NAME_SIZE];
  37:Generated_Source\PSoC6\pdl\drivers\peripheral\syslib/cy_syslib.c ****     CY_NOINIT uint32_t cy_assertLine;
  38:Generated_Source\PSoC6\pdl\drivers\peripheral\syslib/cy_syslib.c **** #endif /* NDEBUG */
  39:Generated_Source\PSoC6\pdl\drivers\peripheral\syslib/cy_syslib.c **** 
  40:Generated_Source\PSoC6\pdl\drivers\peripheral\syslib/cy_syslib.c **** #if (CY_ARM_FAULT_DEBUG == CY_ARM_FAULT_DEBUG_ENABLED)
  41:Generated_Source\PSoC6\pdl\drivers\peripheral\syslib/cy_syslib.c ****     CY_NOINIT cy_stc_fault_frame_t cy_faultFrame;
  42:Generated_Source\PSoC6\pdl\drivers\peripheral\syslib/cy_syslib.c **** #endif /* (CY_ARM_FAULT_DEBUG == CY_ARM_FAULT_DEBUG_ENABLED) */
  43:Generated_Source\PSoC6\pdl\drivers\peripheral\syslib/cy_syslib.c **** 
  44:Generated_Source\PSoC6\pdl\drivers\peripheral\syslib/cy_syslib.c **** #if defined(__ARMCC_VERSION)
  45:Generated_Source\PSoC6\pdl\drivers\peripheral\syslib/cy_syslib.c ****     static __ASM void Cy_SysLib_AsmInfiniteLoop(void) { b . };
  46:Generated_Source\PSoC6\pdl\drivers\peripheral\syslib/cy_syslib.c **** #endif  /* (__ARMCC_VERSION) */
  47:Generated_Source\PSoC6\pdl\drivers\peripheral\syslib/cy_syslib.c **** 
  48:Generated_Source\PSoC6\pdl\drivers\peripheral\syslib/cy_syslib.c **** 
  49:Generated_Source\PSoC6\pdl\drivers\peripheral\syslib/cy_syslib.c **** /*******************************************************************************
  50:Generated_Source\PSoC6\pdl\drivers\peripheral\syslib/cy_syslib.c **** * Function Name: Cy_SysLib_Delay
  51:Generated_Source\PSoC6\pdl\drivers\peripheral\syslib/cy_syslib.c **** ****************************************************************************//**
  52:Generated_Source\PSoC6\pdl\drivers\peripheral\syslib/cy_syslib.c **** *
  53:Generated_Source\PSoC6\pdl\drivers\peripheral\syslib/cy_syslib.c **** * The function delays by the specified number of milliseconds.
  54:Generated_Source\PSoC6\pdl\drivers\peripheral\syslib/cy_syslib.c **** * By default, the number of cycles to delay is calculated based on the
  55:Generated_Source\PSoC6\pdl\drivers\peripheral\syslib/cy_syslib.c **** * \ref SystemCoreClock.
  56:Generated_Source\PSoC6\pdl\drivers\peripheral\syslib/cy_syslib.c **** *
  57:Generated_Source\PSoC6\pdl\drivers\peripheral\syslib/cy_syslib.c **** * \param milliseconds  The number of milliseconds to delay.
  58:Generated_Source\PSoC6\pdl\drivers\peripheral\syslib/cy_syslib.c **** *
  59:Generated_Source\PSoC6\pdl\drivers\peripheral\syslib/cy_syslib.c **** * \note The function calls \ref Cy_SysLib_DelayCycles() API to generate a delay.
ARM GAS  C:\Users\stijn\AppData\Local\Temp\ccLepBqo.s 			page 3


  60:Generated_Source\PSoC6\pdl\drivers\peripheral\syslib/cy_syslib.c **** *       If the function parameter (milliseconds) is bigger than 
  61:Generated_Source\PSoC6\pdl\drivers\peripheral\syslib/cy_syslib.c **** *       CY_DELAY_MS_OVERFLOW constant, then an additional loop runs to prevent
  62:Generated_Source\PSoC6\pdl\drivers\peripheral\syslib/cy_syslib.c **** *       an overflow in parameter passed to \ref Cy_SysLib_DelayCycles() API.
  63:Generated_Source\PSoC6\pdl\drivers\peripheral\syslib/cy_syslib.c **** *
  64:Generated_Source\PSoC6\pdl\drivers\peripheral\syslib/cy_syslib.c **** *******************************************************************************/
  65:Generated_Source\PSoC6\pdl\drivers\peripheral\syslib/cy_syslib.c **** void Cy_SysLib_Delay(uint32_t milliseconds)
  66:Generated_Source\PSoC6\pdl\drivers\peripheral\syslib/cy_syslib.c **** {
  48              		.loc 1 66 0
  49              		.cfi_startproc
  50              		@ args = 0, pretend = 0, frame = 8
  51              		@ frame_needed = 1, uses_anonymous_args = 0
  52 0000 80B5     		push	{r7, lr}
  53              		.cfi_def_cfa_offset 8
  54              		.cfi_offset 7, -8
  55              		.cfi_offset 14, -4
  56 0002 82B0     		sub	sp, sp, #8
  57              		.cfi_def_cfa_offset 16
  58 0004 00AF     		add	r7, sp, #0
  59              		.cfi_def_cfa_register 7
  60 0006 7860     		str	r0, [r7, #4]
  67:Generated_Source\PSoC6\pdl\drivers\peripheral\syslib/cy_syslib.c ****     while(milliseconds > CY_DELAY_MS_OVERFLOW)
  61              		.loc 1 67 0
  62 0008 08E0     		b	.L2
  63              	.L3:
  68:Generated_Source\PSoC6\pdl\drivers\peripheral\syslib/cy_syslib.c ****     {
  69:Generated_Source\PSoC6\pdl\drivers\peripheral\syslib/cy_syslib.c ****         /* This loop prevents an overflow in value passed to Cy_SysLib_DelayCycles() API.
  70:Generated_Source\PSoC6\pdl\drivers\peripheral\syslib/cy_syslib.c ****          * At 100 MHz, (milliseconds * cy_delayFreqKhz) product overflows
  71:Generated_Source\PSoC6\pdl\drivers\peripheral\syslib/cy_syslib.c ****          * in case if milliseconds parameter is more than 42 seconds.
  72:Generated_Source\PSoC6\pdl\drivers\peripheral\syslib/cy_syslib.c ****          */
  73:Generated_Source\PSoC6\pdl\drivers\peripheral\syslib/cy_syslib.c ****         Cy_SysLib_DelayCycles(cy_delay32kMs);
  64              		.loc 1 73 0
  65 000a 0C4B     		ldr	r3, .L4
  66 000c 1B68     		ldr	r3, [r3]
  67 000e 1846     		mov	r0, r3
  68 0010 FFF7FEFF 		bl	Cy_SysLib_DelayCycles
  74:Generated_Source\PSoC6\pdl\drivers\peripheral\syslib/cy_syslib.c ****         milliseconds -= CY_DELAY_MS_OVERFLOW;
  69              		.loc 1 74 0
  70 0014 7B68     		ldr	r3, [r7, #4]
  71 0016 A3F50043 		sub	r3, r3, #32768
  72 001a 7B60     		str	r3, [r7, #4]
  73              	.L2:
  67:Generated_Source\PSoC6\pdl\drivers\peripheral\syslib/cy_syslib.c ****     while(milliseconds > CY_DELAY_MS_OVERFLOW)
  74              		.loc 1 67 0
  75 001c 7B68     		ldr	r3, [r7, #4]
  76 001e B3F5004F 		cmp	r3, #32768
  77 0022 F2D8     		bhi	.L3
  75:Generated_Source\PSoC6\pdl\drivers\peripheral\syslib/cy_syslib.c ****     }
  76:Generated_Source\PSoC6\pdl\drivers\peripheral\syslib/cy_syslib.c **** 
  77:Generated_Source\PSoC6\pdl\drivers\peripheral\syslib/cy_syslib.c ****     Cy_SysLib_DelayCycles(milliseconds * cy_delayFreqKhz);
  78              		.loc 1 77 0
  79 0024 064B     		ldr	r3, .L4+4
  80 0026 1B68     		ldr	r3, [r3]
  81 0028 7A68     		ldr	r2, [r7, #4]
  82 002a 02FB03F3 		mul	r3, r2, r3
  83 002e 1846     		mov	r0, r3
  84 0030 FFF7FEFF 		bl	Cy_SysLib_DelayCycles
  78:Generated_Source\PSoC6\pdl\drivers\peripheral\syslib/cy_syslib.c **** }
ARM GAS  C:\Users\stijn\AppData\Local\Temp\ccLepBqo.s 			page 4


  85              		.loc 1 78 0
  86 0034 00BF     		nop
  87 0036 0837     		adds	r7, r7, #8
  88              		.cfi_def_cfa_offset 8
  89 0038 BD46     		mov	sp, r7
  90              		.cfi_def_cfa_register 13
  91              		@ sp needed
  92 003a 80BD     		pop	{r7, pc}
  93              	.L5:
  94              		.align	2
  95              	.L4:
  96 003c 00000000 		.word	cy_delay32kMs
  97 0040 00000000 		.word	cy_delayFreqKhz
  98              		.cfi_endproc
  99              	.LFE151:
 100              		.size	Cy_SysLib_Delay, .-Cy_SysLib_Delay
 101              		.section	.text.Cy_SysLib_DelayUs,"ax",%progbits
 102              		.align	2
 103              		.global	Cy_SysLib_DelayUs
 104              		.thumb
 105              		.thumb_func
 106              		.type	Cy_SysLib_DelayUs, %function
 107              	Cy_SysLib_DelayUs:
 108              	.LFB152:
  79:Generated_Source\PSoC6\pdl\drivers\peripheral\syslib/cy_syslib.c **** 
  80:Generated_Source\PSoC6\pdl\drivers\peripheral\syslib/cy_syslib.c **** 
  81:Generated_Source\PSoC6\pdl\drivers\peripheral\syslib/cy_syslib.c **** /*******************************************************************************
  82:Generated_Source\PSoC6\pdl\drivers\peripheral\syslib/cy_syslib.c **** * Function Name: Cy_SysLib_DelayUs
  83:Generated_Source\PSoC6\pdl\drivers\peripheral\syslib/cy_syslib.c **** ****************************************************************************//**
  84:Generated_Source\PSoC6\pdl\drivers\peripheral\syslib/cy_syslib.c **** *
  85:Generated_Source\PSoC6\pdl\drivers\peripheral\syslib/cy_syslib.c **** * The function delays by the specified number of microseconds.
  86:Generated_Source\PSoC6\pdl\drivers\peripheral\syslib/cy_syslib.c **** * By default, the number of cycles to delay is calculated based on the
  87:Generated_Source\PSoC6\pdl\drivers\peripheral\syslib/cy_syslib.c **** * \ref SystemCoreClock.
  88:Generated_Source\PSoC6\pdl\drivers\peripheral\syslib/cy_syslib.c **** *
  89:Generated_Source\PSoC6\pdl\drivers\peripheral\syslib/cy_syslib.c **** * \param microseconds  The number of microseconds to delay.
  90:Generated_Source\PSoC6\pdl\drivers\peripheral\syslib/cy_syslib.c **** *
  91:Generated_Source\PSoC6\pdl\drivers\peripheral\syslib/cy_syslib.c **** * \note If the CPU frequency is a small non-integer number, the actual delay
  92:Generated_Source\PSoC6\pdl\drivers\peripheral\syslib/cy_syslib.c **** *       can be up to twice as long as the nominal value. The actual delay
  93:Generated_Source\PSoC6\pdl\drivers\peripheral\syslib/cy_syslib.c **** *       cannot be shorter than the nominal one.
  94:Generated_Source\PSoC6\pdl\drivers\peripheral\syslib/cy_syslib.c **** *
  95:Generated_Source\PSoC6\pdl\drivers\peripheral\syslib/cy_syslib.c **** *******************************************************************************/
  96:Generated_Source\PSoC6\pdl\drivers\peripheral\syslib/cy_syslib.c **** void Cy_SysLib_DelayUs(uint16_t microseconds)
  97:Generated_Source\PSoC6\pdl\drivers\peripheral\syslib/cy_syslib.c **** {
 109              		.loc 1 97 0
 110              		.cfi_startproc
 111              		@ args = 0, pretend = 0, frame = 8
 112              		@ frame_needed = 1, uses_anonymous_args = 0
 113 0000 80B5     		push	{r7, lr}
 114              		.cfi_def_cfa_offset 8
 115              		.cfi_offset 7, -8
 116              		.cfi_offset 14, -4
 117 0002 82B0     		sub	sp, sp, #8
 118              		.cfi_def_cfa_offset 16
 119 0004 00AF     		add	r7, sp, #0
 120              		.cfi_def_cfa_register 7
 121 0006 0346     		mov	r3, r0
 122 0008 FB80     		strh	r3, [r7, #6]	@ movhi
ARM GAS  C:\Users\stijn\AppData\Local\Temp\ccLepBqo.s 			page 5


  98:Generated_Source\PSoC6\pdl\drivers\peripheral\syslib/cy_syslib.c ****     Cy_SysLib_DelayCycles((uint32_t) microseconds * cy_delayFreqMhz);
 123              		.loc 1 98 0
 124 000a FB88     		ldrh	r3, [r7, #6]
 125 000c 054A     		ldr	r2, .L7
 126 000e 1278     		ldrb	r2, [r2]	@ zero_extendqisi2
 127 0010 02FB03F3 		mul	r3, r2, r3
 128 0014 1846     		mov	r0, r3
 129 0016 FFF7FEFF 		bl	Cy_SysLib_DelayCycles
  99:Generated_Source\PSoC6\pdl\drivers\peripheral\syslib/cy_syslib.c **** }
 130              		.loc 1 99 0
 131 001a 00BF     		nop
 132 001c 0837     		adds	r7, r7, #8
 133              		.cfi_def_cfa_offset 8
 134 001e BD46     		mov	sp, r7
 135              		.cfi_def_cfa_register 13
 136              		@ sp needed
 137 0020 80BD     		pop	{r7, pc}
 138              	.L8:
 139 0022 00BF     		.align	2
 140              	.L7:
 141 0024 00000000 		.word	cy_delayFreqMhz
 142              		.cfi_endproc
 143              	.LFE152:
 144              		.size	Cy_SysLib_DelayUs, .-Cy_SysLib_DelayUs
 145              		.section	.text.Cy_SysLib_Halt,"ax",%progbits
 146              		.align	2
 147              		.global	Cy_SysLib_Halt
 148              		.thumb
 149              		.thumb_func
 150              		.type	Cy_SysLib_Halt, %function
 151              	Cy_SysLib_Halt:
 152              	.LFB153:
 100:Generated_Source\PSoC6\pdl\drivers\peripheral\syslib/cy_syslib.c **** 
 101:Generated_Source\PSoC6\pdl\drivers\peripheral\syslib/cy_syslib.c **** 
 102:Generated_Source\PSoC6\pdl\drivers\peripheral\syslib/cy_syslib.c **** /*******************************************************************************
 103:Generated_Source\PSoC6\pdl\drivers\peripheral\syslib/cy_syslib.c **** * Function Name: Cy_SysLib_Halt
 104:Generated_Source\PSoC6\pdl\drivers\peripheral\syslib/cy_syslib.c **** ****************************************************************************//**
 105:Generated_Source\PSoC6\pdl\drivers\peripheral\syslib/cy_syslib.c **** *
 106:Generated_Source\PSoC6\pdl\drivers\peripheral\syslib/cy_syslib.c **** * This function halts the CPU but only the CPU which calls the function.
 107:Generated_Source\PSoC6\pdl\drivers\peripheral\syslib/cy_syslib.c **** * It doesn't affect other CPUs.
 108:Generated_Source\PSoC6\pdl\drivers\peripheral\syslib/cy_syslib.c **** *
 109:Generated_Source\PSoC6\pdl\drivers\peripheral\syslib/cy_syslib.c **** * \param reason  The value to be used during debugging.
 110:Generated_Source\PSoC6\pdl\drivers\peripheral\syslib/cy_syslib.c **** *
 111:Generated_Source\PSoC6\pdl\drivers\peripheral\syslib/cy_syslib.c **** * \note The function executes the BKPT instruction for halting CPU and is
 112:Generated_Source\PSoC6\pdl\drivers\peripheral\syslib/cy_syslib.c **** *       intended to be used for the debug purpose. A regular use case requires
 113:Generated_Source\PSoC6\pdl\drivers\peripheral\syslib/cy_syslib.c **** *       Debugger attachment before the function call.
 114:Generated_Source\PSoC6\pdl\drivers\peripheral\syslib/cy_syslib.c **** *       The BKPT instruction causes the CPU to enter the Debug state. Debug
 115:Generated_Source\PSoC6\pdl\drivers\peripheral\syslib/cy_syslib.c **** *       tools can use this to investigate the system state, when the
 116:Generated_Source\PSoC6\pdl\drivers\peripheral\syslib/cy_syslib.c **** *       instruction at a particular address is reached.
 117:Generated_Source\PSoC6\pdl\drivers\peripheral\syslib/cy_syslib.c **** *
 118:Generated_Source\PSoC6\pdl\drivers\peripheral\syslib/cy_syslib.c **** * \note Execution of a BKPT instruction without a debugger attached produces
 119:Generated_Source\PSoC6\pdl\drivers\peripheral\syslib/cy_syslib.c **** *       a fault. The fault results in the HardFault exception being taken
 120:Generated_Source\PSoC6\pdl\drivers\peripheral\syslib/cy_syslib.c **** *       or causes a Lockup state if it occurs in the NMI or HardFault handler.
 121:Generated_Source\PSoC6\pdl\drivers\peripheral\syslib/cy_syslib.c **** *       The default HardFault handler make a software reset if the build option
 122:Generated_Source\PSoC6\pdl\drivers\peripheral\syslib/cy_syslib.c **** *       is the release mode (NDEBUG). If the build option is the debug mode,
 123:Generated_Source\PSoC6\pdl\drivers\peripheral\syslib/cy_syslib.c **** *       the system will stay in the infinite loop of the
 124:Generated_Source\PSoC6\pdl\drivers\peripheral\syslib/cy_syslib.c **** *       \ref Cy_SysLib_ProcessingFault() function.
ARM GAS  C:\Users\stijn\AppData\Local\Temp\ccLepBqo.s 			page 6


 125:Generated_Source\PSoC6\pdl\drivers\peripheral\syslib/cy_syslib.c **** *
 126:Generated_Source\PSoC6\pdl\drivers\peripheral\syslib/cy_syslib.c **** *******************************************************************************/
 127:Generated_Source\PSoC6\pdl\drivers\peripheral\syslib/cy_syslib.c **** __NO_RETURN void Cy_SysLib_Halt(uint32_t reason)
 128:Generated_Source\PSoC6\pdl\drivers\peripheral\syslib/cy_syslib.c **** {
 153              		.loc 1 128 0
 154              		.cfi_startproc
 155              		@ args = 0, pretend = 0, frame = 8
 156              		@ frame_needed = 1, uses_anonymous_args = 0
 157              		@ link register save eliminated.
 158 0000 80B4     		push	{r7}
 159              		.cfi_def_cfa_offset 4
 160              		.cfi_offset 7, -4
 161 0002 83B0     		sub	sp, sp, #12
 162              		.cfi_def_cfa_offset 16
 163 0004 00AF     		add	r7, sp, #0
 164              		.cfi_def_cfa_register 7
 165 0006 7860     		str	r0, [r7, #4]
 129:Generated_Source\PSoC6\pdl\drivers\peripheral\syslib/cy_syslib.c ****     if(0U != reason)
 130:Generated_Source\PSoC6\pdl\drivers\peripheral\syslib/cy_syslib.c ****     {
 131:Generated_Source\PSoC6\pdl\drivers\peripheral\syslib/cy_syslib.c ****         /* To remove an unreferenced local variable warning */
 132:Generated_Source\PSoC6\pdl\drivers\peripheral\syslib/cy_syslib.c ****     }
 133:Generated_Source\PSoC6\pdl\drivers\peripheral\syslib/cy_syslib.c **** 
 134:Generated_Source\PSoC6\pdl\drivers\peripheral\syslib/cy_syslib.c ****     #if defined (__ARMCC_VERSION)
 135:Generated_Source\PSoC6\pdl\drivers\peripheral\syslib/cy_syslib.c ****         __breakpoint(0x0);
 136:Generated_Source\PSoC6\pdl\drivers\peripheral\syslib/cy_syslib.c ****     #elif defined(__GNUC__)
 137:Generated_Source\PSoC6\pdl\drivers\peripheral\syslib/cy_syslib.c ****         __asm("    bkpt    1");
 166              		.loc 1 137 0
 167              		.syntax unified
 168              	@ 137 "Generated_Source\PSoC6\pdl\drivers\peripheral\syslib\cy_syslib.c" 1
 169 0008 01BE     		    bkpt    1
 170              	@ 0 "" 2
 171              		.thumb
 172              		.syntax unified
 173              	.L10:
 138:Generated_Source\PSoC6\pdl\drivers\peripheral\syslib/cy_syslib.c ****     #elif defined (__ICCARM__)
 139:Generated_Source\PSoC6\pdl\drivers\peripheral\syslib/cy_syslib.c ****         __asm("    bkpt    1");
 140:Generated_Source\PSoC6\pdl\drivers\peripheral\syslib/cy_syslib.c ****     #else
 141:Generated_Source\PSoC6\pdl\drivers\peripheral\syslib/cy_syslib.c ****         #error "An unsupported toolchain"
 142:Generated_Source\PSoC6\pdl\drivers\peripheral\syslib/cy_syslib.c ****     #endif  /* (__ARMCC_VERSION) */
 143:Generated_Source\PSoC6\pdl\drivers\peripheral\syslib/cy_syslib.c **** 
 144:Generated_Source\PSoC6\pdl\drivers\peripheral\syslib/cy_syslib.c ****     while(1) {}
 174              		.loc 1 144 0 discriminator 1
 175 000a FEE7     		b	.L10
 176              		.cfi_endproc
 177              	.LFE153:
 178              		.size	Cy_SysLib_Halt, .-Cy_SysLib_Halt
 179              		.section	.text.Cy_SysLib_AssertFailed,"ax",%progbits
 180              		.align	2
 181              		.weak	Cy_SysLib_AssertFailed
 182              		.thumb
 183              		.thumb_func
 184              		.type	Cy_SysLib_AssertFailed, %function
 185              	Cy_SysLib_AssertFailed:
 186              	.LFB154:
 145:Generated_Source\PSoC6\pdl\drivers\peripheral\syslib/cy_syslib.c **** }
 146:Generated_Source\PSoC6\pdl\drivers\peripheral\syslib/cy_syslib.c **** 
 147:Generated_Source\PSoC6\pdl\drivers\peripheral\syslib/cy_syslib.c **** 
ARM GAS  C:\Users\stijn\AppData\Local\Temp\ccLepBqo.s 			page 7


 148:Generated_Source\PSoC6\pdl\drivers\peripheral\syslib/cy_syslib.c **** #if !defined(NDEBUG) || defined(CY_DOXYGEN)
 149:Generated_Source\PSoC6\pdl\drivers\peripheral\syslib/cy_syslib.c **** /*******************************************************************************
 150:Generated_Source\PSoC6\pdl\drivers\peripheral\syslib/cy_syslib.c **** * Macro Name: Cy_SysLib_AssertFailed
 151:Generated_Source\PSoC6\pdl\drivers\peripheral\syslib/cy_syslib.c **** ****************************************************************************//**
 152:Generated_Source\PSoC6\pdl\drivers\peripheral\syslib/cy_syslib.c **** *
 153:Generated_Source\PSoC6\pdl\drivers\peripheral\syslib/cy_syslib.c **** * This function stores the ASSERT location of the file name (including path
 154:Generated_Source\PSoC6\pdl\drivers\peripheral\syslib/cy_syslib.c **** * to file) and line number in a non-zero init area for debugging. Also it calls
 155:Generated_Source\PSoC6\pdl\drivers\peripheral\syslib/cy_syslib.c **** * the \ref Cy_SysLib_Halt() function to halt the processor.
 156:Generated_Source\PSoC6\pdl\drivers\peripheral\syslib/cy_syslib.c **** *
 157:Generated_Source\PSoC6\pdl\drivers\peripheral\syslib/cy_syslib.c **** * \param file  The file name of the ASSERT location.
 158:Generated_Source\PSoC6\pdl\drivers\peripheral\syslib/cy_syslib.c **** * \param line  The line number of the ASSERT location.
 159:Generated_Source\PSoC6\pdl\drivers\peripheral\syslib/cy_syslib.c **** *
 160:Generated_Source\PSoC6\pdl\drivers\peripheral\syslib/cy_syslib.c **** * \note A stored file name and line number could be accessed by
 161:Generated_Source\PSoC6\pdl\drivers\peripheral\syslib/cy_syslib.c **** *       cy_assertFileName and cy_assertLine global variables.
 162:Generated_Source\PSoC6\pdl\drivers\peripheral\syslib/cy_syslib.c **** * \note This function has the WEAK option, so the user can redefine
 163:Generated_Source\PSoC6\pdl\drivers\peripheral\syslib/cy_syslib.c **** *       the function for a custom processing.
 164:Generated_Source\PSoC6\pdl\drivers\peripheral\syslib/cy_syslib.c **** *
 165:Generated_Source\PSoC6\pdl\drivers\peripheral\syslib/cy_syslib.c **** *******************************************************************************/
 166:Generated_Source\PSoC6\pdl\drivers\peripheral\syslib/cy_syslib.c **** __WEAK void Cy_SysLib_AssertFailed(const char_t * file, uint32_t line)
 167:Generated_Source\PSoC6\pdl\drivers\peripheral\syslib/cy_syslib.c **** {
 187              		.loc 1 167 0
 188              		.cfi_startproc
 189              		@ args = 0, pretend = 0, frame = 8
 190              		@ frame_needed = 1, uses_anonymous_args = 0
 191 0000 80B5     		push	{r7, lr}
 192              		.cfi_def_cfa_offset 8
 193              		.cfi_offset 7, -8
 194              		.cfi_offset 14, -4
 195 0002 82B0     		sub	sp, sp, #8
 196              		.cfi_def_cfa_offset 16
 197 0004 00AF     		add	r7, sp, #0
 198              		.cfi_def_cfa_register 7
 199 0006 7860     		str	r0, [r7, #4]
 200 0008 3960     		str	r1, [r7]
 168:Generated_Source\PSoC6\pdl\drivers\peripheral\syslib/cy_syslib.c ****     (void) strncpy(cy_assertFileName, file, CY_MAX_FILE_NAME_SIZE);
 201              		.loc 1 168 0
 202 000a 1822     		movs	r2, #24
 203 000c 7968     		ldr	r1, [r7, #4]
 204 000e 0448     		ldr	r0, .L12
 205 0010 FFF7FEFF 		bl	strncpy
 169:Generated_Source\PSoC6\pdl\drivers\peripheral\syslib/cy_syslib.c ****     cy_assertLine = line;
 206              		.loc 1 169 0
 207 0014 034A     		ldr	r2, .L12+4
 208 0016 3B68     		ldr	r3, [r7]
 209 0018 1360     		str	r3, [r2]
 170:Generated_Source\PSoC6\pdl\drivers\peripheral\syslib/cy_syslib.c ****     Cy_SysLib_Halt(0UL);
 210              		.loc 1 170 0
 211 001a 0020     		movs	r0, #0
 212 001c FFF7FEFF 		bl	Cy_SysLib_Halt
 213              	.L13:
 214              		.align	2
 215              	.L12:
 216 0020 00000000 		.word	cy_assertFileName
 217 0024 00000000 		.word	cy_assertLine
 218              		.cfi_endproc
 219              	.LFE154:
 220              		.size	Cy_SysLib_AssertFailed, .-Cy_SysLib_AssertFailed
ARM GAS  C:\Users\stijn\AppData\Local\Temp\ccLepBqo.s 			page 8


 221              		.section	.text.Cy_SysLib_ClearFlashCacheAndBuffer,"ax",%progbits
 222              		.align	2
 223              		.global	Cy_SysLib_ClearFlashCacheAndBuffer
 224              		.thumb
 225              		.thumb_func
 226              		.type	Cy_SysLib_ClearFlashCacheAndBuffer, %function
 227              	Cy_SysLib_ClearFlashCacheAndBuffer:
 228              	.LFB155:
 171:Generated_Source\PSoC6\pdl\drivers\peripheral\syslib/cy_syslib.c **** }
 172:Generated_Source\PSoC6\pdl\drivers\peripheral\syslib/cy_syslib.c **** #endif  /* !defined(NDEBUG) || defined(CY_DOXYGEN) */
 173:Generated_Source\PSoC6\pdl\drivers\peripheral\syslib/cy_syslib.c **** 
 174:Generated_Source\PSoC6\pdl\drivers\peripheral\syslib/cy_syslib.c **** 
 175:Generated_Source\PSoC6\pdl\drivers\peripheral\syslib/cy_syslib.c **** /*******************************************************************************
 176:Generated_Source\PSoC6\pdl\drivers\peripheral\syslib/cy_syslib.c **** * Function Name: Cy_SysLib_ClearFlashCacheAndBuffer
 177:Generated_Source\PSoC6\pdl\drivers\peripheral\syslib/cy_syslib.c **** ****************************************************************************//**
 178:Generated_Source\PSoC6\pdl\drivers\peripheral\syslib/cy_syslib.c **** *
 179:Generated_Source\PSoC6\pdl\drivers\peripheral\syslib/cy_syslib.c **** * This function invalidates the flash cache and buffer. It ensures the valid
 180:Generated_Source\PSoC6\pdl\drivers\peripheral\syslib/cy_syslib.c **** * data is read from flash instead of using outdated data from the cache.
 181:Generated_Source\PSoC6\pdl\drivers\peripheral\syslib/cy_syslib.c **** * The caches' LRU structure is also reset to their default state.
 182:Generated_Source\PSoC6\pdl\drivers\peripheral\syslib/cy_syslib.c **** *
 183:Generated_Source\PSoC6\pdl\drivers\peripheral\syslib/cy_syslib.c **** * \note The operation takes a maximum of three clock cycles on the slowest of
 184:Generated_Source\PSoC6\pdl\drivers\peripheral\syslib/cy_syslib.c **** *       the clk_slow and clk_fast clocks.
 185:Generated_Source\PSoC6\pdl\drivers\peripheral\syslib/cy_syslib.c **** *
 186:Generated_Source\PSoC6\pdl\drivers\peripheral\syslib/cy_syslib.c **** *******************************************************************************/
 187:Generated_Source\PSoC6\pdl\drivers\peripheral\syslib/cy_syslib.c **** void Cy_SysLib_ClearFlashCacheAndBuffer(void)
 188:Generated_Source\PSoC6\pdl\drivers\peripheral\syslib/cy_syslib.c **** {
 229              		.loc 1 188 0
 230              		.cfi_startproc
 231              		@ args = 0, pretend = 0, frame = 0
 232              		@ frame_needed = 1, uses_anonymous_args = 0
 233              		@ link register save eliminated.
 234 0000 80B4     		push	{r7}
 235              		.cfi_def_cfa_offset 4
 236              		.cfi_offset 7, -4
 237 0002 00AF     		add	r7, sp, #0
 238              		.cfi_def_cfa_register 7
 189:Generated_Source\PSoC6\pdl\drivers\peripheral\syslib/cy_syslib.c ****     FLASHC_FLASH_CMD = FLASHC_FLASH_CMD_INV_Msk;
 239              		.loc 1 189 0
 240 0004 054B     		ldr	r3, .L15
 241 0006 1B68     		ldr	r3, [r3]
 242 0008 5B68     		ldr	r3, [r3, #4]
 243 000a 1A46     		mov	r2, r3
 244 000c 0123     		movs	r3, #1
 245 000e 9360     		str	r3, [r2, #8]
 190:Generated_Source\PSoC6\pdl\drivers\peripheral\syslib/cy_syslib.c **** }
 246              		.loc 1 190 0
 247 0010 00BF     		nop
 248 0012 BD46     		mov	sp, r7
 249              		.cfi_def_cfa_register 13
 250              		@ sp needed
 251 0014 5DF8047B 		ldr	r7, [sp], #4
 252              		.cfi_restore 7
 253              		.cfi_def_cfa_offset 0
 254 0018 7047     		bx	lr
 255              	.L16:
 256 001a 00BF     		.align	2
 257              	.L15:
ARM GAS  C:\Users\stijn\AppData\Local\Temp\ccLepBqo.s 			page 9


 258 001c 00000000 		.word	cy_device
 259              		.cfi_endproc
 260              	.LFE155:
 261              		.size	Cy_SysLib_ClearFlashCacheAndBuffer, .-Cy_SysLib_ClearFlashCacheAndBuffer
 262              		.section	.text.Cy_SysLib_ResetBackupDomain,"ax",%progbits
 263              		.align	2
 264              		.global	Cy_SysLib_ResetBackupDomain
 265              		.thumb
 266              		.thumb_func
 267              		.type	Cy_SysLib_ResetBackupDomain, %function
 268              	Cy_SysLib_ResetBackupDomain:
 269              	.LFB156:
 191:Generated_Source\PSoC6\pdl\drivers\peripheral\syslib/cy_syslib.c **** 
 192:Generated_Source\PSoC6\pdl\drivers\peripheral\syslib/cy_syslib.c **** 
 193:Generated_Source\PSoC6\pdl\drivers\peripheral\syslib/cy_syslib.c **** /*******************************************************************************
 194:Generated_Source\PSoC6\pdl\drivers\peripheral\syslib/cy_syslib.c **** * Function Name: Cy_SysLib_ResetBackupDomain
 195:Generated_Source\PSoC6\pdl\drivers\peripheral\syslib/cy_syslib.c **** ****************************************************************************//**
 196:Generated_Source\PSoC6\pdl\drivers\peripheral\syslib/cy_syslib.c **** *
 197:Generated_Source\PSoC6\pdl\drivers\peripheral\syslib/cy_syslib.c **** * This function resets the backup domain power to avoid the ILO glitch. The
 198:Generated_Source\PSoC6\pdl\drivers\peripheral\syslib/cy_syslib.c **** * glitch can occur when the device is reset due to POR/BOD/XRES while
 199:Generated_Source\PSoC6\pdl\drivers\peripheral\syslib/cy_syslib.c **** * the backup voltage is supplied into the system.
 200:Generated_Source\PSoC6\pdl\drivers\peripheral\syslib/cy_syslib.c **** *
 201:Generated_Source\PSoC6\pdl\drivers\peripheral\syslib/cy_syslib.c **** * \note Writing 1 to BACKUP->RESET resets the backup logic. Hardware clears it
 202:Generated_Source\PSoC6\pdl\drivers\peripheral\syslib/cy_syslib.c **** *       when the reset is complete. After setting the register, this function
 203:Generated_Source\PSoC6\pdl\drivers\peripheral\syslib/cy_syslib.c **** *       reads the register immediately for returning the result of the backup
 204:Generated_Source\PSoC6\pdl\drivers\peripheral\syslib/cy_syslib.c **** *       domain reset state. The reading register is important because the Read
 205:Generated_Source\PSoC6\pdl\drivers\peripheral\syslib/cy_syslib.c **** *       itself takes multiple AHB clock cycles, and the reset is actually
 206:Generated_Source\PSoC6\pdl\drivers\peripheral\syslib/cy_syslib.c **** *       finishing during that time.
 207:Generated_Source\PSoC6\pdl\drivers\peripheral\syslib/cy_syslib.c **** *
 208:Generated_Source\PSoC6\pdl\drivers\peripheral\syslib/cy_syslib.c **** * \return CY_SYSLIB_SUCCESS, if BACKUP->RESET read-back is 0.
 209:Generated_Source\PSoC6\pdl\drivers\peripheral\syslib/cy_syslib.c **** *         Otherwise returns CY_SYSLIB_INVALID_STATE.
 210:Generated_Source\PSoC6\pdl\drivers\peripheral\syslib/cy_syslib.c **** *
 211:Generated_Source\PSoC6\pdl\drivers\peripheral\syslib/cy_syslib.c **** *******************************************************************************/
 212:Generated_Source\PSoC6\pdl\drivers\peripheral\syslib/cy_syslib.c **** cy_en_syslib_status_t Cy_SysLib_ResetBackupDomain(void)
 213:Generated_Source\PSoC6\pdl\drivers\peripheral\syslib/cy_syslib.c **** {
 270              		.loc 1 213 0
 271              		.cfi_startproc
 272              		@ args = 0, pretend = 0, frame = 0
 273              		@ frame_needed = 1, uses_anonymous_args = 0
 274              		@ link register save eliminated.
 275 0000 80B4     		push	{r7}
 276              		.cfi_def_cfa_offset 4
 277              		.cfi_offset 7, -4
 278 0002 00AF     		add	r7, sp, #0
 279              		.cfi_def_cfa_register 7
 214:Generated_Source\PSoC6\pdl\drivers\peripheral\syslib/cy_syslib.c ****     BACKUP_RESET = BACKUP_RESET_RESET_Msk;
 280              		.loc 1 214 0
 281 0004 074B     		ldr	r3, .L21
 282 0006 4FF00042 		mov	r2, #-2147483648
 283 000a 9A64     		str	r2, [r3, #72]
 215:Generated_Source\PSoC6\pdl\drivers\peripheral\syslib/cy_syslib.c **** 
 216:Generated_Source\PSoC6\pdl\drivers\peripheral\syslib/cy_syslib.c ****     return ( ((BACKUP_RESET & BACKUP_RESET_RESET_Msk) == 0UL) ? CY_SYSLIB_SUCCESS : CY_SYSLIB_INVAL
 284              		.loc 1 216 0
 285 000c 054B     		ldr	r3, .L21
 286 000e 9B6C     		ldr	r3, [r3, #72]
 287 0010 002B     		cmp	r3, #0
 288 0012 01DB     		blt	.L18
ARM GAS  C:\Users\stijn\AppData\Local\Temp\ccLepBqo.s 			page 10


 289              		.loc 1 216 0 is_stmt 0 discriminator 1
 290 0014 0023     		movs	r3, #0
 291 0016 00E0     		b	.L20
 292              	.L18:
 293              		.loc 1 216 0 discriminator 2
 294 0018 034B     		ldr	r3, .L21+4
 295              	.L20:
 217:Generated_Source\PSoC6\pdl\drivers\peripheral\syslib/cy_syslib.c **** }
 296              		.loc 1 217 0 is_stmt 1 discriminator 5
 297 001a 1846     		mov	r0, r3
 298 001c BD46     		mov	sp, r7
 299              		.cfi_def_cfa_register 13
 300              		@ sp needed
 301 001e 5DF8047B 		ldr	r7, [sp], #4
 302              		.cfi_restore 7
 303              		.cfi_def_cfa_offset 0
 304 0022 7047     		bx	lr
 305              	.L22:
 306              		.align	2
 307              	.L21:
 308 0024 00002740 		.word	1076297728
 309 0028 03004600 		.word	4587523
 310              		.cfi_endproc
 311              	.LFE156:
 312              		.size	Cy_SysLib_ResetBackupDomain, .-Cy_SysLib_ResetBackupDomain
 313              		.section	.text.Cy_SysLib_GetResetReason,"ax",%progbits
 314              		.align	2
 315              		.global	Cy_SysLib_GetResetReason
 316              		.thumb
 317              		.thumb_func
 318              		.type	Cy_SysLib_GetResetReason, %function
 319              	Cy_SysLib_GetResetReason:
 320              	.LFB157:
 218:Generated_Source\PSoC6\pdl\drivers\peripheral\syslib/cy_syslib.c **** 
 219:Generated_Source\PSoC6\pdl\drivers\peripheral\syslib/cy_syslib.c **** 
 220:Generated_Source\PSoC6\pdl\drivers\peripheral\syslib/cy_syslib.c **** /*******************************************************************************
 221:Generated_Source\PSoC6\pdl\drivers\peripheral\syslib/cy_syslib.c **** * Function Name: Cy_SysLib_GetResetReason
 222:Generated_Source\PSoC6\pdl\drivers\peripheral\syslib/cy_syslib.c **** ****************************************************************************//**
 223:Generated_Source\PSoC6\pdl\drivers\peripheral\syslib/cy_syslib.c **** *
 224:Generated_Source\PSoC6\pdl\drivers\peripheral\syslib/cy_syslib.c **** * The function returns the cause for the latest reset(s) that occurred in
 225:Generated_Source\PSoC6\pdl\drivers\peripheral\syslib/cy_syslib.c **** * the system. The reset causes include an HFCLK error, system faults, and
 226:Generated_Source\PSoC6\pdl\drivers\peripheral\syslib/cy_syslib.c **** * device reset on a wakeup from Hibernate mode.
 227:Generated_Source\PSoC6\pdl\drivers\peripheral\syslib/cy_syslib.c **** * The return results are consolidated reset causes from reading RES_CAUSE,
 228:Generated_Source\PSoC6\pdl\drivers\peripheral\syslib/cy_syslib.c **** * RES_CAUSE2 and PWR_HIBERNATE token registers.
 229:Generated_Source\PSoC6\pdl\drivers\peripheral\syslib/cy_syslib.c **** *
 230:Generated_Source\PSoC6\pdl\drivers\peripheral\syslib/cy_syslib.c **** * \return The cause of a system reset.
 231:Generated_Source\PSoC6\pdl\drivers\peripheral\syslib/cy_syslib.c **** *
 232:Generated_Source\PSoC6\pdl\drivers\peripheral\syslib/cy_syslib.c **** * | Name                          | Value
 233:Generated_Source\PSoC6\pdl\drivers\peripheral\syslib/cy_syslib.c **** * |-------------------------------|---------------------
 234:Generated_Source\PSoC6\pdl\drivers\peripheral\syslib/cy_syslib.c **** * | CY_SYSLIB_RESET_HWWDT         | 0x00001 (bit0)
 235:Generated_Source\PSoC6\pdl\drivers\peripheral\syslib/cy_syslib.c **** * | CY_SYSLIB_RESET_ACT_FAULT     | 0x00002 (bit1)
 236:Generated_Source\PSoC6\pdl\drivers\peripheral\syslib/cy_syslib.c **** * | CY_SYSLIB_RESET_DPSLP_FAULT   | 0x00004 (bit2)
 237:Generated_Source\PSoC6\pdl\drivers\peripheral\syslib/cy_syslib.c **** * | CY_SYSLIB_RESET_CSV_WCO_LOSS  | 0x00008 (bit3)
 238:Generated_Source\PSoC6\pdl\drivers\peripheral\syslib/cy_syslib.c **** * | CY_SYSLIB_RESET_SOFT          | 0x00010 (bit4)
 239:Generated_Source\PSoC6\pdl\drivers\peripheral\syslib/cy_syslib.c **** * | CY_SYSLIB_RESET_SWWDT0        | 0x00020 (bit5)
 240:Generated_Source\PSoC6\pdl\drivers\peripheral\syslib/cy_syslib.c **** * | CY_SYSLIB_RESET_SWWDT1        | 0x00040 (bit6)
 241:Generated_Source\PSoC6\pdl\drivers\peripheral\syslib/cy_syslib.c **** * | CY_SYSLIB_RESET_SWWDT2        | 0x00080 (bit7)
ARM GAS  C:\Users\stijn\AppData\Local\Temp\ccLepBqo.s 			page 11


 242:Generated_Source\PSoC6\pdl\drivers\peripheral\syslib/cy_syslib.c **** * | CY_SYSLIB_RESET_SWWDT3        | 0x00100 (bit8)
 243:Generated_Source\PSoC6\pdl\drivers\peripheral\syslib/cy_syslib.c **** * | CY_SYSLIB_RESET_HFCLK_LOSS    | 0x10000 (bit16)
 244:Generated_Source\PSoC6\pdl\drivers\peripheral\syslib/cy_syslib.c **** * | CY_SYSLIB_RESET_HFCLK_ERR     | 0x20000 (bit17)
 245:Generated_Source\PSoC6\pdl\drivers\peripheral\syslib/cy_syslib.c **** * | CY_SYSLIB_RESET_HIB_WAKEUP    | 0x40000 (bit18)
 246:Generated_Source\PSoC6\pdl\drivers\peripheral\syslib/cy_syslib.c **** *
 247:Generated_Source\PSoC6\pdl\drivers\peripheral\syslib/cy_syslib.c **** * \note CY_SYSLIB_RESET_CSV_WCO_LOSS, CY_SYSLIB_RESET_HFCLK_LOSS and
 248:Generated_Source\PSoC6\pdl\drivers\peripheral\syslib/cy_syslib.c **** *       CY_SYSLIB_RESET_HFCLK_ERR causes of a system reset available only if
 249:Generated_Source\PSoC6\pdl\drivers\peripheral\syslib/cy_syslib.c **** *       WCO CSV present in the device.
 250:Generated_Source\PSoC6\pdl\drivers\peripheral\syslib/cy_syslib.c **** *
 251:Generated_Source\PSoC6\pdl\drivers\peripheral\syslib/cy_syslib.c **** *******************************************************************************/
 252:Generated_Source\PSoC6\pdl\drivers\peripheral\syslib/cy_syslib.c **** uint32_t Cy_SysLib_GetResetReason(void)
 253:Generated_Source\PSoC6\pdl\drivers\peripheral\syslib/cy_syslib.c **** {
 321              		.loc 1 253 0
 322              		.cfi_startproc
 323              		@ args = 0, pretend = 0, frame = 8
 324              		@ frame_needed = 1, uses_anonymous_args = 0
 325              		@ link register save eliminated.
 326 0000 80B4     		push	{r7}
 327              		.cfi_def_cfa_offset 4
 328              		.cfi_offset 7, -4
 329 0002 83B0     		sub	sp, sp, #12
 330              		.cfi_def_cfa_offset 16
 331 0004 00AF     		add	r7, sp, #0
 332              		.cfi_def_cfa_register 7
 254:Generated_Source\PSoC6\pdl\drivers\peripheral\syslib/cy_syslib.c ****     uint32_t retVal = SRSS_RES_CAUSE;
 333              		.loc 1 254 0
 334 0006 0A4B     		ldr	r3, .L26
 335 0008 D3F80038 		ldr	r3, [r3, #2048]
 336 000c 7B60     		str	r3, [r7, #4]
 255:Generated_Source\PSoC6\pdl\drivers\peripheral\syslib/cy_syslib.c **** 
 256:Generated_Source\PSoC6\pdl\drivers\peripheral\syslib/cy_syslib.c ****     if(0U != _FLD2VAL(SRSS_PWR_HIBERNATE_TOKEN, SRSS_PWR_HIBERNATE))
 337              		.loc 1 256 0
 338 000e 084B     		ldr	r3, .L26
 339 0010 5B68     		ldr	r3, [r3, #4]
 340 0012 DBB2     		uxtb	r3, r3
 341 0014 002B     		cmp	r3, #0
 342 0016 03D0     		beq	.L24
 257:Generated_Source\PSoC6\pdl\drivers\peripheral\syslib/cy_syslib.c ****     {
 258:Generated_Source\PSoC6\pdl\drivers\peripheral\syslib/cy_syslib.c ****         retVal |= CY_SYSLIB_RESET_HIB_WAKEUP;
 343              		.loc 1 258 0
 344 0018 7B68     		ldr	r3, [r7, #4]
 345 001a 43F48023 		orr	r3, r3, #262144
 346 001e 7B60     		str	r3, [r7, #4]
 347              	.L24:
 259:Generated_Source\PSoC6\pdl\drivers\peripheral\syslib/cy_syslib.c ****     }
 260:Generated_Source\PSoC6\pdl\drivers\peripheral\syslib/cy_syslib.c **** 
 261:Generated_Source\PSoC6\pdl\drivers\peripheral\syslib/cy_syslib.c ****     return (retVal);
 348              		.loc 1 261 0
 349 0020 7B68     		ldr	r3, [r7, #4]
 262:Generated_Source\PSoC6\pdl\drivers\peripheral\syslib/cy_syslib.c **** }
 350              		.loc 1 262 0
 351 0022 1846     		mov	r0, r3
 352 0024 0C37     		adds	r7, r7, #12
 353              		.cfi_def_cfa_offset 4
 354 0026 BD46     		mov	sp, r7
 355              		.cfi_def_cfa_register 13
 356              		@ sp needed
ARM GAS  C:\Users\stijn\AppData\Local\Temp\ccLepBqo.s 			page 12


 357 0028 5DF8047B 		ldr	r7, [sp], #4
 358              		.cfi_restore 7
 359              		.cfi_def_cfa_offset 0
 360 002c 7047     		bx	lr
 361              	.L27:
 362 002e 00BF     		.align	2
 363              	.L26:
 364 0030 00002640 		.word	1076232192
 365              		.cfi_endproc
 366              	.LFE157:
 367              		.size	Cy_SysLib_GetResetReason, .-Cy_SysLib_GetResetReason
 368              		.section	.text.Cy_SysLib_ClearResetReason,"ax",%progbits
 369              		.align	2
 370              		.global	Cy_SysLib_ClearResetReason
 371              		.thumb
 372              		.thumb_func
 373              		.type	Cy_SysLib_ClearResetReason, %function
 374              	Cy_SysLib_ClearResetReason:
 375              	.LFB158:
 263:Generated_Source\PSoC6\pdl\drivers\peripheral\syslib/cy_syslib.c **** 
 264:Generated_Source\PSoC6\pdl\drivers\peripheral\syslib/cy_syslib.c **** 
 265:Generated_Source\PSoC6\pdl\drivers\peripheral\syslib/cy_syslib.c **** /*******************************************************************************
 266:Generated_Source\PSoC6\pdl\drivers\peripheral\syslib/cy_syslib.c **** * Function Name: Cy_SysLib_ClearResetReason
 267:Generated_Source\PSoC6\pdl\drivers\peripheral\syslib/cy_syslib.c **** ****************************************************************************//**
 268:Generated_Source\PSoC6\pdl\drivers\peripheral\syslib/cy_syslib.c **** *
 269:Generated_Source\PSoC6\pdl\drivers\peripheral\syslib/cy_syslib.c **** * This function clears the values of RES_CAUSE and RES_CAUSE2. Also it clears
 270:Generated_Source\PSoC6\pdl\drivers\peripheral\syslib/cy_syslib.c **** * PWR_HIBERNATE token, which indicates reset event on waking up from HIBERNATE.
 271:Generated_Source\PSoC6\pdl\drivers\peripheral\syslib/cy_syslib.c **** *
 272:Generated_Source\PSoC6\pdl\drivers\peripheral\syslib/cy_syslib.c **** *******************************************************************************/
 273:Generated_Source\PSoC6\pdl\drivers\peripheral\syslib/cy_syslib.c **** void Cy_SysLib_ClearResetReason(void)
 274:Generated_Source\PSoC6\pdl\drivers\peripheral\syslib/cy_syslib.c **** {
 376              		.loc 1 274 0
 377              		.cfi_startproc
 378              		@ args = 0, pretend = 0, frame = 0
 379              		@ frame_needed = 1, uses_anonymous_args = 0
 380              		@ link register save eliminated.
 381 0000 80B4     		push	{r7}
 382              		.cfi_def_cfa_offset 4
 383              		.cfi_offset 7, -4
 384 0002 00AF     		add	r7, sp, #0
 385              		.cfi_def_cfa_register 7
 275:Generated_Source\PSoC6\pdl\drivers\peripheral\syslib/cy_syslib.c ****     /* RES_CAUSE and RES_CAUSE2 register's bits are RW1C (every bit is cleared upon writing 1),
 276:Generated_Source\PSoC6\pdl\drivers\peripheral\syslib/cy_syslib.c ****      * so write all ones to clear all the reset reasons.
 277:Generated_Source\PSoC6\pdl\drivers\peripheral\syslib/cy_syslib.c ****      */
 278:Generated_Source\PSoC6\pdl\drivers\peripheral\syslib/cy_syslib.c ****     SRSS_RES_CAUSE  = 0xFFFFFFFFU;
 386              		.loc 1 278 0
 387 0004 0C4B     		ldr	r3, .L31
 388 0006 4FF0FF32 		mov	r2, #-1
 389 000a C3F80028 		str	r2, [r3, #2048]
 279:Generated_Source\PSoC6\pdl\drivers\peripheral\syslib/cy_syslib.c ****     SRSS_RES_CAUSE2 = 0xFFFFFFFFU;
 390              		.loc 1 279 0
 391 000e 0A4B     		ldr	r3, .L31
 392 0010 4FF0FF32 		mov	r2, #-1
 393 0014 C3F80428 		str	r2, [r3, #2052]
 280:Generated_Source\PSoC6\pdl\drivers\peripheral\syslib/cy_syslib.c ****     
 281:Generated_Source\PSoC6\pdl\drivers\peripheral\syslib/cy_syslib.c ****     if(0U != _FLD2VAL(SRSS_PWR_HIBERNATE_TOKEN, SRSS_PWR_HIBERNATE))
 394              		.loc 1 281 0
ARM GAS  C:\Users\stijn\AppData\Local\Temp\ccLepBqo.s 			page 13


 395 0018 074B     		ldr	r3, .L31
 396 001a 5B68     		ldr	r3, [r3, #4]
 397 001c DBB2     		uxtb	r3, r3
 398 001e 002B     		cmp	r3, #0
 399 0020 05D0     		beq	.L30
 282:Generated_Source\PSoC6\pdl\drivers\peripheral\syslib/cy_syslib.c ****     {
 283:Generated_Source\PSoC6\pdl\drivers\peripheral\syslib/cy_syslib.c ****         /* Clears PWR_HIBERNATE token */
 284:Generated_Source\PSoC6\pdl\drivers\peripheral\syslib/cy_syslib.c ****         SRSS_PWR_HIBERNATE &= ~SRSS_PWR_HIBERNATE_TOKEN_Msk;
 400              		.loc 1 284 0
 401 0022 054A     		ldr	r2, .L31
 402 0024 044B     		ldr	r3, .L31
 403 0026 5B68     		ldr	r3, [r3, #4]
 404 0028 23F0FF03 		bic	r3, r3, #255
 405 002c 5360     		str	r3, [r2, #4]
 406              	.L30:
 285:Generated_Source\PSoC6\pdl\drivers\peripheral\syslib/cy_syslib.c ****     }
 286:Generated_Source\PSoC6\pdl\drivers\peripheral\syslib/cy_syslib.c **** }
 407              		.loc 1 286 0
 408 002e 00BF     		nop
 409 0030 BD46     		mov	sp, r7
 410              		.cfi_def_cfa_register 13
 411              		@ sp needed
 412 0032 5DF8047B 		ldr	r7, [sp], #4
 413              		.cfi_restore 7
 414              		.cfi_def_cfa_offset 0
 415 0036 7047     		bx	lr
 416              	.L32:
 417              		.align	2
 418              	.L31:
 419 0038 00002640 		.word	1076232192
 420              		.cfi_endproc
 421              	.LFE158:
 422              		.size	Cy_SysLib_ClearResetReason, .-Cy_SysLib_ClearResetReason
 423              		.section	.text.Cy_SysLib_GetUniqueId,"ax",%progbits
 424              		.align	2
 425              		.global	Cy_SysLib_GetUniqueId
 426              		.thumb
 427              		.thumb_func
 428              		.type	Cy_SysLib_GetUniqueId, %function
 429              	Cy_SysLib_GetUniqueId:
 430              	.LFB159:
 287:Generated_Source\PSoC6\pdl\drivers\peripheral\syslib/cy_syslib.c **** 
 288:Generated_Source\PSoC6\pdl\drivers\peripheral\syslib/cy_syslib.c **** 
 289:Generated_Source\PSoC6\pdl\drivers\peripheral\syslib/cy_syslib.c **** #if (CY_CPU_CORTEX_M0P) || defined(CY_DOXYGEN)
 290:Generated_Source\PSoC6\pdl\drivers\peripheral\syslib/cy_syslib.c **** /*******************************************************************************
 291:Generated_Source\PSoC6\pdl\drivers\peripheral\syslib/cy_syslib.c **** * Function Name: Cy_SysLib_SoftResetCM4
 292:Generated_Source\PSoC6\pdl\drivers\peripheral\syslib/cy_syslib.c **** ****************************************************************************//**
 293:Generated_Source\PSoC6\pdl\drivers\peripheral\syslib/cy_syslib.c **** *
 294:Generated_Source\PSoC6\pdl\drivers\peripheral\syslib/cy_syslib.c **** * This function performs a CM4 Core software reset using the CM4_PWR_CTL
 295:Generated_Source\PSoC6\pdl\drivers\peripheral\syslib/cy_syslib.c **** * register. The register is accessed by CM0 Core by using a command transferred
 296:Generated_Source\PSoC6\pdl\drivers\peripheral\syslib/cy_syslib.c **** * to SROM API through the IPC channel. When the command is sent, the API waits
 297:Generated_Source\PSoC6\pdl\drivers\peripheral\syslib/cy_syslib.c **** * for the IPC channel release.
 298:Generated_Source\PSoC6\pdl\drivers\peripheral\syslib/cy_syslib.c **** *
 299:Generated_Source\PSoC6\pdl\drivers\peripheral\syslib/cy_syslib.c **** * \note This function should be called only when the CM4 core is in Deep
 300:Generated_Source\PSoC6\pdl\drivers\peripheral\syslib/cy_syslib.c **** *       Sleep mode.
 301:Generated_Source\PSoC6\pdl\drivers\peripheral\syslib/cy_syslib.c **** * \note This function will not reset CM0+ Core.
 302:Generated_Source\PSoC6\pdl\drivers\peripheral\syslib/cy_syslib.c **** * \note This function waits for an IPC channel release state.
ARM GAS  C:\Users\stijn\AppData\Local\Temp\ccLepBqo.s 			page 14


 303:Generated_Source\PSoC6\pdl\drivers\peripheral\syslib/cy_syslib.c **** *
 304:Generated_Source\PSoC6\pdl\drivers\peripheral\syslib/cy_syslib.c **** *******************************************************************************/
 305:Generated_Source\PSoC6\pdl\drivers\peripheral\syslib/cy_syslib.c **** void Cy_SysLib_SoftResetCM4(void)
 306:Generated_Source\PSoC6\pdl\drivers\peripheral\syslib/cy_syslib.c **** {
 307:Generated_Source\PSoC6\pdl\drivers\peripheral\syslib/cy_syslib.c ****     static uint32_t msg = CY_IPC_DATA_FOR_CM4_SOFT_RESET;
 308:Generated_Source\PSoC6\pdl\drivers\peripheral\syslib/cy_syslib.c **** 
 309:Generated_Source\PSoC6\pdl\drivers\peripheral\syslib/cy_syslib.c ****     /* Tries to acquire the IPC structure and pass the arguments to SROM API.
 310:Generated_Source\PSoC6\pdl\drivers\peripheral\syslib/cy_syslib.c ****     *  SROM API parameters:
 311:Generated_Source\PSoC6\pdl\drivers\peripheral\syslib/cy_syslib.c ****     *   ipcPtr: IPC Structure 0 reserved for M0+ Secure Access.
 312:Generated_Source\PSoC6\pdl\drivers\peripheral\syslib/cy_syslib.c ****     *   notifyEvent_Intr: 1U - IPC Interrupt Structure 1 is used for Releasing IPC 0 (M0+ NMI Handl
 313:Generated_Source\PSoC6\pdl\drivers\peripheral\syslib/cy_syslib.c ****     *   msgPtr: &msg - The address of SRAM with the API's parameters.
 314:Generated_Source\PSoC6\pdl\drivers\peripheral\syslib/cy_syslib.c ****     */
 315:Generated_Source\PSoC6\pdl\drivers\peripheral\syslib/cy_syslib.c ****     if(CY_IPC_DRV_SUCCESS != Cy_IPC_Drv_SendMsgPtr(Cy_IPC_Drv_GetIpcBaseAddress(CY_IPC_CHAN_SYSCALL
 316:Generated_Source\PSoC6\pdl\drivers\peripheral\syslib/cy_syslib.c ****     {
 317:Generated_Source\PSoC6\pdl\drivers\peripheral\syslib/cy_syslib.c ****         CY_ASSERT(0U != 0U);
 318:Generated_Source\PSoC6\pdl\drivers\peripheral\syslib/cy_syslib.c ****     }
 319:Generated_Source\PSoC6\pdl\drivers\peripheral\syslib/cy_syslib.c **** 
 320:Generated_Source\PSoC6\pdl\drivers\peripheral\syslib/cy_syslib.c ****     while(Cy_IPC_Drv_IsLockAcquired(Cy_IPC_Drv_GetIpcBaseAddress(CY_IPC_CHAN_SYSCALL_CM0)))
 321:Generated_Source\PSoC6\pdl\drivers\peripheral\syslib/cy_syslib.c ****     {
 322:Generated_Source\PSoC6\pdl\drivers\peripheral\syslib/cy_syslib.c ****         /* Waits until SROM API runs the command (sent over the IPC channel) and releases the IPC0 
 323:Generated_Source\PSoC6\pdl\drivers\peripheral\syslib/cy_syslib.c ****     }
 324:Generated_Source\PSoC6\pdl\drivers\peripheral\syslib/cy_syslib.c **** }
 325:Generated_Source\PSoC6\pdl\drivers\peripheral\syslib/cy_syslib.c **** #endif /* CY_CPU_CORTEX_M0P || defined(CY_DOXYGEN) */
 326:Generated_Source\PSoC6\pdl\drivers\peripheral\syslib/cy_syslib.c **** 
 327:Generated_Source\PSoC6\pdl\drivers\peripheral\syslib/cy_syslib.c **** 
 328:Generated_Source\PSoC6\pdl\drivers\peripheral\syslib/cy_syslib.c **** /*******************************************************************************
 329:Generated_Source\PSoC6\pdl\drivers\peripheral\syslib/cy_syslib.c **** * Function Name: Cy_SysLib_GetUniqueId
 330:Generated_Source\PSoC6\pdl\drivers\peripheral\syslib/cy_syslib.c **** ****************************************************************************//**
 331:Generated_Source\PSoC6\pdl\drivers\peripheral\syslib/cy_syslib.c **** *
 332:Generated_Source\PSoC6\pdl\drivers\peripheral\syslib/cy_syslib.c **** * This function returns the silicon unique ID.
 333:Generated_Source\PSoC6\pdl\drivers\peripheral\syslib/cy_syslib.c **** * The ID includes Die lot[3]#, Die Wafer#, Die X, Die Y, Die Sort#, Die Minor
 334:Generated_Source\PSoC6\pdl\drivers\peripheral\syslib/cy_syslib.c **** * and Die Year.
 335:Generated_Source\PSoC6\pdl\drivers\peripheral\syslib/cy_syslib.c **** *
 336:Generated_Source\PSoC6\pdl\drivers\peripheral\syslib/cy_syslib.c **** * \return  A combined 64-bit unique ID.
 337:Generated_Source\PSoC6\pdl\drivers\peripheral\syslib/cy_syslib.c **** *          [63:57] - DIE_YEAR
 338:Generated_Source\PSoC6\pdl\drivers\peripheral\syslib/cy_syslib.c **** *          [56:56] - DIE_MINOR
 339:Generated_Source\PSoC6\pdl\drivers\peripheral\syslib/cy_syslib.c **** *          [55:48] - DIE_SORT
 340:Generated_Source\PSoC6\pdl\drivers\peripheral\syslib/cy_syslib.c **** *          [47:40] - DIE_Y
 341:Generated_Source\PSoC6\pdl\drivers\peripheral\syslib/cy_syslib.c **** *          [39:32] - DIE_X
 342:Generated_Source\PSoC6\pdl\drivers\peripheral\syslib/cy_syslib.c **** *          [31:24] - DIE_WAFER
 343:Generated_Source\PSoC6\pdl\drivers\peripheral\syslib/cy_syslib.c **** *          [23:16] - DIE_LOT[2]
 344:Generated_Source\PSoC6\pdl\drivers\peripheral\syslib/cy_syslib.c **** *          [15: 8] - DIE_LOT[1]
 345:Generated_Source\PSoC6\pdl\drivers\peripheral\syslib/cy_syslib.c **** *          [ 7: 0] - DIE_LOT[0]
 346:Generated_Source\PSoC6\pdl\drivers\peripheral\syslib/cy_syslib.c **** *
 347:Generated_Source\PSoC6\pdl\drivers\peripheral\syslib/cy_syslib.c **** *******************************************************************************/
 348:Generated_Source\PSoC6\pdl\drivers\peripheral\syslib/cy_syslib.c **** uint64_t Cy_SysLib_GetUniqueId(void)
 349:Generated_Source\PSoC6\pdl\drivers\peripheral\syslib/cy_syslib.c **** {
 431              		.loc 1 349 0
 432              		.cfi_startproc
 433              		@ args = 0, pretend = 0, frame = 8
 434              		@ frame_needed = 1, uses_anonymous_args = 0
 435              		@ link register save eliminated.
 436 0000 90B4     		push	{r4, r7}
 437              		.cfi_def_cfa_offset 8
 438              		.cfi_offset 4, -8
 439              		.cfi_offset 7, -4
 440 0002 82B0     		sub	sp, sp, #8
ARM GAS  C:\Users\stijn\AppData\Local\Temp\ccLepBqo.s 			page 15


 441              		.cfi_def_cfa_offset 16
 442 0004 00AF     		add	r7, sp, #0
 443              		.cfi_def_cfa_register 7
 350:Generated_Source\PSoC6\pdl\drivers\peripheral\syslib/cy_syslib.c ****     uint32_t uniqueIdHi;
 351:Generated_Source\PSoC6\pdl\drivers\peripheral\syslib/cy_syslib.c ****     uint32_t uniqueIdLo;
 352:Generated_Source\PSoC6\pdl\drivers\peripheral\syslib/cy_syslib.c **** 
 353:Generated_Source\PSoC6\pdl\drivers\peripheral\syslib/cy_syslib.c ****     uniqueIdHi = ((uint32_t) SFLASH_DIE_YEAR        << (CY_UNIQUE_ID_DIE_YEAR_Pos  - CY_UNIQUE_ID_D
 444              		.loc 1 353 0
 445 0006 4FF0B052 		mov	r2, #369098752
 446 000a 92F80A26 		ldrb	r2, [r2, #1546]
 447 000e D2B2     		uxtb	r2, r2
 448 0010 5106     		lsls	r1, r2, #25
 354:Generated_Source\PSoC6\pdl\drivers\peripheral\syslib/cy_syslib.c ****                  (((uint32_t)SFLASH_DIE_MINOR & 1U) << (CY_UNIQUE_ID_DIE_MINOR_Pos - CY_UNIQUE_ID_D
 449              		.loc 1 354 0
 450 0012 4FF0B052 		mov	r2, #369098752
 451 0016 92F80726 		ldrb	r2, [r2, #1543]
 452 001a D2B2     		uxtb	r2, r2
 453 001c 02F00102 		and	r2, r2, #1
 454 0020 1206     		lsls	r2, r2, #24
 353:Generated_Source\PSoC6\pdl\drivers\peripheral\syslib/cy_syslib.c ****                  (((uint32_t)SFLASH_DIE_MINOR & 1U) << (CY_UNIQUE_ID_DIE_MINOR_Pos - CY_UNIQUE_ID_D
 455              		.loc 1 353 0
 456 0022 1143     		orrs	r1, r1, r2
 355:Generated_Source\PSoC6\pdl\drivers\peripheral\syslib/cy_syslib.c ****                  ((uint32_t) SFLASH_DIE_SORT        << (CY_UNIQUE_ID_DIE_SORT_Pos  - CY_UNIQUE_ID_D
 457              		.loc 1 355 0
 458 0024 4FF0B052 		mov	r2, #369098752
 459 0028 92F80626 		ldrb	r2, [r2, #1542]
 460 002c D2B2     		uxtb	r2, r2
 461 002e 1204     		lsls	r2, r2, #16
 354:Generated_Source\PSoC6\pdl\drivers\peripheral\syslib/cy_syslib.c ****                  (((uint32_t)SFLASH_DIE_MINOR & 1U) << (CY_UNIQUE_ID_DIE_MINOR_Pos - CY_UNIQUE_ID_D
 462              		.loc 1 354 0
 463 0030 1143     		orrs	r1, r1, r2
 356:Generated_Source\PSoC6\pdl\drivers\peripheral\syslib/cy_syslib.c ****                  ((uint32_t) SFLASH_DIE_Y           << (CY_UNIQUE_ID_DIE_Y_Pos     - CY_UNIQUE_ID_D
 464              		.loc 1 356 0
 465 0032 4FF0B052 		mov	r2, #369098752
 466 0036 92F80526 		ldrb	r2, [r2, #1541]
 467 003a D2B2     		uxtb	r2, r2
 468 003c 1202     		lsls	r2, r2, #8
 355:Generated_Source\PSoC6\pdl\drivers\peripheral\syslib/cy_syslib.c ****                  ((uint32_t) SFLASH_DIE_SORT        << (CY_UNIQUE_ID_DIE_SORT_Pos  - CY_UNIQUE_ID_D
 469              		.loc 1 355 0
 470 003e 0A43     		orrs	r2, r2, r1
 357:Generated_Source\PSoC6\pdl\drivers\peripheral\syslib/cy_syslib.c ****                  ((uint32_t) SFLASH_DIE_X);
 471              		.loc 1 357 0
 472 0040 4FF0B051 		mov	r1, #369098752
 473 0044 91F80416 		ldrb	r1, [r1, #1540]
 474 0048 C9B2     		uxtb	r1, r1
 353:Generated_Source\PSoC6\pdl\drivers\peripheral\syslib/cy_syslib.c ****                  (((uint32_t)SFLASH_DIE_MINOR & 1U) << (CY_UNIQUE_ID_DIE_MINOR_Pos - CY_UNIQUE_ID_D
 475              		.loc 1 353 0
 476 004a 0A43     		orrs	r2, r2, r1
 477 004c 7A60     		str	r2, [r7, #4]
 358:Generated_Source\PSoC6\pdl\drivers\peripheral\syslib/cy_syslib.c **** 
 359:Generated_Source\PSoC6\pdl\drivers\peripheral\syslib/cy_syslib.c ****     uniqueIdLo = ((uint32_t) SFLASH_DIE_WAFER       << CY_UNIQUE_ID_DIE_WAFER_Pos) |
 478              		.loc 1 359 0
 479 004e 4FF0B052 		mov	r2, #369098752
 480 0052 92F80326 		ldrb	r2, [r2, #1539]
 481 0056 D2B2     		uxtb	r2, r2
 482 0058 1106     		lsls	r1, r2, #24
 360:Generated_Source\PSoC6\pdl\drivers\peripheral\syslib/cy_syslib.c ****                  ((uint32_t) SFLASH_DIE_LOT(2U)     << CY_UNIQUE_ID_DIE_LOT_2_Pos) |
ARM GAS  C:\Users\stijn\AppData\Local\Temp\ccLepBqo.s 			page 16


 483              		.loc 1 360 0
 484 005a 4FF0B052 		mov	r2, #369098752
 485 005e 92F80226 		ldrb	r2, [r2, #1538]
 486 0062 D2B2     		uxtb	r2, r2
 487 0064 1204     		lsls	r2, r2, #16
 359:Generated_Source\PSoC6\pdl\drivers\peripheral\syslib/cy_syslib.c ****                  ((uint32_t) SFLASH_DIE_LOT(2U)     << CY_UNIQUE_ID_DIE_LOT_2_Pos) |
 488              		.loc 1 359 0
 489 0066 1143     		orrs	r1, r1, r2
 361:Generated_Source\PSoC6\pdl\drivers\peripheral\syslib/cy_syslib.c ****                  ((uint32_t) SFLASH_DIE_LOT(1U)     << CY_UNIQUE_ID_DIE_LOT_1_Pos) |
 490              		.loc 1 361 0
 491 0068 4FF0B052 		mov	r2, #369098752
 492 006c 92F80126 		ldrb	r2, [r2, #1537]
 493 0070 D2B2     		uxtb	r2, r2
 494 0072 1202     		lsls	r2, r2, #8
 360:Generated_Source\PSoC6\pdl\drivers\peripheral\syslib/cy_syslib.c ****                  ((uint32_t) SFLASH_DIE_LOT(2U)     << CY_UNIQUE_ID_DIE_LOT_2_Pos) |
 495              		.loc 1 360 0
 496 0074 0A43     		orrs	r2, r2, r1
 362:Generated_Source\PSoC6\pdl\drivers\peripheral\syslib/cy_syslib.c ****                  ((uint32_t) SFLASH_DIE_LOT(0U));
 497              		.loc 1 362 0
 498 0076 4FF0B051 		mov	r1, #369098752
 499 007a 91F80016 		ldrb	r1, [r1, #1536]
 500 007e C9B2     		uxtb	r1, r1
 359:Generated_Source\PSoC6\pdl\drivers\peripheral\syslib/cy_syslib.c ****                  ((uint32_t) SFLASH_DIE_LOT(2U)     << CY_UNIQUE_ID_DIE_LOT_2_Pos) |
 501              		.loc 1 359 0
 502 0080 0A43     		orrs	r2, r2, r1
 503 0082 3A60     		str	r2, [r7]
 363:Generated_Source\PSoC6\pdl\drivers\peripheral\syslib/cy_syslib.c **** 
 364:Generated_Source\PSoC6\pdl\drivers\peripheral\syslib/cy_syslib.c ****     return (((uint64_t) uniqueIdHi << CY_UNIQUE_ID_DIE_X_Pos) | uniqueIdLo);
 504              		.loc 1 364 0
 505 0084 7A68     		ldr	r2, [r7, #4]
 506 0086 1146     		mov	r1, r2
 507 0088 4FF00002 		mov	r2, #0
 508 008c 0C00     		movs	r4, r1
 509 008e 0023     		movs	r3, #0
 510 0090 3A68     		ldr	r2, [r7]
 511 0092 1146     		mov	r1, r2
 512 0094 4FF00002 		mov	r2, #0
 513 0098 43EA0103 		orr	r3, r3, r1
 514 009c 44EA0204 		orr	r4, r4, r2
 365:Generated_Source\PSoC6\pdl\drivers\peripheral\syslib/cy_syslib.c **** }
 515              		.loc 1 365 0
 516 00a0 1846     		mov	r0, r3
 517 00a2 2146     		mov	r1, r4
 518 00a4 0837     		adds	r7, r7, #8
 519              		.cfi_def_cfa_offset 8
 520 00a6 BD46     		mov	sp, r7
 521              		.cfi_def_cfa_register 13
 522              		@ sp needed
 523 00a8 90BC     		pop	{r4, r7}
 524              		.cfi_restore 7
 525              		.cfi_restore 4
 526              		.cfi_def_cfa_offset 0
 527 00aa 7047     		bx	lr
 528              		.cfi_endproc
 529              	.LFE159:
 530              		.size	Cy_SysLib_GetUniqueId, .-Cy_SysLib_GetUniqueId
 531              		.section	.text.Cy_SysLib_FaultHandler,"ax",%progbits
ARM GAS  C:\Users\stijn\AppData\Local\Temp\ccLepBqo.s 			page 17


 532              		.align	2
 533              		.global	Cy_SysLib_FaultHandler
 534              		.thumb
 535              		.thumb_func
 536              		.type	Cy_SysLib_FaultHandler, %function
 537              	Cy_SysLib_FaultHandler:
 538              	.LFB160:
 366:Generated_Source\PSoC6\pdl\drivers\peripheral\syslib/cy_syslib.c **** 
 367:Generated_Source\PSoC6\pdl\drivers\peripheral\syslib/cy_syslib.c **** 
 368:Generated_Source\PSoC6\pdl\drivers\peripheral\syslib/cy_syslib.c **** #if (CY_ARM_FAULT_DEBUG == CY_ARM_FAULT_DEBUG_ENABLED) || defined(CY_DOXYGEN)
 369:Generated_Source\PSoC6\pdl\drivers\peripheral\syslib/cy_syslib.c **** /*******************************************************************************
 370:Generated_Source\PSoC6\pdl\drivers\peripheral\syslib/cy_syslib.c **** * Function Name: Cy_SysLib_FaultHandler
 371:Generated_Source\PSoC6\pdl\drivers\peripheral\syslib/cy_syslib.c **** ****************************************************************************//**
 372:Generated_Source\PSoC6\pdl\drivers\peripheral\syslib/cy_syslib.c **** *
 373:Generated_Source\PSoC6\pdl\drivers\peripheral\syslib/cy_syslib.c **** * This function stores the ARM Cortex registers into a non-zero init area for
 374:Generated_Source\PSoC6\pdl\drivers\peripheral\syslib/cy_syslib.c **** * debugging. This function calls Cy_SysLib_ProcessingFault() after storing all
 375:Generated_Source\PSoC6\pdl\drivers\peripheral\syslib/cy_syslib.c **** * information.
 376:Generated_Source\PSoC6\pdl\drivers\peripheral\syslib/cy_syslib.c **** *
 377:Generated_Source\PSoC6\pdl\drivers\peripheral\syslib/cy_syslib.c **** * \param faultStackAddr The address of the stack pointer, indicates the lowest
 378:Generated_Source\PSoC6\pdl\drivers\peripheral\syslib/cy_syslib.c **** *                       address in the fault stack frame to be stored.
 379:Generated_Source\PSoC6\pdl\drivers\peripheral\syslib/cy_syslib.c **** * \note This function stores the fault stack frame only for the first occurred
 380:Generated_Source\PSoC6\pdl\drivers\peripheral\syslib/cy_syslib.c **** *       fault.
 381:Generated_Source\PSoC6\pdl\drivers\peripheral\syslib/cy_syslib.c **** * \note The PDL doesn't provide an API to analyze the stored register
 382:Generated_Source\PSoC6\pdl\drivers\peripheral\syslib/cy_syslib.c **** *       values. The user has to add additional functions for the analysis,
 383:Generated_Source\PSoC6\pdl\drivers\peripheral\syslib/cy_syslib.c **** *       if necessary.
 384:Generated_Source\PSoC6\pdl\drivers\peripheral\syslib/cy_syslib.c **** * \note The CY_ARM_FAULT_DEBUG macro defines if the Fault Handler is enabled.
 385:Generated_Source\PSoC6\pdl\drivers\peripheral\syslib/cy_syslib.c **** *       By default it is set to CY_ARM_FAULT_DEBUG_ENABLED and enables the
 386:Generated_Source\PSoC6\pdl\drivers\peripheral\syslib/cy_syslib.c **** *       Fault Handler.
 387:Generated_Source\PSoC6\pdl\drivers\peripheral\syslib/cy_syslib.c **** *       If there is a necessity to save memory or have some specific custom
 388:Generated_Source\PSoC6\pdl\drivers\peripheral\syslib/cy_syslib.c **** *       handler, etc. then CY_ARM_FAULT_DEBUG should be redefined as
 389:Generated_Source\PSoC6\pdl\drivers\peripheral\syslib/cy_syslib.c **** *       CY_ARM_FAULT_DEBUG_DISABLED. To do this, the following definition should
 390:Generated_Source\PSoC6\pdl\drivers\peripheral\syslib/cy_syslib.c **** *       be added to the compiler Command Line (through the project Build
 391:Generated_Source\PSoC6\pdl\drivers\peripheral\syslib/cy_syslib.c **** *       Settings): "-D CY_ARM_FAULT_DEBUG=0".
 392:Generated_Source\PSoC6\pdl\drivers\peripheral\syslib/cy_syslib.c **** *
 393:Generated_Source\PSoC6\pdl\drivers\peripheral\syslib/cy_syslib.c **** *******************************************************************************/
 394:Generated_Source\PSoC6\pdl\drivers\peripheral\syslib/cy_syslib.c **** void Cy_SysLib_FaultHandler(uint32_t const *faultStackAddr)
 395:Generated_Source\PSoC6\pdl\drivers\peripheral\syslib/cy_syslib.c **** {
 539              		.loc 1 395 0
 540              		.cfi_startproc
 541              		@ args = 0, pretend = 0, frame = 16
 542              		@ frame_needed = 1, uses_anonymous_args = 0
 543 0000 80B5     		push	{r7, lr}
 544              		.cfi_def_cfa_offset 8
 545              		.cfi_offset 7, -8
 546              		.cfi_offset 14, -4
 547 0002 84B0     		sub	sp, sp, #16
 548              		.cfi_def_cfa_offset 24
 549 0004 00AF     		add	r7, sp, #0
 550              		.cfi_def_cfa_register 7
 551 0006 7860     		str	r0, [r7, #4]
 396:Generated_Source\PSoC6\pdl\drivers\peripheral\syslib/cy_syslib.c ****     /* Stores general registers */
 397:Generated_Source\PSoC6\pdl\drivers\peripheral\syslib/cy_syslib.c ****     cy_faultFrame.r0  = faultStackAddr[CY_R0_Pos];
 552              		.loc 1 397 0
 553 0008 7B68     		ldr	r3, [r7, #4]
 554 000a 1B68     		ldr	r3, [r3]
 555 000c 414A     		ldr	r2, .L38
 556 000e 1360     		str	r3, [r2]
ARM GAS  C:\Users\stijn\AppData\Local\Temp\ccLepBqo.s 			page 18


 398:Generated_Source\PSoC6\pdl\drivers\peripheral\syslib/cy_syslib.c ****     cy_faultFrame.r1  = faultStackAddr[CY_R1_Pos];
 557              		.loc 1 398 0
 558 0010 7B68     		ldr	r3, [r7, #4]
 559 0012 5B68     		ldr	r3, [r3, #4]
 560 0014 3F4A     		ldr	r2, .L38
 561 0016 5360     		str	r3, [r2, #4]
 399:Generated_Source\PSoC6\pdl\drivers\peripheral\syslib/cy_syslib.c ****     cy_faultFrame.r2  = faultStackAddr[CY_R2_Pos];
 562              		.loc 1 399 0
 563 0018 7B68     		ldr	r3, [r7, #4]
 564 001a 9B68     		ldr	r3, [r3, #8]
 565 001c 3D4A     		ldr	r2, .L38
 566 001e 9360     		str	r3, [r2, #8]
 400:Generated_Source\PSoC6\pdl\drivers\peripheral\syslib/cy_syslib.c ****     cy_faultFrame.r3  = faultStackAddr[CY_R3_Pos];
 567              		.loc 1 400 0
 568 0020 7B68     		ldr	r3, [r7, #4]
 569 0022 DB68     		ldr	r3, [r3, #12]
 570 0024 3B4A     		ldr	r2, .L38
 571 0026 D360     		str	r3, [r2, #12]
 401:Generated_Source\PSoC6\pdl\drivers\peripheral\syslib/cy_syslib.c ****     cy_faultFrame.r12 = faultStackAddr[CY_R12_Pos];
 572              		.loc 1 401 0
 573 0028 7B68     		ldr	r3, [r7, #4]
 574 002a 1B69     		ldr	r3, [r3, #16]
 575 002c 394A     		ldr	r2, .L38
 576 002e 1361     		str	r3, [r2, #16]
 402:Generated_Source\PSoC6\pdl\drivers\peripheral\syslib/cy_syslib.c ****     cy_faultFrame.lr  = faultStackAddr[CY_LR_Pos];
 577              		.loc 1 402 0
 578 0030 7B68     		ldr	r3, [r7, #4]
 579 0032 5B69     		ldr	r3, [r3, #20]
 580 0034 374A     		ldr	r2, .L38
 581 0036 5361     		str	r3, [r2, #20]
 403:Generated_Source\PSoC6\pdl\drivers\peripheral\syslib/cy_syslib.c ****     cy_faultFrame.pc  = faultStackAddr[CY_PC_Pos];
 582              		.loc 1 403 0
 583 0038 7B68     		ldr	r3, [r7, #4]
 584 003a 9B69     		ldr	r3, [r3, #24]
 585 003c 354A     		ldr	r2, .L38
 586 003e 9361     		str	r3, [r2, #24]
 404:Generated_Source\PSoC6\pdl\drivers\peripheral\syslib/cy_syslib.c ****     cy_faultFrame.psr = faultStackAddr[CY_PSR_Pos];
 587              		.loc 1 404 0
 588 0040 7B68     		ldr	r3, [r7, #4]
 589 0042 DB69     		ldr	r3, [r3, #28]
 590 0044 334A     		ldr	r2, .L38
 591 0046 D361     		str	r3, [r2, #28]
 405:Generated_Source\PSoC6\pdl\drivers\peripheral\syslib/cy_syslib.c **** 
 406:Generated_Source\PSoC6\pdl\drivers\peripheral\syslib/cy_syslib.c ****     #if (CY_CPU_CORTEX_M4)
 407:Generated_Source\PSoC6\pdl\drivers\peripheral\syslib/cy_syslib.c ****         /* Stores the Configurable Fault Status Register state with the fault cause */
 408:Generated_Source\PSoC6\pdl\drivers\peripheral\syslib/cy_syslib.c ****         cy_faultFrame.cfsr.cfsrReg = SCB->CFSR;
 592              		.loc 1 408 0
 593 0048 334B     		ldr	r3, .L38+4
 594 004a 9B6A     		ldr	r3, [r3, #40]
 595 004c 314A     		ldr	r2, .L38
 596 004e 1362     		str	r3, [r2, #32]
 409:Generated_Source\PSoC6\pdl\drivers\peripheral\syslib/cy_syslib.c ****         /* Stores the Hard Fault Status Register */
 410:Generated_Source\PSoC6\pdl\drivers\peripheral\syslib/cy_syslib.c ****         cy_faultFrame.hfsr.hfsrReg = SCB->HFSR;
 597              		.loc 1 410 0
 598 0050 314B     		ldr	r3, .L38+4
 599 0052 DB6A     		ldr	r3, [r3, #44]
 600 0054 2F4A     		ldr	r2, .L38
ARM GAS  C:\Users\stijn\AppData\Local\Temp\ccLepBqo.s 			page 19


 601 0056 5362     		str	r3, [r2, #36]
 411:Generated_Source\PSoC6\pdl\drivers\peripheral\syslib/cy_syslib.c ****         /* Stores the System Handler Control and State Register */
 412:Generated_Source\PSoC6\pdl\drivers\peripheral\syslib/cy_syslib.c ****         cy_faultFrame.shcsr.shcsrReg = SCB->SHCSR;
 602              		.loc 1 412 0
 603 0058 2F4B     		ldr	r3, .L38+4
 604 005a 5B6A     		ldr	r3, [r3, #36]
 605 005c 2D4A     		ldr	r2, .L38
 606 005e 9362     		str	r3, [r2, #40]
 413:Generated_Source\PSoC6\pdl\drivers\peripheral\syslib/cy_syslib.c ****         /* Store MemMange fault address */
 414:Generated_Source\PSoC6\pdl\drivers\peripheral\syslib/cy_syslib.c ****         cy_faultFrame.mmfar = SCB->MMFAR;
 607              		.loc 1 414 0
 608 0060 2D4B     		ldr	r3, .L38+4
 609 0062 5B6B     		ldr	r3, [r3, #52]
 610 0064 2B4A     		ldr	r2, .L38
 611 0066 D362     		str	r3, [r2, #44]
 415:Generated_Source\PSoC6\pdl\drivers\peripheral\syslib/cy_syslib.c ****         /* Store Bus fault address */
 416:Generated_Source\PSoC6\pdl\drivers\peripheral\syslib/cy_syslib.c ****         cy_faultFrame.bfar = SCB->BFAR;
 612              		.loc 1 416 0
 613 0068 2B4B     		ldr	r3, .L38+4
 614 006a 9B6B     		ldr	r3, [r3, #56]
 615 006c 294A     		ldr	r2, .L38
 616 006e 1363     		str	r3, [r2, #48]
 617              	.LBB4:
 618              	.LBB5:
 619              		.file 2 "Generated_Source\\PSoC6\\pdl\\cmsis/include/cmsis_gcc.h"
   1:Generated_Source\PSoC6\pdl\cmsis/include/cmsis_gcc.h **** /**************************************************************************//**
   2:Generated_Source\PSoC6\pdl\cmsis/include/cmsis_gcc.h ****  * @file     cmsis_gcc.h
   3:Generated_Source\PSoC6\pdl\cmsis/include/cmsis_gcc.h ****  * @brief    CMSIS compiler GCC header file
   4:Generated_Source\PSoC6\pdl\cmsis/include/cmsis_gcc.h ****  * @version  V5.0.3
   5:Generated_Source\PSoC6\pdl\cmsis/include/cmsis_gcc.h ****  * @date     16. January 2018
   6:Generated_Source\PSoC6\pdl\cmsis/include/cmsis_gcc.h ****  ******************************************************************************/
   7:Generated_Source\PSoC6\pdl\cmsis/include/cmsis_gcc.h **** /*
   8:Generated_Source\PSoC6\pdl\cmsis/include/cmsis_gcc.h ****  * Copyright (c) 2009-2017 ARM Limited. All rights reserved.
   9:Generated_Source\PSoC6\pdl\cmsis/include/cmsis_gcc.h ****  *
  10:Generated_Source\PSoC6\pdl\cmsis/include/cmsis_gcc.h ****  * SPDX-License-Identifier: Apache-2.0
  11:Generated_Source\PSoC6\pdl\cmsis/include/cmsis_gcc.h ****  *
  12:Generated_Source\PSoC6\pdl\cmsis/include/cmsis_gcc.h ****  * Licensed under the Apache License, Version 2.0 (the License); you may
  13:Generated_Source\PSoC6\pdl\cmsis/include/cmsis_gcc.h ****  * not use this file except in compliance with the License.
  14:Generated_Source\PSoC6\pdl\cmsis/include/cmsis_gcc.h ****  * You may obtain a copy of the License at
  15:Generated_Source\PSoC6\pdl\cmsis/include/cmsis_gcc.h ****  *
  16:Generated_Source\PSoC6\pdl\cmsis/include/cmsis_gcc.h ****  * www.apache.org/licenses/LICENSE-2.0
  17:Generated_Source\PSoC6\pdl\cmsis/include/cmsis_gcc.h ****  *
  18:Generated_Source\PSoC6\pdl\cmsis/include/cmsis_gcc.h ****  * Unless required by applicable law or agreed to in writing, software
  19:Generated_Source\PSoC6\pdl\cmsis/include/cmsis_gcc.h ****  * distributed under the License is distributed on an AS IS BASIS, WITHOUT
  20:Generated_Source\PSoC6\pdl\cmsis/include/cmsis_gcc.h ****  * WARRANTIES OR CONDITIONS OF ANY KIND, either express or implied.
  21:Generated_Source\PSoC6\pdl\cmsis/include/cmsis_gcc.h ****  * See the License for the specific language governing permissions and
  22:Generated_Source\PSoC6\pdl\cmsis/include/cmsis_gcc.h ****  * limitations under the License.
  23:Generated_Source\PSoC6\pdl\cmsis/include/cmsis_gcc.h ****  */
  24:Generated_Source\PSoC6\pdl\cmsis/include/cmsis_gcc.h **** 
  25:Generated_Source\PSoC6\pdl\cmsis/include/cmsis_gcc.h **** #ifndef __CMSIS_GCC_H
  26:Generated_Source\PSoC6\pdl\cmsis/include/cmsis_gcc.h **** #define __CMSIS_GCC_H
  27:Generated_Source\PSoC6\pdl\cmsis/include/cmsis_gcc.h **** 
  28:Generated_Source\PSoC6\pdl\cmsis/include/cmsis_gcc.h **** /* ignore some GCC warnings */
  29:Generated_Source\PSoC6\pdl\cmsis/include/cmsis_gcc.h **** #pragma GCC diagnostic push
  30:Generated_Source\PSoC6\pdl\cmsis/include/cmsis_gcc.h **** #pragma GCC diagnostic ignored "-Wsign-conversion"
  31:Generated_Source\PSoC6\pdl\cmsis/include/cmsis_gcc.h **** #pragma GCC diagnostic ignored "-Wconversion"
  32:Generated_Source\PSoC6\pdl\cmsis/include/cmsis_gcc.h **** #pragma GCC diagnostic ignored "-Wunused-parameter"
ARM GAS  C:\Users\stijn\AppData\Local\Temp\ccLepBqo.s 			page 20


  33:Generated_Source\PSoC6\pdl\cmsis/include/cmsis_gcc.h **** 
  34:Generated_Source\PSoC6\pdl\cmsis/include/cmsis_gcc.h **** /* Fallback for __has_builtin */
  35:Generated_Source\PSoC6\pdl\cmsis/include/cmsis_gcc.h **** #ifndef __has_builtin
  36:Generated_Source\PSoC6\pdl\cmsis/include/cmsis_gcc.h ****   #define __has_builtin(x) (0)
  37:Generated_Source\PSoC6\pdl\cmsis/include/cmsis_gcc.h **** #endif
  38:Generated_Source\PSoC6\pdl\cmsis/include/cmsis_gcc.h **** 
  39:Generated_Source\PSoC6\pdl\cmsis/include/cmsis_gcc.h **** /* CMSIS compiler specific defines */
  40:Generated_Source\PSoC6\pdl\cmsis/include/cmsis_gcc.h **** #ifndef   __ASM
  41:Generated_Source\PSoC6\pdl\cmsis/include/cmsis_gcc.h ****   #define __ASM                                  __asm
  42:Generated_Source\PSoC6\pdl\cmsis/include/cmsis_gcc.h **** #endif
  43:Generated_Source\PSoC6\pdl\cmsis/include/cmsis_gcc.h **** #ifndef   __INLINE
  44:Generated_Source\PSoC6\pdl\cmsis/include/cmsis_gcc.h ****   #define __INLINE                               inline
  45:Generated_Source\PSoC6\pdl\cmsis/include/cmsis_gcc.h **** #endif
  46:Generated_Source\PSoC6\pdl\cmsis/include/cmsis_gcc.h **** #ifndef   __STATIC_INLINE
  47:Generated_Source\PSoC6\pdl\cmsis/include/cmsis_gcc.h ****   #define __STATIC_INLINE                        static inline
  48:Generated_Source\PSoC6\pdl\cmsis/include/cmsis_gcc.h **** #endif
  49:Generated_Source\PSoC6\pdl\cmsis/include/cmsis_gcc.h **** #ifndef   __STATIC_FORCEINLINE                 
  50:Generated_Source\PSoC6\pdl\cmsis/include/cmsis_gcc.h ****   #define __STATIC_FORCEINLINE                   __attribute__((always_inline)) static inline
  51:Generated_Source\PSoC6\pdl\cmsis/include/cmsis_gcc.h **** #endif                                           
  52:Generated_Source\PSoC6\pdl\cmsis/include/cmsis_gcc.h **** #ifndef   __NO_RETURN
  53:Generated_Source\PSoC6\pdl\cmsis/include/cmsis_gcc.h ****   #define __NO_RETURN                            __attribute__((__noreturn__))
  54:Generated_Source\PSoC6\pdl\cmsis/include/cmsis_gcc.h **** #endif
  55:Generated_Source\PSoC6\pdl\cmsis/include/cmsis_gcc.h **** #ifndef   __USED
  56:Generated_Source\PSoC6\pdl\cmsis/include/cmsis_gcc.h ****   #define __USED                                 __attribute__((used))
  57:Generated_Source\PSoC6\pdl\cmsis/include/cmsis_gcc.h **** #endif
  58:Generated_Source\PSoC6\pdl\cmsis/include/cmsis_gcc.h **** #ifndef   __WEAK
  59:Generated_Source\PSoC6\pdl\cmsis/include/cmsis_gcc.h ****   #define __WEAK                                 __attribute__((weak))
  60:Generated_Source\PSoC6\pdl\cmsis/include/cmsis_gcc.h **** #endif
  61:Generated_Source\PSoC6\pdl\cmsis/include/cmsis_gcc.h **** #ifndef   __PACKED
  62:Generated_Source\PSoC6\pdl\cmsis/include/cmsis_gcc.h ****   #define __PACKED                               __attribute__((packed, aligned(1)))
  63:Generated_Source\PSoC6\pdl\cmsis/include/cmsis_gcc.h **** #endif
  64:Generated_Source\PSoC6\pdl\cmsis/include/cmsis_gcc.h **** #ifndef   __PACKED_STRUCT
  65:Generated_Source\PSoC6\pdl\cmsis/include/cmsis_gcc.h ****   #define __PACKED_STRUCT                        struct __attribute__((packed, aligned(1)))
  66:Generated_Source\PSoC6\pdl\cmsis/include/cmsis_gcc.h **** #endif
  67:Generated_Source\PSoC6\pdl\cmsis/include/cmsis_gcc.h **** #ifndef   __PACKED_UNION
  68:Generated_Source\PSoC6\pdl\cmsis/include/cmsis_gcc.h ****   #define __PACKED_UNION                         union __attribute__((packed, aligned(1)))
  69:Generated_Source\PSoC6\pdl\cmsis/include/cmsis_gcc.h **** #endif
  70:Generated_Source\PSoC6\pdl\cmsis/include/cmsis_gcc.h **** #ifndef   __UNALIGNED_UINT32        /* deprecated */
  71:Generated_Source\PSoC6\pdl\cmsis/include/cmsis_gcc.h ****   #pragma GCC diagnostic push
  72:Generated_Source\PSoC6\pdl\cmsis/include/cmsis_gcc.h ****   #pragma GCC diagnostic ignored "-Wpacked"
  73:Generated_Source\PSoC6\pdl\cmsis/include/cmsis_gcc.h ****   #pragma GCC diagnostic ignored "-Wattributes"
  74:Generated_Source\PSoC6\pdl\cmsis/include/cmsis_gcc.h ****   struct __attribute__((packed)) T_UINT32 { uint32_t v; };
  75:Generated_Source\PSoC6\pdl\cmsis/include/cmsis_gcc.h ****   #pragma GCC diagnostic pop
  76:Generated_Source\PSoC6\pdl\cmsis/include/cmsis_gcc.h ****   #define __UNALIGNED_UINT32(x)                  (((struct T_UINT32 *)(x))->v)
  77:Generated_Source\PSoC6\pdl\cmsis/include/cmsis_gcc.h **** #endif
  78:Generated_Source\PSoC6\pdl\cmsis/include/cmsis_gcc.h **** #ifndef   __UNALIGNED_UINT16_WRITE
  79:Generated_Source\PSoC6\pdl\cmsis/include/cmsis_gcc.h ****   #pragma GCC diagnostic push
  80:Generated_Source\PSoC6\pdl\cmsis/include/cmsis_gcc.h ****   #pragma GCC diagnostic ignored "-Wpacked"
  81:Generated_Source\PSoC6\pdl\cmsis/include/cmsis_gcc.h ****   #pragma GCC diagnostic ignored "-Wattributes"
  82:Generated_Source\PSoC6\pdl\cmsis/include/cmsis_gcc.h ****   __PACKED_STRUCT T_UINT16_WRITE { uint16_t v; };
  83:Generated_Source\PSoC6\pdl\cmsis/include/cmsis_gcc.h ****   #pragma GCC diagnostic pop
  84:Generated_Source\PSoC6\pdl\cmsis/include/cmsis_gcc.h ****   #define __UNALIGNED_UINT16_WRITE(addr, val)    (void)((((struct T_UINT16_WRITE *)(void *)(addr))-
  85:Generated_Source\PSoC6\pdl\cmsis/include/cmsis_gcc.h **** #endif
  86:Generated_Source\PSoC6\pdl\cmsis/include/cmsis_gcc.h **** #ifndef   __UNALIGNED_UINT16_READ
  87:Generated_Source\PSoC6\pdl\cmsis/include/cmsis_gcc.h ****   #pragma GCC diagnostic push
  88:Generated_Source\PSoC6\pdl\cmsis/include/cmsis_gcc.h ****   #pragma GCC diagnostic ignored "-Wpacked"
  89:Generated_Source\PSoC6\pdl\cmsis/include/cmsis_gcc.h ****   #pragma GCC diagnostic ignored "-Wattributes"
ARM GAS  C:\Users\stijn\AppData\Local\Temp\ccLepBqo.s 			page 21


  90:Generated_Source\PSoC6\pdl\cmsis/include/cmsis_gcc.h ****   __PACKED_STRUCT T_UINT16_READ { uint16_t v; };
  91:Generated_Source\PSoC6\pdl\cmsis/include/cmsis_gcc.h ****   #pragma GCC diagnostic pop
  92:Generated_Source\PSoC6\pdl\cmsis/include/cmsis_gcc.h ****   #define __UNALIGNED_UINT16_READ(addr)          (((const struct T_UINT16_READ *)(const void *)(add
  93:Generated_Source\PSoC6\pdl\cmsis/include/cmsis_gcc.h **** #endif
  94:Generated_Source\PSoC6\pdl\cmsis/include/cmsis_gcc.h **** #ifndef   __UNALIGNED_UINT32_WRITE
  95:Generated_Source\PSoC6\pdl\cmsis/include/cmsis_gcc.h ****   #pragma GCC diagnostic push
  96:Generated_Source\PSoC6\pdl\cmsis/include/cmsis_gcc.h ****   #pragma GCC diagnostic ignored "-Wpacked"
  97:Generated_Source\PSoC6\pdl\cmsis/include/cmsis_gcc.h ****   #pragma GCC diagnostic ignored "-Wattributes"
  98:Generated_Source\PSoC6\pdl\cmsis/include/cmsis_gcc.h ****   __PACKED_STRUCT T_UINT32_WRITE { uint32_t v; };
  99:Generated_Source\PSoC6\pdl\cmsis/include/cmsis_gcc.h ****   #pragma GCC diagnostic pop
 100:Generated_Source\PSoC6\pdl\cmsis/include/cmsis_gcc.h ****   #define __UNALIGNED_UINT32_WRITE(addr, val)    (void)((((struct T_UINT32_WRITE *)(void *)(addr))-
 101:Generated_Source\PSoC6\pdl\cmsis/include/cmsis_gcc.h **** #endif
 102:Generated_Source\PSoC6\pdl\cmsis/include/cmsis_gcc.h **** #ifndef   __UNALIGNED_UINT32_READ
 103:Generated_Source\PSoC6\pdl\cmsis/include/cmsis_gcc.h ****   #pragma GCC diagnostic push
 104:Generated_Source\PSoC6\pdl\cmsis/include/cmsis_gcc.h ****   #pragma GCC diagnostic ignored "-Wpacked"
 105:Generated_Source\PSoC6\pdl\cmsis/include/cmsis_gcc.h ****   #pragma GCC diagnostic ignored "-Wattributes"
 106:Generated_Source\PSoC6\pdl\cmsis/include/cmsis_gcc.h ****   __PACKED_STRUCT T_UINT32_READ { uint32_t v; };
 107:Generated_Source\PSoC6\pdl\cmsis/include/cmsis_gcc.h ****   #pragma GCC diagnostic pop
 108:Generated_Source\PSoC6\pdl\cmsis/include/cmsis_gcc.h ****   #define __UNALIGNED_UINT32_READ(addr)          (((const struct T_UINT32_READ *)(const void *)(add
 109:Generated_Source\PSoC6\pdl\cmsis/include/cmsis_gcc.h **** #endif
 110:Generated_Source\PSoC6\pdl\cmsis/include/cmsis_gcc.h **** #ifndef   __ALIGNED
 111:Generated_Source\PSoC6\pdl\cmsis/include/cmsis_gcc.h ****   #define __ALIGNED(x)                           __attribute__((aligned(x)))
 112:Generated_Source\PSoC6\pdl\cmsis/include/cmsis_gcc.h **** #endif
 113:Generated_Source\PSoC6\pdl\cmsis/include/cmsis_gcc.h **** #ifndef   __RESTRICT
 114:Generated_Source\PSoC6\pdl\cmsis/include/cmsis_gcc.h ****   #define __RESTRICT                             __restrict
 115:Generated_Source\PSoC6\pdl\cmsis/include/cmsis_gcc.h **** #endif
 116:Generated_Source\PSoC6\pdl\cmsis/include/cmsis_gcc.h **** 
 117:Generated_Source\PSoC6\pdl\cmsis/include/cmsis_gcc.h **** 
 118:Generated_Source\PSoC6\pdl\cmsis/include/cmsis_gcc.h **** /* ###########################  Core Function Access  ########################### */
 119:Generated_Source\PSoC6\pdl\cmsis/include/cmsis_gcc.h **** /** \ingroup  CMSIS_Core_FunctionInterface
 120:Generated_Source\PSoC6\pdl\cmsis/include/cmsis_gcc.h ****     \defgroup CMSIS_Core_RegAccFunctions CMSIS Core Register Access Functions
 121:Generated_Source\PSoC6\pdl\cmsis/include/cmsis_gcc.h ****   @{
 122:Generated_Source\PSoC6\pdl\cmsis/include/cmsis_gcc.h ****  */
 123:Generated_Source\PSoC6\pdl\cmsis/include/cmsis_gcc.h **** 
 124:Generated_Source\PSoC6\pdl\cmsis/include/cmsis_gcc.h **** /**
 125:Generated_Source\PSoC6\pdl\cmsis/include/cmsis_gcc.h ****   \brief   Enable IRQ Interrupts
 126:Generated_Source\PSoC6\pdl\cmsis/include/cmsis_gcc.h ****   \details Enables IRQ interrupts by clearing the I-bit in the CPSR.
 127:Generated_Source\PSoC6\pdl\cmsis/include/cmsis_gcc.h ****            Can only be executed in Privileged modes.
 128:Generated_Source\PSoC6\pdl\cmsis/include/cmsis_gcc.h ****  */
 129:Generated_Source\PSoC6\pdl\cmsis/include/cmsis_gcc.h **** __STATIC_FORCEINLINE void __enable_irq(void)
 130:Generated_Source\PSoC6\pdl\cmsis/include/cmsis_gcc.h **** {
 131:Generated_Source\PSoC6\pdl\cmsis/include/cmsis_gcc.h ****   __ASM volatile ("cpsie i" : : : "memory");
 132:Generated_Source\PSoC6\pdl\cmsis/include/cmsis_gcc.h **** }
 133:Generated_Source\PSoC6\pdl\cmsis/include/cmsis_gcc.h **** 
 134:Generated_Source\PSoC6\pdl\cmsis/include/cmsis_gcc.h **** 
 135:Generated_Source\PSoC6\pdl\cmsis/include/cmsis_gcc.h **** /**
 136:Generated_Source\PSoC6\pdl\cmsis/include/cmsis_gcc.h ****   \brief   Disable IRQ Interrupts
 137:Generated_Source\PSoC6\pdl\cmsis/include/cmsis_gcc.h ****   \details Disables IRQ interrupts by setting the I-bit in the CPSR.
 138:Generated_Source\PSoC6\pdl\cmsis/include/cmsis_gcc.h ****            Can only be executed in Privileged modes.
 139:Generated_Source\PSoC6\pdl\cmsis/include/cmsis_gcc.h ****  */
 140:Generated_Source\PSoC6\pdl\cmsis/include/cmsis_gcc.h **** __STATIC_FORCEINLINE void __disable_irq(void)
 141:Generated_Source\PSoC6\pdl\cmsis/include/cmsis_gcc.h **** {
 142:Generated_Source\PSoC6\pdl\cmsis/include/cmsis_gcc.h ****   __ASM volatile ("cpsid i" : : : "memory");
 143:Generated_Source\PSoC6\pdl\cmsis/include/cmsis_gcc.h **** }
 144:Generated_Source\PSoC6\pdl\cmsis/include/cmsis_gcc.h **** 
 145:Generated_Source\PSoC6\pdl\cmsis/include/cmsis_gcc.h **** 
 146:Generated_Source\PSoC6\pdl\cmsis/include/cmsis_gcc.h **** /**
ARM GAS  C:\Users\stijn\AppData\Local\Temp\ccLepBqo.s 			page 22


 147:Generated_Source\PSoC6\pdl\cmsis/include/cmsis_gcc.h ****   \brief   Get Control Register
 148:Generated_Source\PSoC6\pdl\cmsis/include/cmsis_gcc.h ****   \details Returns the content of the Control Register.
 149:Generated_Source\PSoC6\pdl\cmsis/include/cmsis_gcc.h ****   \return               Control Register value
 150:Generated_Source\PSoC6\pdl\cmsis/include/cmsis_gcc.h ****  */
 151:Generated_Source\PSoC6\pdl\cmsis/include/cmsis_gcc.h **** __STATIC_FORCEINLINE uint32_t __get_CONTROL(void)
 152:Generated_Source\PSoC6\pdl\cmsis/include/cmsis_gcc.h **** {
 153:Generated_Source\PSoC6\pdl\cmsis/include/cmsis_gcc.h ****   uint32_t result;
 154:Generated_Source\PSoC6\pdl\cmsis/include/cmsis_gcc.h **** 
 155:Generated_Source\PSoC6\pdl\cmsis/include/cmsis_gcc.h ****   __ASM volatile ("MRS %0, control" : "=r" (result) );
 156:Generated_Source\PSoC6\pdl\cmsis/include/cmsis_gcc.h ****   return(result);
 157:Generated_Source\PSoC6\pdl\cmsis/include/cmsis_gcc.h **** }
 158:Generated_Source\PSoC6\pdl\cmsis/include/cmsis_gcc.h **** 
 159:Generated_Source\PSoC6\pdl\cmsis/include/cmsis_gcc.h **** 
 160:Generated_Source\PSoC6\pdl\cmsis/include/cmsis_gcc.h **** #if (defined (__ARM_FEATURE_CMSE ) && (__ARM_FEATURE_CMSE == 3))
 161:Generated_Source\PSoC6\pdl\cmsis/include/cmsis_gcc.h **** /**
 162:Generated_Source\PSoC6\pdl\cmsis/include/cmsis_gcc.h ****   \brief   Get Control Register (non-secure)
 163:Generated_Source\PSoC6\pdl\cmsis/include/cmsis_gcc.h ****   \details Returns the content of the non-secure Control Register when in secure mode.
 164:Generated_Source\PSoC6\pdl\cmsis/include/cmsis_gcc.h ****   \return               non-secure Control Register value
 165:Generated_Source\PSoC6\pdl\cmsis/include/cmsis_gcc.h ****  */
 166:Generated_Source\PSoC6\pdl\cmsis/include/cmsis_gcc.h **** __STATIC_FORCEINLINE uint32_t __TZ_get_CONTROL_NS(void)
 167:Generated_Source\PSoC6\pdl\cmsis/include/cmsis_gcc.h **** {
 168:Generated_Source\PSoC6\pdl\cmsis/include/cmsis_gcc.h ****   uint32_t result;
 169:Generated_Source\PSoC6\pdl\cmsis/include/cmsis_gcc.h **** 
 170:Generated_Source\PSoC6\pdl\cmsis/include/cmsis_gcc.h ****   __ASM volatile ("MRS %0, control_ns" : "=r" (result) );
 171:Generated_Source\PSoC6\pdl\cmsis/include/cmsis_gcc.h ****   return(result);
 172:Generated_Source\PSoC6\pdl\cmsis/include/cmsis_gcc.h **** }
 173:Generated_Source\PSoC6\pdl\cmsis/include/cmsis_gcc.h **** #endif
 174:Generated_Source\PSoC6\pdl\cmsis/include/cmsis_gcc.h **** 
 175:Generated_Source\PSoC6\pdl\cmsis/include/cmsis_gcc.h **** 
 176:Generated_Source\PSoC6\pdl\cmsis/include/cmsis_gcc.h **** /**
 177:Generated_Source\PSoC6\pdl\cmsis/include/cmsis_gcc.h ****   \brief   Set Control Register
 178:Generated_Source\PSoC6\pdl\cmsis/include/cmsis_gcc.h ****   \details Writes the given value to the Control Register.
 179:Generated_Source\PSoC6\pdl\cmsis/include/cmsis_gcc.h ****   \param [in]    control  Control Register value to set
 180:Generated_Source\PSoC6\pdl\cmsis/include/cmsis_gcc.h ****  */
 181:Generated_Source\PSoC6\pdl\cmsis/include/cmsis_gcc.h **** __STATIC_FORCEINLINE void __set_CONTROL(uint32_t control)
 182:Generated_Source\PSoC6\pdl\cmsis/include/cmsis_gcc.h **** {
 183:Generated_Source\PSoC6\pdl\cmsis/include/cmsis_gcc.h ****   __ASM volatile ("MSR control, %0" : : "r" (control) : "memory");
 184:Generated_Source\PSoC6\pdl\cmsis/include/cmsis_gcc.h **** }
 185:Generated_Source\PSoC6\pdl\cmsis/include/cmsis_gcc.h **** 
 186:Generated_Source\PSoC6\pdl\cmsis/include/cmsis_gcc.h **** 
 187:Generated_Source\PSoC6\pdl\cmsis/include/cmsis_gcc.h **** #if (defined (__ARM_FEATURE_CMSE ) && (__ARM_FEATURE_CMSE == 3))
 188:Generated_Source\PSoC6\pdl\cmsis/include/cmsis_gcc.h **** /**
 189:Generated_Source\PSoC6\pdl\cmsis/include/cmsis_gcc.h ****   \brief   Set Control Register (non-secure)
 190:Generated_Source\PSoC6\pdl\cmsis/include/cmsis_gcc.h ****   \details Writes the given value to the non-secure Control Register when in secure state.
 191:Generated_Source\PSoC6\pdl\cmsis/include/cmsis_gcc.h ****   \param [in]    control  Control Register value to set
 192:Generated_Source\PSoC6\pdl\cmsis/include/cmsis_gcc.h ****  */
 193:Generated_Source\PSoC6\pdl\cmsis/include/cmsis_gcc.h **** __STATIC_FORCEINLINE void __TZ_set_CONTROL_NS(uint32_t control)
 194:Generated_Source\PSoC6\pdl\cmsis/include/cmsis_gcc.h **** {
 195:Generated_Source\PSoC6\pdl\cmsis/include/cmsis_gcc.h ****   __ASM volatile ("MSR control_ns, %0" : : "r" (control) : "memory");
 196:Generated_Source\PSoC6\pdl\cmsis/include/cmsis_gcc.h **** }
 197:Generated_Source\PSoC6\pdl\cmsis/include/cmsis_gcc.h **** #endif
 198:Generated_Source\PSoC6\pdl\cmsis/include/cmsis_gcc.h **** 
 199:Generated_Source\PSoC6\pdl\cmsis/include/cmsis_gcc.h **** 
 200:Generated_Source\PSoC6\pdl\cmsis/include/cmsis_gcc.h **** /**
 201:Generated_Source\PSoC6\pdl\cmsis/include/cmsis_gcc.h ****   \brief   Get IPSR Register
 202:Generated_Source\PSoC6\pdl\cmsis/include/cmsis_gcc.h ****   \details Returns the content of the IPSR Register.
 203:Generated_Source\PSoC6\pdl\cmsis/include/cmsis_gcc.h ****   \return               IPSR Register value
ARM GAS  C:\Users\stijn\AppData\Local\Temp\ccLepBqo.s 			page 23


 204:Generated_Source\PSoC6\pdl\cmsis/include/cmsis_gcc.h ****  */
 205:Generated_Source\PSoC6\pdl\cmsis/include/cmsis_gcc.h **** __STATIC_FORCEINLINE uint32_t __get_IPSR(void)
 206:Generated_Source\PSoC6\pdl\cmsis/include/cmsis_gcc.h **** {
 207:Generated_Source\PSoC6\pdl\cmsis/include/cmsis_gcc.h ****   uint32_t result;
 208:Generated_Source\PSoC6\pdl\cmsis/include/cmsis_gcc.h **** 
 209:Generated_Source\PSoC6\pdl\cmsis/include/cmsis_gcc.h ****   __ASM volatile ("MRS %0, ipsr" : "=r" (result) );
 210:Generated_Source\PSoC6\pdl\cmsis/include/cmsis_gcc.h ****   return(result);
 211:Generated_Source\PSoC6\pdl\cmsis/include/cmsis_gcc.h **** }
 212:Generated_Source\PSoC6\pdl\cmsis/include/cmsis_gcc.h **** 
 213:Generated_Source\PSoC6\pdl\cmsis/include/cmsis_gcc.h **** 
 214:Generated_Source\PSoC6\pdl\cmsis/include/cmsis_gcc.h **** /**
 215:Generated_Source\PSoC6\pdl\cmsis/include/cmsis_gcc.h ****   \brief   Get APSR Register
 216:Generated_Source\PSoC6\pdl\cmsis/include/cmsis_gcc.h ****   \details Returns the content of the APSR Register.
 217:Generated_Source\PSoC6\pdl\cmsis/include/cmsis_gcc.h ****   \return               APSR Register value
 218:Generated_Source\PSoC6\pdl\cmsis/include/cmsis_gcc.h ****  */
 219:Generated_Source\PSoC6\pdl\cmsis/include/cmsis_gcc.h **** __STATIC_FORCEINLINE uint32_t __get_APSR(void)
 220:Generated_Source\PSoC6\pdl\cmsis/include/cmsis_gcc.h **** {
 221:Generated_Source\PSoC6\pdl\cmsis/include/cmsis_gcc.h ****   uint32_t result;
 222:Generated_Source\PSoC6\pdl\cmsis/include/cmsis_gcc.h **** 
 223:Generated_Source\PSoC6\pdl\cmsis/include/cmsis_gcc.h ****   __ASM volatile ("MRS %0, apsr" : "=r" (result) );
 224:Generated_Source\PSoC6\pdl\cmsis/include/cmsis_gcc.h ****   return(result);
 225:Generated_Source\PSoC6\pdl\cmsis/include/cmsis_gcc.h **** }
 226:Generated_Source\PSoC6\pdl\cmsis/include/cmsis_gcc.h **** 
 227:Generated_Source\PSoC6\pdl\cmsis/include/cmsis_gcc.h **** 
 228:Generated_Source\PSoC6\pdl\cmsis/include/cmsis_gcc.h **** /**
 229:Generated_Source\PSoC6\pdl\cmsis/include/cmsis_gcc.h ****   \brief   Get xPSR Register
 230:Generated_Source\PSoC6\pdl\cmsis/include/cmsis_gcc.h ****   \details Returns the content of the xPSR Register.
 231:Generated_Source\PSoC6\pdl\cmsis/include/cmsis_gcc.h ****   \return               xPSR Register value
 232:Generated_Source\PSoC6\pdl\cmsis/include/cmsis_gcc.h ****  */
 233:Generated_Source\PSoC6\pdl\cmsis/include/cmsis_gcc.h **** __STATIC_FORCEINLINE uint32_t __get_xPSR(void)
 234:Generated_Source\PSoC6\pdl\cmsis/include/cmsis_gcc.h **** {
 235:Generated_Source\PSoC6\pdl\cmsis/include/cmsis_gcc.h ****   uint32_t result;
 236:Generated_Source\PSoC6\pdl\cmsis/include/cmsis_gcc.h **** 
 237:Generated_Source\PSoC6\pdl\cmsis/include/cmsis_gcc.h ****   __ASM volatile ("MRS %0, xpsr" : "=r" (result) );
 238:Generated_Source\PSoC6\pdl\cmsis/include/cmsis_gcc.h ****   return(result);
 239:Generated_Source\PSoC6\pdl\cmsis/include/cmsis_gcc.h **** }
 240:Generated_Source\PSoC6\pdl\cmsis/include/cmsis_gcc.h **** 
 241:Generated_Source\PSoC6\pdl\cmsis/include/cmsis_gcc.h **** 
 242:Generated_Source\PSoC6\pdl\cmsis/include/cmsis_gcc.h **** /**
 243:Generated_Source\PSoC6\pdl\cmsis/include/cmsis_gcc.h ****   \brief   Get Process Stack Pointer
 244:Generated_Source\PSoC6\pdl\cmsis/include/cmsis_gcc.h ****   \details Returns the current value of the Process Stack Pointer (PSP).
 245:Generated_Source\PSoC6\pdl\cmsis/include/cmsis_gcc.h ****   \return               PSP Register value
 246:Generated_Source\PSoC6\pdl\cmsis/include/cmsis_gcc.h ****  */
 247:Generated_Source\PSoC6\pdl\cmsis/include/cmsis_gcc.h **** __STATIC_FORCEINLINE uint32_t __get_PSP(void)
 248:Generated_Source\PSoC6\pdl\cmsis/include/cmsis_gcc.h **** {
 249:Generated_Source\PSoC6\pdl\cmsis/include/cmsis_gcc.h ****   register uint32_t result;
 250:Generated_Source\PSoC6\pdl\cmsis/include/cmsis_gcc.h **** 
 251:Generated_Source\PSoC6\pdl\cmsis/include/cmsis_gcc.h ****   __ASM volatile ("MRS %0, psp"  : "=r" (result) );
 252:Generated_Source\PSoC6\pdl\cmsis/include/cmsis_gcc.h ****   return(result);
 253:Generated_Source\PSoC6\pdl\cmsis/include/cmsis_gcc.h **** }
 254:Generated_Source\PSoC6\pdl\cmsis/include/cmsis_gcc.h **** 
 255:Generated_Source\PSoC6\pdl\cmsis/include/cmsis_gcc.h **** 
 256:Generated_Source\PSoC6\pdl\cmsis/include/cmsis_gcc.h **** #if (defined (__ARM_FEATURE_CMSE ) && (__ARM_FEATURE_CMSE == 3))
 257:Generated_Source\PSoC6\pdl\cmsis/include/cmsis_gcc.h **** /**
 258:Generated_Source\PSoC6\pdl\cmsis/include/cmsis_gcc.h ****   \brief   Get Process Stack Pointer (non-secure)
 259:Generated_Source\PSoC6\pdl\cmsis/include/cmsis_gcc.h ****   \details Returns the current value of the non-secure Process Stack Pointer (PSP) when in secure s
 260:Generated_Source\PSoC6\pdl\cmsis/include/cmsis_gcc.h ****   \return               PSP Register value
ARM GAS  C:\Users\stijn\AppData\Local\Temp\ccLepBqo.s 			page 24


 261:Generated_Source\PSoC6\pdl\cmsis/include/cmsis_gcc.h ****  */
 262:Generated_Source\PSoC6\pdl\cmsis/include/cmsis_gcc.h **** __STATIC_FORCEINLINE uint32_t __TZ_get_PSP_NS(void)
 263:Generated_Source\PSoC6\pdl\cmsis/include/cmsis_gcc.h **** {
 264:Generated_Source\PSoC6\pdl\cmsis/include/cmsis_gcc.h ****   register uint32_t result;
 265:Generated_Source\PSoC6\pdl\cmsis/include/cmsis_gcc.h **** 
 266:Generated_Source\PSoC6\pdl\cmsis/include/cmsis_gcc.h ****   __ASM volatile ("MRS %0, psp_ns"  : "=r" (result) );
 267:Generated_Source\PSoC6\pdl\cmsis/include/cmsis_gcc.h ****   return(result);
 268:Generated_Source\PSoC6\pdl\cmsis/include/cmsis_gcc.h **** }
 269:Generated_Source\PSoC6\pdl\cmsis/include/cmsis_gcc.h **** #endif
 270:Generated_Source\PSoC6\pdl\cmsis/include/cmsis_gcc.h **** 
 271:Generated_Source\PSoC6\pdl\cmsis/include/cmsis_gcc.h **** 
 272:Generated_Source\PSoC6\pdl\cmsis/include/cmsis_gcc.h **** /**
 273:Generated_Source\PSoC6\pdl\cmsis/include/cmsis_gcc.h ****   \brief   Set Process Stack Pointer
 274:Generated_Source\PSoC6\pdl\cmsis/include/cmsis_gcc.h ****   \details Assigns the given value to the Process Stack Pointer (PSP).
 275:Generated_Source\PSoC6\pdl\cmsis/include/cmsis_gcc.h ****   \param [in]    topOfProcStack  Process Stack Pointer value to set
 276:Generated_Source\PSoC6\pdl\cmsis/include/cmsis_gcc.h ****  */
 277:Generated_Source\PSoC6\pdl\cmsis/include/cmsis_gcc.h **** __STATIC_FORCEINLINE void __set_PSP(uint32_t topOfProcStack)
 278:Generated_Source\PSoC6\pdl\cmsis/include/cmsis_gcc.h **** {
 279:Generated_Source\PSoC6\pdl\cmsis/include/cmsis_gcc.h ****   __ASM volatile ("MSR psp, %0" : : "r" (topOfProcStack) : );
 280:Generated_Source\PSoC6\pdl\cmsis/include/cmsis_gcc.h **** }
 281:Generated_Source\PSoC6\pdl\cmsis/include/cmsis_gcc.h **** 
 282:Generated_Source\PSoC6\pdl\cmsis/include/cmsis_gcc.h **** 
 283:Generated_Source\PSoC6\pdl\cmsis/include/cmsis_gcc.h **** #if (defined (__ARM_FEATURE_CMSE ) && (__ARM_FEATURE_CMSE == 3))
 284:Generated_Source\PSoC6\pdl\cmsis/include/cmsis_gcc.h **** /**
 285:Generated_Source\PSoC6\pdl\cmsis/include/cmsis_gcc.h ****   \brief   Set Process Stack Pointer (non-secure)
 286:Generated_Source\PSoC6\pdl\cmsis/include/cmsis_gcc.h ****   \details Assigns the given value to the non-secure Process Stack Pointer (PSP) when in secure sta
 287:Generated_Source\PSoC6\pdl\cmsis/include/cmsis_gcc.h ****   \param [in]    topOfProcStack  Process Stack Pointer value to set
 288:Generated_Source\PSoC6\pdl\cmsis/include/cmsis_gcc.h ****  */
 289:Generated_Source\PSoC6\pdl\cmsis/include/cmsis_gcc.h **** __STATIC_FORCEINLINE void __TZ_set_PSP_NS(uint32_t topOfProcStack)
 290:Generated_Source\PSoC6\pdl\cmsis/include/cmsis_gcc.h **** {
 291:Generated_Source\PSoC6\pdl\cmsis/include/cmsis_gcc.h ****   __ASM volatile ("MSR psp_ns, %0" : : "r" (topOfProcStack) : );
 292:Generated_Source\PSoC6\pdl\cmsis/include/cmsis_gcc.h **** }
 293:Generated_Source\PSoC6\pdl\cmsis/include/cmsis_gcc.h **** #endif
 294:Generated_Source\PSoC6\pdl\cmsis/include/cmsis_gcc.h **** 
 295:Generated_Source\PSoC6\pdl\cmsis/include/cmsis_gcc.h **** 
 296:Generated_Source\PSoC6\pdl\cmsis/include/cmsis_gcc.h **** /**
 297:Generated_Source\PSoC6\pdl\cmsis/include/cmsis_gcc.h ****   \brief   Get Main Stack Pointer
 298:Generated_Source\PSoC6\pdl\cmsis/include/cmsis_gcc.h ****   \details Returns the current value of the Main Stack Pointer (MSP).
 299:Generated_Source\PSoC6\pdl\cmsis/include/cmsis_gcc.h ****   \return               MSP Register value
 300:Generated_Source\PSoC6\pdl\cmsis/include/cmsis_gcc.h ****  */
 301:Generated_Source\PSoC6\pdl\cmsis/include/cmsis_gcc.h **** __STATIC_FORCEINLINE uint32_t __get_MSP(void)
 302:Generated_Source\PSoC6\pdl\cmsis/include/cmsis_gcc.h **** {
 303:Generated_Source\PSoC6\pdl\cmsis/include/cmsis_gcc.h ****   register uint32_t result;
 304:Generated_Source\PSoC6\pdl\cmsis/include/cmsis_gcc.h **** 
 305:Generated_Source\PSoC6\pdl\cmsis/include/cmsis_gcc.h ****   __ASM volatile ("MRS %0, msp" : "=r" (result) );
 306:Generated_Source\PSoC6\pdl\cmsis/include/cmsis_gcc.h ****   return(result);
 307:Generated_Source\PSoC6\pdl\cmsis/include/cmsis_gcc.h **** }
 308:Generated_Source\PSoC6\pdl\cmsis/include/cmsis_gcc.h **** 
 309:Generated_Source\PSoC6\pdl\cmsis/include/cmsis_gcc.h **** 
 310:Generated_Source\PSoC6\pdl\cmsis/include/cmsis_gcc.h **** #if (defined (__ARM_FEATURE_CMSE ) && (__ARM_FEATURE_CMSE == 3))
 311:Generated_Source\PSoC6\pdl\cmsis/include/cmsis_gcc.h **** /**
 312:Generated_Source\PSoC6\pdl\cmsis/include/cmsis_gcc.h ****   \brief   Get Main Stack Pointer (non-secure)
 313:Generated_Source\PSoC6\pdl\cmsis/include/cmsis_gcc.h ****   \details Returns the current value of the non-secure Main Stack Pointer (MSP) when in secure stat
 314:Generated_Source\PSoC6\pdl\cmsis/include/cmsis_gcc.h ****   \return               MSP Register value
 315:Generated_Source\PSoC6\pdl\cmsis/include/cmsis_gcc.h ****  */
 316:Generated_Source\PSoC6\pdl\cmsis/include/cmsis_gcc.h **** __STATIC_FORCEINLINE uint32_t __TZ_get_MSP_NS(void)
 317:Generated_Source\PSoC6\pdl\cmsis/include/cmsis_gcc.h **** {
ARM GAS  C:\Users\stijn\AppData\Local\Temp\ccLepBqo.s 			page 25


 318:Generated_Source\PSoC6\pdl\cmsis/include/cmsis_gcc.h ****   register uint32_t result;
 319:Generated_Source\PSoC6\pdl\cmsis/include/cmsis_gcc.h **** 
 320:Generated_Source\PSoC6\pdl\cmsis/include/cmsis_gcc.h ****   __ASM volatile ("MRS %0, msp_ns" : "=r" (result) );
 321:Generated_Source\PSoC6\pdl\cmsis/include/cmsis_gcc.h ****   return(result);
 322:Generated_Source\PSoC6\pdl\cmsis/include/cmsis_gcc.h **** }
 323:Generated_Source\PSoC6\pdl\cmsis/include/cmsis_gcc.h **** #endif
 324:Generated_Source\PSoC6\pdl\cmsis/include/cmsis_gcc.h **** 
 325:Generated_Source\PSoC6\pdl\cmsis/include/cmsis_gcc.h **** 
 326:Generated_Source\PSoC6\pdl\cmsis/include/cmsis_gcc.h **** /**
 327:Generated_Source\PSoC6\pdl\cmsis/include/cmsis_gcc.h ****   \brief   Set Main Stack Pointer
 328:Generated_Source\PSoC6\pdl\cmsis/include/cmsis_gcc.h ****   \details Assigns the given value to the Main Stack Pointer (MSP).
 329:Generated_Source\PSoC6\pdl\cmsis/include/cmsis_gcc.h ****   \param [in]    topOfMainStack  Main Stack Pointer value to set
 330:Generated_Source\PSoC6\pdl\cmsis/include/cmsis_gcc.h ****  */
 331:Generated_Source\PSoC6\pdl\cmsis/include/cmsis_gcc.h **** __STATIC_FORCEINLINE void __set_MSP(uint32_t topOfMainStack)
 332:Generated_Source\PSoC6\pdl\cmsis/include/cmsis_gcc.h **** {
 333:Generated_Source\PSoC6\pdl\cmsis/include/cmsis_gcc.h ****   __ASM volatile ("MSR msp, %0" : : "r" (topOfMainStack) : );
 334:Generated_Source\PSoC6\pdl\cmsis/include/cmsis_gcc.h **** }
 335:Generated_Source\PSoC6\pdl\cmsis/include/cmsis_gcc.h **** 
 336:Generated_Source\PSoC6\pdl\cmsis/include/cmsis_gcc.h **** 
 337:Generated_Source\PSoC6\pdl\cmsis/include/cmsis_gcc.h **** #if (defined (__ARM_FEATURE_CMSE ) && (__ARM_FEATURE_CMSE == 3))
 338:Generated_Source\PSoC6\pdl\cmsis/include/cmsis_gcc.h **** /**
 339:Generated_Source\PSoC6\pdl\cmsis/include/cmsis_gcc.h ****   \brief   Set Main Stack Pointer (non-secure)
 340:Generated_Source\PSoC6\pdl\cmsis/include/cmsis_gcc.h ****   \details Assigns the given value to the non-secure Main Stack Pointer (MSP) when in secure state.
 341:Generated_Source\PSoC6\pdl\cmsis/include/cmsis_gcc.h ****   \param [in]    topOfMainStack  Main Stack Pointer value to set
 342:Generated_Source\PSoC6\pdl\cmsis/include/cmsis_gcc.h ****  */
 343:Generated_Source\PSoC6\pdl\cmsis/include/cmsis_gcc.h **** __STATIC_FORCEINLINE void __TZ_set_MSP_NS(uint32_t topOfMainStack)
 344:Generated_Source\PSoC6\pdl\cmsis/include/cmsis_gcc.h **** {
 345:Generated_Source\PSoC6\pdl\cmsis/include/cmsis_gcc.h ****   __ASM volatile ("MSR msp_ns, %0" : : "r" (topOfMainStack) : );
 346:Generated_Source\PSoC6\pdl\cmsis/include/cmsis_gcc.h **** }
 347:Generated_Source\PSoC6\pdl\cmsis/include/cmsis_gcc.h **** #endif
 348:Generated_Source\PSoC6\pdl\cmsis/include/cmsis_gcc.h **** 
 349:Generated_Source\PSoC6\pdl\cmsis/include/cmsis_gcc.h **** 
 350:Generated_Source\PSoC6\pdl\cmsis/include/cmsis_gcc.h **** #if (defined (__ARM_FEATURE_CMSE ) && (__ARM_FEATURE_CMSE == 3))
 351:Generated_Source\PSoC6\pdl\cmsis/include/cmsis_gcc.h **** /**
 352:Generated_Source\PSoC6\pdl\cmsis/include/cmsis_gcc.h ****   \brief   Get Stack Pointer (non-secure)
 353:Generated_Source\PSoC6\pdl\cmsis/include/cmsis_gcc.h ****   \details Returns the current value of the non-secure Stack Pointer (SP) when in secure state.
 354:Generated_Source\PSoC6\pdl\cmsis/include/cmsis_gcc.h ****   \return               SP Register value
 355:Generated_Source\PSoC6\pdl\cmsis/include/cmsis_gcc.h ****  */
 356:Generated_Source\PSoC6\pdl\cmsis/include/cmsis_gcc.h **** __STATIC_FORCEINLINE uint32_t __TZ_get_SP_NS(void)
 357:Generated_Source\PSoC6\pdl\cmsis/include/cmsis_gcc.h **** {
 358:Generated_Source\PSoC6\pdl\cmsis/include/cmsis_gcc.h ****   register uint32_t result;
 359:Generated_Source\PSoC6\pdl\cmsis/include/cmsis_gcc.h **** 
 360:Generated_Source\PSoC6\pdl\cmsis/include/cmsis_gcc.h ****   __ASM volatile ("MRS %0, sp_ns" : "=r" (result) );
 361:Generated_Source\PSoC6\pdl\cmsis/include/cmsis_gcc.h ****   return(result);
 362:Generated_Source\PSoC6\pdl\cmsis/include/cmsis_gcc.h **** }
 363:Generated_Source\PSoC6\pdl\cmsis/include/cmsis_gcc.h **** 
 364:Generated_Source\PSoC6\pdl\cmsis/include/cmsis_gcc.h **** 
 365:Generated_Source\PSoC6\pdl\cmsis/include/cmsis_gcc.h **** /**
 366:Generated_Source\PSoC6\pdl\cmsis/include/cmsis_gcc.h ****   \brief   Set Stack Pointer (non-secure)
 367:Generated_Source\PSoC6\pdl\cmsis/include/cmsis_gcc.h ****   \details Assigns the given value to the non-secure Stack Pointer (SP) when in secure state.
 368:Generated_Source\PSoC6\pdl\cmsis/include/cmsis_gcc.h ****   \param [in]    topOfStack  Stack Pointer value to set
 369:Generated_Source\PSoC6\pdl\cmsis/include/cmsis_gcc.h ****  */
 370:Generated_Source\PSoC6\pdl\cmsis/include/cmsis_gcc.h **** __STATIC_FORCEINLINE void __TZ_set_SP_NS(uint32_t topOfStack)
 371:Generated_Source\PSoC6\pdl\cmsis/include/cmsis_gcc.h **** {
 372:Generated_Source\PSoC6\pdl\cmsis/include/cmsis_gcc.h ****   __ASM volatile ("MSR sp_ns, %0" : : "r" (topOfStack) : );
 373:Generated_Source\PSoC6\pdl\cmsis/include/cmsis_gcc.h **** }
 374:Generated_Source\PSoC6\pdl\cmsis/include/cmsis_gcc.h **** #endif
ARM GAS  C:\Users\stijn\AppData\Local\Temp\ccLepBqo.s 			page 26


 375:Generated_Source\PSoC6\pdl\cmsis/include/cmsis_gcc.h **** 
 376:Generated_Source\PSoC6\pdl\cmsis/include/cmsis_gcc.h **** 
 377:Generated_Source\PSoC6\pdl\cmsis/include/cmsis_gcc.h **** /**
 378:Generated_Source\PSoC6\pdl\cmsis/include/cmsis_gcc.h ****   \brief   Get Priority Mask
 379:Generated_Source\PSoC6\pdl\cmsis/include/cmsis_gcc.h ****   \details Returns the current state of the priority mask bit from the Priority Mask Register.
 380:Generated_Source\PSoC6\pdl\cmsis/include/cmsis_gcc.h ****   \return               Priority Mask value
 381:Generated_Source\PSoC6\pdl\cmsis/include/cmsis_gcc.h ****  */
 382:Generated_Source\PSoC6\pdl\cmsis/include/cmsis_gcc.h **** __STATIC_FORCEINLINE uint32_t __get_PRIMASK(void)
 383:Generated_Source\PSoC6\pdl\cmsis/include/cmsis_gcc.h **** {
 384:Generated_Source\PSoC6\pdl\cmsis/include/cmsis_gcc.h ****   uint32_t result;
 385:Generated_Source\PSoC6\pdl\cmsis/include/cmsis_gcc.h **** 
 386:Generated_Source\PSoC6\pdl\cmsis/include/cmsis_gcc.h ****   __ASM volatile ("MRS %0, primask" : "=r" (result) :: "memory");
 387:Generated_Source\PSoC6\pdl\cmsis/include/cmsis_gcc.h ****   return(result);
 388:Generated_Source\PSoC6\pdl\cmsis/include/cmsis_gcc.h **** }
 389:Generated_Source\PSoC6\pdl\cmsis/include/cmsis_gcc.h **** 
 390:Generated_Source\PSoC6\pdl\cmsis/include/cmsis_gcc.h **** 
 391:Generated_Source\PSoC6\pdl\cmsis/include/cmsis_gcc.h **** #if (defined (__ARM_FEATURE_CMSE ) && (__ARM_FEATURE_CMSE == 3))
 392:Generated_Source\PSoC6\pdl\cmsis/include/cmsis_gcc.h **** /**
 393:Generated_Source\PSoC6\pdl\cmsis/include/cmsis_gcc.h ****   \brief   Get Priority Mask (non-secure)
 394:Generated_Source\PSoC6\pdl\cmsis/include/cmsis_gcc.h ****   \details Returns the current state of the non-secure priority mask bit from the Priority Mask Reg
 395:Generated_Source\PSoC6\pdl\cmsis/include/cmsis_gcc.h ****   \return               Priority Mask value
 396:Generated_Source\PSoC6\pdl\cmsis/include/cmsis_gcc.h ****  */
 397:Generated_Source\PSoC6\pdl\cmsis/include/cmsis_gcc.h **** __STATIC_FORCEINLINE uint32_t __TZ_get_PRIMASK_NS(void)
 398:Generated_Source\PSoC6\pdl\cmsis/include/cmsis_gcc.h **** {
 399:Generated_Source\PSoC6\pdl\cmsis/include/cmsis_gcc.h ****   uint32_t result;
 400:Generated_Source\PSoC6\pdl\cmsis/include/cmsis_gcc.h **** 
 401:Generated_Source\PSoC6\pdl\cmsis/include/cmsis_gcc.h ****   __ASM volatile ("MRS %0, primask_ns" : "=r" (result) :: "memory");
 402:Generated_Source\PSoC6\pdl\cmsis/include/cmsis_gcc.h ****   return(result);
 403:Generated_Source\PSoC6\pdl\cmsis/include/cmsis_gcc.h **** }
 404:Generated_Source\PSoC6\pdl\cmsis/include/cmsis_gcc.h **** #endif
 405:Generated_Source\PSoC6\pdl\cmsis/include/cmsis_gcc.h **** 
 406:Generated_Source\PSoC6\pdl\cmsis/include/cmsis_gcc.h **** 
 407:Generated_Source\PSoC6\pdl\cmsis/include/cmsis_gcc.h **** /**
 408:Generated_Source\PSoC6\pdl\cmsis/include/cmsis_gcc.h ****   \brief   Set Priority Mask
 409:Generated_Source\PSoC6\pdl\cmsis/include/cmsis_gcc.h ****   \details Assigns the given value to the Priority Mask Register.
 410:Generated_Source\PSoC6\pdl\cmsis/include/cmsis_gcc.h ****   \param [in]    priMask  Priority Mask
 411:Generated_Source\PSoC6\pdl\cmsis/include/cmsis_gcc.h ****  */
 412:Generated_Source\PSoC6\pdl\cmsis/include/cmsis_gcc.h **** __STATIC_FORCEINLINE void __set_PRIMASK(uint32_t priMask)
 413:Generated_Source\PSoC6\pdl\cmsis/include/cmsis_gcc.h **** {
 414:Generated_Source\PSoC6\pdl\cmsis/include/cmsis_gcc.h ****   __ASM volatile ("MSR primask, %0" : : "r" (priMask) : "memory");
 415:Generated_Source\PSoC6\pdl\cmsis/include/cmsis_gcc.h **** }
 416:Generated_Source\PSoC6\pdl\cmsis/include/cmsis_gcc.h **** 
 417:Generated_Source\PSoC6\pdl\cmsis/include/cmsis_gcc.h **** 
 418:Generated_Source\PSoC6\pdl\cmsis/include/cmsis_gcc.h **** #if (defined (__ARM_FEATURE_CMSE ) && (__ARM_FEATURE_CMSE == 3))
 419:Generated_Source\PSoC6\pdl\cmsis/include/cmsis_gcc.h **** /**
 420:Generated_Source\PSoC6\pdl\cmsis/include/cmsis_gcc.h ****   \brief   Set Priority Mask (non-secure)
 421:Generated_Source\PSoC6\pdl\cmsis/include/cmsis_gcc.h ****   \details Assigns the given value to the non-secure Priority Mask Register when in secure state.
 422:Generated_Source\PSoC6\pdl\cmsis/include/cmsis_gcc.h ****   \param [in]    priMask  Priority Mask
 423:Generated_Source\PSoC6\pdl\cmsis/include/cmsis_gcc.h ****  */
 424:Generated_Source\PSoC6\pdl\cmsis/include/cmsis_gcc.h **** __STATIC_FORCEINLINE void __TZ_set_PRIMASK_NS(uint32_t priMask)
 425:Generated_Source\PSoC6\pdl\cmsis/include/cmsis_gcc.h **** {
 426:Generated_Source\PSoC6\pdl\cmsis/include/cmsis_gcc.h ****   __ASM volatile ("MSR primask_ns, %0" : : "r" (priMask) : "memory");
 427:Generated_Source\PSoC6\pdl\cmsis/include/cmsis_gcc.h **** }
 428:Generated_Source\PSoC6\pdl\cmsis/include/cmsis_gcc.h **** #endif
 429:Generated_Source\PSoC6\pdl\cmsis/include/cmsis_gcc.h **** 
 430:Generated_Source\PSoC6\pdl\cmsis/include/cmsis_gcc.h **** 
 431:Generated_Source\PSoC6\pdl\cmsis/include/cmsis_gcc.h **** #if ((defined (__ARM_ARCH_7M__      ) && (__ARM_ARCH_7M__      == 1)) || \
ARM GAS  C:\Users\stijn\AppData\Local\Temp\ccLepBqo.s 			page 27


 432:Generated_Source\PSoC6\pdl\cmsis/include/cmsis_gcc.h ****      (defined (__ARM_ARCH_7EM__     ) && (__ARM_ARCH_7EM__     == 1)) || \
 433:Generated_Source\PSoC6\pdl\cmsis/include/cmsis_gcc.h ****      (defined (__ARM_ARCH_8M_MAIN__ ) && (__ARM_ARCH_8M_MAIN__ == 1))    )
 434:Generated_Source\PSoC6\pdl\cmsis/include/cmsis_gcc.h **** /**
 435:Generated_Source\PSoC6\pdl\cmsis/include/cmsis_gcc.h ****   \brief   Enable FIQ
 436:Generated_Source\PSoC6\pdl\cmsis/include/cmsis_gcc.h ****   \details Enables FIQ interrupts by clearing the F-bit in the CPSR.
 437:Generated_Source\PSoC6\pdl\cmsis/include/cmsis_gcc.h ****            Can only be executed in Privileged modes.
 438:Generated_Source\PSoC6\pdl\cmsis/include/cmsis_gcc.h ****  */
 439:Generated_Source\PSoC6\pdl\cmsis/include/cmsis_gcc.h **** __STATIC_FORCEINLINE void __enable_fault_irq(void)
 440:Generated_Source\PSoC6\pdl\cmsis/include/cmsis_gcc.h **** {
 441:Generated_Source\PSoC6\pdl\cmsis/include/cmsis_gcc.h ****   __ASM volatile ("cpsie f" : : : "memory");
 442:Generated_Source\PSoC6\pdl\cmsis/include/cmsis_gcc.h **** }
 443:Generated_Source\PSoC6\pdl\cmsis/include/cmsis_gcc.h **** 
 444:Generated_Source\PSoC6\pdl\cmsis/include/cmsis_gcc.h **** 
 445:Generated_Source\PSoC6\pdl\cmsis/include/cmsis_gcc.h **** /**
 446:Generated_Source\PSoC6\pdl\cmsis/include/cmsis_gcc.h ****   \brief   Disable FIQ
 447:Generated_Source\PSoC6\pdl\cmsis/include/cmsis_gcc.h ****   \details Disables FIQ interrupts by setting the F-bit in the CPSR.
 448:Generated_Source\PSoC6\pdl\cmsis/include/cmsis_gcc.h ****            Can only be executed in Privileged modes.
 449:Generated_Source\PSoC6\pdl\cmsis/include/cmsis_gcc.h ****  */
 450:Generated_Source\PSoC6\pdl\cmsis/include/cmsis_gcc.h **** __STATIC_FORCEINLINE void __disable_fault_irq(void)
 451:Generated_Source\PSoC6\pdl\cmsis/include/cmsis_gcc.h **** {
 452:Generated_Source\PSoC6\pdl\cmsis/include/cmsis_gcc.h ****   __ASM volatile ("cpsid f" : : : "memory");
 453:Generated_Source\PSoC6\pdl\cmsis/include/cmsis_gcc.h **** }
 454:Generated_Source\PSoC6\pdl\cmsis/include/cmsis_gcc.h **** 
 455:Generated_Source\PSoC6\pdl\cmsis/include/cmsis_gcc.h **** 
 456:Generated_Source\PSoC6\pdl\cmsis/include/cmsis_gcc.h **** /**
 457:Generated_Source\PSoC6\pdl\cmsis/include/cmsis_gcc.h ****   \brief   Get Base Priority
 458:Generated_Source\PSoC6\pdl\cmsis/include/cmsis_gcc.h ****   \details Returns the current value of the Base Priority register.
 459:Generated_Source\PSoC6\pdl\cmsis/include/cmsis_gcc.h ****   \return               Base Priority register value
 460:Generated_Source\PSoC6\pdl\cmsis/include/cmsis_gcc.h ****  */
 461:Generated_Source\PSoC6\pdl\cmsis/include/cmsis_gcc.h **** __STATIC_FORCEINLINE uint32_t __get_BASEPRI(void)
 462:Generated_Source\PSoC6\pdl\cmsis/include/cmsis_gcc.h **** {
 463:Generated_Source\PSoC6\pdl\cmsis/include/cmsis_gcc.h ****   uint32_t result;
 464:Generated_Source\PSoC6\pdl\cmsis/include/cmsis_gcc.h **** 
 465:Generated_Source\PSoC6\pdl\cmsis/include/cmsis_gcc.h ****   __ASM volatile ("MRS %0, basepri" : "=r" (result) );
 466:Generated_Source\PSoC6\pdl\cmsis/include/cmsis_gcc.h ****   return(result);
 467:Generated_Source\PSoC6\pdl\cmsis/include/cmsis_gcc.h **** }
 468:Generated_Source\PSoC6\pdl\cmsis/include/cmsis_gcc.h **** 
 469:Generated_Source\PSoC6\pdl\cmsis/include/cmsis_gcc.h **** 
 470:Generated_Source\PSoC6\pdl\cmsis/include/cmsis_gcc.h **** #if (defined (__ARM_FEATURE_CMSE ) && (__ARM_FEATURE_CMSE == 3))
 471:Generated_Source\PSoC6\pdl\cmsis/include/cmsis_gcc.h **** /**
 472:Generated_Source\PSoC6\pdl\cmsis/include/cmsis_gcc.h ****   \brief   Get Base Priority (non-secure)
 473:Generated_Source\PSoC6\pdl\cmsis/include/cmsis_gcc.h ****   \details Returns the current value of the non-secure Base Priority register when in secure state.
 474:Generated_Source\PSoC6\pdl\cmsis/include/cmsis_gcc.h ****   \return               Base Priority register value
 475:Generated_Source\PSoC6\pdl\cmsis/include/cmsis_gcc.h ****  */
 476:Generated_Source\PSoC6\pdl\cmsis/include/cmsis_gcc.h **** __STATIC_FORCEINLINE uint32_t __TZ_get_BASEPRI_NS(void)
 477:Generated_Source\PSoC6\pdl\cmsis/include/cmsis_gcc.h **** {
 478:Generated_Source\PSoC6\pdl\cmsis/include/cmsis_gcc.h ****   uint32_t result;
 479:Generated_Source\PSoC6\pdl\cmsis/include/cmsis_gcc.h **** 
 480:Generated_Source\PSoC6\pdl\cmsis/include/cmsis_gcc.h ****   __ASM volatile ("MRS %0, basepri_ns" : "=r" (result) );
 481:Generated_Source\PSoC6\pdl\cmsis/include/cmsis_gcc.h ****   return(result);
 482:Generated_Source\PSoC6\pdl\cmsis/include/cmsis_gcc.h **** }
 483:Generated_Source\PSoC6\pdl\cmsis/include/cmsis_gcc.h **** #endif
 484:Generated_Source\PSoC6\pdl\cmsis/include/cmsis_gcc.h **** 
 485:Generated_Source\PSoC6\pdl\cmsis/include/cmsis_gcc.h **** 
 486:Generated_Source\PSoC6\pdl\cmsis/include/cmsis_gcc.h **** /**
 487:Generated_Source\PSoC6\pdl\cmsis/include/cmsis_gcc.h ****   \brief   Set Base Priority
 488:Generated_Source\PSoC6\pdl\cmsis/include/cmsis_gcc.h ****   \details Assigns the given value to the Base Priority register.
ARM GAS  C:\Users\stijn\AppData\Local\Temp\ccLepBqo.s 			page 28


 489:Generated_Source\PSoC6\pdl\cmsis/include/cmsis_gcc.h ****   \param [in]    basePri  Base Priority value to set
 490:Generated_Source\PSoC6\pdl\cmsis/include/cmsis_gcc.h ****  */
 491:Generated_Source\PSoC6\pdl\cmsis/include/cmsis_gcc.h **** __STATIC_FORCEINLINE void __set_BASEPRI(uint32_t basePri)
 492:Generated_Source\PSoC6\pdl\cmsis/include/cmsis_gcc.h **** {
 493:Generated_Source\PSoC6\pdl\cmsis/include/cmsis_gcc.h ****   __ASM volatile ("MSR basepri, %0" : : "r" (basePri) : "memory");
 494:Generated_Source\PSoC6\pdl\cmsis/include/cmsis_gcc.h **** }
 495:Generated_Source\PSoC6\pdl\cmsis/include/cmsis_gcc.h **** 
 496:Generated_Source\PSoC6\pdl\cmsis/include/cmsis_gcc.h **** 
 497:Generated_Source\PSoC6\pdl\cmsis/include/cmsis_gcc.h **** #if (defined (__ARM_FEATURE_CMSE ) && (__ARM_FEATURE_CMSE == 3))
 498:Generated_Source\PSoC6\pdl\cmsis/include/cmsis_gcc.h **** /**
 499:Generated_Source\PSoC6\pdl\cmsis/include/cmsis_gcc.h ****   \brief   Set Base Priority (non-secure)
 500:Generated_Source\PSoC6\pdl\cmsis/include/cmsis_gcc.h ****   \details Assigns the given value to the non-secure Base Priority register when in secure state.
 501:Generated_Source\PSoC6\pdl\cmsis/include/cmsis_gcc.h ****   \param [in]    basePri  Base Priority value to set
 502:Generated_Source\PSoC6\pdl\cmsis/include/cmsis_gcc.h ****  */
 503:Generated_Source\PSoC6\pdl\cmsis/include/cmsis_gcc.h **** __STATIC_FORCEINLINE void __TZ_set_BASEPRI_NS(uint32_t basePri)
 504:Generated_Source\PSoC6\pdl\cmsis/include/cmsis_gcc.h **** {
 505:Generated_Source\PSoC6\pdl\cmsis/include/cmsis_gcc.h ****   __ASM volatile ("MSR basepri_ns, %0" : : "r" (basePri) : "memory");
 506:Generated_Source\PSoC6\pdl\cmsis/include/cmsis_gcc.h **** }
 507:Generated_Source\PSoC6\pdl\cmsis/include/cmsis_gcc.h **** #endif
 508:Generated_Source\PSoC6\pdl\cmsis/include/cmsis_gcc.h **** 
 509:Generated_Source\PSoC6\pdl\cmsis/include/cmsis_gcc.h **** 
 510:Generated_Source\PSoC6\pdl\cmsis/include/cmsis_gcc.h **** /**
 511:Generated_Source\PSoC6\pdl\cmsis/include/cmsis_gcc.h ****   \brief   Set Base Priority with condition
 512:Generated_Source\PSoC6\pdl\cmsis/include/cmsis_gcc.h ****   \details Assigns the given value to the Base Priority register only if BASEPRI masking is disable
 513:Generated_Source\PSoC6\pdl\cmsis/include/cmsis_gcc.h ****            or the new value increases the BASEPRI priority level.
 514:Generated_Source\PSoC6\pdl\cmsis/include/cmsis_gcc.h ****   \param [in]    basePri  Base Priority value to set
 515:Generated_Source\PSoC6\pdl\cmsis/include/cmsis_gcc.h ****  */
 516:Generated_Source\PSoC6\pdl\cmsis/include/cmsis_gcc.h **** __STATIC_FORCEINLINE void __set_BASEPRI_MAX(uint32_t basePri)
 517:Generated_Source\PSoC6\pdl\cmsis/include/cmsis_gcc.h **** {
 518:Generated_Source\PSoC6\pdl\cmsis/include/cmsis_gcc.h ****   __ASM volatile ("MSR basepri_max, %0" : : "r" (basePri) : "memory");
 519:Generated_Source\PSoC6\pdl\cmsis/include/cmsis_gcc.h **** }
 520:Generated_Source\PSoC6\pdl\cmsis/include/cmsis_gcc.h **** 
 521:Generated_Source\PSoC6\pdl\cmsis/include/cmsis_gcc.h **** 
 522:Generated_Source\PSoC6\pdl\cmsis/include/cmsis_gcc.h **** /**
 523:Generated_Source\PSoC6\pdl\cmsis/include/cmsis_gcc.h ****   \brief   Get Fault Mask
 524:Generated_Source\PSoC6\pdl\cmsis/include/cmsis_gcc.h ****   \details Returns the current value of the Fault Mask register.
 525:Generated_Source\PSoC6\pdl\cmsis/include/cmsis_gcc.h ****   \return               Fault Mask register value
 526:Generated_Source\PSoC6\pdl\cmsis/include/cmsis_gcc.h ****  */
 527:Generated_Source\PSoC6\pdl\cmsis/include/cmsis_gcc.h **** __STATIC_FORCEINLINE uint32_t __get_FAULTMASK(void)
 528:Generated_Source\PSoC6\pdl\cmsis/include/cmsis_gcc.h **** {
 529:Generated_Source\PSoC6\pdl\cmsis/include/cmsis_gcc.h ****   uint32_t result;
 530:Generated_Source\PSoC6\pdl\cmsis/include/cmsis_gcc.h **** 
 531:Generated_Source\PSoC6\pdl\cmsis/include/cmsis_gcc.h ****   __ASM volatile ("MRS %0, faultmask" : "=r" (result) );
 532:Generated_Source\PSoC6\pdl\cmsis/include/cmsis_gcc.h ****   return(result);
 533:Generated_Source\PSoC6\pdl\cmsis/include/cmsis_gcc.h **** }
 534:Generated_Source\PSoC6\pdl\cmsis/include/cmsis_gcc.h **** 
 535:Generated_Source\PSoC6\pdl\cmsis/include/cmsis_gcc.h **** 
 536:Generated_Source\PSoC6\pdl\cmsis/include/cmsis_gcc.h **** #if (defined (__ARM_FEATURE_CMSE ) && (__ARM_FEATURE_CMSE == 3))
 537:Generated_Source\PSoC6\pdl\cmsis/include/cmsis_gcc.h **** /**
 538:Generated_Source\PSoC6\pdl\cmsis/include/cmsis_gcc.h ****   \brief   Get Fault Mask (non-secure)
 539:Generated_Source\PSoC6\pdl\cmsis/include/cmsis_gcc.h ****   \details Returns the current value of the non-secure Fault Mask register when in secure state.
 540:Generated_Source\PSoC6\pdl\cmsis/include/cmsis_gcc.h ****   \return               Fault Mask register value
 541:Generated_Source\PSoC6\pdl\cmsis/include/cmsis_gcc.h ****  */
 542:Generated_Source\PSoC6\pdl\cmsis/include/cmsis_gcc.h **** __STATIC_FORCEINLINE uint32_t __TZ_get_FAULTMASK_NS(void)
 543:Generated_Source\PSoC6\pdl\cmsis/include/cmsis_gcc.h **** {
 544:Generated_Source\PSoC6\pdl\cmsis/include/cmsis_gcc.h ****   uint32_t result;
 545:Generated_Source\PSoC6\pdl\cmsis/include/cmsis_gcc.h **** 
ARM GAS  C:\Users\stijn\AppData\Local\Temp\ccLepBqo.s 			page 29


 546:Generated_Source\PSoC6\pdl\cmsis/include/cmsis_gcc.h ****   __ASM volatile ("MRS %0, faultmask_ns" : "=r" (result) );
 547:Generated_Source\PSoC6\pdl\cmsis/include/cmsis_gcc.h ****   return(result);
 548:Generated_Source\PSoC6\pdl\cmsis/include/cmsis_gcc.h **** }
 549:Generated_Source\PSoC6\pdl\cmsis/include/cmsis_gcc.h **** #endif
 550:Generated_Source\PSoC6\pdl\cmsis/include/cmsis_gcc.h **** 
 551:Generated_Source\PSoC6\pdl\cmsis/include/cmsis_gcc.h **** 
 552:Generated_Source\PSoC6\pdl\cmsis/include/cmsis_gcc.h **** /**
 553:Generated_Source\PSoC6\pdl\cmsis/include/cmsis_gcc.h ****   \brief   Set Fault Mask
 554:Generated_Source\PSoC6\pdl\cmsis/include/cmsis_gcc.h ****   \details Assigns the given value to the Fault Mask register.
 555:Generated_Source\PSoC6\pdl\cmsis/include/cmsis_gcc.h ****   \param [in]    faultMask  Fault Mask value to set
 556:Generated_Source\PSoC6\pdl\cmsis/include/cmsis_gcc.h ****  */
 557:Generated_Source\PSoC6\pdl\cmsis/include/cmsis_gcc.h **** __STATIC_FORCEINLINE void __set_FAULTMASK(uint32_t faultMask)
 558:Generated_Source\PSoC6\pdl\cmsis/include/cmsis_gcc.h **** {
 559:Generated_Source\PSoC6\pdl\cmsis/include/cmsis_gcc.h ****   __ASM volatile ("MSR faultmask, %0" : : "r" (faultMask) : "memory");
 560:Generated_Source\PSoC6\pdl\cmsis/include/cmsis_gcc.h **** }
 561:Generated_Source\PSoC6\pdl\cmsis/include/cmsis_gcc.h **** 
 562:Generated_Source\PSoC6\pdl\cmsis/include/cmsis_gcc.h **** 
 563:Generated_Source\PSoC6\pdl\cmsis/include/cmsis_gcc.h **** #if (defined (__ARM_FEATURE_CMSE ) && (__ARM_FEATURE_CMSE == 3))
 564:Generated_Source\PSoC6\pdl\cmsis/include/cmsis_gcc.h **** /**
 565:Generated_Source\PSoC6\pdl\cmsis/include/cmsis_gcc.h ****   \brief   Set Fault Mask (non-secure)
 566:Generated_Source\PSoC6\pdl\cmsis/include/cmsis_gcc.h ****   \details Assigns the given value to the non-secure Fault Mask register when in secure state.
 567:Generated_Source\PSoC6\pdl\cmsis/include/cmsis_gcc.h ****   \param [in]    faultMask  Fault Mask value to set
 568:Generated_Source\PSoC6\pdl\cmsis/include/cmsis_gcc.h ****  */
 569:Generated_Source\PSoC6\pdl\cmsis/include/cmsis_gcc.h **** __STATIC_FORCEINLINE void __TZ_set_FAULTMASK_NS(uint32_t faultMask)
 570:Generated_Source\PSoC6\pdl\cmsis/include/cmsis_gcc.h **** {
 571:Generated_Source\PSoC6\pdl\cmsis/include/cmsis_gcc.h ****   __ASM volatile ("MSR faultmask_ns, %0" : : "r" (faultMask) : "memory");
 572:Generated_Source\PSoC6\pdl\cmsis/include/cmsis_gcc.h **** }
 573:Generated_Source\PSoC6\pdl\cmsis/include/cmsis_gcc.h **** #endif
 574:Generated_Source\PSoC6\pdl\cmsis/include/cmsis_gcc.h **** 
 575:Generated_Source\PSoC6\pdl\cmsis/include/cmsis_gcc.h **** #endif /* ((defined (__ARM_ARCH_7M__      ) && (__ARM_ARCH_7M__      == 1)) || \
 576:Generated_Source\PSoC6\pdl\cmsis/include/cmsis_gcc.h ****            (defined (__ARM_ARCH_7EM__     ) && (__ARM_ARCH_7EM__     == 1)) || \
 577:Generated_Source\PSoC6\pdl\cmsis/include/cmsis_gcc.h ****            (defined (__ARM_ARCH_8M_MAIN__ ) && (__ARM_ARCH_8M_MAIN__ == 1))    ) */
 578:Generated_Source\PSoC6\pdl\cmsis/include/cmsis_gcc.h **** 
 579:Generated_Source\PSoC6\pdl\cmsis/include/cmsis_gcc.h **** 
 580:Generated_Source\PSoC6\pdl\cmsis/include/cmsis_gcc.h **** #if ((defined (__ARM_ARCH_8M_MAIN__ ) && (__ARM_ARCH_8M_MAIN__ == 1)) || \
 581:Generated_Source\PSoC6\pdl\cmsis/include/cmsis_gcc.h ****      (defined (__ARM_ARCH_8M_BASE__ ) && (__ARM_ARCH_8M_BASE__ == 1))    )
 582:Generated_Source\PSoC6\pdl\cmsis/include/cmsis_gcc.h **** 
 583:Generated_Source\PSoC6\pdl\cmsis/include/cmsis_gcc.h **** /**
 584:Generated_Source\PSoC6\pdl\cmsis/include/cmsis_gcc.h ****   \brief   Get Process Stack Pointer Limit
 585:Generated_Source\PSoC6\pdl\cmsis/include/cmsis_gcc.h ****   Devices without ARMv8-M Main Extensions (i.e. Cortex-M23) lack the non-secure
 586:Generated_Source\PSoC6\pdl\cmsis/include/cmsis_gcc.h ****   Stack Pointer Limit register hence zero is returned always in non-secure
 587:Generated_Source\PSoC6\pdl\cmsis/include/cmsis_gcc.h ****   mode.
 588:Generated_Source\PSoC6\pdl\cmsis/include/cmsis_gcc.h ****   
 589:Generated_Source\PSoC6\pdl\cmsis/include/cmsis_gcc.h ****   \details Returns the current value of the Process Stack Pointer Limit (PSPLIM).
 590:Generated_Source\PSoC6\pdl\cmsis/include/cmsis_gcc.h ****   \return               PSPLIM Register value
 591:Generated_Source\PSoC6\pdl\cmsis/include/cmsis_gcc.h ****  */
 592:Generated_Source\PSoC6\pdl\cmsis/include/cmsis_gcc.h **** __STATIC_FORCEINLINE uint32_t __get_PSPLIM(void)
 593:Generated_Source\PSoC6\pdl\cmsis/include/cmsis_gcc.h **** {
 594:Generated_Source\PSoC6\pdl\cmsis/include/cmsis_gcc.h **** #if (!(defined (__ARM_ARCH_8M_MAIN__ ) && (__ARM_ARCH_8M_MAIN__ == 1)) && \
 595:Generated_Source\PSoC6\pdl\cmsis/include/cmsis_gcc.h ****     (!defined (__ARM_FEATURE_CMSE) || (__ARM_FEATURE_CMSE < 3)))
 596:Generated_Source\PSoC6\pdl\cmsis/include/cmsis_gcc.h ****     // without main extensions, the non-secure PSPLIM is RAZ/WI
 597:Generated_Source\PSoC6\pdl\cmsis/include/cmsis_gcc.h ****   return 0U;
 598:Generated_Source\PSoC6\pdl\cmsis/include/cmsis_gcc.h **** #else
 599:Generated_Source\PSoC6\pdl\cmsis/include/cmsis_gcc.h ****   register uint32_t result;
 600:Generated_Source\PSoC6\pdl\cmsis/include/cmsis_gcc.h ****   __ASM volatile ("MRS %0, psplim"  : "=r" (result) );
 601:Generated_Source\PSoC6\pdl\cmsis/include/cmsis_gcc.h ****   return result;
 602:Generated_Source\PSoC6\pdl\cmsis/include/cmsis_gcc.h **** #endif
ARM GAS  C:\Users\stijn\AppData\Local\Temp\ccLepBqo.s 			page 30


 603:Generated_Source\PSoC6\pdl\cmsis/include/cmsis_gcc.h **** }
 604:Generated_Source\PSoC6\pdl\cmsis/include/cmsis_gcc.h **** 
 605:Generated_Source\PSoC6\pdl\cmsis/include/cmsis_gcc.h **** #if (defined (__ARM_FEATURE_CMSE) && (__ARM_FEATURE_CMSE == 3))
 606:Generated_Source\PSoC6\pdl\cmsis/include/cmsis_gcc.h **** /**
 607:Generated_Source\PSoC6\pdl\cmsis/include/cmsis_gcc.h ****   \brief   Get Process Stack Pointer Limit (non-secure)
 608:Generated_Source\PSoC6\pdl\cmsis/include/cmsis_gcc.h ****   Devices without ARMv8-M Main Extensions (i.e. Cortex-M23) lack the non-secure
 609:Generated_Source\PSoC6\pdl\cmsis/include/cmsis_gcc.h ****   Stack Pointer Limit register hence zero is returned always.
 610:Generated_Source\PSoC6\pdl\cmsis/include/cmsis_gcc.h **** 
 611:Generated_Source\PSoC6\pdl\cmsis/include/cmsis_gcc.h ****   \details Returns the current value of the non-secure Process Stack Pointer Limit (PSPLIM) when in
 612:Generated_Source\PSoC6\pdl\cmsis/include/cmsis_gcc.h ****   \return               PSPLIM Register value
 613:Generated_Source\PSoC6\pdl\cmsis/include/cmsis_gcc.h ****  */
 614:Generated_Source\PSoC6\pdl\cmsis/include/cmsis_gcc.h **** __STATIC_FORCEINLINE uint32_t __TZ_get_PSPLIM_NS(void)
 615:Generated_Source\PSoC6\pdl\cmsis/include/cmsis_gcc.h **** {
 616:Generated_Source\PSoC6\pdl\cmsis/include/cmsis_gcc.h **** #if (!(defined (__ARM_ARCH_8M_MAIN__ ) && (__ARM_ARCH_8M_MAIN__ == 1)))
 617:Generated_Source\PSoC6\pdl\cmsis/include/cmsis_gcc.h ****   // without main extensions, the non-secure PSPLIM is RAZ/WI
 618:Generated_Source\PSoC6\pdl\cmsis/include/cmsis_gcc.h ****   return 0U;
 619:Generated_Source\PSoC6\pdl\cmsis/include/cmsis_gcc.h **** #else
 620:Generated_Source\PSoC6\pdl\cmsis/include/cmsis_gcc.h ****   register uint32_t result;
 621:Generated_Source\PSoC6\pdl\cmsis/include/cmsis_gcc.h ****   __ASM volatile ("MRS %0, psplim_ns"  : "=r" (result) );
 622:Generated_Source\PSoC6\pdl\cmsis/include/cmsis_gcc.h ****   return result;
 623:Generated_Source\PSoC6\pdl\cmsis/include/cmsis_gcc.h **** #endif
 624:Generated_Source\PSoC6\pdl\cmsis/include/cmsis_gcc.h **** }
 625:Generated_Source\PSoC6\pdl\cmsis/include/cmsis_gcc.h **** #endif
 626:Generated_Source\PSoC6\pdl\cmsis/include/cmsis_gcc.h **** 
 627:Generated_Source\PSoC6\pdl\cmsis/include/cmsis_gcc.h **** 
 628:Generated_Source\PSoC6\pdl\cmsis/include/cmsis_gcc.h **** /**
 629:Generated_Source\PSoC6\pdl\cmsis/include/cmsis_gcc.h ****   \brief   Set Process Stack Pointer Limit
 630:Generated_Source\PSoC6\pdl\cmsis/include/cmsis_gcc.h ****   Devices without ARMv8-M Main Extensions (i.e. Cortex-M23) lack the non-secure
 631:Generated_Source\PSoC6\pdl\cmsis/include/cmsis_gcc.h ****   Stack Pointer Limit register hence the write is silently ignored in non-secure
 632:Generated_Source\PSoC6\pdl\cmsis/include/cmsis_gcc.h ****   mode.
 633:Generated_Source\PSoC6\pdl\cmsis/include/cmsis_gcc.h ****   
 634:Generated_Source\PSoC6\pdl\cmsis/include/cmsis_gcc.h ****   \details Assigns the given value to the Process Stack Pointer Limit (PSPLIM).
 635:Generated_Source\PSoC6\pdl\cmsis/include/cmsis_gcc.h ****   \param [in]    ProcStackPtrLimit  Process Stack Pointer Limit value to set
 636:Generated_Source\PSoC6\pdl\cmsis/include/cmsis_gcc.h ****  */
 637:Generated_Source\PSoC6\pdl\cmsis/include/cmsis_gcc.h **** __STATIC_FORCEINLINE void __set_PSPLIM(uint32_t ProcStackPtrLimit)
 638:Generated_Source\PSoC6\pdl\cmsis/include/cmsis_gcc.h **** {
 639:Generated_Source\PSoC6\pdl\cmsis/include/cmsis_gcc.h **** #if (!(defined (__ARM_ARCH_8M_MAIN__ ) && (__ARM_ARCH_8M_MAIN__ == 1)) && \
 640:Generated_Source\PSoC6\pdl\cmsis/include/cmsis_gcc.h ****     (!defined (__ARM_FEATURE_CMSE) || (__ARM_FEATURE_CMSE < 3)))
 641:Generated_Source\PSoC6\pdl\cmsis/include/cmsis_gcc.h ****   // without main extensions, the non-secure PSPLIM is RAZ/WI
 642:Generated_Source\PSoC6\pdl\cmsis/include/cmsis_gcc.h ****   (void)ProcStackPtrLimit;
 643:Generated_Source\PSoC6\pdl\cmsis/include/cmsis_gcc.h **** #else
 644:Generated_Source\PSoC6\pdl\cmsis/include/cmsis_gcc.h ****   __ASM volatile ("MSR psplim, %0" : : "r" (ProcStackPtrLimit));
 645:Generated_Source\PSoC6\pdl\cmsis/include/cmsis_gcc.h **** #endif
 646:Generated_Source\PSoC6\pdl\cmsis/include/cmsis_gcc.h **** }
 647:Generated_Source\PSoC6\pdl\cmsis/include/cmsis_gcc.h **** 
 648:Generated_Source\PSoC6\pdl\cmsis/include/cmsis_gcc.h **** 
 649:Generated_Source\PSoC6\pdl\cmsis/include/cmsis_gcc.h **** #if (defined (__ARM_FEATURE_CMSE  ) && (__ARM_FEATURE_CMSE   == 3))
 650:Generated_Source\PSoC6\pdl\cmsis/include/cmsis_gcc.h **** /**
 651:Generated_Source\PSoC6\pdl\cmsis/include/cmsis_gcc.h ****   \brief   Set Process Stack Pointer (non-secure)
 652:Generated_Source\PSoC6\pdl\cmsis/include/cmsis_gcc.h ****   Devices without ARMv8-M Main Extensions (i.e. Cortex-M23) lack the non-secure
 653:Generated_Source\PSoC6\pdl\cmsis/include/cmsis_gcc.h ****   Stack Pointer Limit register hence the write is silently ignored.
 654:Generated_Source\PSoC6\pdl\cmsis/include/cmsis_gcc.h **** 
 655:Generated_Source\PSoC6\pdl\cmsis/include/cmsis_gcc.h ****   \details Assigns the given value to the non-secure Process Stack Pointer Limit (PSPLIM) when in s
 656:Generated_Source\PSoC6\pdl\cmsis/include/cmsis_gcc.h ****   \param [in]    ProcStackPtrLimit  Process Stack Pointer Limit value to set
 657:Generated_Source\PSoC6\pdl\cmsis/include/cmsis_gcc.h ****  */
 658:Generated_Source\PSoC6\pdl\cmsis/include/cmsis_gcc.h **** __STATIC_FORCEINLINE void __TZ_set_PSPLIM_NS(uint32_t ProcStackPtrLimit)
 659:Generated_Source\PSoC6\pdl\cmsis/include/cmsis_gcc.h **** {
ARM GAS  C:\Users\stijn\AppData\Local\Temp\ccLepBqo.s 			page 31


 660:Generated_Source\PSoC6\pdl\cmsis/include/cmsis_gcc.h **** #if (!(defined (__ARM_ARCH_8M_MAIN__ ) && (__ARM_ARCH_8M_MAIN__ == 1)))
 661:Generated_Source\PSoC6\pdl\cmsis/include/cmsis_gcc.h ****   // without main extensions, the non-secure PSPLIM is RAZ/WI
 662:Generated_Source\PSoC6\pdl\cmsis/include/cmsis_gcc.h ****   (void)ProcStackPtrLimit;
 663:Generated_Source\PSoC6\pdl\cmsis/include/cmsis_gcc.h **** #else
 664:Generated_Source\PSoC6\pdl\cmsis/include/cmsis_gcc.h ****   __ASM volatile ("MSR psplim_ns, %0\n" : : "r" (ProcStackPtrLimit));
 665:Generated_Source\PSoC6\pdl\cmsis/include/cmsis_gcc.h **** #endif
 666:Generated_Source\PSoC6\pdl\cmsis/include/cmsis_gcc.h **** }
 667:Generated_Source\PSoC6\pdl\cmsis/include/cmsis_gcc.h **** #endif
 668:Generated_Source\PSoC6\pdl\cmsis/include/cmsis_gcc.h **** 
 669:Generated_Source\PSoC6\pdl\cmsis/include/cmsis_gcc.h **** 
 670:Generated_Source\PSoC6\pdl\cmsis/include/cmsis_gcc.h **** /**
 671:Generated_Source\PSoC6\pdl\cmsis/include/cmsis_gcc.h ****   \brief   Get Main Stack Pointer Limit
 672:Generated_Source\PSoC6\pdl\cmsis/include/cmsis_gcc.h ****   Devices without ARMv8-M Main Extensions (i.e. Cortex-M23) lack the non-secure
 673:Generated_Source\PSoC6\pdl\cmsis/include/cmsis_gcc.h ****   Stack Pointer Limit register hence zero is returned always in non-secure
 674:Generated_Source\PSoC6\pdl\cmsis/include/cmsis_gcc.h ****   mode.
 675:Generated_Source\PSoC6\pdl\cmsis/include/cmsis_gcc.h **** 
 676:Generated_Source\PSoC6\pdl\cmsis/include/cmsis_gcc.h ****   \details Returns the current value of the Main Stack Pointer Limit (MSPLIM).
 677:Generated_Source\PSoC6\pdl\cmsis/include/cmsis_gcc.h ****   \return               MSPLIM Register value
 678:Generated_Source\PSoC6\pdl\cmsis/include/cmsis_gcc.h ****  */
 679:Generated_Source\PSoC6\pdl\cmsis/include/cmsis_gcc.h **** __STATIC_FORCEINLINE uint32_t __get_MSPLIM(void)
 680:Generated_Source\PSoC6\pdl\cmsis/include/cmsis_gcc.h **** {
 681:Generated_Source\PSoC6\pdl\cmsis/include/cmsis_gcc.h **** #if (!(defined (__ARM_ARCH_8M_MAIN__ ) && (__ARM_ARCH_8M_MAIN__ == 1)) && \
 682:Generated_Source\PSoC6\pdl\cmsis/include/cmsis_gcc.h ****     (!defined (__ARM_FEATURE_CMSE) || (__ARM_FEATURE_CMSE < 3)))
 683:Generated_Source\PSoC6\pdl\cmsis/include/cmsis_gcc.h ****   // without main extensions, the non-secure MSPLIM is RAZ/WI
 684:Generated_Source\PSoC6\pdl\cmsis/include/cmsis_gcc.h ****   return 0U;
 685:Generated_Source\PSoC6\pdl\cmsis/include/cmsis_gcc.h **** #else
 686:Generated_Source\PSoC6\pdl\cmsis/include/cmsis_gcc.h ****   register uint32_t result;
 687:Generated_Source\PSoC6\pdl\cmsis/include/cmsis_gcc.h ****   __ASM volatile ("MRS %0, msplim" : "=r" (result) );
 688:Generated_Source\PSoC6\pdl\cmsis/include/cmsis_gcc.h ****   return result;
 689:Generated_Source\PSoC6\pdl\cmsis/include/cmsis_gcc.h **** #endif
 690:Generated_Source\PSoC6\pdl\cmsis/include/cmsis_gcc.h **** }
 691:Generated_Source\PSoC6\pdl\cmsis/include/cmsis_gcc.h **** 
 692:Generated_Source\PSoC6\pdl\cmsis/include/cmsis_gcc.h **** 
 693:Generated_Source\PSoC6\pdl\cmsis/include/cmsis_gcc.h **** #if (defined (__ARM_FEATURE_CMSE  ) && (__ARM_FEATURE_CMSE   == 3))
 694:Generated_Source\PSoC6\pdl\cmsis/include/cmsis_gcc.h **** /**
 695:Generated_Source\PSoC6\pdl\cmsis/include/cmsis_gcc.h ****   \brief   Get Main Stack Pointer Limit (non-secure)
 696:Generated_Source\PSoC6\pdl\cmsis/include/cmsis_gcc.h ****   Devices without ARMv8-M Main Extensions (i.e. Cortex-M23) lack the non-secure
 697:Generated_Source\PSoC6\pdl\cmsis/include/cmsis_gcc.h ****   Stack Pointer Limit register hence zero is returned always.
 698:Generated_Source\PSoC6\pdl\cmsis/include/cmsis_gcc.h **** 
 699:Generated_Source\PSoC6\pdl\cmsis/include/cmsis_gcc.h ****   \details Returns the current value of the non-secure Main Stack Pointer Limit(MSPLIM) when in sec
 700:Generated_Source\PSoC6\pdl\cmsis/include/cmsis_gcc.h ****   \return               MSPLIM Register value
 701:Generated_Source\PSoC6\pdl\cmsis/include/cmsis_gcc.h ****  */
 702:Generated_Source\PSoC6\pdl\cmsis/include/cmsis_gcc.h **** __STATIC_FORCEINLINE uint32_t __TZ_get_MSPLIM_NS(void)
 703:Generated_Source\PSoC6\pdl\cmsis/include/cmsis_gcc.h **** {
 704:Generated_Source\PSoC6\pdl\cmsis/include/cmsis_gcc.h **** #if (!(defined (__ARM_ARCH_8M_MAIN__ ) && (__ARM_ARCH_8M_MAIN__ == 1)))
 705:Generated_Source\PSoC6\pdl\cmsis/include/cmsis_gcc.h ****   // without main extensions, the non-secure MSPLIM is RAZ/WI
 706:Generated_Source\PSoC6\pdl\cmsis/include/cmsis_gcc.h ****   return 0U;
 707:Generated_Source\PSoC6\pdl\cmsis/include/cmsis_gcc.h **** #else
 708:Generated_Source\PSoC6\pdl\cmsis/include/cmsis_gcc.h ****   register uint32_t result;
 709:Generated_Source\PSoC6\pdl\cmsis/include/cmsis_gcc.h ****   __ASM volatile ("MRS %0, msplim_ns" : "=r" (result) );
 710:Generated_Source\PSoC6\pdl\cmsis/include/cmsis_gcc.h ****   return result;
 711:Generated_Source\PSoC6\pdl\cmsis/include/cmsis_gcc.h **** #endif
 712:Generated_Source\PSoC6\pdl\cmsis/include/cmsis_gcc.h **** }
 713:Generated_Source\PSoC6\pdl\cmsis/include/cmsis_gcc.h **** #endif
 714:Generated_Source\PSoC6\pdl\cmsis/include/cmsis_gcc.h **** 
 715:Generated_Source\PSoC6\pdl\cmsis/include/cmsis_gcc.h **** 
 716:Generated_Source\PSoC6\pdl\cmsis/include/cmsis_gcc.h **** /**
ARM GAS  C:\Users\stijn\AppData\Local\Temp\ccLepBqo.s 			page 32


 717:Generated_Source\PSoC6\pdl\cmsis/include/cmsis_gcc.h ****   \brief   Set Main Stack Pointer Limit
 718:Generated_Source\PSoC6\pdl\cmsis/include/cmsis_gcc.h ****   Devices without ARMv8-M Main Extensions (i.e. Cortex-M23) lack the non-secure
 719:Generated_Source\PSoC6\pdl\cmsis/include/cmsis_gcc.h ****   Stack Pointer Limit register hence the write is silently ignored in non-secure
 720:Generated_Source\PSoC6\pdl\cmsis/include/cmsis_gcc.h ****   mode.
 721:Generated_Source\PSoC6\pdl\cmsis/include/cmsis_gcc.h **** 
 722:Generated_Source\PSoC6\pdl\cmsis/include/cmsis_gcc.h ****   \details Assigns the given value to the Main Stack Pointer Limit (MSPLIM).
 723:Generated_Source\PSoC6\pdl\cmsis/include/cmsis_gcc.h ****   \param [in]    MainStackPtrLimit  Main Stack Pointer Limit value to set
 724:Generated_Source\PSoC6\pdl\cmsis/include/cmsis_gcc.h ****  */
 725:Generated_Source\PSoC6\pdl\cmsis/include/cmsis_gcc.h **** __STATIC_FORCEINLINE void __set_MSPLIM(uint32_t MainStackPtrLimit)
 726:Generated_Source\PSoC6\pdl\cmsis/include/cmsis_gcc.h **** {
 727:Generated_Source\PSoC6\pdl\cmsis/include/cmsis_gcc.h **** #if (!(defined (__ARM_ARCH_8M_MAIN__ ) && (__ARM_ARCH_8M_MAIN__ == 1)) && \
 728:Generated_Source\PSoC6\pdl\cmsis/include/cmsis_gcc.h ****     (!defined (__ARM_FEATURE_CMSE) || (__ARM_FEATURE_CMSE < 3)))
 729:Generated_Source\PSoC6\pdl\cmsis/include/cmsis_gcc.h ****   // without main extensions, the non-secure MSPLIM is RAZ/WI
 730:Generated_Source\PSoC6\pdl\cmsis/include/cmsis_gcc.h ****   (void)MainStackPtrLimit;
 731:Generated_Source\PSoC6\pdl\cmsis/include/cmsis_gcc.h **** #else
 732:Generated_Source\PSoC6\pdl\cmsis/include/cmsis_gcc.h ****   __ASM volatile ("MSR msplim, %0" : : "r" (MainStackPtrLimit));
 733:Generated_Source\PSoC6\pdl\cmsis/include/cmsis_gcc.h **** #endif
 734:Generated_Source\PSoC6\pdl\cmsis/include/cmsis_gcc.h **** }
 735:Generated_Source\PSoC6\pdl\cmsis/include/cmsis_gcc.h **** 
 736:Generated_Source\PSoC6\pdl\cmsis/include/cmsis_gcc.h **** 
 737:Generated_Source\PSoC6\pdl\cmsis/include/cmsis_gcc.h **** #if (defined (__ARM_FEATURE_CMSE  ) && (__ARM_FEATURE_CMSE   == 3))
 738:Generated_Source\PSoC6\pdl\cmsis/include/cmsis_gcc.h **** /**
 739:Generated_Source\PSoC6\pdl\cmsis/include/cmsis_gcc.h ****   \brief   Set Main Stack Pointer Limit (non-secure)
 740:Generated_Source\PSoC6\pdl\cmsis/include/cmsis_gcc.h ****   Devices without ARMv8-M Main Extensions (i.e. Cortex-M23) lack the non-secure
 741:Generated_Source\PSoC6\pdl\cmsis/include/cmsis_gcc.h ****   Stack Pointer Limit register hence the write is silently ignored.
 742:Generated_Source\PSoC6\pdl\cmsis/include/cmsis_gcc.h **** 
 743:Generated_Source\PSoC6\pdl\cmsis/include/cmsis_gcc.h ****   \details Assigns the given value to the non-secure Main Stack Pointer Limit (MSPLIM) when in secu
 744:Generated_Source\PSoC6\pdl\cmsis/include/cmsis_gcc.h ****   \param [in]    MainStackPtrLimit  Main Stack Pointer value to set
 745:Generated_Source\PSoC6\pdl\cmsis/include/cmsis_gcc.h ****  */
 746:Generated_Source\PSoC6\pdl\cmsis/include/cmsis_gcc.h **** __STATIC_FORCEINLINE void __TZ_set_MSPLIM_NS(uint32_t MainStackPtrLimit)
 747:Generated_Source\PSoC6\pdl\cmsis/include/cmsis_gcc.h **** {
 748:Generated_Source\PSoC6\pdl\cmsis/include/cmsis_gcc.h **** #if (!(defined (__ARM_ARCH_8M_MAIN__ ) && (__ARM_ARCH_8M_MAIN__ == 1)))
 749:Generated_Source\PSoC6\pdl\cmsis/include/cmsis_gcc.h ****   // without main extensions, the non-secure MSPLIM is RAZ/WI
 750:Generated_Source\PSoC6\pdl\cmsis/include/cmsis_gcc.h ****   (void)MainStackPtrLimit;
 751:Generated_Source\PSoC6\pdl\cmsis/include/cmsis_gcc.h **** #else
 752:Generated_Source\PSoC6\pdl\cmsis/include/cmsis_gcc.h ****   __ASM volatile ("MSR msplim_ns, %0" : : "r" (MainStackPtrLimit));
 753:Generated_Source\PSoC6\pdl\cmsis/include/cmsis_gcc.h **** #endif
 754:Generated_Source\PSoC6\pdl\cmsis/include/cmsis_gcc.h **** }
 755:Generated_Source\PSoC6\pdl\cmsis/include/cmsis_gcc.h **** #endif
 756:Generated_Source\PSoC6\pdl\cmsis/include/cmsis_gcc.h **** 
 757:Generated_Source\PSoC6\pdl\cmsis/include/cmsis_gcc.h **** #endif /* ((defined (__ARM_ARCH_8M_MAIN__ ) && (__ARM_ARCH_8M_MAIN__ == 1)) || \
 758:Generated_Source\PSoC6\pdl\cmsis/include/cmsis_gcc.h ****            (defined (__ARM_ARCH_8M_BASE__ ) && (__ARM_ARCH_8M_BASE__ == 1))    ) */
 759:Generated_Source\PSoC6\pdl\cmsis/include/cmsis_gcc.h **** 
 760:Generated_Source\PSoC6\pdl\cmsis/include/cmsis_gcc.h **** 
 761:Generated_Source\PSoC6\pdl\cmsis/include/cmsis_gcc.h **** #if ((defined (__ARM_ARCH_7EM__     ) && (__ARM_ARCH_7EM__     == 1)) || \
 762:Generated_Source\PSoC6\pdl\cmsis/include/cmsis_gcc.h ****      (defined (__ARM_ARCH_8M_MAIN__ ) && (__ARM_ARCH_8M_MAIN__ == 1))    )
 763:Generated_Source\PSoC6\pdl\cmsis/include/cmsis_gcc.h **** 
 764:Generated_Source\PSoC6\pdl\cmsis/include/cmsis_gcc.h **** /**
 765:Generated_Source\PSoC6\pdl\cmsis/include/cmsis_gcc.h ****   \brief   Get FPSCR
 766:Generated_Source\PSoC6\pdl\cmsis/include/cmsis_gcc.h ****   \details Returns the current value of the Floating Point Status/Control register.
 767:Generated_Source\PSoC6\pdl\cmsis/include/cmsis_gcc.h ****   \return               Floating Point Status/Control register value
 768:Generated_Source\PSoC6\pdl\cmsis/include/cmsis_gcc.h ****  */
 769:Generated_Source\PSoC6\pdl\cmsis/include/cmsis_gcc.h **** __STATIC_FORCEINLINE uint32_t __get_FPSCR(void)
 770:Generated_Source\PSoC6\pdl\cmsis/include/cmsis_gcc.h **** {
 771:Generated_Source\PSoC6\pdl\cmsis/include/cmsis_gcc.h **** #if ((defined (__FPU_PRESENT) && (__FPU_PRESENT == 1U)) && \
 772:Generated_Source\PSoC6\pdl\cmsis/include/cmsis_gcc.h ****      (defined (__FPU_USED   ) && (__FPU_USED    == 1U))     )
 773:Generated_Source\PSoC6\pdl\cmsis/include/cmsis_gcc.h **** #if __has_builtin(__builtin_arm_get_fpscr) || (__GNUC__ > 7) || (__GNUC__ == 7 && __GNUC_MINOR__ >=
ARM GAS  C:\Users\stijn\AppData\Local\Temp\ccLepBqo.s 			page 33


 774:Generated_Source\PSoC6\pdl\cmsis/include/cmsis_gcc.h ****   /* see https://gcc.gnu.org/ml/gcc-patches/2017-04/msg00443.html */
 775:Generated_Source\PSoC6\pdl\cmsis/include/cmsis_gcc.h ****   return __builtin_arm_get_fpscr();
 776:Generated_Source\PSoC6\pdl\cmsis/include/cmsis_gcc.h **** #else
 777:Generated_Source\PSoC6\pdl\cmsis/include/cmsis_gcc.h ****   uint32_t result;
 778:Generated_Source\PSoC6\pdl\cmsis/include/cmsis_gcc.h **** 
 779:Generated_Source\PSoC6\pdl\cmsis/include/cmsis_gcc.h ****   __ASM volatile ("VMRS %0, fpscr" : "=r" (result) );
 620              		.loc 2 779 0
 621              		.syntax unified
 622              	@ 779 "Generated_Source\PSoC6\pdl\cmsis/include/cmsis_gcc.h" 1
 623 0070 F1EE103A 		VMRS r3, fpscr
 624              	@ 0 "" 2
 625              		.thumb
 626              		.syntax unified
 627 0074 FB60     		str	r3, [r7, #12]
 780:Generated_Source\PSoC6\pdl\cmsis/include/cmsis_gcc.h ****   return(result);
 628              		.loc 2 780 0
 629 0076 FB68     		ldr	r3, [r7, #12]
 630              	.LBE5:
 631              	.LBE4:
 417:Generated_Source\PSoC6\pdl\drivers\peripheral\syslib/cy_syslib.c **** 
 418:Generated_Source\PSoC6\pdl\drivers\peripheral\syslib/cy_syslib.c ****         #if ((defined (__FPU_PRESENT) && (__FPU_PRESENT == 1U)) && \
 419:Generated_Source\PSoC6\pdl\drivers\peripheral\syslib/cy_syslib.c ****              (defined (__FPU_USED   ) && (__FPU_USED    == 1U)))
 420:Generated_Source\PSoC6\pdl\drivers\peripheral\syslib/cy_syslib.c ****             /* Checks cumulative exception bits for floating-point exceptions */
 421:Generated_Source\PSoC6\pdl\drivers\peripheral\syslib/cy_syslib.c ****             if(0U != (__get_FPSCR() & (CY_FPSCR_IXC_Msk | CY_FPSCR_IDC_Msk)))
 632              		.loc 1 421 0
 633 0078 03F09003 		and	r3, r3, #144
 634 007c 002B     		cmp	r3, #0
 635 007e 43D0     		beq	.L37
 422:Generated_Source\PSoC6\pdl\drivers\peripheral\syslib/cy_syslib.c ****             {
 423:Generated_Source\PSoC6\pdl\drivers\peripheral\syslib/cy_syslib.c ****                 cy_faultFrame.s0    = faultStackAddr[CY_S0_Pos];
 636              		.loc 1 423 0
 637 0080 7B68     		ldr	r3, [r7, #4]
 638 0082 1B6A     		ldr	r3, [r3, #32]
 639 0084 234A     		ldr	r2, .L38
 640 0086 5363     		str	r3, [r2, #52]
 424:Generated_Source\PSoC6\pdl\drivers\peripheral\syslib/cy_syslib.c ****                 cy_faultFrame.s1    = faultStackAddr[CY_S1_Pos];
 641              		.loc 1 424 0
 642 0088 7B68     		ldr	r3, [r7, #4]
 643 008a 5B6A     		ldr	r3, [r3, #36]
 644 008c 214A     		ldr	r2, .L38
 645 008e 9363     		str	r3, [r2, #56]
 425:Generated_Source\PSoC6\pdl\drivers\peripheral\syslib/cy_syslib.c ****                 cy_faultFrame.s2    = faultStackAddr[CY_S2_Pos];
 646              		.loc 1 425 0
 647 0090 7B68     		ldr	r3, [r7, #4]
 648 0092 9B6A     		ldr	r3, [r3, #40]
 649 0094 1F4A     		ldr	r2, .L38
 650 0096 D363     		str	r3, [r2, #60]
 426:Generated_Source\PSoC6\pdl\drivers\peripheral\syslib/cy_syslib.c ****                 cy_faultFrame.s3    = faultStackAddr[CY_S3_Pos];
 651              		.loc 1 426 0
 652 0098 7B68     		ldr	r3, [r7, #4]
 653 009a DB6A     		ldr	r3, [r3, #44]
 654 009c 1D4A     		ldr	r2, .L38
 655 009e 1364     		str	r3, [r2, #64]
 427:Generated_Source\PSoC6\pdl\drivers\peripheral\syslib/cy_syslib.c ****                 cy_faultFrame.s4    = faultStackAddr[CY_S4_Pos];
 656              		.loc 1 427 0
 657 00a0 7B68     		ldr	r3, [r7, #4]
 658 00a2 1B6B     		ldr	r3, [r3, #48]
ARM GAS  C:\Users\stijn\AppData\Local\Temp\ccLepBqo.s 			page 34


 659 00a4 1B4A     		ldr	r2, .L38
 660 00a6 5364     		str	r3, [r2, #68]
 428:Generated_Source\PSoC6\pdl\drivers\peripheral\syslib/cy_syslib.c ****                 cy_faultFrame.s5    = faultStackAddr[CY_S5_Pos];
 661              		.loc 1 428 0
 662 00a8 7B68     		ldr	r3, [r7, #4]
 663 00aa 5B6B     		ldr	r3, [r3, #52]
 664 00ac 194A     		ldr	r2, .L38
 665 00ae 9364     		str	r3, [r2, #72]
 429:Generated_Source\PSoC6\pdl\drivers\peripheral\syslib/cy_syslib.c ****                 cy_faultFrame.s6    = faultStackAddr[CY_S6_Pos];
 666              		.loc 1 429 0
 667 00b0 7B68     		ldr	r3, [r7, #4]
 668 00b2 9B6B     		ldr	r3, [r3, #56]
 669 00b4 174A     		ldr	r2, .L38
 670 00b6 D364     		str	r3, [r2, #76]
 430:Generated_Source\PSoC6\pdl\drivers\peripheral\syslib/cy_syslib.c ****                 cy_faultFrame.s7    = faultStackAddr[CY_S7_Pos];
 671              		.loc 1 430 0
 672 00b8 7B68     		ldr	r3, [r7, #4]
 673 00ba DB6B     		ldr	r3, [r3, #60]
 674 00bc 154A     		ldr	r2, .L38
 675 00be 1365     		str	r3, [r2, #80]
 431:Generated_Source\PSoC6\pdl\drivers\peripheral\syslib/cy_syslib.c ****                 cy_faultFrame.s8    = faultStackAddr[CY_S8_Pos];
 676              		.loc 1 431 0
 677 00c0 7B68     		ldr	r3, [r7, #4]
 678 00c2 1B6C     		ldr	r3, [r3, #64]
 679 00c4 134A     		ldr	r2, .L38
 680 00c6 5365     		str	r3, [r2, #84]
 432:Generated_Source\PSoC6\pdl\drivers\peripheral\syslib/cy_syslib.c ****                 cy_faultFrame.s9    = faultStackAddr[CY_S9_Pos];
 681              		.loc 1 432 0
 682 00c8 7B68     		ldr	r3, [r7, #4]
 683 00ca 5B6C     		ldr	r3, [r3, #68]
 684 00cc 114A     		ldr	r2, .L38
 685 00ce 9365     		str	r3, [r2, #88]
 433:Generated_Source\PSoC6\pdl\drivers\peripheral\syslib/cy_syslib.c ****                 cy_faultFrame.s10   = faultStackAddr[CY_S10_Pos];
 686              		.loc 1 433 0
 687 00d0 7B68     		ldr	r3, [r7, #4]
 688 00d2 9B6C     		ldr	r3, [r3, #72]
 689 00d4 0F4A     		ldr	r2, .L38
 690 00d6 D365     		str	r3, [r2, #92]
 434:Generated_Source\PSoC6\pdl\drivers\peripheral\syslib/cy_syslib.c ****                 cy_faultFrame.s11   = faultStackAddr[CY_S11_Pos];
 691              		.loc 1 434 0
 692 00d8 7B68     		ldr	r3, [r7, #4]
 693 00da DB6C     		ldr	r3, [r3, #76]
 694 00dc 0D4A     		ldr	r2, .L38
 695 00de 1366     		str	r3, [r2, #96]
 435:Generated_Source\PSoC6\pdl\drivers\peripheral\syslib/cy_syslib.c ****                 cy_faultFrame.s12   = faultStackAddr[CY_S12_Pos];
 696              		.loc 1 435 0
 697 00e0 7B68     		ldr	r3, [r7, #4]
 698 00e2 1B6D     		ldr	r3, [r3, #80]
 699 00e4 0B4A     		ldr	r2, .L38
 700 00e6 5366     		str	r3, [r2, #100]
 436:Generated_Source\PSoC6\pdl\drivers\peripheral\syslib/cy_syslib.c ****                 cy_faultFrame.s13   = faultStackAddr[CY_S13_Pos];
 701              		.loc 1 436 0
 702 00e8 7B68     		ldr	r3, [r7, #4]
 703 00ea 5B6D     		ldr	r3, [r3, #84]
 704 00ec 094A     		ldr	r2, .L38
 705 00ee 9366     		str	r3, [r2, #104]
 437:Generated_Source\PSoC6\pdl\drivers\peripheral\syslib/cy_syslib.c ****                 cy_faultFrame.s14   = faultStackAddr[CY_S14_Pos];
ARM GAS  C:\Users\stijn\AppData\Local\Temp\ccLepBqo.s 			page 35


 706              		.loc 1 437 0
 707 00f0 7B68     		ldr	r3, [r7, #4]
 708 00f2 9B6D     		ldr	r3, [r3, #88]
 709 00f4 074A     		ldr	r2, .L38
 710 00f6 D366     		str	r3, [r2, #108]
 438:Generated_Source\PSoC6\pdl\drivers\peripheral\syslib/cy_syslib.c ****                 cy_faultFrame.s15   = faultStackAddr[CY_S15_Pos];
 711              		.loc 1 438 0
 712 00f8 7B68     		ldr	r3, [r7, #4]
 713 00fa DB6D     		ldr	r3, [r3, #92]
 714 00fc 054A     		ldr	r2, .L38
 715 00fe 1367     		str	r3, [r2, #112]
 439:Generated_Source\PSoC6\pdl\drivers\peripheral\syslib/cy_syslib.c ****                 cy_faultFrame.fpscr = faultStackAddr[CY_FPSCR_Pos];
 716              		.loc 1 439 0
 717 0100 7B68     		ldr	r3, [r7, #4]
 718 0102 1B6E     		ldr	r3, [r3, #96]
 719 0104 034A     		ldr	r2, .L38
 720 0106 5367     		str	r3, [r2, #116]
 721              	.L37:
 440:Generated_Source\PSoC6\pdl\drivers\peripheral\syslib/cy_syslib.c ****             }
 441:Generated_Source\PSoC6\pdl\drivers\peripheral\syslib/cy_syslib.c ****         #endif /* __FPU_PRESENT */
 442:Generated_Source\PSoC6\pdl\drivers\peripheral\syslib/cy_syslib.c ****     #endif /* CY_CPU_CORTEX_M4 */
 443:Generated_Source\PSoC6\pdl\drivers\peripheral\syslib/cy_syslib.c **** 
 444:Generated_Source\PSoC6\pdl\drivers\peripheral\syslib/cy_syslib.c ****     Cy_SysLib_ProcessingFault();
 722              		.loc 1 444 0
 723 0108 FFF7FEFF 		bl	Cy_SysLib_ProcessingFault
 445:Generated_Source\PSoC6\pdl\drivers\peripheral\syslib/cy_syslib.c **** }
 724              		.loc 1 445 0
 725 010c 00BF     		nop
 726 010e 1037     		adds	r7, r7, #16
 727              		.cfi_def_cfa_offset 8
 728 0110 BD46     		mov	sp, r7
 729              		.cfi_def_cfa_register 13
 730              		@ sp needed
 731 0112 80BD     		pop	{r7, pc}
 732              	.L39:
 733              		.align	2
 734              	.L38:
 735 0114 00000000 		.word	cy_faultFrame
 736 0118 00ED00E0 		.word	-536810240
 737              		.cfi_endproc
 738              	.LFE160:
 739              		.size	Cy_SysLib_FaultHandler, .-Cy_SysLib_FaultHandler
 740              		.section	.text.Cy_SysLib_ProcessingFault,"ax",%progbits
 741              		.align	2
 742              		.weak	Cy_SysLib_ProcessingFault
 743              		.thumb
 744              		.thumb_func
 745              		.type	Cy_SysLib_ProcessingFault, %function
 746              	Cy_SysLib_ProcessingFault:
 747              	.LFB161:
 446:Generated_Source\PSoC6\pdl\drivers\peripheral\syslib/cy_syslib.c **** 
 447:Generated_Source\PSoC6\pdl\drivers\peripheral\syslib/cy_syslib.c **** 
 448:Generated_Source\PSoC6\pdl\drivers\peripheral\syslib/cy_syslib.c **** /*******************************************************************************
 449:Generated_Source\PSoC6\pdl\drivers\peripheral\syslib/cy_syslib.c **** * Function Name: Cy_SysLib_ProcessingFault
 450:Generated_Source\PSoC6\pdl\drivers\peripheral\syslib/cy_syslib.c **** ****************************************************************************//**
 451:Generated_Source\PSoC6\pdl\drivers\peripheral\syslib/cy_syslib.c **** *
 452:Generated_Source\PSoC6\pdl\drivers\peripheral\syslib/cy_syslib.c **** * This function determines how to process the current fault state. By default
ARM GAS  C:\Users\stijn\AppData\Local\Temp\ccLepBqo.s 			page 36


 453:Generated_Source\PSoC6\pdl\drivers\peripheral\syslib/cy_syslib.c **** * in case of exception the system will stay in the infinite loop of this
 454:Generated_Source\PSoC6\pdl\drivers\peripheral\syslib/cy_syslib.c **** * function.
 455:Generated_Source\PSoC6\pdl\drivers\peripheral\syslib/cy_syslib.c **** *
 456:Generated_Source\PSoC6\pdl\drivers\peripheral\syslib/cy_syslib.c **** * \note This function has the WEAK option, so the user can redefine the function
 457:Generated_Source\PSoC6\pdl\drivers\peripheral\syslib/cy_syslib.c **** *       behavior for a custom processing.
 458:Generated_Source\PSoC6\pdl\drivers\peripheral\syslib/cy_syslib.c **** *       For example, the function redefinition could be constructed from fault
 459:Generated_Source\PSoC6\pdl\drivers\peripheral\syslib/cy_syslib.c **** *       stack processing and NVIC_SystemReset() function call.
 460:Generated_Source\PSoC6\pdl\drivers\peripheral\syslib/cy_syslib.c **** *
 461:Generated_Source\PSoC6\pdl\drivers\peripheral\syslib/cy_syslib.c **** *******************************************************************************/
 462:Generated_Source\PSoC6\pdl\drivers\peripheral\syslib/cy_syslib.c **** __WEAK void Cy_SysLib_ProcessingFault(void)
 463:Generated_Source\PSoC6\pdl\drivers\peripheral\syslib/cy_syslib.c **** {
 748              		.loc 1 463 0
 749              		.cfi_startproc
 750              		@ args = 0, pretend = 0, frame = 0
 751              		@ frame_needed = 1, uses_anonymous_args = 0
 752              		@ link register save eliminated.
 753 0000 80B4     		push	{r7}
 754              		.cfi_def_cfa_offset 4
 755              		.cfi_offset 7, -4
 756 0002 00AF     		add	r7, sp, #0
 757              		.cfi_def_cfa_register 7
 758              	.L41:
 464:Generated_Source\PSoC6\pdl\drivers\peripheral\syslib/cy_syslib.c ****     #if defined(__ARMCC_VERSION)
 465:Generated_Source\PSoC6\pdl\drivers\peripheral\syslib/cy_syslib.c ****         /* Assembly implementation of an infinite loop
 466:Generated_Source\PSoC6\pdl\drivers\peripheral\syslib/cy_syslib.c ****          * is used for the armcc compiler to preserve the call stack.
 467:Generated_Source\PSoC6\pdl\drivers\peripheral\syslib/cy_syslib.c ****          * Otherwise, the compiler destroys the call stack,
 468:Generated_Source\PSoC6\pdl\drivers\peripheral\syslib/cy_syslib.c ****          * because treats this API as a no return function.
 469:Generated_Source\PSoC6\pdl\drivers\peripheral\syslib/cy_syslib.c ****          */
 470:Generated_Source\PSoC6\pdl\drivers\peripheral\syslib/cy_syslib.c ****         Cy_SysLib_AsmInfiniteLoop();
 471:Generated_Source\PSoC6\pdl\drivers\peripheral\syslib/cy_syslib.c ****     #else
 472:Generated_Source\PSoC6\pdl\drivers\peripheral\syslib/cy_syslib.c ****         while(1) {}
 759              		.loc 1 472 0 discriminator 1
 760 0004 FEE7     		b	.L41
 761              		.cfi_endproc
 762              	.LFE161:
 763              		.size	Cy_SysLib_ProcessingFault, .-Cy_SysLib_ProcessingFault
 764 0006 00BF     		.section	.text.Cy_SysLib_SetWaitStates,"ax",%progbits
 765              		.align	2
 766              		.global	Cy_SysLib_SetWaitStates
 767              		.thumb
 768              		.thumb_func
 769              		.type	Cy_SysLib_SetWaitStates, %function
 770              	Cy_SysLib_SetWaitStates:
 771              	.LFB162:
 473:Generated_Source\PSoC6\pdl\drivers\peripheral\syslib/cy_syslib.c ****     #endif  /* (__ARMCC_VERSION) */
 474:Generated_Source\PSoC6\pdl\drivers\peripheral\syslib/cy_syslib.c **** }
 475:Generated_Source\PSoC6\pdl\drivers\peripheral\syslib/cy_syslib.c **** #endif /* (CY_ARM_FAULT_DEBUG == CY_ARM_FAULT_DEBUG_ENABLED) || defined(CY_DOXYGEN) */
 476:Generated_Source\PSoC6\pdl\drivers\peripheral\syslib/cy_syslib.c **** 
 477:Generated_Source\PSoC6\pdl\drivers\peripheral\syslib/cy_syslib.c **** 
 478:Generated_Source\PSoC6\pdl\drivers\peripheral\syslib/cy_syslib.c **** /*******************************************************************************
 479:Generated_Source\PSoC6\pdl\drivers\peripheral\syslib/cy_syslib.c **** * Function Name: Cy_SysLib_SetWaitStates
 480:Generated_Source\PSoC6\pdl\drivers\peripheral\syslib/cy_syslib.c **** ****************************************************************************//**
 481:Generated_Source\PSoC6\pdl\drivers\peripheral\syslib/cy_syslib.c **** *
 482:Generated_Source\PSoC6\pdl\drivers\peripheral\syslib/cy_syslib.c **** * Sets the number of clock cycles the cache will wait for, before it samples
 483:Generated_Source\PSoC6\pdl\drivers\peripheral\syslib/cy_syslib.c **** * data coming back from ROM, SRAM, and Flash.
 484:Generated_Source\PSoC6\pdl\drivers\peripheral\syslib/cy_syslib.c **** *
 485:Generated_Source\PSoC6\pdl\drivers\peripheral\syslib/cy_syslib.c **** * Call this function before increasing the HFClk0 High Frequency clock.
ARM GAS  C:\Users\stijn\AppData\Local\Temp\ccLepBqo.s 			page 37


 486:Generated_Source\PSoC6\pdl\drivers\peripheral\syslib/cy_syslib.c **** * Call this function optionally after lowering the HFClk0 High Frequency clock
 487:Generated_Source\PSoC6\pdl\drivers\peripheral\syslib/cy_syslib.c **** * in order to improve the CPU performance.
 488:Generated_Source\PSoC6\pdl\drivers\peripheral\syslib/cy_syslib.c **** *
 489:Generated_Source\PSoC6\pdl\drivers\peripheral\syslib/cy_syslib.c **** * Also, call this function before switching the core supply regulator voltage
 490:Generated_Source\PSoC6\pdl\drivers\peripheral\syslib/cy_syslib.c **** * (LDO or SIMO Buck) from 1.1V to 0.9V.
 491:Generated_Source\PSoC6\pdl\drivers\peripheral\syslib/cy_syslib.c **** * Call this function optionally after switching the core supply regulator
 492:Generated_Source\PSoC6\pdl\drivers\peripheral\syslib/cy_syslib.c **** * voltage from 0.9V to 1.1V in order to improve the CPU performance.
 493:Generated_Source\PSoC6\pdl\drivers\peripheral\syslib/cy_syslib.c **** *
 494:Generated_Source\PSoC6\pdl\drivers\peripheral\syslib/cy_syslib.c **** * \param ulpMode  The device power mode.
 495:Generated_Source\PSoC6\pdl\drivers\peripheral\syslib/cy_syslib.c **** *        true  if the device should be switched to the ULP mode (nominal
 496:Generated_Source\PSoC6\pdl\drivers\peripheral\syslib/cy_syslib.c **** *              voltage of the core supply regulator should be switched to 0.9V);
 497:Generated_Source\PSoC6\pdl\drivers\peripheral\syslib/cy_syslib.c **** *        false if the device should be switched to the LP mode (nominal
 498:Generated_Source\PSoC6\pdl\drivers\peripheral\syslib/cy_syslib.c **** *              voltage of the core supply regulator should be switched to 1.1V).
 499:Generated_Source\PSoC6\pdl\drivers\peripheral\syslib/cy_syslib.c **** *
 500:Generated_Source\PSoC6\pdl\drivers\peripheral\syslib/cy_syslib.c **** * \note Refer to the device TRM for the low power modes description.
 501:Generated_Source\PSoC6\pdl\drivers\peripheral\syslib/cy_syslib.c **** *
 502:Generated_Source\PSoC6\pdl\drivers\peripheral\syslib/cy_syslib.c **** * \param clkHfMHz  The HFClk0 clock frequency in MHz. Specifying a frequency
 503:Generated_Source\PSoC6\pdl\drivers\peripheral\syslib/cy_syslib.c **** *                  above the supported maximum will set the wait states as for
 504:Generated_Source\PSoC6\pdl\drivers\peripheral\syslib/cy_syslib.c **** *                  the maximum frequency.
 505:Generated_Source\PSoC6\pdl\drivers\peripheral\syslib/cy_syslib.c **** *
 506:Generated_Source\PSoC6\pdl\drivers\peripheral\syslib/cy_syslib.c **** *******************************************************************************/
 507:Generated_Source\PSoC6\pdl\drivers\peripheral\syslib/cy_syslib.c **** void Cy_SysLib_SetWaitStates(bool ulpMode, uint32_t clkHfMHz)
 508:Generated_Source\PSoC6\pdl\drivers\peripheral\syslib/cy_syslib.c **** {
 772              		.loc 1 508 0
 773              		.cfi_startproc
 774              		@ args = 0, pretend = 0, frame = 16
 775              		@ frame_needed = 1, uses_anonymous_args = 0
 776              		@ link register save eliminated.
 777 0000 80B4     		push	{r7}
 778              		.cfi_def_cfa_offset 4
 779              		.cfi_offset 7, -4
 780 0002 85B0     		sub	sp, sp, #20
 781              		.cfi_def_cfa_offset 24
 782 0004 00AF     		add	r7, sp, #0
 783              		.cfi_def_cfa_register 7
 784 0006 0346     		mov	r3, r0
 785 0008 3960     		str	r1, [r7]
 786 000a FB71     		strb	r3, [r7, #7]
 509:Generated_Source\PSoC6\pdl\drivers\peripheral\syslib/cy_syslib.c ****     uint32_t waitStates;
 510:Generated_Source\PSoC6\pdl\drivers\peripheral\syslib/cy_syslib.c ****     uint32_t freqMax;
 511:Generated_Source\PSoC6\pdl\drivers\peripheral\syslib/cy_syslib.c **** 
 512:Generated_Source\PSoC6\pdl\drivers\peripheral\syslib/cy_syslib.c ****     freqMax = ulpMode ? CY_SYSLIB_ULP_SLOW_WS_0_FREQ_MAX : CY_SYSLIB_LP_SLOW_WS_0_FREQ_MAX;
 787              		.loc 1 512 0
 788 000c FB79     		ldrb	r3, [r7, #7]	@ zero_extendqisi2
 789 000e 002B     		cmp	r3, #0
 790 0010 01D0     		beq	.L43
 791              		.loc 1 512 0 is_stmt 0 discriminator 1
 792 0012 1923     		movs	r3, #25
 793 0014 00E0     		b	.L44
 794              	.L43:
 795              		.loc 1 512 0 discriminator 2
 796 0016 6423     		movs	r3, #100
 797              	.L44:
 798              		.loc 1 512 0 discriminator 4
 799 0018 BB60     		str	r3, [r7, #8]
 513:Generated_Source\PSoC6\pdl\drivers\peripheral\syslib/cy_syslib.c ****     waitStates = (clkHfMHz <= freqMax) ? 0UL : 1UL;
 800              		.loc 1 513 0 is_stmt 1 discriminator 4
ARM GAS  C:\Users\stijn\AppData\Local\Temp\ccLepBqo.s 			page 38


 801 001a 3A68     		ldr	r2, [r7]
 802 001c BB68     		ldr	r3, [r7, #8]
 803 001e 9A42     		cmp	r2, r3
 804 0020 8CBF     		ite	hi
 805 0022 0123     		movhi	r3, #1
 806 0024 0023     		movls	r3, #0
 807 0026 DBB2     		uxtb	r3, r3
 808 0028 FB60     		str	r3, [r7, #12]
 514:Generated_Source\PSoC6\pdl\drivers\peripheral\syslib/cy_syslib.c **** 
 515:Generated_Source\PSoC6\pdl\drivers\peripheral\syslib/cy_syslib.c ****     /* ROM */
 516:Generated_Source\PSoC6\pdl\drivers\peripheral\syslib/cy_syslib.c ****     CPUSS_ROM_CTL = _CLR_SET_FLD32U(CPUSS_ROM_CTL, CPUSS_ROM_CTL_SLOW_WS, waitStates);
 809              		.loc 1 516 0 discriminator 4
 810 002a 5A4B     		ldr	r3, .L61
 811 002c 1B68     		ldr	r3, [r3]
 812 002e 1B68     		ldr	r3, [r3]
 813 0030 584A     		ldr	r2, .L61
 814 0032 1268     		ldr	r2, [r2]
 815 0034 B2F8A820 		ldrh	r2, [r2, #168]
 816 0038 1344     		add	r3, r3, r2
 817 003a 1946     		mov	r1, r3
 818 003c 554B     		ldr	r3, .L61
 819 003e 1B68     		ldr	r3, [r3]
 820 0040 1B68     		ldr	r3, [r3]
 821 0042 544A     		ldr	r2, .L61
 822 0044 1268     		ldr	r2, [r2]
 823 0046 B2F8A820 		ldrh	r2, [r2, #168]
 824 004a 1344     		add	r3, r3, r2
 825 004c 1B68     		ldr	r3, [r3]
 826 004e 23F00302 		bic	r2, r3, #3
 827 0052 FB68     		ldr	r3, [r7, #12]
 828 0054 03F00303 		and	r3, r3, #3
 829 0058 1343     		orrs	r3, r3, r2
 830 005a 0B60     		str	r3, [r1]
 517:Generated_Source\PSoC6\pdl\drivers\peripheral\syslib/cy_syslib.c ****     CPUSS_ROM_CTL = _CLR_SET_FLD32U(CPUSS_ROM_CTL, CPUSS_ROM_CTL_FAST_WS, 0UL);
 831              		.loc 1 517 0 discriminator 4
 832 005c 4D4B     		ldr	r3, .L61
 833 005e 1B68     		ldr	r3, [r3]
 834 0060 1B68     		ldr	r3, [r3]
 835 0062 4C4A     		ldr	r2, .L61
 836 0064 1268     		ldr	r2, [r2]
 837 0066 B2F8A820 		ldrh	r2, [r2, #168]
 838 006a 1344     		add	r3, r3, r2
 839 006c 1946     		mov	r1, r3
 840 006e 494B     		ldr	r3, .L61
 841 0070 1B68     		ldr	r3, [r3]
 842 0072 1B68     		ldr	r3, [r3]
 843 0074 474A     		ldr	r2, .L61
 844 0076 1268     		ldr	r2, [r2]
 845 0078 B2F8A820 		ldrh	r2, [r2, #168]
 846 007c 1344     		add	r3, r3, r2
 847 007e 1B68     		ldr	r3, [r3]
 848 0080 23F44073 		bic	r3, r3, #768
 849 0084 0B60     		str	r3, [r1]
 518:Generated_Source\PSoC6\pdl\drivers\peripheral\syslib/cy_syslib.c **** 
 519:Generated_Source\PSoC6\pdl\drivers\peripheral\syslib/cy_syslib.c ****     /* SRAM */
 520:Generated_Source\PSoC6\pdl\drivers\peripheral\syslib/cy_syslib.c ****     CPUSS_RAM0_CTL0 = _CLR_SET_FLD32U(CPUSS_RAM0_CTL0, CPUSS_RAM0_CTL0_SLOW_WS, waitStates);
 850              		.loc 1 520 0 discriminator 4
ARM GAS  C:\Users\stijn\AppData\Local\Temp\ccLepBqo.s 			page 39


 851 0086 434B     		ldr	r3, .L61
 852 0088 1B68     		ldr	r3, [r3]
 853 008a 1B68     		ldr	r3, [r3]
 854 008c 414A     		ldr	r2, .L61
 855 008e 1268     		ldr	r2, [r2]
 856 0090 B2F8AA20 		ldrh	r2, [r2, #170]
 857 0094 1344     		add	r3, r3, r2
 858 0096 1946     		mov	r1, r3
 859 0098 3E4B     		ldr	r3, .L61
 860 009a 1B68     		ldr	r3, [r3]
 861 009c 1B68     		ldr	r3, [r3]
 862 009e 3D4A     		ldr	r2, .L61
 863 00a0 1268     		ldr	r2, [r2]
 864 00a2 B2F8AA20 		ldrh	r2, [r2, #170]
 865 00a6 1344     		add	r3, r3, r2
 866 00a8 1B68     		ldr	r3, [r3]
 867 00aa 23F00302 		bic	r2, r3, #3
 868 00ae FB68     		ldr	r3, [r7, #12]
 869 00b0 03F00303 		and	r3, r3, #3
 870 00b4 1343     		orrs	r3, r3, r2
 871 00b6 0B60     		str	r3, [r1]
 521:Generated_Source\PSoC6\pdl\drivers\peripheral\syslib/cy_syslib.c ****     CPUSS_RAM0_CTL0 = _CLR_SET_FLD32U(CPUSS_RAM0_CTL0, CPUSS_RAM0_CTL0_FAST_WS, 0UL);
 872              		.loc 1 521 0 discriminator 4
 873 00b8 364B     		ldr	r3, .L61
 874 00ba 1B68     		ldr	r3, [r3]
 875 00bc 1B68     		ldr	r3, [r3]
 876 00be 354A     		ldr	r2, .L61
 877 00c0 1268     		ldr	r2, [r2]
 878 00c2 B2F8AA20 		ldrh	r2, [r2, #170]
 879 00c6 1344     		add	r3, r3, r2
 880 00c8 1946     		mov	r1, r3
 881 00ca 324B     		ldr	r3, .L61
 882 00cc 1B68     		ldr	r3, [r3]
 883 00ce 1B68     		ldr	r3, [r3]
 884 00d0 304A     		ldr	r2, .L61
 885 00d2 1268     		ldr	r2, [r2]
 886 00d4 B2F8AA20 		ldrh	r2, [r2, #170]
 887 00d8 1344     		add	r3, r3, r2
 888 00da 1B68     		ldr	r3, [r3]
 889 00dc 23F44073 		bic	r3, r3, #768
 890 00e0 0B60     		str	r3, [r1]
 522:Generated_Source\PSoC6\pdl\drivers\peripheral\syslib/cy_syslib.c ****     #if defined (RAMC1_PRESENT) && (RAMC1_PRESENT == 1UL)
 523:Generated_Source\PSoC6\pdl\drivers\peripheral\syslib/cy_syslib.c ****         CPUSS_RAM1_CTL0 = _CLR_SET_FLD32U(CPUSS_RAM1_CTL0, CPUSS_RAM1_CTL0_SLOW_WS, waitStates);
 524:Generated_Source\PSoC6\pdl\drivers\peripheral\syslib/cy_syslib.c ****         CPUSS_RAM1_CTL0 = _CLR_SET_FLD32U(CPUSS_RAM1_CTL0, CPUSS_RAM1_CTL0_FAST_WS, 0UL);
 525:Generated_Source\PSoC6\pdl\drivers\peripheral\syslib/cy_syslib.c ****     #endif /* defined (RAMC1_PRESENT) && (RAMC1_PRESENT == 1UL) */
 526:Generated_Source\PSoC6\pdl\drivers\peripheral\syslib/cy_syslib.c ****     #if defined (RAMC2_PRESENT) && (RAMC2_PRESENT == 1UL)
 527:Generated_Source\PSoC6\pdl\drivers\peripheral\syslib/cy_syslib.c ****         CPUSS_RAM2_CTL0 = _CLR_SET_FLD32U(CPUSS_RAM2_CTL0, CPUSS_RAM2_CTL0_SLOW_WS, waitStates);
 528:Generated_Source\PSoC6\pdl\drivers\peripheral\syslib/cy_syslib.c ****         CPUSS_RAM2_CTL0 = _CLR_SET_FLD32U(CPUSS_RAM2_CTL0, CPUSS_RAM2_CTL0_FAST_WS, 0UL);
 529:Generated_Source\PSoC6\pdl\drivers\peripheral\syslib/cy_syslib.c ****     #endif /* defined (RAMC2_PRESENT) && (RAMC2_PRESENT == 1UL) */
 530:Generated_Source\PSoC6\pdl\drivers\peripheral\syslib/cy_syslib.c **** 
 531:Generated_Source\PSoC6\pdl\drivers\peripheral\syslib/cy_syslib.c ****     /* Flash */
 532:Generated_Source\PSoC6\pdl\drivers\peripheral\syslib/cy_syslib.c ****     if (ulpMode)
 891              		.loc 1 532 0 discriminator 4
 892 00e2 FB79     		ldrb	r3, [r7, #7]	@ zero_extendqisi2
 893 00e4 002B     		cmp	r3, #0
 894 00e6 0CD0     		beq	.L45
 533:Generated_Source\PSoC6\pdl\drivers\peripheral\syslib/cy_syslib.c ****     {
ARM GAS  C:\Users\stijn\AppData\Local\Temp\ccLepBqo.s 			page 40


 534:Generated_Source\PSoC6\pdl\drivers\peripheral\syslib/cy_syslib.c ****         waitStates =  (clkHfMHz <= CY_SYSLIB_FLASH_ULP_WS_0_FREQ_MAX) ? 0UL :
 895              		.loc 1 534 0
 896 00e8 3B68     		ldr	r3, [r7]
 897 00ea 102B     		cmp	r3, #16
 898 00ec 06D9     		bls	.L46
 535:Generated_Source\PSoC6\pdl\drivers\peripheral\syslib/cy_syslib.c ****                      ((clkHfMHz <= CY_SYSLIB_FLASH_ULP_WS_1_FREQ_MAX) ? 1UL : 2UL);
 899              		.loc 1 535 0
 900 00ee 3B68     		ldr	r3, [r7]
 901 00f0 212B     		cmp	r3, #33
 902 00f2 01D8     		bhi	.L47
 903              		.loc 1 535 0 is_stmt 0 discriminator 1
 904 00f4 0123     		movs	r3, #1
 905 00f6 02E0     		b	.L49
 906              	.L47:
 907              		.loc 1 535 0 discriminator 2
 908 00f8 0223     		movs	r3, #2
 909 00fa 00E0     		b	.L49
 910              	.L46:
 534:Generated_Source\PSoC6\pdl\drivers\peripheral\syslib/cy_syslib.c ****                      ((clkHfMHz <= CY_SYSLIB_FLASH_ULP_WS_1_FREQ_MAX) ? 1UL : 2UL);
 911              		.loc 1 534 0 is_stmt 1 discriminator 1
 912 00fc 0023     		movs	r3, #0
 913              	.L49:
 534:Generated_Source\PSoC6\pdl\drivers\peripheral\syslib/cy_syslib.c ****                      ((clkHfMHz <= CY_SYSLIB_FLASH_ULP_WS_1_FREQ_MAX) ? 1UL : 2UL);
 914              		.loc 1 534 0 is_stmt 0 discriminator 3
 915 00fe FB60     		str	r3, [r7, #12]
 916 0100 33E0     		b	.L50
 917              	.L45:
 536:Generated_Source\PSoC6\pdl\drivers\peripheral\syslib/cy_syslib.c ****     }
 537:Generated_Source\PSoC6\pdl\drivers\peripheral\syslib/cy_syslib.c ****     else
 538:Generated_Source\PSoC6\pdl\drivers\peripheral\syslib/cy_syslib.c ****     {
 539:Generated_Source\PSoC6\pdl\drivers\peripheral\syslib/cy_syslib.c ****         waitStates =  (clkHfMHz <= cy_device->flashCtlMainWs0Freq) ? 0UL :
 918              		.loc 1 539 0 is_stmt 1
 919 0102 244B     		ldr	r3, .L61
 920 0104 1B68     		ldr	r3, [r3]
 921 0106 93F85530 		ldrb	r3, [r3, #85]	@ zero_extendqisi2
 922 010a 1A46     		mov	r2, r3
 923 010c 3B68     		ldr	r3, [r7]
 924 010e 9A42     		cmp	r2, r3
 925 0110 29D2     		bcs	.L51
 540:Generated_Source\PSoC6\pdl\drivers\peripheral\syslib/cy_syslib.c ****                      ((clkHfMHz <= cy_device->flashCtlMainWs1Freq) ? 1UL :
 926              		.loc 1 540 0
 927 0112 204B     		ldr	r3, .L61
 928 0114 1B68     		ldr	r3, [r3]
 929 0116 93F85630 		ldrb	r3, [r3, #86]	@ zero_extendqisi2
 930 011a 1A46     		mov	r2, r3
 931 011c 3B68     		ldr	r3, [r7]
 932 011e 9A42     		cmp	r2, r3
 933 0120 1FD2     		bcs	.L52
 541:Generated_Source\PSoC6\pdl\drivers\peripheral\syslib/cy_syslib.c ****                      ((clkHfMHz <= cy_device->flashCtlMainWs2Freq) ? 2UL :
 934              		.loc 1 541 0
 935 0122 1C4B     		ldr	r3, .L61
 936 0124 1B68     		ldr	r3, [r3]
 937 0126 93F85730 		ldrb	r3, [r3, #87]	@ zero_extendqisi2
 938 012a 1A46     		mov	r2, r3
 939 012c 3B68     		ldr	r3, [r7]
 940 012e 9A42     		cmp	r2, r3
 941 0130 15D2     		bcs	.L53
ARM GAS  C:\Users\stijn\AppData\Local\Temp\ccLepBqo.s 			page 41


 542:Generated_Source\PSoC6\pdl\drivers\peripheral\syslib/cy_syslib.c ****                      ((clkHfMHz <= cy_device->flashCtlMainWs3Freq) ? 3UL : 
 942              		.loc 1 542 0
 943 0132 184B     		ldr	r3, .L61
 944 0134 1B68     		ldr	r3, [r3]
 945 0136 93F85830 		ldrb	r3, [r3, #88]	@ zero_extendqisi2
 946 013a 1A46     		mov	r2, r3
 947 013c 3B68     		ldr	r3, [r7]
 948 013e 9A42     		cmp	r2, r3
 949 0140 0BD2     		bcs	.L54
 543:Generated_Source\PSoC6\pdl\drivers\peripheral\syslib/cy_syslib.c ****                      ((clkHfMHz <= cy_device->flashCtlMainWs4Freq) ? 4UL : 5UL))));
 950              		.loc 1 543 0
 951 0142 144B     		ldr	r3, .L61
 952 0144 1B68     		ldr	r3, [r3]
 953 0146 93F85930 		ldrb	r3, [r3, #89]	@ zero_extendqisi2
 954 014a 1A46     		mov	r2, r3
 955 014c 3B68     		ldr	r3, [r7]
 956 014e 9A42     		cmp	r2, r3
 957 0150 01D3     		bcc	.L55
 958              		.loc 1 543 0 is_stmt 0 discriminator 1
 959 0152 0423     		movs	r3, #4
 960 0154 08E0     		b	.L60
 961              	.L55:
 962              		.loc 1 543 0 discriminator 2
 963 0156 0523     		movs	r3, #5
 964 0158 06E0     		b	.L60
 965              	.L54:
 542:Generated_Source\PSoC6\pdl\drivers\peripheral\syslib/cy_syslib.c ****                      ((clkHfMHz <= cy_device->flashCtlMainWs3Freq) ? 3UL : 
 966              		.loc 1 542 0 is_stmt 1 discriminator 1
 967 015a 0323     		movs	r3, #3
 968 015c 04E0     		b	.L60
 969              	.L53:
 541:Generated_Source\PSoC6\pdl\drivers\peripheral\syslib/cy_syslib.c ****                      ((clkHfMHz <= cy_device->flashCtlMainWs2Freq) ? 2UL :
 970              		.loc 1 541 0 discriminator 1
 971 015e 0223     		movs	r3, #2
 972 0160 02E0     		b	.L60
 973              	.L52:
 540:Generated_Source\PSoC6\pdl\drivers\peripheral\syslib/cy_syslib.c ****                      ((clkHfMHz <= cy_device->flashCtlMainWs2Freq) ? 2UL :
 974              		.loc 1 540 0 discriminator 1
 975 0162 0123     		movs	r3, #1
 976 0164 00E0     		b	.L60
 977              	.L51:
 539:Generated_Source\PSoC6\pdl\drivers\peripheral\syslib/cy_syslib.c ****                      ((clkHfMHz <= cy_device->flashCtlMainWs1Freq) ? 1UL :
 978              		.loc 1 539 0 discriminator 1
 979 0166 0023     		movs	r3, #0
 980              	.L60:
 539:Generated_Source\PSoC6\pdl\drivers\peripheral\syslib/cy_syslib.c ****                      ((clkHfMHz <= cy_device->flashCtlMainWs1Freq) ? 1UL :
 981              		.loc 1 539 0 is_stmt 0 discriminator 3
 982 0168 FB60     		str	r3, [r7, #12]
 983              	.L50:
 544:Generated_Source\PSoC6\pdl\drivers\peripheral\syslib/cy_syslib.c ****     }
 545:Generated_Source\PSoC6\pdl\drivers\peripheral\syslib/cy_syslib.c **** 
 546:Generated_Source\PSoC6\pdl\drivers\peripheral\syslib/cy_syslib.c ****     FLASHC_FLASH_CTL = _CLR_SET_FLD32U(FLASHC_FLASH_CTL, FLASHC_FLASH_CTL_MAIN_WS, waitStates);
 984              		.loc 1 546 0 is_stmt 1
 985 016a 0A4B     		ldr	r3, .L61
 986 016c 1B68     		ldr	r3, [r3]
 987 016e 5B68     		ldr	r3, [r3, #4]
 988 0170 1946     		mov	r1, r3
ARM GAS  C:\Users\stijn\AppData\Local\Temp\ccLepBqo.s 			page 42


 989 0172 084B     		ldr	r3, .L61
 990 0174 1B68     		ldr	r3, [r3]
 991 0176 5B68     		ldr	r3, [r3, #4]
 992 0178 1B68     		ldr	r3, [r3]
 993 017a 23F00F02 		bic	r2, r3, #15
 994 017e FB68     		ldr	r3, [r7, #12]
 995 0180 03F00F03 		and	r3, r3, #15
 996 0184 1343     		orrs	r3, r3, r2
 997 0186 0B60     		str	r3, [r1]
 547:Generated_Source\PSoC6\pdl\drivers\peripheral\syslib/cy_syslib.c **** }
 998              		.loc 1 547 0
 999 0188 00BF     		nop
 1000 018a 1437     		adds	r7, r7, #20
 1001              		.cfi_def_cfa_offset 4
 1002 018c BD46     		mov	sp, r7
 1003              		.cfi_def_cfa_register 13
 1004              		@ sp needed
 1005 018e 5DF8047B 		ldr	r7, [sp], #4
 1006              		.cfi_restore 7
 1007              		.cfi_def_cfa_offset 0
 1008 0192 7047     		bx	lr
 1009              	.L62:
 1010              		.align	2
 1011              	.L61:
 1012 0194 00000000 		.word	cy_device
 1013              		.cfi_endproc
 1014              	.LFE162:
 1015              		.size	Cy_SysLib_SetWaitStates, .-Cy_SysLib_SetWaitStates
 1016              		.text
 1017              	.Letext0:
 1018              		.file 3 "c:\\program files (x86)\\cypress\\psoc creator\\4.2\\psoc creator\\import\\gnu\\arm\\5.4.
 1019              		.file 4 "c:\\program files (x86)\\cypress\\psoc creator\\4.2\\psoc creator\\import\\gnu\\arm\\5.4.
 1020              		.file 5 "Generated_Source\\PSoC6\\pdl\\devices/psoc6/include/ip/cyip_flashc.h"
 1021              		.file 6 "Generated_Source\\PSoC6\\pdl\\devices/psoc6/include/ip/cyip_sflash.h"
 1022              		.file 7 "Generated_Source\\PSoC6\\pdl\\devices/psoc6/include/ip/cyip_srss.h"
 1023              		.file 8 "Generated_Source\\PSoC6\\pdl\\devices/psoc6/include/ip/cyip_backup.h"
 1024              		.file 9 "Generated_Source\\PSoC6\\pdl\\drivers/peripheral/device/cy_device.h"
 1025              		.file 10 "Generated_Source\\PSoC6\\pdl\\cmsis/include/core_cm4.h"
 1026              		.file 11 "Generated_Source\\PSoC6\\pdl\\devices/psoc6/include/psoc6_01_config.h"
 1027              		.file 12 "Generated_Source\\PSoC6\\pdl\\drivers\\peripheral\\syslib\\cy_syslib.h"
 1028              		.file 13 "./system_psoc6.h"
 1029              		.section	.debug_info,"",%progbits
 1030              	.Ldebug_info0:
 1031 0000 63240000 		.4byte	0x2463
 1032 0004 0400     		.2byte	0x4
 1033 0006 00000000 		.4byte	.Ldebug_abbrev0
 1034 000a 04       		.byte	0x4
 1035 000b 01       		.uleb128 0x1
 1036 000c 6C140000 		.4byte	.LASF491
 1037 0010 0C       		.byte	0xc
 1038 0011 0E020000 		.4byte	.LASF492
 1039 0015 A11B0000 		.4byte	.LASF493
 1040 0019 00000000 		.4byte	.Ldebug_ranges0+0
 1041 001d 00000000 		.4byte	0
 1042 0021 00000000 		.4byte	.Ldebug_line0
 1043 0025 02       		.uleb128 0x2
 1044 0026 01       		.byte	0x1
ARM GAS  C:\Users\stijn\AppData\Local\Temp\ccLepBqo.s 			page 43


 1045 0027 06       		.byte	0x6
 1046 0028 BB040000 		.4byte	.LASF0
 1047 002c 03       		.uleb128 0x3
 1048 002d 4B030000 		.4byte	.LASF2
 1049 0031 03       		.byte	0x3
 1050 0032 1D       		.byte	0x1d
 1051 0033 37000000 		.4byte	0x37
 1052 0037 02       		.uleb128 0x2
 1053 0038 01       		.byte	0x1
 1054 0039 08       		.byte	0x8
 1055 003a 15000000 		.4byte	.LASF1
 1056 003e 03       		.uleb128 0x3
 1057 003f 5B150000 		.4byte	.LASF3
 1058 0043 03       		.byte	0x3
 1059 0044 29       		.byte	0x29
 1060 0045 49000000 		.4byte	0x49
 1061 0049 02       		.uleb128 0x2
 1062 004a 02       		.byte	0x2
 1063 004b 05       		.byte	0x5
 1064 004c E1160000 		.4byte	.LASF4
 1065 0050 03       		.uleb128 0x3
 1066 0051 D1070000 		.4byte	.LASF5
 1067 0055 03       		.byte	0x3
 1068 0056 2B       		.byte	0x2b
 1069 0057 5B000000 		.4byte	0x5b
 1070 005b 02       		.uleb128 0x2
 1071 005c 02       		.byte	0x2
 1072 005d 07       		.byte	0x7
 1073 005e 961A0000 		.4byte	.LASF6
 1074 0062 03       		.uleb128 0x3
 1075 0063 21160000 		.4byte	.LASF7
 1076 0067 03       		.byte	0x3
 1077 0068 3F       		.byte	0x3f
 1078 0069 6D000000 		.4byte	0x6d
 1079 006d 02       		.uleb128 0x2
 1080 006e 04       		.byte	0x4
 1081 006f 05       		.byte	0x5
 1082 0070 A0030000 		.4byte	.LASF8
 1083 0074 03       		.uleb128 0x3
 1084 0075 640B0000 		.4byte	.LASF9
 1085 0079 03       		.byte	0x3
 1086 007a 41       		.byte	0x41
 1087 007b 7F000000 		.4byte	0x7f
 1088 007f 02       		.uleb128 0x2
 1089 0080 04       		.byte	0x4
 1090 0081 07       		.byte	0x7
 1091 0082 3D0B0000 		.4byte	.LASF10
 1092 0086 02       		.uleb128 0x2
 1093 0087 08       		.byte	0x8
 1094 0088 05       		.byte	0x5
 1095 0089 6D0D0000 		.4byte	.LASF11
 1096 008d 03       		.uleb128 0x3
 1097 008e E1120000 		.4byte	.LASF12
 1098 0092 03       		.byte	0x3
 1099 0093 5B       		.byte	0x5b
 1100 0094 98000000 		.4byte	0x98
 1101 0098 02       		.uleb128 0x2
ARM GAS  C:\Users\stijn\AppData\Local\Temp\ccLepBqo.s 			page 44


 1102 0099 08       		.byte	0x8
 1103 009a 07       		.byte	0x7
 1104 009b 08080000 		.4byte	.LASF13
 1105 009f 04       		.uleb128 0x4
 1106 00a0 04       		.byte	0x4
 1107 00a1 05       		.byte	0x5
 1108 00a2 696E7400 		.ascii	"int\000"
 1109 00a6 02       		.uleb128 0x2
 1110 00a7 04       		.byte	0x4
 1111 00a8 07       		.byte	0x7
 1112 00a9 800F0000 		.4byte	.LASF14
 1113 00ad 03       		.uleb128 0x3
 1114 00ae C7040000 		.4byte	.LASF15
 1115 00b2 04       		.byte	0x4
 1116 00b3 18       		.byte	0x18
 1117 00b4 2C000000 		.4byte	0x2c
 1118 00b8 03       		.uleb128 0x3
 1119 00b9 53170000 		.4byte	.LASF16
 1120 00bd 04       		.byte	0x4
 1121 00be 20       		.byte	0x20
 1122 00bf 3E000000 		.4byte	0x3e
 1123 00c3 03       		.uleb128 0x3
 1124 00c4 F7120000 		.4byte	.LASF17
 1125 00c8 04       		.byte	0x4
 1126 00c9 24       		.byte	0x24
 1127 00ca 50000000 		.4byte	0x50
 1128 00ce 03       		.uleb128 0x3
 1129 00cf 32140000 		.4byte	.LASF18
 1130 00d3 04       		.byte	0x4
 1131 00d4 2C       		.byte	0x2c
 1132 00d5 62000000 		.4byte	0x62
 1133 00d9 03       		.uleb128 0x3
 1134 00da 97190000 		.4byte	.LASF19
 1135 00de 04       		.byte	0x4
 1136 00df 30       		.byte	0x30
 1137 00e0 74000000 		.4byte	0x74
 1138 00e4 03       		.uleb128 0x3
 1139 00e5 EB160000 		.4byte	.LASF20
 1140 00e9 04       		.byte	0x4
 1141 00ea 3C       		.byte	0x3c
 1142 00eb 8D000000 		.4byte	0x8d
 1143 00ef 02       		.uleb128 0x2
 1144 00f0 08       		.byte	0x8
 1145 00f1 04       		.byte	0x4
 1146 00f2 DA110000 		.4byte	.LASF21
 1147 00f6 05       		.uleb128 0x5
 1148 00f7 D9000000 		.4byte	0xd9
 1149 00fb 06       		.uleb128 0x6
 1150 00fc F6000000 		.4byte	0xf6
 1151 0100 02       		.uleb128 0x2
 1152 0101 04       		.byte	0x4
 1153 0102 07       		.byte	0x7
 1154 0103 42000000 		.4byte	.LASF22
 1155 0107 07       		.uleb128 0x7
 1156 0108 FB000000 		.4byte	0xfb
 1157 010c 17010000 		.4byte	0x117
 1158 0110 08       		.uleb128 0x8
ARM GAS  C:\Users\stijn\AppData\Local\Temp\ccLepBqo.s 			page 45


 1159 0111 00010000 		.4byte	0x100
 1160 0115 0F       		.byte	0xf
 1161 0116 00       		.byte	0
 1162 0117 07       		.uleb128 0x7
 1163 0118 F6000000 		.4byte	0xf6
 1164 011c 27010000 		.4byte	0x127
 1165 0120 08       		.uleb128 0x8
 1166 0121 00010000 		.4byte	0x100
 1167 0125 0F       		.byte	0xf
 1168 0126 00       		.byte	0
 1169 0127 07       		.uleb128 0x7
 1170 0128 FB000000 		.4byte	0xfb
 1171 012c 37010000 		.4byte	0x137
 1172 0130 08       		.uleb128 0x8
 1173 0131 00010000 		.4byte	0x100
 1174 0135 06       		.byte	0x6
 1175 0136 00       		.byte	0
 1176 0137 07       		.uleb128 0x7
 1177 0138 FB000000 		.4byte	0xfb
 1178 013c 47010000 		.4byte	0x147
 1179 0140 08       		.uleb128 0x8
 1180 0141 00010000 		.4byte	0x100
 1181 0145 03       		.byte	0x3
 1182 0146 00       		.byte	0
 1183 0147 07       		.uleb128 0x7
 1184 0148 FB000000 		.4byte	0xfb
 1185 014c 57010000 		.4byte	0x157
 1186 0150 08       		.uleb128 0x8
 1187 0151 00010000 		.4byte	0x100
 1188 0155 04       		.byte	0x4
 1189 0156 00       		.byte	0
 1190 0157 07       		.uleb128 0x7
 1191 0158 FB000000 		.4byte	0xfb
 1192 015c 67010000 		.4byte	0x167
 1193 0160 08       		.uleb128 0x8
 1194 0161 00010000 		.4byte	0x100
 1195 0165 1A       		.byte	0x1a
 1196 0166 00       		.byte	0
 1197 0167 07       		.uleb128 0x7
 1198 0168 FB000000 		.4byte	0xfb
 1199 016c 77010000 		.4byte	0x177
 1200 0170 08       		.uleb128 0x8
 1201 0171 00010000 		.4byte	0x100
 1202 0175 3C       		.byte	0x3c
 1203 0176 00       		.byte	0
 1204 0177 07       		.uleb128 0x7
 1205 0178 FB000000 		.4byte	0xfb
 1206 017c 87010000 		.4byte	0x187
 1207 0180 08       		.uleb128 0x8
 1208 0181 00010000 		.4byte	0x100
 1209 0185 0C       		.byte	0xc
 1210 0186 00       		.byte	0
 1211 0187 07       		.uleb128 0x7
 1212 0188 FB000000 		.4byte	0xfb
 1213 018c 97010000 		.4byte	0x197
 1214 0190 08       		.uleb128 0x8
 1215 0191 00010000 		.4byte	0x100
ARM GAS  C:\Users\stijn\AppData\Local\Temp\ccLepBqo.s 			page 46


 1216 0195 1C       		.byte	0x1c
 1217 0196 00       		.byte	0
 1218 0197 09       		.uleb128 0x9
 1219 0198 0010     		.2byte	0x1000
 1220 019a 05       		.byte	0x5
 1221 019b 22       		.byte	0x22
 1222 019c 55030000 		.4byte	0x355
 1223 01a0 0A       		.uleb128 0xa
 1224 01a1 76060000 		.4byte	.LASF23
 1225 01a5 05       		.byte	0x5
 1226 01a6 23       		.byte	0x23
 1227 01a7 F6000000 		.4byte	0xf6
 1228 01ab 00       		.byte	0
 1229 01ac 0A       		.uleb128 0xa
 1230 01ad 93150000 		.4byte	.LASF24
 1231 01b1 05       		.byte	0x5
 1232 01b2 24       		.byte	0x24
 1233 01b3 FB000000 		.4byte	0xfb
 1234 01b7 04       		.byte	0x4
 1235 01b8 0A       		.uleb128 0xa
 1236 01b9 D9160000 		.4byte	.LASF25
 1237 01bd 05       		.byte	0x5
 1238 01be 25       		.byte	0x25
 1239 01bf F6000000 		.4byte	0xf6
 1240 01c3 08       		.byte	0x8
 1241 01c4 0A       		.uleb128 0xa
 1242 01c5 AD0C0000 		.4byte	.LASF26
 1243 01c9 05       		.byte	0x5
 1244 01ca 26       		.byte	0x26
 1245 01cb FB000000 		.4byte	0xfb
 1246 01cf 0C       		.byte	0xc
 1247 01d0 0A       		.uleb128 0xa
 1248 01d1 61050000 		.4byte	.LASF27
 1249 01d5 05       		.byte	0x5
 1250 01d6 27       		.byte	0x27
 1251 01d7 FB000000 		.4byte	0xfb
 1252 01db 10       		.byte	0x10
 1253 01dc 0A       		.uleb128 0xa
 1254 01dd 341A0000 		.4byte	.LASF28
 1255 01e1 05       		.byte	0x5
 1256 01e2 28       		.byte	0x28
 1257 01e3 F6000000 		.4byte	0xf6
 1258 01e7 14       		.byte	0x14
 1259 01e8 0A       		.uleb128 0xa
 1260 01e9 F2010000 		.4byte	.LASF29
 1261 01ed 05       		.byte	0x5
 1262 01ee 29       		.byte	0x29
 1263 01ef F6000000 		.4byte	0xf6
 1264 01f3 18       		.byte	0x18
 1265 01f4 0A       		.uleb128 0xa
 1266 01f5 05020000 		.4byte	.LASF30
 1267 01f9 05       		.byte	0x5
 1268 01fa 2A       		.byte	0x2a
 1269 01fb F6000000 		.4byte	0xf6
 1270 01ff 1C       		.byte	0x1c
 1271 0200 0A       		.uleb128 0xa
 1272 0201 31110000 		.4byte	.LASF31
ARM GAS  C:\Users\stijn\AppData\Local\Temp\ccLepBqo.s 			page 47


 1273 0205 05       		.byte	0x5
 1274 0206 2B       		.byte	0x2b
 1275 0207 FB000000 		.4byte	0xfb
 1276 020b 20       		.byte	0x20
 1277 020c 0A       		.uleb128 0xa
 1278 020d 11040000 		.4byte	.LASF32
 1279 0211 05       		.byte	0x5
 1280 0212 2C       		.byte	0x2c
 1281 0213 F6000000 		.4byte	0xf6
 1282 0217 24       		.byte	0x24
 1283 0218 0A       		.uleb128 0xa
 1284 0219 EC0B0000 		.4byte	.LASF33
 1285 021d 05       		.byte	0x5
 1286 021e 2D       		.byte	0x2d
 1287 021f F6000000 		.4byte	0xf6
 1288 0223 28       		.byte	0x28
 1289 0224 0A       		.uleb128 0xa
 1290 0225 E6110000 		.4byte	.LASF34
 1291 0229 05       		.byte	0x5
 1292 022a 2E       		.byte	0x2e
 1293 022b FB000000 		.4byte	0xfb
 1294 022f 2C       		.byte	0x2c
 1295 0230 0A       		.uleb128 0xa
 1296 0231 CA120000 		.4byte	.LASF35
 1297 0235 05       		.byte	0x5
 1298 0236 2F       		.byte	0x2f
 1299 0237 F6000000 		.4byte	0xf6
 1300 023b 30       		.byte	0x30
 1301 023c 0A       		.uleb128 0xa
 1302 023d E2010000 		.4byte	.LASF36
 1303 0241 05       		.byte	0x5
 1304 0242 30       		.byte	0x30
 1305 0243 F6000000 		.4byte	0xf6
 1306 0247 34       		.byte	0x34
 1307 0248 0A       		.uleb128 0xa
 1308 0249 82030000 		.4byte	.LASF37
 1309 024d 05       		.byte	0x5
 1310 024e 31       		.byte	0x31
 1311 024f F6000000 		.4byte	0xf6
 1312 0253 38       		.byte	0x38
 1313 0254 0A       		.uleb128 0xa
 1314 0255 370C0000 		.4byte	.LASF38
 1315 0259 05       		.byte	0x5
 1316 025a 32       		.byte	0x32
 1317 025b F6000000 		.4byte	0xf6
 1318 025f 3C       		.byte	0x3c
 1319 0260 0A       		.uleb128 0xa
 1320 0261 F5110000 		.4byte	.LASF39
 1321 0265 05       		.byte	0x5
 1322 0266 33       		.byte	0x33
 1323 0267 F6000000 		.4byte	0xf6
 1324 026b 40       		.byte	0x40
 1325 026c 0A       		.uleb128 0xa
 1326 026d 8C020000 		.4byte	.LASF40
 1327 0271 05       		.byte	0x5
 1328 0272 34       		.byte	0x34
 1329 0273 F6000000 		.4byte	0xf6
ARM GAS  C:\Users\stijn\AppData\Local\Temp\ccLepBqo.s 			page 48


 1330 0277 44       		.byte	0x44
 1331 0278 0A       		.uleb128 0xa
 1332 0279 A9010000 		.4byte	.LASF41
 1333 027d 05       		.byte	0x5
 1334 027e 35       		.byte	0x35
 1335 027f FB000000 		.4byte	0xfb
 1336 0283 48       		.byte	0x48
 1337 0284 0A       		.uleb128 0xa
 1338 0285 F0180000 		.4byte	.LASF42
 1339 0289 05       		.byte	0x5
 1340 028a 36       		.byte	0x36
 1341 028b F6000000 		.4byte	0xf6
 1342 028f 4C       		.byte	0x4c
 1343 0290 0A       		.uleb128 0xa
 1344 0291 7B0D0000 		.4byte	.LASF43
 1345 0295 05       		.byte	0x5
 1346 0296 38       		.byte	0x38
 1347 0297 F6000000 		.4byte	0xf6
 1348 029b 50       		.byte	0x50
 1349 029c 0A       		.uleb128 0xa
 1350 029d B7050000 		.4byte	.LASF44
 1351 02a1 05       		.byte	0x5
 1352 02a2 39       		.byte	0x39
 1353 02a3 F6000000 		.4byte	0xf6
 1354 02a7 54       		.byte	0x54
 1355 02a8 0A       		.uleb128 0xa
 1356 02a9 C0050000 		.4byte	.LASF45
 1357 02ad 05       		.byte	0x5
 1358 02ae 3A       		.byte	0x3a
 1359 02af F6000000 		.4byte	0xf6
 1360 02b3 58       		.byte	0x58
 1361 02b4 0A       		.uleb128 0xa
 1362 02b5 C9050000 		.4byte	.LASF46
 1363 02b9 05       		.byte	0x5
 1364 02ba 3B       		.byte	0x3b
 1365 02bb F6000000 		.4byte	0xf6
 1366 02bf 5C       		.byte	0x5c
 1367 02c0 0A       		.uleb128 0xa
 1368 02c1 65080000 		.4byte	.LASF47
 1369 02c5 05       		.byte	0x5
 1370 02c6 3C       		.byte	0x3c
 1371 02c7 F6000000 		.4byte	0xf6
 1372 02cb 60       		.byte	0x60
 1373 02cc 0A       		.uleb128 0xa
 1374 02cd C5090000 		.4byte	.LASF48
 1375 02d1 05       		.byte	0x5
 1376 02d2 3D       		.byte	0x3d
 1377 02d3 5A030000 		.4byte	0x35a
 1378 02d7 64       		.byte	0x64
 1379 02d8 0A       		.uleb128 0xa
 1380 02d9 8B030000 		.4byte	.LASF49
 1381 02dd 05       		.byte	0x5
 1382 02de 3E       		.byte	0x3e
 1383 02df F6000000 		.4byte	0xf6
 1384 02e3 80       		.byte	0x80
 1385 02e4 0A       		.uleb128 0xa
 1386 02e5 B5010000 		.4byte	.LASF50
ARM GAS  C:\Users\stijn\AppData\Local\Temp\ccLepBqo.s 			page 49


 1387 02e9 05       		.byte	0x5
 1388 02ea 3F       		.byte	0x3f
 1389 02eb F6000000 		.4byte	0xf6
 1390 02ef 84       		.byte	0x84
 1391 02f0 0A       		.uleb128 0xa
 1392 02f1 72070000 		.4byte	.LASF51
 1393 02f5 05       		.byte	0x5
 1394 02f6 40       		.byte	0x40
 1395 02f7 F6000000 		.4byte	0xf6
 1396 02fb 88       		.byte	0x88
 1397 02fc 0A       		.uleb128 0xa
 1398 02fd 54090000 		.4byte	.LASF52
 1399 0301 05       		.byte	0x5
 1400 0302 41       		.byte	0x41
 1401 0303 F6000000 		.4byte	0xf6
 1402 0307 8C       		.byte	0x8c
 1403 0308 0A       		.uleb128 0xa
 1404 0309 A0190000 		.4byte	.LASF53
 1405 030d 05       		.byte	0x5
 1406 030e 42       		.byte	0x42
 1407 030f F6000000 		.4byte	0xf6
 1408 0313 90       		.byte	0x90
 1409 0314 0A       		.uleb128 0xa
 1410 0315 F5050000 		.4byte	.LASF54
 1411 0319 05       		.byte	0x5
 1412 031a 43       		.byte	0x43
 1413 031b 64030000 		.4byte	0x364
 1414 031f 94       		.byte	0x94
 1415 0320 0B       		.uleb128 0xb
 1416 0321 55010000 		.4byte	.LASF55
 1417 0325 05       		.byte	0x5
 1418 0326 44       		.byte	0x44
 1419 0327 7E030000 		.4byte	0x37e
 1420 032b 0001     		.2byte	0x100
 1421 032d 0B       		.uleb128 0xb
 1422 032e 21070000 		.4byte	.LASF56
 1423 0332 05       		.byte	0x5
 1424 0333 45       		.byte	0x45
 1425 0334 99030000 		.4byte	0x399
 1426 0338 8001     		.2byte	0x180
 1427 033a 0B       		.uleb128 0xb
 1428 033b A2170000 		.4byte	.LASF57
 1429 033f 05       		.byte	0x5
 1430 0340 46       		.byte	0x46
 1431 0341 AE030000 		.4byte	0x3ae
 1432 0345 0008     		.2byte	0x800
 1433 0347 0B       		.uleb128 0xb
 1434 0348 76030000 		.4byte	.LASF58
 1435 034c 05       		.byte	0x5
 1436 034d 47       		.byte	0x47
 1437 034e C8030000 		.4byte	0x3c8
 1438 0352 000C     		.2byte	0xc00
 1439 0354 00       		.byte	0
 1440 0355 05       		.uleb128 0x5
 1441 0356 27010000 		.4byte	0x127
 1442 035a 06       		.uleb128 0x6
 1443 035b 55030000 		.4byte	0x355
ARM GAS  C:\Users\stijn\AppData\Local\Temp\ccLepBqo.s 			page 50


 1444 035f 05       		.uleb128 0x5
 1445 0360 57010000 		.4byte	0x157
 1446 0364 06       		.uleb128 0x6
 1447 0365 5F030000 		.4byte	0x35f
 1448 0369 07       		.uleb128 0x7
 1449 036a FB000000 		.4byte	0xfb
 1450 036e 79030000 		.4byte	0x379
 1451 0372 08       		.uleb128 0x8
 1452 0373 00010000 		.4byte	0x100
 1453 0377 1F       		.byte	0x1f
 1454 0378 00       		.byte	0
 1455 0379 05       		.uleb128 0x5
 1456 037a 69030000 		.4byte	0x369
 1457 037e 06       		.uleb128 0x6
 1458 037f 79030000 		.4byte	0x379
 1459 0383 07       		.uleb128 0x7
 1460 0384 FB000000 		.4byte	0xfb
 1461 0388 94030000 		.4byte	0x394
 1462 038c 0C       		.uleb128 0xc
 1463 038d 00010000 		.4byte	0x100
 1464 0391 9F01     		.2byte	0x19f
 1465 0393 00       		.byte	0
 1466 0394 05       		.uleb128 0x5
 1467 0395 83030000 		.4byte	0x383
 1468 0399 06       		.uleb128 0x6
 1469 039a 94030000 		.4byte	0x394
 1470 039e 07       		.uleb128 0x7
 1471 039f F6000000 		.4byte	0xf6
 1472 03a3 AE030000 		.4byte	0x3ae
 1473 03a7 08       		.uleb128 0x8
 1474 03a8 00010000 		.4byte	0x100
 1475 03ac FF       		.byte	0xff
 1476 03ad 00       		.byte	0
 1477 03ae 05       		.uleb128 0x5
 1478 03af 9E030000 		.4byte	0x39e
 1479 03b3 07       		.uleb128 0x7
 1480 03b4 FB000000 		.4byte	0xfb
 1481 03b8 C3030000 		.4byte	0x3c3
 1482 03bc 08       		.uleb128 0x8
 1483 03bd 00010000 		.4byte	0x100
 1484 03c1 FF       		.byte	0xff
 1485 03c2 00       		.byte	0
 1486 03c3 05       		.uleb128 0x5
 1487 03c4 B3030000 		.4byte	0x3b3
 1488 03c8 06       		.uleb128 0x6
 1489 03c9 C3030000 		.4byte	0x3c3
 1490 03cd 03       		.uleb128 0x3
 1491 03ce 340A0000 		.4byte	.LASF59
 1492 03d2 05       		.byte	0x5
 1493 03d3 48       		.byte	0x48
 1494 03d4 97010000 		.4byte	0x197
 1495 03d8 0D       		.uleb128 0xd
 1496 03d9 00000100 		.4byte	0x10000
 1497 03dd 05       		.byte	0x5
 1498 03de 4D       		.byte	0x4d
 1499 03df B8060000 		.4byte	0x6b8
 1500 03e3 0A       		.uleb128 0xa
ARM GAS  C:\Users\stijn\AppData\Local\Temp\ccLepBqo.s 			page 51


 1501 03e4 78100000 		.4byte	.LASF60
 1502 03e8 05       		.byte	0x5
 1503 03e9 4E       		.byte	0x4e
 1504 03ea F6000000 		.4byte	0xf6
 1505 03ee 00       		.byte	0
 1506 03ef 0A       		.uleb128 0xa
 1507 03f0 E2000000 		.4byte	.LASF61
 1508 03f4 05       		.byte	0x5
 1509 03f5 4F       		.byte	0x4f
 1510 03f6 F6000000 		.4byte	0xf6
 1511 03fa 04       		.byte	0x4
 1512 03fb 0A       		.uleb128 0xa
 1513 03fc E8090000 		.4byte	.LASF62
 1514 0400 05       		.byte	0x5
 1515 0401 50       		.byte	0x50
 1516 0402 F6000000 		.4byte	0xf6
 1517 0406 08       		.byte	0x8
 1518 0407 0A       		.uleb128 0xa
 1519 0408 C5090000 		.4byte	.LASF48
 1520 040c 05       		.byte	0x5
 1521 040d 51       		.byte	0x51
 1522 040e BD060000 		.4byte	0x6bd
 1523 0412 0C       		.byte	0xc
 1524 0413 0B       		.uleb128 0xb
 1525 0414 461B0000 		.4byte	.LASF63
 1526 0418 05       		.byte	0x5
 1527 0419 52       		.byte	0x52
 1528 041a F6000000 		.4byte	0xf6
 1529 041e 0001     		.2byte	0x100
 1530 0420 0B       		.uleb128 0xb
 1531 0421 F1130000 		.4byte	.LASF64
 1532 0425 05       		.byte	0x5
 1533 0426 53       		.byte	0x53
 1534 0427 F6000000 		.4byte	0xf6
 1535 042b 0401     		.2byte	0x104
 1536 042d 0B       		.uleb128 0xb
 1537 042e A7050000 		.4byte	.LASF65
 1538 0432 05       		.byte	0x5
 1539 0433 54       		.byte	0x54
 1540 0434 F6000000 		.4byte	0xf6
 1541 0438 0801     		.2byte	0x108
 1542 043a 0B       		.uleb128 0xb
 1543 043b 99000000 		.4byte	.LASF66
 1544 043f 05       		.byte	0x5
 1545 0440 55       		.byte	0x55
 1546 0441 D2060000 		.4byte	0x6d2
 1547 0445 0C01     		.2byte	0x10c
 1548 0447 0B       		.uleb128 0xb
 1549 0448 32040000 		.4byte	.LASF67
 1550 044c 05       		.byte	0x5
 1551 044d 56       		.byte	0x56
 1552 044e EC060000 		.4byte	0x6ec
 1553 0452 2C01     		.2byte	0x12c
 1554 0454 0B       		.uleb128 0xb
 1555 0455 9A120000 		.4byte	.LASF68
 1556 0459 05       		.byte	0x5
 1557 045a 57       		.byte	0x57
ARM GAS  C:\Users\stijn\AppData\Local\Temp\ccLepBqo.s 			page 52


 1558 045b F6060000 		.4byte	0x6f6
 1559 045f 4C01     		.2byte	0x14c
 1560 0461 0B       		.uleb128 0xb
 1561 0462 B2100000 		.4byte	.LASF69
 1562 0466 05       		.byte	0x5
 1563 0467 58       		.byte	0x58
 1564 0468 FB000000 		.4byte	0xfb
 1565 046c 6C01     		.2byte	0x16c
 1566 046e 0B       		.uleb128 0xb
 1567 046f CA150000 		.4byte	.LASF70
 1568 0473 05       		.byte	0x5
 1569 0474 59       		.byte	0x59
 1570 0475 F6000000 		.4byte	0xf6
 1571 0479 7001     		.2byte	0x170
 1572 047b 0B       		.uleb128 0xb
 1573 047c F5050000 		.4byte	.LASF54
 1574 0480 05       		.byte	0x5
 1575 0481 5A       		.byte	0x5a
 1576 0482 10070000 		.4byte	0x710
 1577 0486 7401     		.2byte	0x174
 1578 0488 0B       		.uleb128 0xb
 1579 0489 650A0000 		.4byte	.LASF71
 1580 048d 05       		.byte	0x5
 1581 048e 5B       		.byte	0x5b
 1582 048f F6000000 		.4byte	0xf6
 1583 0493 0004     		.2byte	0x400
 1584 0495 0B       		.uleb128 0xb
 1585 0496 710A0000 		.4byte	.LASF72
 1586 049a 05       		.byte	0x5
 1587 049b 5C       		.byte	0x5c
 1588 049c F6000000 		.4byte	0xf6
 1589 04a0 0404     		.2byte	0x404
 1590 04a2 0B       		.uleb128 0xb
 1591 04a3 64180000 		.4byte	.LASF73
 1592 04a7 05       		.byte	0x5
 1593 04a8 5D       		.byte	0x5d
 1594 04a9 F6000000 		.4byte	0xf6
 1595 04ad 0804     		.2byte	0x408
 1596 04af 0B       		.uleb128 0xb
 1597 04b0 95030000 		.4byte	.LASF74
 1598 04b4 05       		.byte	0x5
 1599 04b5 5E       		.byte	0x5e
 1600 04b6 F6000000 		.4byte	0xf6
 1601 04ba 0C04     		.2byte	0x40c
 1602 04bc 0B       		.uleb128 0xb
 1603 04bd 21070000 		.4byte	.LASF56
 1604 04c1 05       		.byte	0x5
 1605 04c2 5F       		.byte	0x5f
 1606 04c3 2A070000 		.4byte	0x72a
 1607 04c7 1004     		.2byte	0x410
 1608 04c9 0B       		.uleb128 0xb
 1609 04ca 61160000 		.4byte	.LASF75
 1610 04ce 05       		.byte	0x5
 1611 04cf 60       		.byte	0x60
 1612 04d0 FB000000 		.4byte	0xfb
 1613 04d4 4004     		.2byte	0x440
 1614 04d6 0B       		.uleb128 0xb
ARM GAS  C:\Users\stijn\AppData\Local\Temp\ccLepBqo.s 			page 53


 1615 04d7 70160000 		.4byte	.LASF76
 1616 04db 05       		.byte	0x5
 1617 04dc 61       		.byte	0x61
 1618 04dd FB000000 		.4byte	0xfb
 1619 04e1 4404     		.2byte	0x444
 1620 04e3 0B       		.uleb128 0xb
 1621 04e4 7F160000 		.4byte	.LASF77
 1622 04e8 05       		.byte	0x5
 1623 04e9 62       		.byte	0x62
 1624 04ea FB000000 		.4byte	0xfb
 1625 04ee 4804     		.2byte	0x448
 1626 04f0 0B       		.uleb128 0xb
 1627 04f1 2B070000 		.4byte	.LASF78
 1628 04f5 05       		.byte	0x5
 1629 04f6 63       		.byte	0x63
 1630 04f7 34070000 		.4byte	0x734
 1631 04fb 4C04     		.2byte	0x44c
 1632 04fd 0B       		.uleb128 0xb
 1633 04fe 3A140000 		.4byte	.LASF79
 1634 0502 05       		.byte	0x5
 1635 0503 64       		.byte	0x64
 1636 0504 F6000000 		.4byte	0xf6
 1637 0508 8004     		.2byte	0x480
 1638 050a 0B       		.uleb128 0xb
 1639 050b 46140000 		.4byte	.LASF80
 1640 050f 05       		.byte	0x5
 1641 0510 65       		.byte	0x65
 1642 0511 F6000000 		.4byte	0xf6
 1643 0515 8404     		.2byte	0x484
 1644 0517 0B       		.uleb128 0xb
 1645 0518 1E120000 		.4byte	.LASF81
 1646 051c 05       		.byte	0x5
 1647 051d 66       		.byte	0x66
 1648 051e F6000000 		.4byte	0xf6
 1649 0522 8804     		.2byte	0x488
 1650 0524 0B       		.uleb128 0xb
 1651 0525 D6120000 		.4byte	.LASF82
 1652 0529 05       		.byte	0x5
 1653 052a 67       		.byte	0x67
 1654 052b F6000000 		.4byte	0xf6
 1655 052f 8C04     		.2byte	0x48c
 1656 0531 0B       		.uleb128 0xb
 1657 0532 35060000 		.4byte	.LASF83
 1658 0536 05       		.byte	0x5
 1659 0537 68       		.byte	0x68
 1660 0538 3E070000 		.4byte	0x73e
 1661 053c 9004     		.2byte	0x490
 1662 053e 0B       		.uleb128 0xb
 1663 053f CC0D0000 		.4byte	.LASF84
 1664 0543 05       		.byte	0x5
 1665 0544 69       		.byte	0x69
 1666 0545 FB000000 		.4byte	0xfb
 1667 0549 C004     		.2byte	0x4c0
 1668 054b 0B       		.uleb128 0xb
 1669 054c DB0D0000 		.4byte	.LASF85
 1670 0550 05       		.byte	0x5
 1671 0551 6A       		.byte	0x6a
ARM GAS  C:\Users\stijn\AppData\Local\Temp\ccLepBqo.s 			page 54


 1672 0552 FB000000 		.4byte	0xfb
 1673 0556 C404     		.2byte	0x4c4
 1674 0558 0B       		.uleb128 0xb
 1675 0559 EA0D0000 		.4byte	.LASF86
 1676 055d 05       		.byte	0x5
 1677 055e 6B       		.byte	0x6b
 1678 055f FB000000 		.4byte	0xfb
 1679 0563 C804     		.2byte	0x4c8
 1680 0565 0B       		.uleb128 0xb
 1681 0566 3F060000 		.4byte	.LASF87
 1682 056a 05       		.byte	0x5
 1683 056b 6C       		.byte	0x6c
 1684 056c 48070000 		.4byte	0x748
 1685 0570 CC04     		.2byte	0x4cc
 1686 0572 0B       		.uleb128 0xb
 1687 0573 E0150000 		.4byte	.LASF88
 1688 0577 05       		.byte	0x5
 1689 0578 6D       		.byte	0x6d
 1690 0579 F6000000 		.4byte	0xf6
 1691 057d 0005     		.2byte	0x500
 1692 057f 0B       		.uleb128 0xb
 1693 0580 49060000 		.4byte	.LASF89
 1694 0584 05       		.byte	0x5
 1695 0585 6E       		.byte	0x6e
 1696 0586 FB000000 		.4byte	0xfb
 1697 058a 0405     		.2byte	0x504
 1698 058c 0B       		.uleb128 0xb
 1699 058d CC0E0000 		.4byte	.LASF90
 1700 0591 05       		.byte	0x5
 1701 0592 6F       		.byte	0x6f
 1702 0593 F6000000 		.4byte	0xf6
 1703 0597 0805     		.2byte	0x508
 1704 0599 0B       		.uleb128 0xb
 1705 059a 53060000 		.4byte	.LASF91
 1706 059e 05       		.byte	0x5
 1707 059f 70       		.byte	0x70
 1708 05a0 52070000 		.4byte	0x752
 1709 05a4 0C05     		.2byte	0x50c
 1710 05a6 0B       		.uleb128 0xb
 1711 05a7 440E0000 		.4byte	.LASF92
 1712 05ab 05       		.byte	0x5
 1713 05ac 71       		.byte	0x71
 1714 05ad F6000000 		.4byte	0xf6
 1715 05b1 8005     		.2byte	0x580
 1716 05b3 0B       		.uleb128 0xb
 1717 05b4 5D060000 		.4byte	.LASF93
 1718 05b8 05       		.byte	0x5
 1719 05b9 72       		.byte	0x72
 1720 05ba FB000000 		.4byte	0xfb
 1721 05be 8405     		.2byte	0x584
 1722 05c0 0B       		.uleb128 0xb
 1723 05c1 C4070000 		.4byte	.LASF94
 1724 05c5 05       		.byte	0x5
 1725 05c6 73       		.byte	0x73
 1726 05c7 F6000000 		.4byte	0xf6
 1727 05cb 8805     		.2byte	0x588
 1728 05cd 0B       		.uleb128 0xb
ARM GAS  C:\Users\stijn\AppData\Local\Temp\ccLepBqo.s 			page 55


 1729 05ce 67060000 		.4byte	.LASF95
 1730 05d2 05       		.byte	0x5
 1731 05d3 74       		.byte	0x74
 1732 05d4 5C070000 		.4byte	0x75c
 1733 05d8 8C05     		.2byte	0x58c
 1734 05da 0B       		.uleb128 0xb
 1735 05db 04090000 		.4byte	.LASF96
 1736 05df 05       		.byte	0x5
 1737 05e0 75       		.byte	0x75
 1738 05e1 F6000000 		.4byte	0xf6
 1739 05e5 0006     		.2byte	0x600
 1740 05e7 0B       		.uleb128 0xb
 1741 05e8 47130000 		.4byte	.LASF97
 1742 05ec 05       		.byte	0x5
 1743 05ed 76       		.byte	0x76
 1744 05ee FB000000 		.4byte	0xfb
 1745 05f2 0406     		.2byte	0x604
 1746 05f4 0B       		.uleb128 0xb
 1747 05f5 881B0000 		.4byte	.LASF98
 1748 05f9 05       		.byte	0x5
 1749 05fa 77       		.byte	0x77
 1750 05fb F6000000 		.4byte	0xf6
 1751 05ff 0806     		.2byte	0x608
 1752 0601 0B       		.uleb128 0xb
 1753 0602 52130000 		.4byte	.LASF99
 1754 0606 05       		.byte	0x5
 1755 0607 78       		.byte	0x78
 1756 0608 66070000 		.4byte	0x766
 1757 060c 0C06     		.2byte	0x60c
 1758 060e 0B       		.uleb128 0xb
 1759 060f B7070000 		.4byte	.LASF100
 1760 0613 05       		.byte	0x5
 1761 0614 79       		.byte	0x79
 1762 0615 F6000000 		.4byte	0xf6
 1763 0619 8006     		.2byte	0x680
 1764 061b 0B       		.uleb128 0xb
 1765 061c 5D130000 		.4byte	.LASF101
 1766 0620 05       		.byte	0x5
 1767 0621 7A       		.byte	0x7a
 1768 0622 FB000000 		.4byte	0xfb
 1769 0626 8406     		.2byte	0x684
 1770 0628 0B       		.uleb128 0xb
 1771 0629 48010000 		.4byte	.LASF102
 1772 062d 05       		.byte	0x5
 1773 062e 7B       		.byte	0x7b
 1774 062f F6000000 		.4byte	0xf6
 1775 0633 8806     		.2byte	0x688
 1776 0635 0B       		.uleb128 0xb
 1777 0636 68130000 		.4byte	.LASF103
 1778 063a 05       		.byte	0x5
 1779 063b 7C       		.byte	0x7c
 1780 063c 70070000 		.4byte	0x770
 1781 0640 8C06     		.2byte	0x68c
 1782 0642 0B       		.uleb128 0xb
 1783 0643 EC070000 		.4byte	.LASF104
 1784 0647 05       		.byte	0x5
 1785 0648 7D       		.byte	0x7d
ARM GAS  C:\Users\stijn\AppData\Local\Temp\ccLepBqo.s 			page 56


 1786 0649 F6000000 		.4byte	0xf6
 1787 064d 0007     		.2byte	0x700
 1788 064f 0B       		.uleb128 0xb
 1789 0650 73130000 		.4byte	.LASF105
 1790 0654 05       		.byte	0x5
 1791 0655 7E       		.byte	0x7e
 1792 0656 FB000000 		.4byte	0xfb
 1793 065a 0407     		.2byte	0x704
 1794 065c 0B       		.uleb128 0xb
 1795 065d 67010000 		.4byte	.LASF106
 1796 0661 05       		.byte	0x5
 1797 0662 7F       		.byte	0x7f
 1798 0663 F6000000 		.4byte	0xf6
 1799 0667 0807     		.2byte	0x708
 1800 0669 0B       		.uleb128 0xb
 1801 066a 7E130000 		.4byte	.LASF107
 1802 066e 05       		.byte	0x5
 1803 066f 80       		.byte	0x80
 1804 0670 7A070000 		.4byte	0x77a
 1805 0674 0C07     		.2byte	0x70c
 1806 0676 0B       		.uleb128 0xb
 1807 0677 E8020000 		.4byte	.LASF108
 1808 067b 05       		.byte	0x5
 1809 067c 81       		.byte	0x81
 1810 067d F6000000 		.4byte	0xf6
 1811 0681 8007     		.2byte	0x780
 1812 0683 0B       		.uleb128 0xb
 1813 0684 89130000 		.4byte	.LASF109
 1814 0688 05       		.byte	0x5
 1815 0689 82       		.byte	0x82
 1816 068a FB000000 		.4byte	0xfb
 1817 068e 8407     		.2byte	0x784
 1818 0690 0B       		.uleb128 0xb
 1819 0691 0B190000 		.4byte	.LASF110
 1820 0695 05       		.byte	0x5
 1821 0696 83       		.byte	0x83
 1822 0697 F6000000 		.4byte	0xf6
 1823 069b 8807     		.2byte	0x788
 1824 069d 0B       		.uleb128 0xb
 1825 069e 94130000 		.4byte	.LASF111
 1826 06a2 05       		.byte	0x5
 1827 06a3 84       		.byte	0x84
 1828 06a4 95070000 		.4byte	0x795
 1829 06a8 8C07     		.2byte	0x78c
 1830 06aa 0B       		.uleb128 0xb
 1831 06ab 76060000 		.4byte	.LASF23
 1832 06af 05       		.byte	0x5
 1833 06b0 85       		.byte	0x85
 1834 06b1 CD030000 		.4byte	0x3cd
 1835 06b5 00F0     		.2byte	0xf000
 1836 06b7 00       		.byte	0
 1837 06b8 05       		.uleb128 0x5
 1838 06b9 67010000 		.4byte	0x167
 1839 06bd 06       		.uleb128 0x6
 1840 06be B8060000 		.4byte	0x6b8
 1841 06c2 07       		.uleb128 0x7
 1842 06c3 F6000000 		.4byte	0xf6
ARM GAS  C:\Users\stijn\AppData\Local\Temp\ccLepBqo.s 			page 57


 1843 06c7 D2060000 		.4byte	0x6d2
 1844 06cb 08       		.uleb128 0x8
 1845 06cc 00010000 		.4byte	0x100
 1846 06d0 07       		.byte	0x7
 1847 06d1 00       		.byte	0
 1848 06d2 05       		.uleb128 0x5
 1849 06d3 C2060000 		.4byte	0x6c2
 1850 06d7 07       		.uleb128 0x7
 1851 06d8 FB000000 		.4byte	0xfb
 1852 06dc E7060000 		.4byte	0x6e7
 1853 06e0 08       		.uleb128 0x8
 1854 06e1 00010000 		.4byte	0x100
 1855 06e5 07       		.byte	0x7
 1856 06e6 00       		.byte	0
 1857 06e7 05       		.uleb128 0x5
 1858 06e8 D7060000 		.4byte	0x6d7
 1859 06ec 06       		.uleb128 0x6
 1860 06ed E7060000 		.4byte	0x6e7
 1861 06f1 05       		.uleb128 0x5
 1862 06f2 D7060000 		.4byte	0x6d7
 1863 06f6 06       		.uleb128 0x6
 1864 06f7 F1060000 		.4byte	0x6f1
 1865 06fb 07       		.uleb128 0x7
 1866 06fc FB000000 		.4byte	0xfb
 1867 0700 0B070000 		.4byte	0x70b
 1868 0704 08       		.uleb128 0x8
 1869 0705 00010000 		.4byte	0x100
 1870 0709 A2       		.byte	0xa2
 1871 070a 00       		.byte	0
 1872 070b 05       		.uleb128 0x5
 1873 070c FB060000 		.4byte	0x6fb
 1874 0710 06       		.uleb128 0x6
 1875 0711 0B070000 		.4byte	0x70b
 1876 0715 07       		.uleb128 0x7
 1877 0716 FB000000 		.4byte	0xfb
 1878 071a 25070000 		.4byte	0x725
 1879 071e 08       		.uleb128 0x8
 1880 071f 00010000 		.4byte	0x100
 1881 0723 0B       		.byte	0xb
 1882 0724 00       		.byte	0
 1883 0725 05       		.uleb128 0x5
 1884 0726 15070000 		.4byte	0x715
 1885 072a 06       		.uleb128 0x6
 1886 072b 25070000 		.4byte	0x725
 1887 072f 05       		.uleb128 0x5
 1888 0730 77010000 		.4byte	0x177
 1889 0734 06       		.uleb128 0x6
 1890 0735 2F070000 		.4byte	0x72f
 1891 0739 05       		.uleb128 0x5
 1892 073a 15070000 		.4byte	0x715
 1893 073e 06       		.uleb128 0x6
 1894 073f 39070000 		.4byte	0x739
 1895 0743 05       		.uleb128 0x5
 1896 0744 77010000 		.4byte	0x177
 1897 0748 06       		.uleb128 0x6
 1898 0749 43070000 		.4byte	0x743
 1899 074d 05       		.uleb128 0x5
ARM GAS  C:\Users\stijn\AppData\Local\Temp\ccLepBqo.s 			page 58


 1900 074e 87010000 		.4byte	0x187
 1901 0752 06       		.uleb128 0x6
 1902 0753 4D070000 		.4byte	0x74d
 1903 0757 05       		.uleb128 0x5
 1904 0758 87010000 		.4byte	0x187
 1905 075c 06       		.uleb128 0x6
 1906 075d 57070000 		.4byte	0x757
 1907 0761 05       		.uleb128 0x5
 1908 0762 87010000 		.4byte	0x187
 1909 0766 06       		.uleb128 0x6
 1910 0767 61070000 		.4byte	0x761
 1911 076b 05       		.uleb128 0x5
 1912 076c 87010000 		.4byte	0x187
 1913 0770 06       		.uleb128 0x6
 1914 0771 6B070000 		.4byte	0x76b
 1915 0775 05       		.uleb128 0x5
 1916 0776 87010000 		.4byte	0x187
 1917 077a 06       		.uleb128 0x6
 1918 077b 75070000 		.4byte	0x775
 1919 077f 07       		.uleb128 0x7
 1920 0780 FB000000 		.4byte	0xfb
 1921 0784 90070000 		.4byte	0x790
 1922 0788 0C       		.uleb128 0xc
 1923 0789 00010000 		.4byte	0x100
 1924 078d 1C3A     		.2byte	0x3a1c
 1925 078f 00       		.byte	0
 1926 0790 05       		.uleb128 0x5
 1927 0791 7F070000 		.4byte	0x77f
 1928 0795 06       		.uleb128 0x6
 1929 0796 90070000 		.4byte	0x790
 1930 079a 03       		.uleb128 0x3
 1931 079b 23180000 		.4byte	.LASF112
 1932 079f 05       		.byte	0x5
 1933 07a0 86       		.byte	0x86
 1934 07a1 D8030000 		.4byte	0x3d8
 1935 07a5 07       		.uleb128 0x7
 1936 07a6 FB000000 		.4byte	0xfb
 1937 07aa B5070000 		.4byte	0x7b5
 1938 07ae 08       		.uleb128 0x8
 1939 07af 00010000 		.4byte	0x100
 1940 07b3 01       		.byte	0x1
 1941 07b4 00       		.byte	0
 1942 07b5 07       		.uleb128 0x7
 1943 07b6 FB000000 		.4byte	0xfb
 1944 07ba C5070000 		.4byte	0x7c5
 1945 07be 08       		.uleb128 0x8
 1946 07bf 00010000 		.4byte	0x100
 1947 07c3 4F       		.byte	0x4f
 1948 07c4 00       		.byte	0
 1949 07c5 07       		.uleb128 0x7
 1950 07c6 FB000000 		.4byte	0xfb
 1951 07ca D6070000 		.4byte	0x7d6
 1952 07ce 0C       		.uleb128 0xc
 1953 07cf 00010000 		.4byte	0x100
 1954 07d3 FF05     		.2byte	0x5ff
 1955 07d5 00       		.byte	0
 1956 07d6 07       		.uleb128 0x7
ARM GAS  C:\Users\stijn\AppData\Local\Temp\ccLepBqo.s 			page 59


 1957 07d7 F6000000 		.4byte	0xf6
 1958 07db E6070000 		.4byte	0x7e6
 1959 07df 08       		.uleb128 0x8
 1960 07e0 00010000 		.4byte	0x100
 1961 07e4 3F       		.byte	0x3f
 1962 07e5 00       		.byte	0
 1963 07e6 09       		.uleb128 0x9
 1964 07e7 0080     		.2byte	0x8000
 1965 07e9 06       		.byte	0x6
 1966 07ea 21       		.byte	0x21
 1967 07eb 9A0D0000 		.4byte	0xd9a
 1968 07ef 0A       		.uleb128 0xa
 1969 07f0 C5090000 		.4byte	.LASF48
 1970 07f4 06       		.byte	0x6
 1971 07f5 22       		.byte	0x22
 1972 07f6 9F0D0000 		.4byte	0xd9f
 1973 07fa 00       		.byte	0
 1974 07fb 0A       		.uleb128 0xa
 1975 07fc 63070000 		.4byte	.LASF113
 1976 0800 06       		.byte	0x6
 1977 0801 23       		.byte	0x23
 1978 0802 9A0D0000 		.4byte	0xd9a
 1979 0806 01       		.byte	0x1
 1980 0807 0A       		.uleb128 0xa
 1981 0808 06040000 		.4byte	.LASF114
 1982 080c 06       		.byte	0x6
 1983 080d 24       		.byte	0x24
 1984 080e A40D0000 		.4byte	0xda4
 1985 0812 02       		.byte	0x2
 1986 0813 0A       		.uleb128 0xa
 1987 0814 F5050000 		.4byte	.LASF54
 1988 0818 06       		.byte	0x6
 1989 0819 25       		.byte	0x25
 1990 081a AE0D0000 		.4byte	0xdae
 1991 081e 04       		.byte	0x4
 1992 081f 0A       		.uleb128 0xa
 1993 0820 2A0A0000 		.4byte	.LASF115
 1994 0824 06       		.byte	0x6
 1995 0825 26       		.byte	0x26
 1996 0826 A40D0000 		.4byte	0xda4
 1997 082a 0C       		.byte	0xc
 1998 082b 0A       		.uleb128 0xa
 1999 082c 21070000 		.4byte	.LASF56
 2000 0830 06       		.byte	0x6
 2001 0831 27       		.byte	0x27
 2002 0832 CE0D0000 		.4byte	0xdce
 2003 0836 0E       		.byte	0xe
 2004 0837 0B       		.uleb128 0xb
 2005 0838 74020000 		.4byte	.LASF116
 2006 083c 06       		.byte	0x6
 2007 083d 28       		.byte	0x28
 2008 083e E30D0000 		.4byte	0xde3
 2009 0842 0006     		.2byte	0x600
 2010 0844 0B       		.uleb128 0xb
 2011 0845 E20B0000 		.4byte	.LASF117
 2012 0849 06       		.byte	0x6
 2013 084a 29       		.byte	0x29
ARM GAS  C:\Users\stijn\AppData\Local\Temp\ccLepBqo.s 			page 60


 2014 084b 9A0D0000 		.4byte	0xd9a
 2015 084f 0306     		.2byte	0x603
 2016 0851 0B       		.uleb128 0xb
 2017 0852 951B0000 		.4byte	.LASF118
 2018 0856 06       		.byte	0x6
 2019 0857 2A       		.byte	0x2a
 2020 0858 9A0D0000 		.4byte	0xd9a
 2021 085c 0406     		.2byte	0x604
 2022 085e 0B       		.uleb128 0xb
 2023 085f 9B1B0000 		.4byte	.LASF119
 2024 0863 06       		.byte	0x6
 2025 0864 2B       		.byte	0x2b
 2026 0865 9A0D0000 		.4byte	0xd9a
 2027 0869 0506     		.2byte	0x605
 2028 086b 0B       		.uleb128 0xb
 2029 086c DB190000 		.4byte	.LASF120
 2030 0870 06       		.byte	0x6
 2031 0871 2C       		.byte	0x2c
 2032 0872 9A0D0000 		.4byte	0xd9a
 2033 0876 0606     		.2byte	0x606
 2034 0878 0B       		.uleb128 0xb
 2035 0879 3A0E0000 		.4byte	.LASF121
 2036 087d 06       		.byte	0x6
 2037 087e 2D       		.byte	0x2d
 2038 087f 9A0D0000 		.4byte	0xd9a
 2039 0883 0706     		.2byte	0x607
 2040 0885 0B       		.uleb128 0xb
 2041 0886 050E0000 		.4byte	.LASF122
 2042 088a 06       		.byte	0x6
 2043 088b 2E       		.byte	0x2e
 2044 088c 9A0D0000 		.4byte	0xd9a
 2045 0890 0806     		.2byte	0x608
 2046 0892 0B       		.uleb128 0xb
 2047 0893 DD030000 		.4byte	.LASF123
 2048 0897 06       		.byte	0x6
 2049 0898 2F       		.byte	0x2f
 2050 0899 9A0D0000 		.4byte	0xd9a
 2051 089d 0906     		.2byte	0x609
 2052 089f 0B       		.uleb128 0xb
 2053 08a0 F2090000 		.4byte	.LASF124
 2054 08a4 06       		.byte	0x6
 2055 08a5 30       		.byte	0x30
 2056 08a6 9A0D0000 		.4byte	0xd9a
 2057 08aa 0A06     		.2byte	0x60a
 2058 08ac 0B       		.uleb128 0xb
 2059 08ad 2B070000 		.4byte	.LASF78
 2060 08b1 06       		.byte	0x6
 2061 08b2 31       		.byte	0x31
 2062 08b3 FD0D0000 		.4byte	0xdfd
 2063 08b7 0B06     		.2byte	0x60b
 2064 08b9 0B       		.uleb128 0xb
 2065 08ba 0C170000 		.4byte	.LASF125
 2066 08be 06       		.byte	0x6
 2067 08bf 32       		.byte	0x32
 2068 08c0 A40D0000 		.4byte	0xda4
 2069 08c4 4806     		.2byte	0x648
 2070 08c6 0B       		.uleb128 0xb
ARM GAS  C:\Users\stijn\AppData\Local\Temp\ccLepBqo.s 			page 61


 2071 08c7 64090000 		.4byte	.LASF126
 2072 08cb 06       		.byte	0x6
 2073 08cc 33       		.byte	0x33
 2074 08cd A40D0000 		.4byte	0xda4
 2075 08d1 4A06     		.2byte	0x64a
 2076 08d3 0B       		.uleb128 0xb
 2077 08d4 35060000 		.4byte	.LASF83
 2078 08d8 06       		.byte	0x6
 2079 08d9 34       		.byte	0x34
 2080 08da 070E0000 		.4byte	0xe07
 2081 08de 4C06     		.2byte	0x64c
 2082 08e0 0B       		.uleb128 0xb
 2083 08e1 65150000 		.4byte	.LASF127
 2084 08e5 06       		.byte	0x6
 2085 08e6 35       		.byte	0x35
 2086 08e7 F6000000 		.4byte	0xf6
 2087 08eb 6C06     		.2byte	0x66c
 2088 08ed 0B       		.uleb128 0xb
 2089 08ee 3F060000 		.4byte	.LASF87
 2090 08f2 06       		.byte	0x6
 2091 08f3 36       		.byte	0x36
 2092 08f4 210E0000 		.4byte	0xe21
 2093 08f8 7006     		.2byte	0x670
 2094 08fa 0B       		.uleb128 0xb
 2095 08fb 240B0000 		.4byte	.LASF128
 2096 08ff 06       		.byte	0x6
 2097 0900 37       		.byte	0x37
 2098 0901 9A0D0000 		.4byte	0xd9a
 2099 0905 4007     		.2byte	0x740
 2100 0907 0B       		.uleb128 0xb
 2101 0908 AD110000 		.4byte	.LASF129
 2102 090c 06       		.byte	0x6
 2103 090d 38       		.byte	0x38
 2104 090e 9A0D0000 		.4byte	0xd9a
 2105 0912 4107     		.2byte	0x741
 2106 0914 0B       		.uleb128 0xb
 2107 0915 49060000 		.4byte	.LASF89
 2108 0919 06       		.byte	0x6
 2109 091a 39       		.byte	0x39
 2110 091b 3B0E0000 		.4byte	0xe3b
 2111 091f 4207     		.2byte	0x742
 2112 0921 0B       		.uleb128 0xb
 2113 0922 D5080000 		.4byte	.LASF130
 2114 0926 06       		.byte	0x6
 2115 0927 3A       		.byte	0x3a
 2116 0928 500E0000 		.4byte	0xe50
 2117 092c 0008     		.2byte	0x800
 2118 092e 0B       		.uleb128 0xb
 2119 092f 300D0000 		.4byte	.LASF131
 2120 0933 06       		.byte	0x6
 2121 0934 3B       		.byte	0x3b
 2122 0935 550E0000 		.4byte	0xe55
 2123 0939 000A     		.2byte	0xa00
 2124 093b 0B       		.uleb128 0xb
 2125 093c 3F0D0000 		.4byte	.LASF132
 2126 0940 06       		.byte	0x6
 2127 0941 3C       		.byte	0x3c
ARM GAS  C:\Users\stijn\AppData\Local\Temp\ccLepBqo.s 			page 62


 2128 0942 5A0E0000 		.4byte	0xe5a
 2129 0946 000C     		.2byte	0xc00
 2130 0948 0B       		.uleb128 0xb
 2131 0949 4E0D0000 		.4byte	.LASF133
 2132 094d 06       		.byte	0x6
 2133 094e 3D       		.byte	0x3d
 2134 094f 5F0E0000 		.4byte	0xe5f
 2135 0953 000E     		.2byte	0xe00
 2136 0955 0B       		.uleb128 0xb
 2137 0956 53060000 		.4byte	.LASF91
 2138 095a 06       		.byte	0x6
 2139 095b 3E       		.byte	0x3e
 2140 095c 7A0E0000 		.4byte	0xe7a
 2141 0960 0010     		.2byte	0x1000
 2142 0962 0B       		.uleb128 0xb
 2143 0963 55030000 		.4byte	.LASF134
 2144 0967 06       		.byte	0x6
 2145 0968 3F       		.byte	0x3f
 2146 0969 8F0E0000 		.4byte	0xe8f
 2147 096d B814     		.2byte	0x14b8
 2148 096f 0B       		.uleb128 0xb
 2149 0970 26110000 		.4byte	.LASF135
 2150 0974 06       		.byte	0x6
 2151 0975 40       		.byte	0x40
 2152 0976 940E0000 		.4byte	0xe94
 2153 097a C814     		.2byte	0x14c8
 2154 097c 0B       		.uleb128 0xb
 2155 097d 6E170000 		.4byte	.LASF136
 2156 0981 06       		.byte	0x6
 2157 0982 41       		.byte	0x41
 2158 0983 990E0000 		.4byte	0xe99
 2159 0987 D814     		.2byte	0x14d8
 2160 0989 0B       		.uleb128 0xb
 2161 098a 2D100000 		.4byte	.LASF137
 2162 098e 06       		.byte	0x6
 2163 098f 42       		.byte	0x42
 2164 0990 9E0E0000 		.4byte	0xe9e
 2165 0994 1815     		.2byte	0x1518
 2166 0996 0B       		.uleb128 0xb
 2167 0997 1E0F0000 		.4byte	.LASF138
 2168 099b 06       		.byte	0x6
 2169 099c 43       		.byte	0x43
 2170 099d A30E0000 		.4byte	0xea3
 2171 09a1 5815     		.2byte	0x1558
 2172 09a3 0B       		.uleb128 0xb
 2173 09a4 1C030000 		.4byte	.LASF139
 2174 09a8 06       		.byte	0x6
 2175 09a9 44       		.byte	0x44
 2176 09aa A80E0000 		.4byte	0xea8
 2177 09ae 9815     		.2byte	0x1598
 2178 09b0 0B       		.uleb128 0xb
 2179 09b1 DF0F0000 		.4byte	.LASF140
 2180 09b5 06       		.byte	0x6
 2181 09b6 45       		.byte	0x45
 2182 09b7 AD0E0000 		.4byte	0xead
 2183 09bb D815     		.2byte	0x15d8
 2184 09bd 0B       		.uleb128 0xb
ARM GAS  C:\Users\stijn\AppData\Local\Temp\ccLepBqo.s 			page 63


 2185 09be 5D060000 		.4byte	.LASF93
 2186 09c2 06       		.byte	0x6
 2187 09c3 46       		.byte	0x46
 2188 09c4 C70E0000 		.4byte	0xec7
 2189 09c8 1816     		.2byte	0x1618
 2190 09ca 0B       		.uleb128 0xb
 2191 09cb E20E0000 		.4byte	.LASF141
 2192 09cf 06       		.byte	0x6
 2193 09d0 47       		.byte	0x47
 2194 09d1 A40D0000 		.4byte	0xda4
 2195 09d5 0018     		.2byte	0x1800
 2196 09d7 0B       		.uleb128 0xb
 2197 09d8 67060000 		.4byte	.LASF95
 2198 09dc 06       		.byte	0x6
 2199 09dd 48       		.byte	0x48
 2200 09de C40D0000 		.4byte	0xdc4
 2201 09e2 0218     		.2byte	0x1802
 2202 09e4 0B       		.uleb128 0xb
 2203 09e5 A3000000 		.4byte	.LASF142
 2204 09e9 06       		.byte	0x6
 2205 09ea 49       		.byte	0x49
 2206 09eb F6000000 		.4byte	0xf6
 2207 09ef 0418     		.2byte	0x1804
 2208 09f1 0B       		.uleb128 0xb
 2209 09f2 B8000000 		.4byte	.LASF143
 2210 09f6 06       		.byte	0x6
 2211 09f7 4A       		.byte	0x4a
 2212 09f8 F6000000 		.4byte	0xf6
 2213 09fc 0818     		.2byte	0x1808
 2214 09fe 0B       		.uleb128 0xb
 2215 09ff CD000000 		.4byte	.LASF144
 2216 0a03 06       		.byte	0x6
 2217 0a04 4B       		.byte	0x4b
 2218 0a05 F6000000 		.4byte	0xf6
 2219 0a09 0C18     		.2byte	0x180c
 2220 0a0b 0B       		.uleb128 0xb
 2221 0a0c 221A0000 		.4byte	.LASF145
 2222 0a10 06       		.byte	0x6
 2223 0a11 4C       		.byte	0x4c
 2224 0a12 F6000000 		.4byte	0xf6
 2225 0a16 1018     		.2byte	0x1810
 2226 0a18 0B       		.uleb128 0xb
 2227 0a19 47130000 		.4byte	.LASF97
 2228 0a1d 06       		.byte	0x6
 2229 0a1e 4D       		.byte	0x4d
 2230 0a1f C40D0000 		.4byte	0xdc4
 2231 0a23 1418     		.2byte	0x1814
 2232 0a25 0B       		.uleb128 0xb
 2233 0a26 77190000 		.4byte	.LASF146
 2234 0a2a 06       		.byte	0x6
 2235 0a2b 4E       		.byte	0x4e
 2236 0a2c A40D0000 		.4byte	0xda4
 2237 0a30 1618     		.2byte	0x1816
 2238 0a32 0B       		.uleb128 0xb
 2239 0a33 4F020000 		.4byte	.LASF147
 2240 0a37 06       		.byte	0x6
 2241 0a38 4F       		.byte	0x4f
ARM GAS  C:\Users\stijn\AppData\Local\Temp\ccLepBqo.s 			page 64


 2242 0a39 F6000000 		.4byte	0xf6
 2243 0a3d 1818     		.2byte	0x1818
 2244 0a3f 0B       		.uleb128 0xb
 2245 0a40 82100000 		.4byte	.LASF148
 2246 0a44 06       		.byte	0x6
 2247 0a45 50       		.byte	0x50
 2248 0a46 F6000000 		.4byte	0xf6
 2249 0a4a 1C18     		.2byte	0x181c
 2250 0a4c 0B       		.uleb128 0xb
 2251 0a4d 76050000 		.4byte	.LASF149
 2252 0a51 06       		.byte	0x6
 2253 0a52 51       		.byte	0x51
 2254 0a53 F6000000 		.4byte	0xf6
 2255 0a57 2018     		.2byte	0x1820
 2256 0a59 0B       		.uleb128 0xb
 2257 0a5a B5130000 		.4byte	.LASF150
 2258 0a5e 06       		.byte	0x6
 2259 0a5f 52       		.byte	0x52
 2260 0a60 F6000000 		.4byte	0xf6
 2261 0a64 2418     		.2byte	0x1824
 2262 0a66 0B       		.uleb128 0xb
 2263 0a67 52130000 		.4byte	.LASF99
 2264 0a6b 06       		.byte	0x6
 2265 0a6c 53       		.byte	0x53
 2266 0a6d D10E0000 		.4byte	0xed1
 2267 0a71 2818     		.2byte	0x1828
 2268 0a73 0B       		.uleb128 0xb
 2269 0a74 B60C0000 		.4byte	.LASF151
 2270 0a78 06       		.byte	0x6
 2271 0a79 54       		.byte	0x54
 2272 0a7a F6000000 		.4byte	0xf6
 2273 0a7e 4418     		.2byte	0x1844
 2274 0a80 0B       		.uleb128 0xb
 2275 0a81 00130000 		.4byte	.LASF152
 2276 0a85 06       		.byte	0x6
 2277 0a86 55       		.byte	0x55
 2278 0a87 F6000000 		.4byte	0xf6
 2279 0a8b 4818     		.2byte	0x1848
 2280 0a8d 0B       		.uleb128 0xb
 2281 0a8e EF190000 		.4byte	.LASF153
 2282 0a92 06       		.byte	0x6
 2283 0a93 56       		.byte	0x56
 2284 0a94 F6000000 		.4byte	0xf6
 2285 0a98 4C18     		.2byte	0x184c
 2286 0a9a 0B       		.uleb128 0xb
 2287 0a9b 78150000 		.4byte	.LASF154
 2288 0a9f 06       		.byte	0x6
 2289 0aa0 57       		.byte	0x57
 2290 0aa1 F6000000 		.4byte	0xf6
 2291 0aa5 5018     		.2byte	0x1850
 2292 0aa7 0B       		.uleb128 0xb
 2293 0aa8 5D130000 		.4byte	.LASF101
 2294 0aac 06       		.byte	0x6
 2295 0aad 58       		.byte	0x58
 2296 0aae EC0E0000 		.4byte	0xeec
 2297 0ab2 5418     		.2byte	0x1854
 2298 0ab4 0B       		.uleb128 0xb
ARM GAS  C:\Users\stijn\AppData\Local\Temp\ccLepBqo.s 			page 65


 2299 0ab5 93040000 		.4byte	.LASF155
 2300 0ab9 06       		.byte	0x6
 2301 0aba 59       		.byte	0x59
 2302 0abb F6000000 		.4byte	0xf6
 2303 0abf 0020     		.2byte	0x2000
 2304 0ac1 0B       		.uleb128 0xb
 2305 0ac2 BC100000 		.4byte	.LASF156
 2306 0ac6 06       		.byte	0x6
 2307 0ac7 5A       		.byte	0x5a
 2308 0ac8 F6000000 		.4byte	0xf6
 2309 0acc 0420     		.2byte	0x2004
 2310 0ace 0B       		.uleb128 0xb
 2311 0acf FE110000 		.4byte	.LASF157
 2312 0ad3 06       		.byte	0x6
 2313 0ad4 5B       		.byte	0x5b
 2314 0ad5 F6000000 		.4byte	0xf6
 2315 0ad9 0820     		.2byte	0x2008
 2316 0adb 0B       		.uleb128 0xb
 2317 0adc B90E0000 		.4byte	.LASF158
 2318 0ae0 06       		.byte	0x6
 2319 0ae1 5C       		.byte	0x5c
 2320 0ae2 F6000000 		.4byte	0xf6
 2321 0ae6 0C20     		.2byte	0x200c
 2322 0ae8 0B       		.uleb128 0xb
 2323 0ae9 E3100000 		.4byte	.LASF159
 2324 0aed 06       		.byte	0x6
 2325 0aee 5D       		.byte	0x5d
 2326 0aef F6000000 		.4byte	0xf6
 2327 0af3 1020     		.2byte	0x2010
 2328 0af5 0B       		.uleb128 0xb
 2329 0af6 3E110000 		.4byte	.LASF160
 2330 0afa 06       		.byte	0x6
 2331 0afb 5E       		.byte	0x5e
 2332 0afc F6000000 		.4byte	0xf6
 2333 0b00 1420     		.2byte	0x2014
 2334 0b02 0B       		.uleb128 0xb
 2335 0b03 68130000 		.4byte	.LASF103
 2336 0b07 06       		.byte	0x6
 2337 0b08 5F       		.byte	0x5f
 2338 0b09 060F0000 		.4byte	0xf06
 2339 0b0d 1820     		.2byte	0x2018
 2340 0b0f 0B       		.uleb128 0xb
 2341 0b10 700F0000 		.4byte	.LASF161
 2342 0b14 06       		.byte	0x6
 2343 0b15 60       		.byte	0x60
 2344 0b16 1C0F0000 		.4byte	0xf1c
 2345 0b1a D820     		.2byte	0x20d8
 2346 0b1c 0B       		.uleb128 0xb
 2347 0b1d 73130000 		.4byte	.LASF105
 2348 0b21 06       		.byte	0x6
 2349 0b22 61       		.byte	0x61
 2350 0b23 260F0000 		.4byte	0xf26
 2351 0b27 0042     		.2byte	0x4200
 2352 0b29 0B       		.uleb128 0xb
 2353 0b2a 790C0000 		.4byte	.LASF162
 2354 0b2e 06       		.byte	0x6
 2355 0b2f 62       		.byte	0x62
ARM GAS  C:\Users\stijn\AppData\Local\Temp\ccLepBqo.s 			page 66


 2356 0b30 3C0F0000 		.4byte	0xf3c
 2357 0b34 005A     		.2byte	0x5a00
 2358 0b36 0B       		.uleb128 0xb
 2359 0b37 050F0000 		.4byte	.LASF163
 2360 0b3b 06       		.byte	0x6
 2361 0b3c 63       		.byte	0x63
 2362 0b3d 520F0000 		.4byte	0xf52
 2363 0b41 0066     		.2byte	0x6600
 2364 0b43 0B       		.uleb128 0xb
 2365 0b44 7E130000 		.4byte	.LASF107
 2366 0b48 06       		.byte	0x6
 2367 0b49 64       		.byte	0x64
 2368 0b4a 6D0F0000 		.4byte	0xf6d
 2369 0b4e 006C     		.2byte	0x6c00
 2370 0b50 0B       		.uleb128 0xb
 2371 0b51 38150000 		.4byte	.LASF164
 2372 0b55 06       		.byte	0x6
 2373 0b56 65       		.byte	0x65
 2374 0b57 F6000000 		.4byte	0xf6
 2375 0b5b 0078     		.2byte	0x7800
 2376 0b5d 0B       		.uleb128 0xb
 2377 0b5e FA160000 		.4byte	.LASF165
 2378 0b62 06       		.byte	0x6
 2379 0b63 67       		.byte	0x67
 2380 0b64 F6000000 		.4byte	0xf6
 2381 0b68 0478     		.2byte	0x7804
 2382 0b6a 0B       		.uleb128 0xb
 2383 0b6b C8190000 		.4byte	.LASF166
 2384 0b6f 06       		.byte	0x6
 2385 0b70 68       		.byte	0x68
 2386 0b71 F6000000 		.4byte	0xf6
 2387 0b75 0878     		.2byte	0x7808
 2388 0b77 0B       		.uleb128 0xb
 2389 0b78 9C180000 		.4byte	.LASF167
 2390 0b7c 06       		.byte	0x6
 2391 0b7d 6A       		.byte	0x6a
 2392 0b7e F6000000 		.4byte	0xf6
 2393 0b82 0C78     		.2byte	0x780c
 2394 0b84 0B       		.uleb128 0xb
 2395 0b85 34010000 		.4byte	.LASF168
 2396 0b89 06       		.byte	0x6
 2397 0b8a 6B       		.byte	0x6b
 2398 0b8b F6000000 		.4byte	0xf6
 2399 0b8f 1078     		.2byte	0x7810
 2400 0b91 0B       		.uleb128 0xb
 2401 0b92 B40F0000 		.4byte	.LASF169
 2402 0b96 06       		.byte	0x6
 2403 0b97 6C       		.byte	0x6c
 2404 0b98 F6000000 		.4byte	0xf6
 2405 0b9c 1478     		.2byte	0x7814
 2406 0b9e 0B       		.uleb128 0xb
 2407 0b9f 78010000 		.4byte	.LASF170
 2408 0ba3 06       		.byte	0x6
 2409 0ba4 6D       		.byte	0x6d
 2410 0ba5 F6000000 		.4byte	0xf6
 2411 0ba9 1878     		.2byte	0x7818
 2412 0bab 0B       		.uleb128 0xb
ARM GAS  C:\Users\stijn\AppData\Local\Temp\ccLepBqo.s 			page 67


 2413 0bac 59000000 		.4byte	.LASF171
 2414 0bb0 06       		.byte	0x6
 2415 0bb1 6E       		.byte	0x6e
 2416 0bb2 F6000000 		.4byte	0xf6
 2417 0bb6 1C78     		.2byte	0x781c
 2418 0bb8 0B       		.uleb128 0xb
 2419 0bb9 89130000 		.4byte	.LASF109
 2420 0bbd 06       		.byte	0x6
 2421 0bbe 6F       		.byte	0x6f
 2422 0bbf 870F0000 		.4byte	0xf87
 2423 0bc3 2078     		.2byte	0x7820
 2424 0bc5 0B       		.uleb128 0xb
 2425 0bc6 62040000 		.4byte	.LASF172
 2426 0bca 06       		.byte	0x6
 2427 0bcb 70       		.byte	0x70
 2428 0bcc F6000000 		.4byte	0xf6
 2429 0bd0 FC79     		.2byte	0x79fc
 2430 0bd2 0B       		.uleb128 0xb
 2431 0bd3 3F0F0000 		.4byte	.LASF173
 2432 0bd7 06       		.byte	0x6
 2433 0bd8 71       		.byte	0x71
 2434 0bd9 F6000000 		.4byte	0xf6
 2435 0bdd 007A     		.2byte	0x7a00
 2436 0bdf 0B       		.uleb128 0xb
 2437 0be0 10180000 		.4byte	.LASF174
 2438 0be4 06       		.byte	0x6
 2439 0be5 73       		.byte	0x73
 2440 0be6 F6000000 		.4byte	0xf6
 2441 0bea 047A     		.2byte	0x7a04
 2442 0bec 0B       		.uleb128 0xb
 2443 0bed 28080000 		.4byte	.LASF175
 2444 0bf1 06       		.byte	0x6
 2445 0bf2 74       		.byte	0x74
 2446 0bf3 F6000000 		.4byte	0xf6
 2447 0bf7 087A     		.2byte	0x7a08
 2448 0bf9 0B       		.uleb128 0xb
 2449 0bfa 7A000000 		.4byte	.LASF176
 2450 0bfe 06       		.byte	0x6
 2451 0bff 76       		.byte	0x76
 2452 0c00 F6000000 		.4byte	0xf6
 2453 0c04 0C7A     		.2byte	0x7a0c
 2454 0c06 0B       		.uleb128 0xb
 2455 0c07 7E040000 		.4byte	.LASF177
 2456 0c0b 06       		.byte	0x6
 2457 0c0c 77       		.byte	0x77
 2458 0c0d F6000000 		.4byte	0xf6
 2459 0c11 107A     		.2byte	0x7a10
 2460 0c13 0B       		.uleb128 0xb
 2461 0c14 CC0A0000 		.4byte	.LASF178
 2462 0c18 06       		.byte	0x6
 2463 0c19 78       		.byte	0x78
 2464 0c1a F6000000 		.4byte	0xf6
 2465 0c1e 147A     		.2byte	0x7a14
 2466 0c20 0B       		.uleb128 0xb
 2467 0c21 32050000 		.4byte	.LASF179
 2468 0c25 06       		.byte	0x6
 2469 0c26 7A       		.byte	0x7a
ARM GAS  C:\Users\stijn\AppData\Local\Temp\ccLepBqo.s 			page 68


 2470 0c27 F6000000 		.4byte	0xf6
 2471 0c2b 187A     		.2byte	0x7a18
 2472 0c2d 0B       		.uleb128 0xb
 2473 0c2e 94130000 		.4byte	.LASF111
 2474 0c32 06       		.byte	0x6
 2475 0c33 7B       		.byte	0x7b
 2476 0c34 A10F0000 		.4byte	0xfa1
 2477 0c38 1C7A     		.2byte	0x7a1c
 2478 0c3a 0B       		.uleb128 0xb
 2479 0c3b 950E0000 		.4byte	.LASF180
 2480 0c3f 06       		.byte	0x6
 2481 0c40 7C       		.byte	0x7c
 2482 0c41 F6000000 		.4byte	0xf6
 2483 0c45 FC7B     		.2byte	0x7bfc
 2484 0c47 0B       		.uleb128 0xb
 2485 0c48 CC030000 		.4byte	.LASF181
 2486 0c4c 06       		.byte	0x6
 2487 0c4d 7E       		.byte	0x7e
 2488 0c4e F6000000 		.4byte	0xf6
 2489 0c52 007C     		.2byte	0x7c00
 2490 0c54 0B       		.uleb128 0xb
 2491 0c55 66100000 		.4byte	.LASF182
 2492 0c59 06       		.byte	0x6
 2493 0c5a 80       		.byte	0x80
 2494 0c5b F6000000 		.4byte	0xf6
 2495 0c5f 047C     		.2byte	0x7c04
 2496 0c61 0B       		.uleb128 0xb
 2497 0c62 95010000 		.4byte	.LASF183
 2498 0c66 06       		.byte	0x6
 2499 0c67 81       		.byte	0x81
 2500 0c68 F6000000 		.4byte	0xf6
 2501 0c6c 087C     		.2byte	0x7c08
 2502 0c6e 0B       		.uleb128 0xb
 2503 0c6f A91A0000 		.4byte	.LASF184
 2504 0c73 06       		.byte	0x6
 2505 0c74 82       		.byte	0x82
 2506 0c75 F6000000 		.4byte	0xf6
 2507 0c79 0C7C     		.2byte	0x7c0c
 2508 0c7b 0B       		.uleb128 0xb
 2509 0c7c 99100000 		.4byte	.LASF185
 2510 0c80 06       		.byte	0x6
 2511 0c81 84       		.byte	0x84
 2512 0c82 F6000000 		.4byte	0xf6
 2513 0c86 107C     		.2byte	0x7c10
 2514 0c88 0B       		.uleb128 0xb
 2515 0c89 FF050000 		.4byte	.LASF186
 2516 0c8d 06       		.byte	0x6
 2517 0c8e 85       		.byte	0x85
 2518 0c8f F6000000 		.4byte	0xf6
 2519 0c93 147C     		.2byte	0x7c14
 2520 0c95 0B       		.uleb128 0xb
 2521 0c96 3A090000 		.4byte	.LASF187
 2522 0c9a 06       		.byte	0x6
 2523 0c9b 87       		.byte	0x87
 2524 0c9c F6000000 		.4byte	0xf6
 2525 0ca0 187C     		.2byte	0x7c18
 2526 0ca2 0B       		.uleb128 0xb
ARM GAS  C:\Users\stijn\AppData\Local\Temp\ccLepBqo.s 			page 69


 2527 0ca3 7D060000 		.4byte	.LASF188
 2528 0ca7 06       		.byte	0x6
 2529 0ca8 88       		.byte	0x88
 2530 0ca9 F6000000 		.4byte	0xf6
 2531 0cad 1C7C     		.2byte	0x7c1c
 2532 0caf 0B       		.uleb128 0xb
 2533 0cb0 CF040000 		.4byte	.LASF189
 2534 0cb4 06       		.byte	0x6
 2535 0cb5 8A       		.byte	0x8a
 2536 0cb6 F6000000 		.4byte	0xf6
 2537 0cba 207C     		.2byte	0x7c20
 2538 0cbc 0B       		.uleb128 0xb
 2539 0cbd 030D0000 		.4byte	.LASF190
 2540 0cc1 06       		.byte	0x6
 2541 0cc2 8D       		.byte	0x8d
 2542 0cc3 F6000000 		.4byte	0xf6
 2543 0cc7 247C     		.2byte	0x7c24
 2544 0cc9 0B       		.uleb128 0xb
 2545 0cca 9F130000 		.4byte	.LASF191
 2546 0cce 06       		.byte	0x6
 2547 0ccf 8F       		.byte	0x8f
 2548 0cd0 BB0F0000 		.4byte	0xfbb
 2549 0cd4 287C     		.2byte	0x7c28
 2550 0cd6 0B       		.uleb128 0xb
 2551 0cd7 E4190000 		.4byte	.LASF192
 2552 0cdb 06       		.byte	0x6
 2553 0cdc 90       		.byte	0x90
 2554 0cdd F6000000 		.4byte	0xf6
 2555 0ce1 F87D     		.2byte	0x7df8
 2556 0ce3 0B       		.uleb128 0xb
 2557 0ce4 4B000000 		.4byte	.LASF193
 2558 0ce8 06       		.byte	0x6
 2559 0ce9 91       		.byte	0x91
 2560 0cea F6000000 		.4byte	0xf6
 2561 0cee FC7D     		.2byte	0x7dfc
 2562 0cf0 0B       		.uleb128 0xb
 2563 0cf1 99060000 		.4byte	.LASF194
 2564 0cf5 06       		.byte	0x6
 2565 0cf6 92       		.byte	0x92
 2566 0cf7 F6000000 		.4byte	0xf6
 2567 0cfb 007E     		.2byte	0x7e00
 2568 0cfd 0B       		.uleb128 0xb
 2569 0cfe 54110000 		.4byte	.LASF195
 2570 0d02 06       		.byte	0x6
 2571 0d03 94       		.byte	0x94
 2572 0d04 F6000000 		.4byte	0xf6
 2573 0d08 047E     		.2byte	0x7e04
 2574 0d0a 0B       		.uleb128 0xb
 2575 0d0b 62190000 		.4byte	.LASF196
 2576 0d0f 06       		.byte	0x6
 2577 0d10 95       		.byte	0x95
 2578 0d11 F6000000 		.4byte	0xf6
 2579 0d15 087E     		.2byte	0x7e08
 2580 0d17 0B       		.uleb128 0xb
 2581 0d18 AF120000 		.4byte	.LASF197
 2582 0d1c 06       		.byte	0x6
 2583 0d1d 96       		.byte	0x96
ARM GAS  C:\Users\stijn\AppData\Local\Temp\ccLepBqo.s 			page 70


 2584 0d1e F6000000 		.4byte	0xf6
 2585 0d22 0C7E     		.2byte	0x7e0c
 2586 0d24 0B       		.uleb128 0xb
 2587 0d25 1C130000 		.4byte	.LASF198
 2588 0d29 06       		.byte	0x6
 2589 0d2a 98       		.byte	0x98
 2590 0d2b F6000000 		.4byte	0xf6
 2591 0d2f 107E     		.2byte	0x7e10
 2592 0d31 0B       		.uleb128 0xb
 2593 0d32 F4170000 		.4byte	.LASF199
 2594 0d36 06       		.byte	0x6
 2595 0d37 99       		.byte	0x99
 2596 0d38 F6000000 		.4byte	0xf6
 2597 0d3c 147E     		.2byte	0x7e14
 2598 0d3e 0B       		.uleb128 0xb
 2599 0d3f BC020000 		.4byte	.LASF200
 2600 0d43 06       		.byte	0x6
 2601 0d44 9B       		.byte	0x9b
 2602 0d45 F6000000 		.4byte	0xf6
 2603 0d49 187E     		.2byte	0x7e18
 2604 0d4b 0B       		.uleb128 0xb
 2605 0d4c D11A0000 		.4byte	.LASF201
 2606 0d50 06       		.byte	0x6
 2607 0d51 9C       		.byte	0x9c
 2608 0d52 F6000000 		.4byte	0xf6
 2609 0d56 1C7E     		.2byte	0x7e1c
 2610 0d58 0B       		.uleb128 0xb
 2611 0d59 F10E0000 		.4byte	.LASF202
 2612 0d5d 06       		.byte	0x6
 2613 0d5e 9E       		.byte	0x9e
 2614 0d5f F6000000 		.4byte	0xf6
 2615 0d63 207E     		.2byte	0x7e20
 2616 0d65 0B       		.uleb128 0xb
 2617 0d66 96020000 		.4byte	.LASF203
 2618 0d6a 06       		.byte	0x6
 2619 0d6b A1       		.byte	0xa1
 2620 0d6c F6000000 		.4byte	0xf6
 2621 0d70 247E     		.2byte	0x7e24
 2622 0d72 0B       		.uleb128 0xb
 2623 0d73 AA130000 		.4byte	.LASF204
 2624 0d77 06       		.byte	0x6
 2625 0d78 A4       		.byte	0xa4
 2626 0d79 C50F0000 		.4byte	0xfc5
 2627 0d7d 287E     		.2byte	0x7e28
 2628 0d7f 0B       		.uleb128 0xb
 2629 0d80 59080000 		.4byte	.LASF205
 2630 0d84 06       		.byte	0x6
 2631 0d85 A5       		.byte	0xa5
 2632 0d86 F6000000 		.4byte	0xf6
 2633 0d8a F87F     		.2byte	0x7ff8
 2634 0d8c 0B       		.uleb128 0xb
 2635 0d8d 8E090000 		.4byte	.LASF206
 2636 0d91 06       		.byte	0x6
 2637 0d92 A6       		.byte	0xa6
 2638 0d93 F6000000 		.4byte	0xf6
 2639 0d97 FC7F     		.2byte	0x7ffc
 2640 0d99 00       		.byte	0
ARM GAS  C:\Users\stijn\AppData\Local\Temp\ccLepBqo.s 			page 71


 2641 0d9a 05       		.uleb128 0x5
 2642 0d9b AD000000 		.4byte	0xad
 2643 0d9f 06       		.uleb128 0x6
 2644 0da0 9A0D0000 		.4byte	0xd9a
 2645 0da4 05       		.uleb128 0x5
 2646 0da5 C3000000 		.4byte	0xc3
 2647 0da9 05       		.uleb128 0x5
 2648 0daa A5070000 		.4byte	0x7a5
 2649 0dae 06       		.uleb128 0x6
 2650 0daf A90D0000 		.4byte	0xda9
 2651 0db3 07       		.uleb128 0x7
 2652 0db4 C40D0000 		.4byte	0xdc4
 2653 0db8 C40D0000 		.4byte	0xdc4
 2654 0dbc 0C       		.uleb128 0xc
 2655 0dbd 00010000 		.4byte	0x100
 2656 0dc1 F802     		.2byte	0x2f8
 2657 0dc3 00       		.byte	0
 2658 0dc4 06       		.uleb128 0x6
 2659 0dc5 A40D0000 		.4byte	0xda4
 2660 0dc9 05       		.uleb128 0x5
 2661 0dca B30D0000 		.4byte	0xdb3
 2662 0dce 06       		.uleb128 0x6
 2663 0dcf C90D0000 		.4byte	0xdc9
 2664 0dd3 07       		.uleb128 0x7
 2665 0dd4 9A0D0000 		.4byte	0xd9a
 2666 0dd8 E30D0000 		.4byte	0xde3
 2667 0ddc 08       		.uleb128 0x8
 2668 0ddd 00010000 		.4byte	0x100
 2669 0de1 02       		.byte	0x2
 2670 0de2 00       		.byte	0
 2671 0de3 05       		.uleb128 0x5
 2672 0de4 D30D0000 		.4byte	0xdd3
 2673 0de8 07       		.uleb128 0x7
 2674 0de9 9F0D0000 		.4byte	0xd9f
 2675 0ded F80D0000 		.4byte	0xdf8
 2676 0df1 08       		.uleb128 0x8
 2677 0df2 00010000 		.4byte	0x100
 2678 0df6 3C       		.byte	0x3c
 2679 0df7 00       		.byte	0
 2680 0df8 05       		.uleb128 0x5
 2681 0df9 E80D0000 		.4byte	0xde8
 2682 0dfd 06       		.uleb128 0x6
 2683 0dfe F80D0000 		.4byte	0xdf8
 2684 0e02 05       		.uleb128 0x5
 2685 0e03 D7060000 		.4byte	0x6d7
 2686 0e07 06       		.uleb128 0x6
 2687 0e08 020E0000 		.4byte	0xe02
 2688 0e0c 07       		.uleb128 0x7
 2689 0e0d FB000000 		.4byte	0xfb
 2690 0e11 1C0E0000 		.4byte	0xe1c
 2691 0e15 08       		.uleb128 0x8
 2692 0e16 00010000 		.4byte	0x100
 2693 0e1a 33       		.byte	0x33
 2694 0e1b 00       		.byte	0
 2695 0e1c 05       		.uleb128 0x5
 2696 0e1d 0C0E0000 		.4byte	0xe0c
 2697 0e21 06       		.uleb128 0x6
ARM GAS  C:\Users\stijn\AppData\Local\Temp\ccLepBqo.s 			page 72


 2698 0e22 1C0E0000 		.4byte	0xe1c
 2699 0e26 07       		.uleb128 0x7
 2700 0e27 C40D0000 		.4byte	0xdc4
 2701 0e2b 360E0000 		.4byte	0xe36
 2702 0e2f 08       		.uleb128 0x8
 2703 0e30 00010000 		.4byte	0x100
 2704 0e34 5E       		.byte	0x5e
 2705 0e35 00       		.byte	0
 2706 0e36 05       		.uleb128 0x5
 2707 0e37 260E0000 		.4byte	0xe26
 2708 0e3b 06       		.uleb128 0x6
 2709 0e3c 360E0000 		.4byte	0xe36
 2710 0e40 07       		.uleb128 0x7
 2711 0e41 F6000000 		.4byte	0xf6
 2712 0e45 500E0000 		.4byte	0xe50
 2713 0e49 08       		.uleb128 0x8
 2714 0e4a 00010000 		.4byte	0x100
 2715 0e4e 7F       		.byte	0x7f
 2716 0e4f 00       		.byte	0
 2717 0e50 05       		.uleb128 0x5
 2718 0e51 400E0000 		.4byte	0xe40
 2719 0e55 05       		.uleb128 0x5
 2720 0e56 400E0000 		.4byte	0xe40
 2721 0e5a 05       		.uleb128 0x5
 2722 0e5b 400E0000 		.4byte	0xe40
 2723 0e5f 05       		.uleb128 0x5
 2724 0e60 400E0000 		.4byte	0xe40
 2725 0e64 07       		.uleb128 0x7
 2726 0e65 FB000000 		.4byte	0xfb
 2727 0e69 750E0000 		.4byte	0xe75
 2728 0e6d 0C       		.uleb128 0xc
 2729 0e6e 00010000 		.4byte	0x100
 2730 0e72 2D01     		.2byte	0x12d
 2731 0e74 00       		.byte	0
 2732 0e75 05       		.uleb128 0x5
 2733 0e76 640E0000 		.4byte	0xe64
 2734 0e7a 06       		.uleb128 0x6
 2735 0e7b 750E0000 		.4byte	0xe75
 2736 0e7f 07       		.uleb128 0x7
 2737 0e80 9A0D0000 		.4byte	0xd9a
 2738 0e84 8F0E0000 		.4byte	0xe8f
 2739 0e88 08       		.uleb128 0x8
 2740 0e89 00010000 		.4byte	0x100
 2741 0e8d 0F       		.byte	0xf
 2742 0e8e 00       		.byte	0
 2743 0e8f 05       		.uleb128 0x5
 2744 0e90 7F0E0000 		.4byte	0xe7f
 2745 0e94 05       		.uleb128 0x5
 2746 0e95 7F0E0000 		.4byte	0xe7f
 2747 0e99 05       		.uleb128 0x5
 2748 0e9a 17010000 		.4byte	0x117
 2749 0e9e 05       		.uleb128 0x5
 2750 0e9f 17010000 		.4byte	0x117
 2751 0ea3 05       		.uleb128 0x5
 2752 0ea4 17010000 		.4byte	0x117
 2753 0ea8 05       		.uleb128 0x5
 2754 0ea9 17010000 		.4byte	0x117
ARM GAS  C:\Users\stijn\AppData\Local\Temp\ccLepBqo.s 			page 73


 2755 0ead 05       		.uleb128 0x5
 2756 0eae 17010000 		.4byte	0x117
 2757 0eb2 07       		.uleb128 0x7
 2758 0eb3 FB000000 		.4byte	0xfb
 2759 0eb7 C20E0000 		.4byte	0xec2
 2760 0ebb 08       		.uleb128 0x8
 2761 0ebc 00010000 		.4byte	0x100
 2762 0ec0 79       		.byte	0x79
 2763 0ec1 00       		.byte	0
 2764 0ec2 05       		.uleb128 0x5
 2765 0ec3 B20E0000 		.4byte	0xeb2
 2766 0ec7 06       		.uleb128 0x6
 2767 0ec8 C20E0000 		.4byte	0xec2
 2768 0ecc 05       		.uleb128 0x5
 2769 0ecd 27010000 		.4byte	0x127
 2770 0ed1 06       		.uleb128 0x6
 2771 0ed2 CC0E0000 		.4byte	0xecc
 2772 0ed6 07       		.uleb128 0x7
 2773 0ed7 FB000000 		.4byte	0xfb
 2774 0edb E70E0000 		.4byte	0xee7
 2775 0edf 0C       		.uleb128 0xc
 2776 0ee0 00010000 		.4byte	0x100
 2777 0ee4 EA01     		.2byte	0x1ea
 2778 0ee6 00       		.byte	0
 2779 0ee7 05       		.uleb128 0x5
 2780 0ee8 D60E0000 		.4byte	0xed6
 2781 0eec 06       		.uleb128 0x6
 2782 0eed E70E0000 		.4byte	0xee7
 2783 0ef1 07       		.uleb128 0x7
 2784 0ef2 FB000000 		.4byte	0xfb
 2785 0ef6 010F0000 		.4byte	0xf01
 2786 0efa 08       		.uleb128 0x8
 2787 0efb 00010000 		.4byte	0x100
 2788 0eff 2F       		.byte	0x2f
 2789 0f00 00       		.byte	0
 2790 0f01 05       		.uleb128 0x5
 2791 0f02 F10E0000 		.4byte	0xef1
 2792 0f06 06       		.uleb128 0x6
 2793 0f07 010F0000 		.4byte	0xf01
 2794 0f0b 07       		.uleb128 0x7
 2795 0f0c 9A0D0000 		.4byte	0xd9a
 2796 0f10 1C0F0000 		.4byte	0xf1c
 2797 0f14 0C       		.uleb128 0xc
 2798 0f15 00010000 		.4byte	0x100
 2799 0f19 2721     		.2byte	0x2127
 2800 0f1b 00       		.byte	0
 2801 0f1c 05       		.uleb128 0x5
 2802 0f1d 0B0F0000 		.4byte	0xf0b
 2803 0f21 05       		.uleb128 0x5
 2804 0f22 C5070000 		.4byte	0x7c5
 2805 0f26 06       		.uleb128 0x6
 2806 0f27 210F0000 		.4byte	0xf21
 2807 0f2b 07       		.uleb128 0x7
 2808 0f2c 9A0D0000 		.4byte	0xd9a
 2809 0f30 3C0F0000 		.4byte	0xf3c
 2810 0f34 0C       		.uleb128 0xc
 2811 0f35 00010000 		.4byte	0x100
ARM GAS  C:\Users\stijn\AppData\Local\Temp\ccLepBqo.s 			page 74


 2812 0f39 FF0B     		.2byte	0xbff
 2813 0f3b 00       		.byte	0
 2814 0f3c 05       		.uleb128 0x5
 2815 0f3d 2B0F0000 		.4byte	0xf2b
 2816 0f41 07       		.uleb128 0x7
 2817 0f42 F6000000 		.4byte	0xf6
 2818 0f46 520F0000 		.4byte	0xf52
 2819 0f4a 0C       		.uleb128 0xc
 2820 0f4b 00010000 		.4byte	0x100
 2821 0f4f 7F01     		.2byte	0x17f
 2822 0f51 00       		.byte	0
 2823 0f52 05       		.uleb128 0x5
 2824 0f53 410F0000 		.4byte	0xf41
 2825 0f57 07       		.uleb128 0x7
 2826 0f58 FB000000 		.4byte	0xfb
 2827 0f5c 680F0000 		.4byte	0xf68
 2828 0f60 0C       		.uleb128 0xc
 2829 0f61 00010000 		.4byte	0x100
 2830 0f65 FF02     		.2byte	0x2ff
 2831 0f67 00       		.byte	0
 2832 0f68 05       		.uleb128 0x5
 2833 0f69 570F0000 		.4byte	0xf57
 2834 0f6d 06       		.uleb128 0x6
 2835 0f6e 680F0000 		.4byte	0xf68
 2836 0f72 07       		.uleb128 0x7
 2837 0f73 FB000000 		.4byte	0xfb
 2838 0f77 820F0000 		.4byte	0xf82
 2839 0f7b 08       		.uleb128 0x8
 2840 0f7c 00010000 		.4byte	0x100
 2841 0f80 76       		.byte	0x76
 2842 0f81 00       		.byte	0
 2843 0f82 05       		.uleb128 0x5
 2844 0f83 720F0000 		.4byte	0xf72
 2845 0f87 06       		.uleb128 0x6
 2846 0f88 820F0000 		.4byte	0xf82
 2847 0f8c 07       		.uleb128 0x7
 2848 0f8d FB000000 		.4byte	0xfb
 2849 0f91 9C0F0000 		.4byte	0xf9c
 2850 0f95 08       		.uleb128 0x8
 2851 0f96 00010000 		.4byte	0x100
 2852 0f9a 77       		.byte	0x77
 2853 0f9b 00       		.byte	0
 2854 0f9c 05       		.uleb128 0x5
 2855 0f9d 8C0F0000 		.4byte	0xf8c
 2856 0fa1 06       		.uleb128 0x6
 2857 0fa2 9C0F0000 		.4byte	0xf9c
 2858 0fa6 07       		.uleb128 0x7
 2859 0fa7 FB000000 		.4byte	0xfb
 2860 0fab B60F0000 		.4byte	0xfb6
 2861 0faf 08       		.uleb128 0x8
 2862 0fb0 00010000 		.4byte	0x100
 2863 0fb4 73       		.byte	0x73
 2864 0fb5 00       		.byte	0
 2865 0fb6 05       		.uleb128 0x5
 2866 0fb7 A60F0000 		.4byte	0xfa6
 2867 0fbb 06       		.uleb128 0x6
 2868 0fbc B60F0000 		.4byte	0xfb6
ARM GAS  C:\Users\stijn\AppData\Local\Temp\ccLepBqo.s 			page 75


 2869 0fc0 05       		.uleb128 0x5
 2870 0fc1 A60F0000 		.4byte	0xfa6
 2871 0fc5 06       		.uleb128 0x6
 2872 0fc6 C00F0000 		.4byte	0xfc0
 2873 0fca 03       		.uleb128 0x3
 2874 0fcb 090B0000 		.4byte	.LASF207
 2875 0fcf 06       		.byte	0x6
 2876 0fd0 A8       		.byte	0xa8
 2877 0fd1 E6070000 		.4byte	0x7e6
 2878 0fd5 0E       		.uleb128 0xe
 2879 0fd6 40       		.byte	0x40
 2880 0fd7 07       		.byte	0x7
 2881 0fd8 22       		.byte	0x22
 2882 0fd9 6E100000 		.4byte	0x106e
 2883 0fdd 0A       		.uleb128 0xa
 2884 0fde C5090000 		.4byte	.LASF48
 2885 0fe2 07       		.byte	0x7
 2886 0fe3 23       		.byte	0x23
 2887 0fe4 FB000000 		.4byte	0xfb
 2888 0fe8 00       		.byte	0
 2889 0fe9 0A       		.uleb128 0xa
 2890 0fea 8F180000 		.4byte	.LASF208
 2891 0fee 07       		.byte	0x7
 2892 0fef 24       		.byte	0x24
 2893 0ff0 F6000000 		.4byte	0xf6
 2894 0ff4 04       		.byte	0x4
 2895 0ff5 0A       		.uleb128 0xa
 2896 0ff6 8D0F0000 		.4byte	.LASF209
 2897 0ffa 07       		.byte	0x7
 2898 0ffb 25       		.byte	0x25
 2899 0ffc F6000000 		.4byte	0xf6
 2900 1000 08       		.byte	0x8
 2901 1001 0A       		.uleb128 0xa
 2902 1002 47070000 		.4byte	.LASF210
 2903 1006 07       		.byte	0x7
 2904 1007 26       		.byte	0x26
 2905 1008 F6000000 		.4byte	0xf6
 2906 100c 0C       		.byte	0xc
 2907 100d 0A       		.uleb128 0xa
 2908 100e 35070000 		.4byte	.LASF211
 2909 1012 07       		.byte	0x7
 2910 1013 27       		.byte	0x27
 2911 1014 F6000000 		.4byte	0xf6
 2912 1018 10       		.byte	0x10
 2913 1019 0A       		.uleb128 0xa
 2914 101a 8E160000 		.4byte	.LASF212
 2915 101e 07       		.byte	0x7
 2916 101f 28       		.byte	0x28
 2917 1020 F6000000 		.4byte	0xf6
 2918 1024 14       		.byte	0x14
 2919 1025 0A       		.uleb128 0xa
 2920 1026 9D090000 		.4byte	.LASF213
 2921 102a 07       		.byte	0x7
 2922 102b 29       		.byte	0x29
 2923 102c F6000000 		.4byte	0xf6
 2924 1030 18       		.byte	0x18
 2925 1031 0A       		.uleb128 0xa
ARM GAS  C:\Users\stijn\AppData\Local\Temp\ccLepBqo.s 			page 76


 2926 1032 98070000 		.4byte	.LASF214
 2927 1036 07       		.byte	0x7
 2928 1037 2A       		.byte	0x2a
 2929 1038 F6000000 		.4byte	0xf6
 2930 103c 1C       		.byte	0x1c
 2931 103d 0A       		.uleb128 0xa
 2932 103e 7C020000 		.4byte	.LASF215
 2933 1042 07       		.byte	0x7
 2934 1043 2B       		.byte	0x2b
 2935 1044 F6000000 		.4byte	0xf6
 2936 1048 20       		.byte	0x20
 2937 1049 0A       		.uleb128 0xa
 2938 104a A4080000 		.4byte	.LASF216
 2939 104e 07       		.byte	0x7
 2940 104f 2C       		.byte	0x2c
 2941 1050 FB000000 		.4byte	0xfb
 2942 1054 24       		.byte	0x24
 2943 1055 0A       		.uleb128 0xa
 2944 1056 8F0D0000 		.4byte	.LASF217
 2945 105a 07       		.byte	0x7
 2946 105b 2D       		.byte	0x2d
 2947 105c F6000000 		.4byte	0xf6
 2948 1060 28       		.byte	0x28
 2949 1061 0A       		.uleb128 0xa
 2950 1062 F5050000 		.4byte	.LASF54
 2951 1066 07       		.byte	0x7
 2952 1067 2E       		.byte	0x2e
 2953 1068 73100000 		.4byte	0x1073
 2954 106c 2C       		.byte	0x2c
 2955 106d 00       		.byte	0
 2956 106e 05       		.uleb128 0x5
 2957 106f 47010000 		.4byte	0x147
 2958 1073 06       		.uleb128 0x6
 2959 1074 6E100000 		.4byte	0x106e
 2960 1078 03       		.uleb128 0x3
 2961 1079 20170000 		.4byte	.LASF218
 2962 107d 07       		.byte	0x7
 2963 107e 2F       		.byte	0x2f
 2964 107f D50F0000 		.4byte	0xfd5
 2965 1083 09       		.uleb128 0x9
 2966 1084 30FF     		.2byte	0xff30
 2967 1086 07       		.byte	0x7
 2968 1087 34       		.byte	0x34
 2969 1088 F7130000 		.4byte	0x13f7
 2970 108c 0A       		.uleb128 0xa
 2971 108d ED060000 		.4byte	.LASF219
 2972 1091 07       		.byte	0x7
 2973 1092 35       		.byte	0x35
 2974 1093 F6000000 		.4byte	0xf6
 2975 1097 00       		.byte	0
 2976 1098 0A       		.uleb128 0xa
 2977 1099 BE0A0000 		.4byte	.LASF220
 2978 109d 07       		.byte	0x7
 2979 109e 36       		.byte	0x36
 2980 109f F6000000 		.4byte	0xf6
 2981 10a3 04       		.byte	0x4
 2982 10a4 0A       		.uleb128 0xa
ARM GAS  C:\Users\stijn\AppData\Local\Temp\ccLepBqo.s 			page 77


 2983 10a5 B0020000 		.4byte	.LASF221
 2984 10a9 07       		.byte	0x7
 2985 10aa 37       		.byte	0x37
 2986 10ab F6000000 		.4byte	0xf6
 2987 10af 08       		.byte	0x8
 2988 10b0 0A       		.uleb128 0xa
 2989 10b1 C5090000 		.4byte	.LASF48
 2990 10b5 07       		.byte	0x7
 2991 10b6 38       		.byte	0x38
 2992 10b7 FC130000 		.4byte	0x13fc
 2993 10bb 0C       		.byte	0xc
 2994 10bc 0A       		.uleb128 0xa
 2995 10bd 23000000 		.4byte	.LASF222
 2996 10c1 07       		.byte	0x7
 2997 10c2 39       		.byte	0x39
 2998 10c3 F6000000 		.4byte	0xf6
 2999 10c7 14       		.byte	0x14
 3000 10c8 0A       		.uleb128 0xa
 3001 10c9 E3130000 		.4byte	.LASF223
 3002 10cd 07       		.byte	0x7
 3003 10ce 3A       		.byte	0x3a
 3004 10cf F6000000 		.4byte	0xf6
 3005 10d3 18       		.byte	0x18
 3006 10d4 0A       		.uleb128 0xa
 3007 10d5 EE1A0000 		.4byte	.LASF224
 3008 10d9 07       		.byte	0x7
 3009 10da 3B       		.byte	0x3b
 3010 10db FB000000 		.4byte	0xfb
 3011 10df 1C       		.byte	0x1c
 3012 10e0 0A       		.uleb128 0xa
 3013 10e1 F5050000 		.4byte	.LASF54
 3014 10e5 07       		.byte	0x7
 3015 10e6 3C       		.byte	0x3c
 3016 10e7 16140000 		.4byte	0x1416
 3017 10eb 20       		.byte	0x20
 3018 10ec 0A       		.uleb128 0xa
 3019 10ed 6C0C0000 		.4byte	.LASF225
 3020 10f1 07       		.byte	0x7
 3021 10f2 3D       		.byte	0x3d
 3022 10f3 1B140000 		.4byte	0x141b
 3023 10f7 80       		.byte	0x80
 3024 10f8 0A       		.uleb128 0xa
 3025 10f9 21070000 		.4byte	.LASF56
 3026 10fd 07       		.byte	0x7
 3027 10fe 3E       		.byte	0x3e
 3028 10ff 25140000 		.4byte	0x1425
 3029 1103 C0       		.byte	0xc0
 3030 1104 0B       		.uleb128 0xb
 3031 1105 F11B0000 		.4byte	.LASF226
 3032 1109 07       		.byte	0x7
 3033 110a 3F       		.byte	0x3f
 3034 110b F6000000 		.4byte	0xf6
 3035 110f 8001     		.2byte	0x180
 3036 1111 0B       		.uleb128 0xb
 3037 1112 59160000 		.4byte	.LASF227
 3038 1116 07       		.byte	0x7
 3039 1117 40       		.byte	0x40
ARM GAS  C:\Users\stijn\AppData\Local\Temp\ccLepBqo.s 			page 78


 3040 1118 F6000000 		.4byte	0xf6
 3041 111c 8401     		.2byte	0x184
 3042 111e 0B       		.uleb128 0xb
 3043 111f 7E1B0000 		.4byte	.LASF228
 3044 1123 07       		.byte	0x7
 3045 1124 41       		.byte	0x41
 3046 1125 F6000000 		.4byte	0xf6
 3047 1129 8801     		.2byte	0x188
 3048 112b 0B       		.uleb128 0xb
 3049 112c 2B070000 		.4byte	.LASF78
 3050 1130 07       		.byte	0x7
 3051 1131 42       		.byte	0x42
 3052 1132 2F140000 		.4byte	0x142f
 3053 1136 8C01     		.2byte	0x18c
 3054 1138 0B       		.uleb128 0xb
 3055 1139 BA160000 		.4byte	.LASF229
 3056 113d 07       		.byte	0x7
 3057 113e 43       		.byte	0x43
 3058 113f 34140000 		.4byte	0x1434
 3059 1143 0002     		.2byte	0x200
 3060 1145 0B       		.uleb128 0xb
 3061 1146 2A120000 		.4byte	.LASF230
 3062 114a 07       		.byte	0x7
 3063 114b 44       		.byte	0x44
 3064 114c 44140000 		.4byte	0x1444
 3065 1150 0003     		.2byte	0x300
 3066 1152 0B       		.uleb128 0xb
 3067 1153 2A090000 		.4byte	.LASF231
 3068 1157 07       		.byte	0x7
 3069 1158 45       		.byte	0x45
 3070 1159 49140000 		.4byte	0x1449
 3071 115d 4003     		.2byte	0x340
 3072 115f 0B       		.uleb128 0xb
 3073 1160 6E080000 		.4byte	.LASF232
 3074 1164 07       		.byte	0x7
 3075 1165 46       		.byte	0x46
 3076 1166 4E140000 		.4byte	0x144e
 3077 116a 8003     		.2byte	0x380
 3078 116c 0B       		.uleb128 0xb
 3079 116d 35060000 		.4byte	.LASF83
 3080 1171 07       		.byte	0x7
 3081 1172 47       		.byte	0x47
 3082 1173 58140000 		.4byte	0x1458
 3083 1177 C003     		.2byte	0x3c0
 3084 1179 0B       		.uleb128 0xb
 3085 117a 320B0000 		.4byte	.LASF233
 3086 117e 07       		.byte	0x7
 3087 117f 48       		.byte	0x48
 3088 1180 F6000000 		.4byte	0xf6
 3089 1184 0005     		.2byte	0x500
 3090 1186 0B       		.uleb128 0xb
 3091 1187 F30F0000 		.4byte	.LASF234
 3092 118b 07       		.byte	0x7
 3093 118c 49       		.byte	0x49
 3094 118d F6000000 		.4byte	0xf6
 3095 1191 0405     		.2byte	0x504
 3096 1193 0B       		.uleb128 0xb
ARM GAS  C:\Users\stijn\AppData\Local\Temp\ccLepBqo.s 			page 79


 3097 1194 3F060000 		.4byte	.LASF87
 3098 1198 07       		.byte	0x7
 3099 1199 4A       		.byte	0x4a
 3100 119a FB000000 		.4byte	0xfb
 3101 119e 0805     		.2byte	0x508
 3102 11a0 0B       		.uleb128 0xb
 3103 11a1 AD190000 		.4byte	.LASF235
 3104 11a5 07       		.byte	0x7
 3105 11a6 4B       		.byte	0x4b
 3106 11a7 F6000000 		.4byte	0xf6
 3107 11ab 0C05     		.2byte	0x50c
 3108 11ad 0B       		.uleb128 0xb
 3109 11ae 98160000 		.4byte	.LASF236
 3110 11b2 07       		.byte	0x7
 3111 11b3 4C       		.byte	0x4c
 3112 11b4 F6000000 		.4byte	0xf6
 3113 11b8 1005     		.2byte	0x510
 3114 11ba 0B       		.uleb128 0xb
 3115 11bb 121A0000 		.4byte	.LASF237
 3116 11bf 07       		.byte	0x7
 3117 11c0 4D       		.byte	0x4d
 3118 11c1 F6000000 		.4byte	0xf6
 3119 11c5 1405     		.2byte	0x514
 3120 11c7 0B       		.uleb128 0xb
 3121 11c8 8D110000 		.4byte	.LASF238
 3122 11cc 07       		.byte	0x7
 3123 11cd 4E       		.byte	0x4e
 3124 11ce F6000000 		.4byte	0xf6
 3125 11d2 1805     		.2byte	0x518
 3126 11d4 0B       		.uleb128 0xb
 3127 11d5 74090000 		.4byte	.LASF239
 3128 11d9 07       		.byte	0x7
 3129 11da 4F       		.byte	0x4f
 3130 11db F6000000 		.4byte	0xf6
 3131 11df 1C05     		.2byte	0x51c
 3132 11e1 0B       		.uleb128 0xb
 3133 11e2 81090000 		.4byte	.LASF240
 3134 11e6 07       		.byte	0x7
 3135 11e7 50       		.byte	0x50
 3136 11e8 FB000000 		.4byte	0xfb
 3137 11ec 2005     		.2byte	0x520
 3138 11ee 0B       		.uleb128 0xb
 3139 11ef 49060000 		.4byte	.LASF89
 3140 11f3 07       		.byte	0x7
 3141 11f4 51       		.byte	0x51
 3142 11f5 62140000 		.4byte	0x1462
 3143 11f9 2405     		.2byte	0x524
 3144 11fb 0B       		.uleb128 0xb
 3145 11fc CB110000 		.4byte	.LASF241
 3146 1200 07       		.byte	0x7
 3147 1201 52       		.byte	0x52
 3148 1202 F6000000 		.4byte	0xf6
 3149 1206 2C05     		.2byte	0x52c
 3150 1208 0B       		.uleb128 0xb
 3151 1209 FE1B0000 		.4byte	.LASF242
 3152 120d 07       		.byte	0x7
 3153 120e 53       		.byte	0x53
ARM GAS  C:\Users\stijn\AppData\Local\Temp\ccLepBqo.s 			page 80


 3154 120f FB000000 		.4byte	0xfb
 3155 1213 3005     		.2byte	0x530
 3156 1215 0B       		.uleb128 0xb
 3157 1216 53060000 		.4byte	.LASF91
 3158 121a 07       		.byte	0x7
 3159 121b 54       		.byte	0x54
 3160 121c 6C140000 		.4byte	0x146c
 3161 1220 3405     		.2byte	0x534
 3162 1222 0B       		.uleb128 0xb
 3163 1223 5D1B0000 		.4byte	.LASF243
 3164 1227 07       		.byte	0x7
 3165 1228 55       		.byte	0x55
 3166 1229 F6000000 		.4byte	0xf6
 3167 122d 3C05     		.2byte	0x53c
 3168 122f 0B       		.uleb128 0xb
 3169 1230 5D060000 		.4byte	.LASF93
 3170 1234 07       		.byte	0x7
 3171 1235 56       		.byte	0x56
 3172 1236 76140000 		.4byte	0x1476
 3173 123a 4005     		.2byte	0x540
 3174 123c 0B       		.uleb128 0xb
 3175 123d 8C050000 		.4byte	.LASF244
 3176 1241 07       		.byte	0x7
 3177 1242 57       		.byte	0x57
 3178 1243 F6000000 		.4byte	0xf6
 3179 1247 8005     		.2byte	0x580
 3180 1249 0B       		.uleb128 0xb
 3181 124a FE0B0000 		.4byte	.LASF245
 3182 124e 07       		.byte	0x7
 3183 124f 58       		.byte	0x58
 3184 1250 F6000000 		.4byte	0xf6
 3185 1254 8405     		.2byte	0x584
 3186 1256 0B       		.uleb128 0xb
 3187 1257 BB110000 		.4byte	.LASF246
 3188 125b 07       		.byte	0x7
 3189 125c 59       		.byte	0x59
 3190 125d F6000000 		.4byte	0xf6
 3191 1261 8805     		.2byte	0x588
 3192 1263 0B       		.uleb128 0xb
 3193 1264 220C0000 		.4byte	.LASF247
 3194 1268 07       		.byte	0x7
 3195 1269 5A       		.byte	0x5a
 3196 126a F6000000 		.4byte	0xf6
 3197 126e 8C05     		.2byte	0x58c
 3198 1270 0B       		.uleb128 0xb
 3199 1271 9B0F0000 		.4byte	.LASF248
 3200 1275 07       		.byte	0x7
 3201 1276 5B       		.byte	0x5b
 3202 1277 F6000000 		.4byte	0xf6
 3203 127b 9005     		.2byte	0x590
 3204 127d 0B       		.uleb128 0xb
 3205 127e 67060000 		.4byte	.LASF95
 3206 1282 07       		.byte	0x7
 3207 1283 5C       		.byte	0x5c
 3208 1284 80140000 		.4byte	0x1480
 3209 1288 9405     		.2byte	0x594
 3210 128a 0B       		.uleb128 0xb
ARM GAS  C:\Users\stijn\AppData\Local\Temp\ccLepBqo.s 			page 81


 3211 128b 510E0000 		.4byte	.LASF249
 3212 128f 07       		.byte	0x7
 3213 1290 5D       		.byte	0x5d
 3214 1291 95140000 		.4byte	0x1495
 3215 1295 0006     		.2byte	0x600
 3216 1297 0B       		.uleb128 0xb
 3217 1298 47130000 		.4byte	.LASF97
 3218 129c 07       		.byte	0x7
 3219 129d 5E       		.byte	0x5e
 3220 129e FB000000 		.4byte	0xfb
 3221 12a2 3C06     		.2byte	0x63c
 3222 12a4 0B       		.uleb128 0xb
 3223 12a5 B6150000 		.4byte	.LASF250
 3224 12a9 07       		.byte	0x7
 3225 12aa 5F       		.byte	0x5f
 3226 12ab 9A140000 		.4byte	0x149a
 3227 12af 4006     		.2byte	0x640
 3228 12b1 0B       		.uleb128 0xb
 3229 12b2 52130000 		.4byte	.LASF99
 3230 12b6 07       		.byte	0x7
 3231 12b7 60       		.byte	0x60
 3232 12b8 B4140000 		.4byte	0x14b4
 3233 12bc 7C06     		.2byte	0x67c
 3234 12be 0B       		.uleb128 0xb
 3235 12bf 5D010000 		.4byte	.LASF251
 3236 12c3 07       		.byte	0x7
 3237 12c4 61       		.byte	0x61
 3238 12c5 F6000000 		.4byte	0xf6
 3239 12c9 0007     		.2byte	0x700
 3240 12cb 0B       		.uleb128 0xb
 3241 12cc 70040000 		.4byte	.LASF252
 3242 12d0 07       		.byte	0x7
 3243 12d1 62       		.byte	0x62
 3244 12d2 F6000000 		.4byte	0xf6
 3245 12d6 0407     		.2byte	0x704
 3246 12d8 0B       		.uleb128 0xb
 3247 12d9 57100000 		.4byte	.LASF253
 3248 12dd 07       		.byte	0x7
 3249 12de 63       		.byte	0x63
 3250 12df F6000000 		.4byte	0xf6
 3251 12e3 0807     		.2byte	0x708
 3252 12e5 0B       		.uleb128 0xb
 3253 12e6 15110000 		.4byte	.LASF254
 3254 12ea 07       		.byte	0x7
 3255 12eb 64       		.byte	0x64
 3256 12ec FB000000 		.4byte	0xfb
 3257 12f0 0C07     		.2byte	0x70c
 3258 12f2 0B       		.uleb128 0xb
 3259 12f3 2E1C0000 		.4byte	.LASF255
 3260 12f7 07       		.byte	0x7
 3261 12f8 65       		.byte	0x65
 3262 12f9 F6000000 		.4byte	0xf6
 3263 12fd 1007     		.2byte	0x710
 3264 12ff 0B       		.uleb128 0xb
 3265 1300 5D130000 		.4byte	.LASF101
 3266 1304 07       		.byte	0x7
 3267 1305 66       		.byte	0x66
ARM GAS  C:\Users\stijn\AppData\Local\Temp\ccLepBqo.s 			page 82


 3268 1306 CE140000 		.4byte	0x14ce
 3269 130a 1407     		.2byte	0x714
 3270 130c 0B       		.uleb128 0xb
 3271 130d 4D100000 		.4byte	.LASF256
 3272 1311 07       		.byte	0x7
 3273 1312 67       		.byte	0x67
 3274 1313 F6000000 		.4byte	0xf6
 3275 1317 0008     		.2byte	0x800
 3276 1319 0B       		.uleb128 0xb
 3277 131a E10A0000 		.4byte	.LASF257
 3278 131e 07       		.byte	0x7
 3279 131f 68       		.byte	0x68
 3280 1320 F6000000 		.4byte	0xf6
 3281 1324 0408     		.2byte	0x804
 3282 1326 0B       		.uleb128 0xb
 3283 1327 68130000 		.4byte	.LASF103
 3284 132b 07       		.byte	0x7
 3285 132c 69       		.byte	0x69
 3286 132d E9140000 		.4byte	0x14e9
 3287 1331 0808     		.2byte	0x808
 3288 1333 0B       		.uleb128 0xb
 3289 1334 21140000 		.4byte	.LASF258
 3290 1338 07       		.byte	0x7
 3291 1339 6A       		.byte	0x6a
 3292 133a F6000000 		.4byte	0xf6
 3293 133e 007F     		.2byte	0x7f00
 3294 1340 0B       		.uleb128 0xb
 3295 1341 0E0C0000 		.4byte	.LASF259
 3296 1345 07       		.byte	0x7
 3297 1346 6B       		.byte	0x6b
 3298 1347 F6000000 		.4byte	0xf6
 3299 134b 047F     		.2byte	0x7f04
 3300 134d 0B       		.uleb128 0xb
 3301 134e A9030000 		.4byte	.LASF260
 3302 1352 07       		.byte	0x7
 3303 1353 6C       		.byte	0x6c
 3304 1354 F6000000 		.4byte	0xf6
 3305 1358 087F     		.2byte	0x7f08
 3306 135a 0B       		.uleb128 0xb
 3307 135b 2B160000 		.4byte	.LASF261
 3308 135f 07       		.byte	0x7
 3309 1360 6D       		.byte	0x6d
 3310 1361 F6000000 		.4byte	0xf6
 3311 1365 0C7F     		.2byte	0x7f0c
 3312 1367 0B       		.uleb128 0xb
 3313 1368 73130000 		.4byte	.LASF105
 3314 136c 07       		.byte	0x7
 3315 136d 6E       		.byte	0x6e
 3316 136e F3140000 		.4byte	0x14f3
 3317 1372 107F     		.2byte	0x7f10
 3318 1374 0B       		.uleb128 0xb
 3319 1375 221A0000 		.4byte	.LASF145
 3320 1379 07       		.byte	0x7
 3321 137a 6F       		.byte	0x6f
 3322 137b F6000000 		.4byte	0xf6
 3323 137f 307F     		.2byte	0x7f30
 3324 1381 0B       		.uleb128 0xb
ARM GAS  C:\Users\stijn\AppData\Local\Temp\ccLepBqo.s 			page 83


 3325 1382 7E130000 		.4byte	.LASF107
 3326 1386 07       		.byte	0x7
 3327 1387 70       		.byte	0x70
 3328 1388 0E150000 		.4byte	0x150e
 3329 138c 347F     		.2byte	0x7f34
 3330 138e 0B       		.uleb128 0xb
 3331 138f 42170000 		.4byte	.LASF262
 3332 1393 07       		.byte	0x7
 3333 1394 71       		.byte	0x71
 3334 1395 F6000000 		.4byte	0xf6
 3335 1399 10FF     		.2byte	0xff10
 3336 139b 0B       		.uleb128 0xb
 3337 139c 89130000 		.4byte	.LASF109
 3338 13a0 07       		.byte	0x7
 3339 13a1 72       		.byte	0x72
 3340 13a2 FB000000 		.4byte	0xfb
 3341 13a6 14FF     		.2byte	0xff14
 3342 13a8 0B       		.uleb128 0xb
 3343 13a9 6D1B0000 		.4byte	.LASF263
 3344 13ad 07       		.byte	0x7
 3345 13ae 73       		.byte	0x73
 3346 13af F6000000 		.4byte	0xf6
 3347 13b3 18FF     		.2byte	0xff18
 3348 13b5 0B       		.uleb128 0xb
 3349 13b6 A80D0000 		.4byte	.LASF264
 3350 13ba 07       		.byte	0x7
 3351 13bb 74       		.byte	0x74
 3352 13bc F6000000 		.4byte	0xf6
 3353 13c0 1CFF     		.2byte	0xff1c
 3354 13c2 0B       		.uleb128 0xb
 3355 13c3 D6060000 		.4byte	.LASF265
 3356 13c7 07       		.byte	0x7
 3357 13c8 75       		.byte	0x75
 3358 13c9 F6000000 		.4byte	0xf6
 3359 13cd 20FF     		.2byte	0xff20
 3360 13cf 0B       		.uleb128 0xb
 3361 13d0 41080000 		.4byte	.LASF266
 3362 13d4 07       		.byte	0x7
 3363 13d5 76       		.byte	0x76
 3364 13d6 F6000000 		.4byte	0xf6
 3365 13da 24FF     		.2byte	0xff24
 3366 13dc 0B       		.uleb128 0xb
 3367 13dd 0E010000 		.4byte	.LASF267
 3368 13e1 07       		.byte	0x7
 3369 13e2 77       		.byte	0x77
 3370 13e3 F6000000 		.4byte	0xf6
 3371 13e7 28FF     		.2byte	0xff28
 3372 13e9 0B       		.uleb128 0xb
 3373 13ea 21010000 		.4byte	.LASF268
 3374 13ee 07       		.byte	0x7
 3375 13ef 78       		.byte	0x78
 3376 13f0 F6000000 		.4byte	0xf6
 3377 13f4 2CFF     		.2byte	0xff2c
 3378 13f6 00       		.byte	0
 3379 13f7 05       		.uleb128 0x5
 3380 13f8 A5070000 		.4byte	0x7a5
 3381 13fc 06       		.uleb128 0x6
ARM GAS  C:\Users\stijn\AppData\Local\Temp\ccLepBqo.s 			page 84


 3382 13fd F7130000 		.4byte	0x13f7
 3383 1401 07       		.uleb128 0x7
 3384 1402 FB000000 		.4byte	0xfb
 3385 1406 11140000 		.4byte	0x1411
 3386 140a 08       		.uleb128 0x8
 3387 140b 00010000 		.4byte	0x100
 3388 140f 17       		.byte	0x17
 3389 1410 00       		.byte	0
 3390 1411 05       		.uleb128 0x5
 3391 1412 01140000 		.4byte	0x1401
 3392 1416 06       		.uleb128 0x6
 3393 1417 11140000 		.4byte	0x1411
 3394 141b 05       		.uleb128 0x5
 3395 141c 17010000 		.4byte	0x117
 3396 1420 05       		.uleb128 0x5
 3397 1421 F10E0000 		.4byte	0xef1
 3398 1425 06       		.uleb128 0x6
 3399 1426 20140000 		.4byte	0x1420
 3400 142a 05       		.uleb128 0x5
 3401 142b 87010000 		.4byte	0x187
 3402 142f 06       		.uleb128 0x6
 3403 1430 2A140000 		.4byte	0x142a
 3404 1434 07       		.uleb128 0x7
 3405 1435 78100000 		.4byte	0x1078
 3406 1439 44140000 		.4byte	0x1444
 3407 143d 08       		.uleb128 0x8
 3408 143e 00010000 		.4byte	0x100
 3409 1442 03       		.byte	0x3
 3410 1443 00       		.byte	0
 3411 1444 05       		.uleb128 0x5
 3412 1445 17010000 		.4byte	0x117
 3413 1449 05       		.uleb128 0x5
 3414 144a 17010000 		.4byte	0x117
 3415 144e 05       		.uleb128 0x5
 3416 144f 17010000 		.4byte	0x117
 3417 1453 05       		.uleb128 0x5
 3418 1454 B5070000 		.4byte	0x7b5
 3419 1458 06       		.uleb128 0x6
 3420 1459 53140000 		.4byte	0x1453
 3421 145d 05       		.uleb128 0x5
 3422 145e A5070000 		.4byte	0x7a5
 3423 1462 06       		.uleb128 0x6
 3424 1463 5D140000 		.4byte	0x145d
 3425 1467 05       		.uleb128 0x5
 3426 1468 A5070000 		.4byte	0x7a5
 3427 146c 06       		.uleb128 0x6
 3428 146d 67140000 		.4byte	0x1467
 3429 1471 05       		.uleb128 0x5
 3430 1472 07010000 		.4byte	0x107
 3431 1476 06       		.uleb128 0x6
 3432 1477 71140000 		.4byte	0x1471
 3433 147b 05       		.uleb128 0x5
 3434 147c 57010000 		.4byte	0x157
 3435 1480 06       		.uleb128 0x6
 3436 1481 7B140000 		.4byte	0x147b
 3437 1485 07       		.uleb128 0x7
 3438 1486 F6000000 		.4byte	0xf6
ARM GAS  C:\Users\stijn\AppData\Local\Temp\ccLepBqo.s 			page 85


 3439 148a 95140000 		.4byte	0x1495
 3440 148e 08       		.uleb128 0x8
 3441 148f 00010000 		.4byte	0x100
 3442 1493 0E       		.byte	0xe
 3443 1494 00       		.byte	0
 3444 1495 05       		.uleb128 0x5
 3445 1496 85140000 		.4byte	0x1485
 3446 149a 05       		.uleb128 0x5
 3447 149b 85140000 		.4byte	0x1485
 3448 149f 07       		.uleb128 0x7
 3449 14a0 FB000000 		.4byte	0xfb
 3450 14a4 AF140000 		.4byte	0x14af
 3451 14a8 08       		.uleb128 0x8
 3452 14a9 00010000 		.4byte	0x100
 3453 14ad 20       		.byte	0x20
 3454 14ae 00       		.byte	0
 3455 14af 05       		.uleb128 0x5
 3456 14b0 9F140000 		.4byte	0x149f
 3457 14b4 06       		.uleb128 0x6
 3458 14b5 AF140000 		.4byte	0x14af
 3459 14b9 07       		.uleb128 0x7
 3460 14ba FB000000 		.4byte	0xfb
 3461 14be C9140000 		.4byte	0x14c9
 3462 14c2 08       		.uleb128 0x8
 3463 14c3 00010000 		.4byte	0x100
 3464 14c7 3A       		.byte	0x3a
 3465 14c8 00       		.byte	0
 3466 14c9 05       		.uleb128 0x5
 3467 14ca B9140000 		.4byte	0x14b9
 3468 14ce 06       		.uleb128 0x6
 3469 14cf C9140000 		.4byte	0x14c9
 3470 14d3 07       		.uleb128 0x7
 3471 14d4 FB000000 		.4byte	0xfb
 3472 14d8 E4140000 		.4byte	0x14e4
 3473 14dc 0C       		.uleb128 0xc
 3474 14dd 00010000 		.4byte	0x100
 3475 14e1 BD1D     		.2byte	0x1dbd
 3476 14e3 00       		.byte	0
 3477 14e4 05       		.uleb128 0x5
 3478 14e5 D3140000 		.4byte	0x14d3
 3479 14e9 06       		.uleb128 0x6
 3480 14ea E4140000 		.4byte	0x14e4
 3481 14ee 05       		.uleb128 0x5
 3482 14ef D7060000 		.4byte	0x6d7
 3483 14f3 06       		.uleb128 0x6
 3484 14f4 EE140000 		.4byte	0x14ee
 3485 14f8 07       		.uleb128 0x7
 3486 14f9 FB000000 		.4byte	0xfb
 3487 14fd 09150000 		.4byte	0x1509
 3488 1501 0C       		.uleb128 0xc
 3489 1502 00010000 		.4byte	0x100
 3490 1506 F61F     		.2byte	0x1ff6
 3491 1508 00       		.byte	0
 3492 1509 05       		.uleb128 0x5
 3493 150a F8140000 		.4byte	0x14f8
 3494 150e 06       		.uleb128 0x6
 3495 150f 09150000 		.4byte	0x1509
ARM GAS  C:\Users\stijn\AppData\Local\Temp\ccLepBqo.s 			page 86


 3496 1513 03       		.uleb128 0x3
 3497 1514 82180000 		.4byte	.LASF269
 3498 1518 07       		.byte	0x7
 3499 1519 79       		.byte	0x79
 3500 151a 83100000 		.4byte	0x1083
 3501 151e 09       		.uleb128 0x9
 3502 151f 04FF     		.2byte	0xff04
 3503 1521 08       		.byte	0x8
 3504 1522 21       		.byte	0x21
 3505 1523 3F160000 		.4byte	0x163f
 3506 1527 0F       		.uleb128 0xf
 3507 1528 43544C00 		.ascii	"CTL\000"
 3508 152c 08       		.byte	0x8
 3509 152d 22       		.byte	0x22
 3510 152e F6000000 		.4byte	0xf6
 3511 1532 00       		.byte	0
 3512 1533 0A       		.uleb128 0xa
 3513 1534 C5090000 		.4byte	.LASF48
 3514 1538 08       		.byte	0x8
 3515 1539 23       		.byte	0x23
 3516 153a FB000000 		.4byte	0xfb
 3517 153e 04       		.byte	0x4
 3518 153f 0A       		.uleb128 0xa
 3519 1540 5C070000 		.4byte	.LASF270
 3520 1544 08       		.byte	0x8
 3521 1545 24       		.byte	0x24
 3522 1546 F6000000 		.4byte	0xf6
 3523 154a 08       		.byte	0x8
 3524 154b 0A       		.uleb128 0xa
 3525 154c EC0A0000 		.4byte	.LASF271
 3526 1550 08       		.byte	0x8
 3527 1551 25       		.byte	0x25
 3528 1552 F6000000 		.4byte	0xf6
 3529 1556 0C       		.byte	0xc
 3530 1557 0A       		.uleb128 0xa
 3531 1558 93150000 		.4byte	.LASF24
 3532 155c 08       		.byte	0x8
 3533 155d 26       		.byte	0x26
 3534 155e FB000000 		.4byte	0xfb
 3535 1562 10       		.byte	0x10
 3536 1563 0A       		.uleb128 0xa
 3537 1564 16100000 		.4byte	.LASF272
 3538 1568 08       		.byte	0x8
 3539 1569 27       		.byte	0x27
 3540 156a F6000000 		.4byte	0xf6
 3541 156e 14       		.byte	0x14
 3542 156f 0A       		.uleb128 0xa
 3543 1570 30030000 		.4byte	.LASF273
 3544 1574 08       		.byte	0x8
 3545 1575 28       		.byte	0x28
 3546 1576 F6000000 		.4byte	0xf6
 3547 157a 18       		.byte	0x18
 3548 157b 0A       		.uleb128 0xa
 3549 157c CD0B0000 		.4byte	.LASF274
 3550 1580 08       		.byte	0x8
 3551 1581 29       		.byte	0x29
 3552 1582 F6000000 		.4byte	0xf6
ARM GAS  C:\Users\stijn\AppData\Local\Temp\ccLepBqo.s 			page 87


 3553 1586 1C       		.byte	0x1c
 3554 1587 0A       		.uleb128 0xa
 3555 1588 7E080000 		.4byte	.LASF275
 3556 158c 08       		.byte	0x8
 3557 158d 2A       		.byte	0x2a
 3558 158e F6000000 		.4byte	0xf6
 3559 1592 20       		.byte	0x20
 3560 1593 0A       		.uleb128 0xa
 3561 1594 980A0000 		.4byte	.LASF276
 3562 1598 08       		.byte	0x8
 3563 1599 2B       		.byte	0x2b
 3564 159a F6000000 		.4byte	0xf6
 3565 159e 24       		.byte	0x24
 3566 159f 0A       		.uleb128 0xa
 3567 15a0 611A0000 		.4byte	.LASF277
 3568 15a4 08       		.byte	0x8
 3569 15a5 2C       		.byte	0x2c
 3570 15a6 F6000000 		.4byte	0xf6
 3571 15aa 28       		.byte	0x28
 3572 15ab 0A       		.uleb128 0xa
 3573 15ac 370C0000 		.4byte	.LASF38
 3574 15b0 08       		.byte	0x8
 3575 15b1 2D       		.byte	0x2d
 3576 15b2 F6000000 		.4byte	0xf6
 3577 15b6 2C       		.byte	0x2c
 3578 15b7 0A       		.uleb128 0xa
 3579 15b8 F5110000 		.4byte	.LASF39
 3580 15bc 08       		.byte	0x8
 3581 15bd 2E       		.byte	0x2e
 3582 15be F6000000 		.4byte	0xf6
 3583 15c2 30       		.byte	0x30
 3584 15c3 0A       		.uleb128 0xa
 3585 15c4 8C020000 		.4byte	.LASF40
 3586 15c8 08       		.byte	0x8
 3587 15c9 2F       		.byte	0x2f
 3588 15ca F6000000 		.4byte	0xf6
 3589 15ce 34       		.byte	0x34
 3590 15cf 0A       		.uleb128 0xa
 3591 15d0 A9010000 		.4byte	.LASF41
 3592 15d4 08       		.byte	0x8
 3593 15d5 30       		.byte	0x30
 3594 15d6 FB000000 		.4byte	0xfb
 3595 15da 38       		.byte	0x38
 3596 15db 0A       		.uleb128 0xa
 3597 15dc E70C0000 		.4byte	.LASF278
 3598 15e0 08       		.byte	0x8
 3599 15e1 31       		.byte	0x31
 3600 15e2 FB000000 		.4byte	0xfb
 3601 15e6 3C       		.byte	0x3c
 3602 15e7 0A       		.uleb128 0xa
 3603 15e8 A70B0000 		.4byte	.LASF279
 3604 15ec 08       		.byte	0x8
 3605 15ed 32       		.byte	0x32
 3606 15ee FB000000 		.4byte	0xfb
 3607 15f2 40       		.byte	0x40
 3608 15f3 0A       		.uleb128 0xa
 3609 15f4 D7050000 		.4byte	.LASF280
ARM GAS  C:\Users\stijn\AppData\Local\Temp\ccLepBqo.s 			page 88


 3610 15f8 08       		.byte	0x8
 3611 15f9 33       		.byte	0x33
 3612 15fa F6000000 		.4byte	0xf6
 3613 15fe 44       		.byte	0x44
 3614 15ff 0A       		.uleb128 0xa
 3615 1600 72150000 		.4byte	.LASF281
 3616 1604 08       		.byte	0x8
 3617 1605 34       		.byte	0x34
 3618 1606 F6000000 		.4byte	0xf6
 3619 160a 48       		.byte	0x48
 3620 160b 0A       		.uleb128 0xa
 3621 160c F5050000 		.4byte	.LASF54
 3622 1610 08       		.byte	0x8
 3623 1611 35       		.byte	0x35
 3624 1612 55160000 		.4byte	0x1655
 3625 1616 4C       		.byte	0x4c
 3626 1617 0B       		.uleb128 0xb
 3627 1618 D2050000 		.4byte	.LASF282
 3628 161c 08       		.byte	0x8
 3629 161d 36       		.byte	0x36
 3630 161e 5A160000 		.4byte	0x165a
 3631 1622 0010     		.2byte	0x1000
 3632 1624 0B       		.uleb128 0xb
 3633 1625 21070000 		.4byte	.LASF56
 3634 1629 08       		.byte	0x8
 3635 162a 37       		.byte	0x37
 3636 162b 75160000 		.4byte	0x1675
 3637 162f 0011     		.2byte	0x1100
 3638 1631 0B       		.uleb128 0xb
 3639 1632 320C0000 		.4byte	.LASF283
 3640 1636 08       		.byte	0x8
 3641 1637 38       		.byte	0x38
 3642 1638 F6000000 		.4byte	0xf6
 3643 163c 00FF     		.2byte	0xff00
 3644 163e 00       		.byte	0
 3645 163f 07       		.uleb128 0x7
 3646 1640 FB000000 		.4byte	0xfb
 3647 1644 50160000 		.4byte	0x1650
 3648 1648 0C       		.uleb128 0xc
 3649 1649 00010000 		.4byte	0x100
 3650 164d EC03     		.2byte	0x3ec
 3651 164f 00       		.byte	0
 3652 1650 05       		.uleb128 0x5
 3653 1651 3F160000 		.4byte	0x163f
 3654 1655 06       		.uleb128 0x6
 3655 1656 50160000 		.4byte	0x1650
 3656 165a 05       		.uleb128 0x5
 3657 165b D6070000 		.4byte	0x7d6
 3658 165f 07       		.uleb128 0x7
 3659 1660 FB000000 		.4byte	0xfb
 3660 1664 70160000 		.4byte	0x1670
 3661 1668 0C       		.uleb128 0xc
 3662 1669 00010000 		.4byte	0x100
 3663 166d 7F3B     		.2byte	0x3b7f
 3664 166f 00       		.byte	0
 3665 1670 05       		.uleb128 0x5
 3666 1671 5F160000 		.4byte	0x165f
ARM GAS  C:\Users\stijn\AppData\Local\Temp\ccLepBqo.s 			page 89


 3667 1675 06       		.uleb128 0x6
 3668 1676 70160000 		.4byte	0x1670
 3669 167a 03       		.uleb128 0x3
 3670 167b 3C0C0000 		.4byte	.LASF284
 3671 167f 08       		.byte	0x8
 3672 1680 39       		.byte	0x39
 3673 1681 1E150000 		.4byte	0x151e
 3674 1685 0E       		.uleb128 0xe
 3675 1686 B8       		.byte	0xb8
 3676 1687 09       		.byte	0x9
 3677 1688 34       		.byte	0x34
 3678 1689 961A0000 		.4byte	0x1a96
 3679 168d 0A       		.uleb128 0xa
 3680 168e EE0C0000 		.4byte	.LASF285
 3681 1692 09       		.byte	0x9
 3682 1693 37       		.byte	0x37
 3683 1694 D9000000 		.4byte	0xd9
 3684 1698 00       		.byte	0
 3685 1699 0A       		.uleb128 0xa
 3686 169a E0050000 		.4byte	.LASF286
 3687 169e 09       		.byte	0x9
 3688 169f 38       		.byte	0x38
 3689 16a0 D9000000 		.4byte	0xd9
 3690 16a4 04       		.byte	0x4
 3691 16a5 0A       		.uleb128 0xa
 3692 16a6 B50A0000 		.4byte	.LASF287
 3693 16aa 09       		.byte	0x9
 3694 16ab 39       		.byte	0x39
 3695 16ac D9000000 		.4byte	0xd9
 3696 16b0 08       		.byte	0x8
 3697 16b1 0A       		.uleb128 0xa
 3698 16b2 B6080000 		.4byte	.LASF288
 3699 16b6 09       		.byte	0x9
 3700 16b7 3A       		.byte	0x3a
 3701 16b8 D9000000 		.4byte	0xd9
 3702 16bc 0C       		.byte	0xc
 3703 16bd 0A       		.uleb128 0xa
 3704 16be 1C0D0000 		.4byte	.LASF289
 3705 16c2 09       		.byte	0x9
 3706 16c3 3B       		.byte	0x3b
 3707 16c4 D9000000 		.4byte	0xd9
 3708 16c8 10       		.byte	0x10
 3709 16c9 0A       		.uleb128 0xa
 3710 16ca 04010000 		.4byte	.LASF290
 3711 16ce 09       		.byte	0x9
 3712 16cf 3C       		.byte	0x3c
 3713 16d0 D9000000 		.4byte	0xd9
 3714 16d4 14       		.byte	0x14
 3715 16d5 0A       		.uleb128 0xa
 3716 16d6 F0150000 		.4byte	.LASF291
 3717 16da 09       		.byte	0x9
 3718 16db 3D       		.byte	0x3d
 3719 16dc D9000000 		.4byte	0xd9
 3720 16e0 18       		.byte	0x18
 3721 16e1 0A       		.uleb128 0xa
 3722 16e2 F5060000 		.4byte	.LASF292
 3723 16e6 09       		.byte	0x9
ARM GAS  C:\Users\stijn\AppData\Local\Temp\ccLepBqo.s 			page 90


 3724 16e7 3E       		.byte	0x3e
 3725 16e8 D9000000 		.4byte	0xd9
 3726 16ec 1C       		.byte	0x1c
 3727 16ed 0A       		.uleb128 0xa
 3728 16ee C31A0000 		.4byte	.LASF293
 3729 16f2 09       		.byte	0x9
 3730 16f3 3F       		.byte	0x3f
 3731 16f4 D9000000 		.4byte	0xd9
 3732 16f8 20       		.byte	0x20
 3733 16f9 0A       		.uleb128 0xa
 3734 16fa 0A000000 		.4byte	.LASF294
 3735 16fe 09       		.byte	0x9
 3736 16ff 40       		.byte	0x40
 3737 1700 D9000000 		.4byte	0xd9
 3738 1704 24       		.byte	0x24
 3739 1705 0A       		.uleb128 0xa
 3740 1706 AD0B0000 		.4byte	.LASF295
 3741 170a 09       		.byte	0x9
 3742 170b 43       		.byte	0x43
 3743 170c AD000000 		.4byte	0xad
 3744 1710 28       		.byte	0x28
 3745 1711 0A       		.uleb128 0xa
 3746 1712 4F1B0000 		.4byte	.LASF296
 3747 1716 09       		.byte	0x9
 3748 1717 44       		.byte	0x44
 3749 1718 AD000000 		.4byte	0xad
 3750 171c 29       		.byte	0x29
 3751 171d 0A       		.uleb128 0xa
 3752 171e D6150000 		.4byte	.LASF297
 3753 1722 09       		.byte	0x9
 3754 1723 45       		.byte	0x45
 3755 1724 AD000000 		.4byte	0xad
 3756 1728 2A       		.byte	0x2a
 3757 1729 0A       		.uleb128 0xa
 3758 172a D10F0000 		.4byte	.LASF298
 3759 172e 09       		.byte	0x9
 3760 172f 46       		.byte	0x46
 3761 1730 AD000000 		.4byte	0xad
 3762 1734 2B       		.byte	0x2b
 3763 1735 0A       		.uleb128 0xa
 3764 1736 C7180000 		.4byte	.LASF299
 3765 173a 09       		.byte	0x9
 3766 173b 47       		.byte	0x47
 3767 173c AD000000 		.4byte	0xad
 3768 1740 2C       		.byte	0x2c
 3769 1741 0A       		.uleb128 0xa
 3770 1742 211C0000 		.4byte	.LASF300
 3771 1746 09       		.byte	0x9
 3772 1747 48       		.byte	0x48
 3773 1748 AD000000 		.4byte	0xad
 3774 174c 2D       		.byte	0x2d
 3775 174d 0A       		.uleb128 0xa
 3776 174e 250D0000 		.4byte	.LASF301
 3777 1752 09       		.byte	0x9
 3778 1753 49       		.byte	0x49
 3779 1754 AD000000 		.4byte	0xad
 3780 1758 2E       		.byte	0x2e
ARM GAS  C:\Users\stijn\AppData\Local\Temp\ccLepBqo.s 			page 91


 3781 1759 0A       		.uleb128 0xa
 3782 175a CD160000 		.4byte	.LASF302
 3783 175e 09       		.byte	0x9
 3784 175f 4A       		.byte	0x4a
 3785 1760 AD000000 		.4byte	0xad
 3786 1764 2F       		.byte	0x2f
 3787 1765 0A       		.uleb128 0xa
 3788 1766 BA030000 		.4byte	.LASF303
 3789 176a 09       		.byte	0x9
 3790 176b 4B       		.byte	0x4b
 3791 176c AD000000 		.4byte	0xad
 3792 1770 30       		.byte	0x30
 3793 1771 0A       		.uleb128 0xa
 3794 1772 650F0000 		.4byte	.LASF304
 3795 1776 09       		.byte	0x9
 3796 1777 4E       		.byte	0x4e
 3797 1778 AD000000 		.4byte	0xad
 3798 177c 31       		.byte	0x31
 3799 177d 0A       		.uleb128 0xa
 3800 177e 67110000 		.4byte	.LASF305
 3801 1782 09       		.byte	0x9
 3802 1783 4F       		.byte	0x4f
 3803 1784 AD000000 		.4byte	0xad
 3804 1788 32       		.byte	0x32
 3805 1789 0A       		.uleb128 0xa
 3806 178a 52140000 		.4byte	.LASF306
 3807 178e 09       		.byte	0x9
 3808 178f 50       		.byte	0x50
 3809 1790 AD000000 		.4byte	0xad
 3810 1794 33       		.byte	0x33
 3811 1795 0A       		.uleb128 0xa
 3812 1796 36130000 		.4byte	.LASF307
 3813 179a 09       		.byte	0x9
 3814 179b 51       		.byte	0x51
 3815 179c AD000000 		.4byte	0xad
 3816 17a0 34       		.byte	0x34
 3817 17a1 0A       		.uleb128 0xa
 3818 17a2 F7080000 		.4byte	.LASF308
 3819 17a6 09       		.byte	0x9
 3820 17a7 52       		.byte	0x52
 3821 17a8 B8000000 		.4byte	0xb8
 3822 17ac 36       		.byte	0x36
 3823 17ad 0A       		.uleb128 0xa
 3824 17ae D70B0000 		.4byte	.LASF309
 3825 17b2 09       		.byte	0x9
 3826 17b3 53       		.byte	0x53
 3827 17b4 B8000000 		.4byte	0xb8
 3828 17b8 38       		.byte	0x38
 3829 17b9 0A       		.uleb128 0xa
 3830 17ba 7D0A0000 		.4byte	.LASF310
 3831 17be 09       		.byte	0x9
 3832 17bf 54       		.byte	0x54
 3833 17c0 B8000000 		.4byte	0xb8
 3834 17c4 3A       		.byte	0x3a
 3835 17c5 0A       		.uleb128 0xa
 3836 17c6 4A0A0000 		.4byte	.LASF311
 3837 17ca 09       		.byte	0x9
ARM GAS  C:\Users\stijn\AppData\Local\Temp\ccLepBqo.s 			page 92


 3838 17cb 55       		.byte	0x55
 3839 17cc AD000000 		.4byte	0xad
 3840 17d0 3C       		.byte	0x3c
 3841 17d1 0A       		.uleb128 0xa
 3842 17d2 13120000 		.4byte	.LASF312
 3843 17d6 09       		.byte	0x9
 3844 17d7 56       		.byte	0x56
 3845 17d8 AD000000 		.4byte	0xad
 3846 17dc 3D       		.byte	0x3d
 3847 17dd 0A       		.uleb128 0xa
 3848 17de 66020000 		.4byte	.LASF313
 3849 17e2 09       		.byte	0x9
 3850 17e3 57       		.byte	0x57
 3851 17e4 AD000000 		.4byte	0xad
 3852 17e8 3E       		.byte	0x3e
 3853 17e9 0A       		.uleb128 0xa
 3854 17ea AF040000 		.4byte	.LASF314
 3855 17ee 09       		.byte	0x9
 3856 17ef 58       		.byte	0x58
 3857 17f0 AD000000 		.4byte	0xad
 3858 17f4 3F       		.byte	0x3f
 3859 17f5 0A       		.uleb128 0xa
 3860 17f6 580C0000 		.4byte	.LASF315
 3861 17fa 09       		.byte	0x9
 3862 17fb 59       		.byte	0x59
 3863 17fc AD000000 		.4byte	0xad
 3864 1800 40       		.byte	0x40
 3865 1801 0A       		.uleb128 0xa
 3866 1802 5D0D0000 		.4byte	.LASF316
 3867 1806 09       		.byte	0x9
 3868 1807 5A       		.byte	0x5a
 3869 1808 AD000000 		.4byte	0xad
 3870 180c 41       		.byte	0x41
 3871 180d 0A       		.uleb128 0xa
 3872 180e 8D0B0000 		.4byte	.LASF317
 3873 1812 09       		.byte	0x9
 3874 1813 5B       		.byte	0x5b
 3875 1814 AD000000 		.4byte	0xad
 3876 1818 42       		.byte	0x42
 3877 1819 0A       		.uleb128 0xa
 3878 181a 3F190000 		.4byte	.LASF318
 3879 181e 09       		.byte	0x9
 3880 181f 5C       		.byte	0x5c
 3881 1820 AD000000 		.4byte	0xad
 3882 1824 43       		.byte	0x43
 3883 1825 0A       		.uleb128 0xa
 3884 1826 10160000 		.4byte	.LASF319
 3885 182a 09       		.byte	0x9
 3886 182b 5D       		.byte	0x5d
 3887 182c AD000000 		.4byte	0xad
 3888 1830 44       		.byte	0x44
 3889 1831 0A       		.uleb128 0xa
 3890 1832 FE150000 		.4byte	.LASF320
 3891 1836 09       		.byte	0x9
 3892 1837 5E       		.byte	0x5e
 3893 1838 D9000000 		.4byte	0xd9
 3894 183c 48       		.byte	0x48
ARM GAS  C:\Users\stijn\AppData\Local\Temp\ccLepBqo.s 			page 93


 3895 183d 0A       		.uleb128 0xa
 3896 183e BF0B0000 		.4byte	.LASF321
 3897 1842 09       		.byte	0x9
 3898 1843 5F       		.byte	0x5f
 3899 1844 D9000000 		.4byte	0xd9
 3900 1848 4C       		.byte	0x4c
 3901 1849 0A       		.uleb128 0xa
 3902 184a 700E0000 		.4byte	.LASF322
 3903 184e 09       		.byte	0x9
 3904 184f 60       		.byte	0x60
 3905 1850 AD000000 		.4byte	0xad
 3906 1854 50       		.byte	0x50
 3907 1855 0A       		.uleb128 0xa
 3908 1856 70180000 		.4byte	.LASF323
 3909 185a 09       		.byte	0x9
 3910 185b 61       		.byte	0x61
 3911 185c AD000000 		.4byte	0xad
 3912 1860 51       		.byte	0x51
 3913 1861 0A       		.uleb128 0xa
 3914 1862 600E0000 		.4byte	.LASF324
 3915 1866 09       		.byte	0x9
 3916 1867 62       		.byte	0x62
 3917 1868 AD000000 		.4byte	0xad
 3918 186c 52       		.byte	0x52
 3919 186d 0A       		.uleb128 0xa
 3920 186e 30000000 		.4byte	.LASF325
 3921 1872 09       		.byte	0x9
 3922 1873 63       		.byte	0x63
 3923 1874 AD000000 		.4byte	0xad
 3924 1878 53       		.byte	0x53
 3925 1879 0A       		.uleb128 0xa
 3926 187a 9D110000 		.4byte	.LASF326
 3927 187e 09       		.byte	0x9
 3928 187f 64       		.byte	0x64
 3929 1880 AD000000 		.4byte	0xad
 3930 1884 54       		.byte	0x54
 3931 1885 0A       		.uleb128 0xa
 3932 1886 0D1C0000 		.4byte	.LASF327
 3933 188a 09       		.byte	0x9
 3934 188b 65       		.byte	0x65
 3935 188c AD000000 		.4byte	0xad
 3936 1890 55       		.byte	0x55
 3937 1891 0A       		.uleb128 0xa
 3938 1892 8E170000 		.4byte	.LASF328
 3939 1896 09       		.byte	0x9
 3940 1897 66       		.byte	0x66
 3941 1898 AD000000 		.4byte	0xad
 3942 189c 56       		.byte	0x56
 3943 189d 0A       		.uleb128 0xa
 3944 189e 86120000 		.4byte	.LASF329
 3945 18a2 09       		.byte	0x9
 3946 18a3 67       		.byte	0x67
 3947 18a4 AD000000 		.4byte	0xad
 3948 18a8 57       		.byte	0x57
 3949 18a9 0A       		.uleb128 0xa
 3950 18aa 810E0000 		.4byte	.LASF330
 3951 18ae 09       		.byte	0x9
ARM GAS  C:\Users\stijn\AppData\Local\Temp\ccLepBqo.s 			page 94


 3952 18af 68       		.byte	0x68
 3953 18b0 AD000000 		.4byte	0xad
 3954 18b4 58       		.byte	0x58
 3955 18b5 0A       		.uleb128 0xa
 3956 18b6 070A0000 		.4byte	.LASF331
 3957 18ba 09       		.byte	0x9
 3958 18bb 69       		.byte	0x69
 3959 18bc AD000000 		.4byte	0xad
 3960 18c0 59       		.byte	0x59
 3961 18c1 0A       		.uleb128 0xa
 3962 18c2 3C1C0000 		.4byte	.LASF332
 3963 18c6 09       		.byte	0x9
 3964 18c7 6E       		.byte	0x6e
 3965 18c8 C3000000 		.4byte	0xc3
 3966 18cc 5A       		.byte	0x5a
 3967 18cd 0A       		.uleb128 0xa
 3968 18ce F50B0000 		.4byte	.LASF333
 3969 18d2 09       		.byte	0x9
 3970 18d3 6F       		.byte	0x6f
 3971 18d4 C3000000 		.4byte	0xc3
 3972 18d8 5C       		.byte	0x5c
 3973 18d9 0A       		.uleb128 0xa
 3974 18da 481A0000 		.4byte	.LASF334
 3975 18de 09       		.byte	0x9
 3976 18df 70       		.byte	0x70
 3977 18e0 AD000000 		.4byte	0xad
 3978 18e4 5E       		.byte	0x5e
 3979 18e5 0A       		.uleb128 0xa
 3980 18e6 801A0000 		.4byte	.LASF335
 3981 18ea 09       		.byte	0x9
 3982 18eb 71       		.byte	0x71
 3983 18ec AD000000 		.4byte	0xad
 3984 18f0 5F       		.byte	0x5f
 3985 18f1 0A       		.uleb128 0xa
 3986 18f2 D7020000 		.4byte	.LASF336
 3987 18f6 09       		.byte	0x9
 3988 18f7 72       		.byte	0x72
 3989 18f8 AD000000 		.4byte	0xad
 3990 18fc 60       		.byte	0x60
 3991 18fd 0A       		.uleb128 0xa
 3992 18fe 7C110000 		.4byte	.LASF337
 3993 1902 09       		.byte	0x9
 3994 1903 73       		.byte	0x73
 3995 1904 D9000000 		.4byte	0xd9
 3996 1908 64       		.byte	0x64
 3997 1909 0A       		.uleb128 0xa
 3998 190a 221B0000 		.4byte	.LASF338
 3999 190e 09       		.byte	0x9
 4000 190f 76       		.byte	0x76
 4001 1910 C3000000 		.4byte	0xc3
 4002 1914 68       		.byte	0x68
 4003 1915 0A       		.uleb128 0xa
 4004 1916 88080000 		.4byte	.LASF339
 4005 191a 09       		.byte	0x9
 4006 191b 77       		.byte	0x77
 4007 191c C3000000 		.4byte	0xc3
 4008 1920 6A       		.byte	0x6a
ARM GAS  C:\Users\stijn\AppData\Local\Temp\ccLepBqo.s 			page 95


 4009 1921 0A       		.uleb128 0xa
 4010 1922 E8080000 		.4byte	.LASF340
 4011 1926 09       		.byte	0x9
 4012 1927 78       		.byte	0x78
 4013 1928 C3000000 		.4byte	0xc3
 4014 192c 6C       		.byte	0x6c
 4015 192d 0A       		.uleb128 0xa
 4016 192e F9030000 		.4byte	.LASF341
 4017 1932 09       		.byte	0x9
 4018 1933 79       		.byte	0x79
 4019 1934 C3000000 		.4byte	0xc3
 4020 1938 6E       		.byte	0x6e
 4021 1939 0A       		.uleb128 0xa
 4022 193a 9A150000 		.4byte	.LASF342
 4023 193e 09       		.byte	0x9
 4024 193f 7B       		.byte	0x7b
 4025 1940 AD000000 		.4byte	0xad
 4026 1944 70       		.byte	0x70
 4027 1945 0A       		.uleb128 0xa
 4028 1946 D20C0000 		.4byte	.LASF343
 4029 194a 09       		.byte	0x9
 4030 194b 7C       		.byte	0x7c
 4031 194c AD000000 		.4byte	0xad
 4032 1950 71       		.byte	0x71
 4033 1951 0A       		.uleb128 0xa
 4034 1952 4B050000 		.4byte	.LASF344
 4035 1956 09       		.byte	0x9
 4036 1957 7D       		.byte	0x7d
 4037 1958 AD000000 		.4byte	0xad
 4038 195c 72       		.byte	0x72
 4039 195d 0A       		.uleb128 0xa
 4040 195e FD1A0000 		.4byte	.LASF345
 4041 1962 09       		.byte	0x9
 4042 1963 7E       		.byte	0x7e
 4043 1964 AD000000 		.4byte	0xad
 4044 1968 73       		.byte	0x73
 4045 1969 0A       		.uleb128 0xa
 4046 196a E7030000 		.4byte	.LASF346
 4047 196e 09       		.byte	0x9
 4048 196f 80       		.byte	0x80
 4049 1970 C3000000 		.4byte	0xc3
 4050 1974 74       		.byte	0x74
 4051 1975 0A       		.uleb128 0xa
 4052 1976 840C0000 		.4byte	.LASF347
 4053 197a 09       		.byte	0x9
 4054 197b 81       		.byte	0x81
 4055 197c C3000000 		.4byte	0xc3
 4056 1980 76       		.byte	0x76
 4057 1981 0A       		.uleb128 0xa
 4058 1982 A40E0000 		.4byte	.LASF348
 4059 1986 09       		.byte	0x9
 4060 1987 82       		.byte	0x82
 4061 1988 C3000000 		.4byte	0xc3
 4062 198c 78       		.byte	0x78
 4063 198d 0A       		.uleb128 0xa
 4064 198e F40A0000 		.4byte	.LASF349
 4065 1992 09       		.byte	0x9
ARM GAS  C:\Users\stijn\AppData\Local\Temp\ccLepBqo.s 			page 96


 4066 1993 83       		.byte	0x83
 4067 1994 C3000000 		.4byte	0xc3
 4068 1998 7A       		.byte	0x7a
 4069 1999 0A       		.uleb128 0xa
 4070 199a 01100000 		.4byte	.LASF350
 4071 199e 09       		.byte	0x9
 4072 199f 86       		.byte	0x86
 4073 19a0 AD000000 		.4byte	0xad
 4074 19a4 7C       		.byte	0x7c
 4075 19a5 0A       		.uleb128 0xa
 4076 19a6 D1010000 		.4byte	.LASF351
 4077 19aa 09       		.byte	0x9
 4078 19ab 87       		.byte	0x87
 4079 19ac AD000000 		.4byte	0xad
 4080 19b0 7D       		.byte	0x7d
 4081 19b1 0A       		.uleb128 0xa
 4082 19b2 A20A0000 		.4byte	.LASF352
 4083 19b6 09       		.byte	0x9
 4084 19b7 88       		.byte	0x88
 4085 19b8 AD000000 		.4byte	0xad
 4086 19bc 7E       		.byte	0x7e
 4087 19bd 0A       		.uleb128 0xa
 4088 19be 260E0000 		.4byte	.LASF353
 4089 19c2 09       		.byte	0x9
 4090 19c3 89       		.byte	0x89
 4091 19c4 AD000000 		.4byte	0xad
 4092 19c8 7F       		.byte	0x7f
 4093 19c9 0A       		.uleb128 0xa
 4094 19ca D3180000 		.4byte	.LASF354
 4095 19ce 09       		.byte	0x9
 4096 19cf 8A       		.byte	0x8a
 4097 19d0 AD000000 		.4byte	0xad
 4098 19d4 80       		.byte	0x80
 4099 19d5 0A       		.uleb128 0xa
 4100 19d6 BE080000 		.4byte	.LASF355
 4101 19da 09       		.byte	0x9
 4102 19db 8D       		.byte	0x8d
 4103 19dc D9000000 		.4byte	0xd9
 4104 19e0 84       		.byte	0x84
 4105 19e1 0A       		.uleb128 0xa
 4106 19e2 0A140000 		.4byte	.LASF356
 4107 19e6 09       		.byte	0x9
 4108 19e7 8E       		.byte	0x8e
 4109 19e8 D9000000 		.4byte	0xd9
 4110 19ec 88       		.byte	0x88
 4111 19ed 0A       		.uleb128 0xa
 4112 19ee 6B1A0000 		.4byte	.LASF357
 4113 19f2 09       		.byte	0x9
 4114 19f3 8F       		.byte	0x8f
 4115 19f4 D9000000 		.4byte	0xd9
 4116 19f8 8C       		.byte	0x8c
 4117 19f9 0A       		.uleb128 0xa
 4118 19fa 00110000 		.4byte	.LASF358
 4119 19fe 09       		.byte	0x9
 4120 19ff 90       		.byte	0x90
 4121 1a00 D9000000 		.4byte	0xd9
 4122 1a04 90       		.byte	0x90
ARM GAS  C:\Users\stijn\AppData\Local\Temp\ccLepBqo.s 			page 97


 4123 1a05 0A       		.uleb128 0xa
 4124 1a06 D3090000 		.4byte	.LASF359
 4125 1a0a 09       		.byte	0x9
 4126 1a0b 91       		.byte	0x91
 4127 1a0c D9000000 		.4byte	0xd9
 4128 1a10 94       		.byte	0x94
 4129 1a11 0A       		.uleb128 0xa
 4130 1a12 AB060000 		.4byte	.LASF360
 4131 1a16 09       		.byte	0x9
 4132 1a17 92       		.byte	0x92
 4133 1a18 D9000000 		.4byte	0xd9
 4134 1a1c 98       		.byte	0x98
 4135 1a1d 0A       		.uleb128 0xa
 4136 1a1e FE060000 		.4byte	.LASF361
 4137 1a22 09       		.byte	0x9
 4138 1a23 93       		.byte	0x93
 4139 1a24 D9000000 		.4byte	0xd9
 4140 1a28 9C       		.byte	0x9c
 4141 1a29 0A       		.uleb128 0xa
 4142 1a2a 970C0000 		.4byte	.LASF362
 4143 1a2e 09       		.byte	0x9
 4144 1a2f 94       		.byte	0x94
 4145 1a30 D9000000 		.4byte	0xd9
 4146 1a34 A0       		.byte	0xa0
 4147 1a35 0A       		.uleb128 0xa
 4148 1a36 69120000 		.4byte	.LASF363
 4149 1a3a 09       		.byte	0x9
 4150 1a3b 95       		.byte	0x95
 4151 1a3c C3000000 		.4byte	0xc3
 4152 1a40 A4       		.byte	0xa4
 4153 1a41 0A       		.uleb128 0xa
 4154 1a42 4F120000 		.4byte	.LASF364
 4155 1a46 09       		.byte	0x9
 4156 1a47 96       		.byte	0x96
 4157 1a48 C3000000 		.4byte	0xc3
 4158 1a4c A6       		.byte	0xa6
 4159 1a4d 0A       		.uleb128 0xa
 4160 1a4e 9B050000 		.4byte	.LASF365
 4161 1a52 09       		.byte	0x9
 4162 1a53 97       		.byte	0x97
 4163 1a54 C3000000 		.4byte	0xc3
 4164 1a58 A8       		.byte	0xa8
 4165 1a59 0A       		.uleb128 0xa
 4166 1a5a 5E140000 		.4byte	.LASF366
 4167 1a5e 09       		.byte	0x9
 4168 1a5f 98       		.byte	0x98
 4169 1a60 C3000000 		.4byte	0xc3
 4170 1a64 AA       		.byte	0xaa
 4171 1a65 0A       		.uleb128 0xa
 4172 1a66 1F100000 		.4byte	.LASF367
 4173 1a6a 09       		.byte	0x9
 4174 1a6b 99       		.byte	0x99
 4175 1a6c C3000000 		.4byte	0xc3
 4176 1a70 AC       		.byte	0xac
 4177 1a71 0A       		.uleb128 0xa
 4178 1a72 990B0000 		.4byte	.LASF368
 4179 1a76 09       		.byte	0x9
ARM GAS  C:\Users\stijn\AppData\Local\Temp\ccLepBqo.s 			page 98


 4180 1a77 9A       		.byte	0x9a
 4181 1a78 C3000000 		.4byte	0xc3
 4182 1a7c AE       		.byte	0xae
 4183 1a7d 0A       		.uleb128 0xa
 4184 1a7e 141B0000 		.4byte	.LASF369
 4185 1a82 09       		.byte	0x9
 4186 1a83 9D       		.byte	0x9d
 4187 1a84 C3000000 		.4byte	0xc3
 4188 1a88 B0       		.byte	0xb0
 4189 1a89 0A       		.uleb128 0xa
 4190 1a8a 16090000 		.4byte	.LASF370
 4191 1a8e 09       		.byte	0x9
 4192 1a8f 9E       		.byte	0x9e
 4193 1a90 D9000000 		.4byte	0xd9
 4194 1a94 B4       		.byte	0xb4
 4195 1a95 00       		.byte	0
 4196 1a96 03       		.uleb128 0x3
 4197 1a97 BC0D0000 		.4byte	.LASF371
 4198 1a9b 09       		.byte	0x9
 4199 1a9c 9F       		.byte	0x9f
 4200 1a9d 85160000 		.4byte	0x1685
 4201 1aa1 10       		.uleb128 0x10
 4202 1aa2 8C       		.byte	0x8c
 4203 1aa3 0A       		.byte	0xa
 4204 1aa4 B801     		.2byte	0x1b8
 4205 1aa6 BC1B0000 		.4byte	0x1bbc
 4206 1aaa 11       		.uleb128 0x11
 4207 1aab C6030000 		.4byte	.LASF372
 4208 1aaf 0A       		.byte	0xa
 4209 1ab0 BA01     		.2byte	0x1ba
 4210 1ab2 FB000000 		.4byte	0xfb
 4211 1ab6 00       		.byte	0
 4212 1ab7 11       		.uleb128 0x11
 4213 1ab8 AA040000 		.4byte	.LASF373
 4214 1abc 0A       		.byte	0xa
 4215 1abd BB01     		.2byte	0x1bb
 4216 1abf F6000000 		.4byte	0xf6
 4217 1ac3 04       		.byte	0x4
 4218 1ac4 11       		.uleb128 0x11
 4219 1ac5 90010000 		.4byte	.LASF374
 4220 1ac9 0A       		.byte	0xa
 4221 1aca BC01     		.2byte	0x1bc
 4222 1acc F6000000 		.4byte	0xf6
 4223 1ad0 08       		.byte	0x8
 4224 1ad1 11       		.uleb128 0x11
 4225 1ad2 70030000 		.4byte	.LASF375
 4226 1ad6 0A       		.byte	0xa
 4227 1ad7 BD01     		.2byte	0x1bd
 4228 1ad9 F6000000 		.4byte	0xf6
 4229 1add 0C       		.byte	0xc
 4230 1ade 12       		.uleb128 0x12
 4231 1adf 53435200 		.ascii	"SCR\000"
 4232 1ae3 0A       		.byte	0xa
 4233 1ae4 BE01     		.2byte	0x1be
 4234 1ae6 F6000000 		.4byte	0xf6
 4235 1aea 10       		.byte	0x10
 4236 1aeb 12       		.uleb128 0x12
ARM GAS  C:\Users\stijn\AppData\Local\Temp\ccLepBqo.s 			page 99


 4237 1aec 43435200 		.ascii	"CCR\000"
 4238 1af0 0A       		.byte	0xa
 4239 1af1 BF01     		.2byte	0x1bf
 4240 1af3 F6000000 		.4byte	0xf6
 4241 1af7 14       		.byte	0x14
 4242 1af8 12       		.uleb128 0x12
 4243 1af9 53485000 		.ascii	"SHP\000"
 4244 1afd 0A       		.byte	0xa
 4245 1afe C001     		.2byte	0x1c0
 4246 1b00 CC1B0000 		.4byte	0x1bcc
 4247 1b04 18       		.byte	0x18
 4248 1b05 11       		.uleb128 0x11
 4249 1b06 5E090000 		.4byte	.LASF376
 4250 1b0a 0A       		.byte	0xa
 4251 1b0b C101     		.2byte	0x1c1
 4252 1b0d F6000000 		.4byte	0xf6
 4253 1b11 24       		.byte	0x24
 4254 1b12 11       		.uleb128 0x11
 4255 1b13 F9150000 		.4byte	.LASF377
 4256 1b17 0A       		.byte	0xa
 4257 1b18 C201     		.2byte	0x1c2
 4258 1b1a F6000000 		.4byte	0xf6
 4259 1b1e 28       		.byte	0x28
 4260 1b1f 11       		.uleb128 0x11
 4261 1b20 3C080000 		.4byte	.LASF378
 4262 1b24 0A       		.byte	0xa
 4263 1b25 C301     		.2byte	0x1c3
 4264 1b27 F6000000 		.4byte	0xf6
 4265 1b2b 2C       		.byte	0x2c
 4266 1b2c 11       		.uleb128 0x11
 4267 1b2d 93070000 		.4byte	.LASF379
 4268 1b31 0A       		.byte	0xa
 4269 1b32 C401     		.2byte	0x1c4
 4270 1b34 F6000000 		.4byte	0xf6
 4271 1b38 30       		.byte	0x30
 4272 1b39 11       		.uleb128 0x11
 4273 1b3a C7160000 		.4byte	.LASF380
 4274 1b3e 0A       		.byte	0xa
 4275 1b3f C501     		.2byte	0x1c5
 4276 1b41 F6000000 		.4byte	0xf6
 4277 1b45 34       		.byte	0x34
 4278 1b46 11       		.uleb128 0x11
 4279 1b47 64120000 		.4byte	.LASF381
 4280 1b4b 0A       		.byte	0xa
 4281 1b4c C601     		.2byte	0x1c6
 4282 1b4e F6000000 		.4byte	0xf6
 4283 1b52 38       		.byte	0x38
 4284 1b53 11       		.uleb128 0x11
 4285 1b54 C5150000 		.4byte	.LASF382
 4286 1b58 0A       		.byte	0xa
 4287 1b59 C701     		.2byte	0x1c7
 4288 1b5b F6000000 		.4byte	0xf6
 4289 1b5f 3C       		.byte	0x3c
 4290 1b60 12       		.uleb128 0x12
 4291 1b61 50465200 		.ascii	"PFR\000"
 4292 1b65 0A       		.byte	0xa
 4293 1b66 C801     		.2byte	0x1c8
ARM GAS  C:\Users\stijn\AppData\Local\Temp\ccLepBqo.s 			page 100


 4294 1b68 D61B0000 		.4byte	0x1bd6
 4295 1b6c 40       		.byte	0x40
 4296 1b6d 12       		.uleb128 0x12
 4297 1b6e 44465200 		.ascii	"DFR\000"
 4298 1b72 0A       		.byte	0xa
 4299 1b73 C901     		.2byte	0x1c9
 4300 1b75 FB000000 		.4byte	0xfb
 4301 1b79 48       		.byte	0x48
 4302 1b7a 12       		.uleb128 0x12
 4303 1b7b 41445200 		.ascii	"ADR\000"
 4304 1b7f 0A       		.byte	0xa
 4305 1b80 CA01     		.2byte	0x1ca
 4306 1b82 FB000000 		.4byte	0xfb
 4307 1b86 4C       		.byte	0x4c
 4308 1b87 11       		.uleb128 0x11
 4309 1b88 B5160000 		.4byte	.LASF383
 4310 1b8c 0A       		.byte	0xa
 4311 1b8d CB01     		.2byte	0x1cb
 4312 1b8f E01B0000 		.4byte	0x1be0
 4313 1b93 50       		.byte	0x50
 4314 1b94 11       		.uleb128 0x11
 4315 1b95 5B170000 		.4byte	.LASF384
 4316 1b99 0A       		.byte	0xa
 4317 1b9a CC01     		.2byte	0x1cc
 4318 1b9c EA1B0000 		.4byte	0x1bea
 4319 1ba0 60       		.byte	0x60
 4320 1ba1 11       		.uleb128 0x11
 4321 1ba2 EB050000 		.4byte	.LASF385
 4322 1ba6 0A       		.byte	0xa
 4323 1ba7 CD01     		.2byte	0x1cd
 4324 1ba9 EF1B0000 		.4byte	0x1bef
 4325 1bad 74       		.byte	0x74
 4326 1bae 11       		.uleb128 0x11
 4327 1baf CB1A0000 		.4byte	.LASF386
 4328 1bb3 0A       		.byte	0xa
 4329 1bb4 CE01     		.2byte	0x1ce
 4330 1bb6 F6000000 		.4byte	0xf6
 4331 1bba 88       		.byte	0x88
 4332 1bbb 00       		.byte	0
 4333 1bbc 07       		.uleb128 0x7
 4334 1bbd 9A0D0000 		.4byte	0xd9a
 4335 1bc1 CC1B0000 		.4byte	0x1bcc
 4336 1bc5 08       		.uleb128 0x8
 4337 1bc6 00010000 		.4byte	0x100
 4338 1bca 0B       		.byte	0xb
 4339 1bcb 00       		.byte	0
 4340 1bcc 05       		.uleb128 0x5
 4341 1bcd BC1B0000 		.4byte	0x1bbc
 4342 1bd1 05       		.uleb128 0x5
 4343 1bd2 A5070000 		.4byte	0x7a5
 4344 1bd6 06       		.uleb128 0x6
 4345 1bd7 D11B0000 		.4byte	0x1bd1
 4346 1bdb 05       		.uleb128 0x5
 4347 1bdc 37010000 		.4byte	0x137
 4348 1be0 06       		.uleb128 0x6
 4349 1be1 DB1B0000 		.4byte	0x1bdb
 4350 1be5 05       		.uleb128 0x5
ARM GAS  C:\Users\stijn\AppData\Local\Temp\ccLepBqo.s 			page 101


 4351 1be6 47010000 		.4byte	0x147
 4352 1bea 06       		.uleb128 0x6
 4353 1beb E51B0000 		.4byte	0x1be5
 4354 1bef 07       		.uleb128 0x7
 4355 1bf0 D9000000 		.4byte	0xd9
 4356 1bf4 FF1B0000 		.4byte	0x1bff
 4357 1bf8 08       		.uleb128 0x8
 4358 1bf9 00010000 		.4byte	0x100
 4359 1bfd 04       		.byte	0x4
 4360 1bfe 00       		.byte	0
 4361 1bff 13       		.uleb128 0x13
 4362 1c00 53070000 		.4byte	.LASF387
 4363 1c04 0A       		.byte	0xa
 4364 1c05 CF01     		.2byte	0x1cf
 4365 1c07 A11A0000 		.4byte	0x1aa1
 4366 1c0b 13       		.uleb128 0x13
 4367 1c0c FF180000 		.4byte	.LASF388
 4368 1c10 0B       		.byte	0xb
 4369 1c11 1106     		.2byte	0x611
 4370 1c13 CA0F0000 		.4byte	0xfca
 4371 1c17 13       		.uleb128 0x13
 4372 1c18 F8040000 		.4byte	.LASF389
 4373 1c1c 0B       		.byte	0xb
 4374 1c1d 2806     		.2byte	0x628
 4375 1c1f 13150000 		.4byte	0x1513
 4376 1c23 13       		.uleb128 0x13
 4377 1c24 590A0000 		.4byte	.LASF390
 4378 1c28 0B       		.byte	0xb
 4379 1c29 2906     		.2byte	0x629
 4380 1c2b 7A160000 		.4byte	0x167a
 4381 1c2f 14       		.uleb128 0x14
 4382 1c30 04       		.byte	0x4
 4383 1c31 A6000000 		.4byte	0xa6
 4384 1c35 0C       		.byte	0xc
 4385 1c36 1601     		.2byte	0x116
 4386 1c38 671C0000 		.4byte	0x1c67
 4387 1c3c 15       		.uleb128 0x15
 4388 1c3d 0D0E0000 		.4byte	.LASF391
 4389 1c41 00       		.byte	0
 4390 1c42 16       		.uleb128 0x16
 4391 1c43 1E050000 		.4byte	.LASF392
 4392 1c47 01004600 		.4byte	0x460001
 4393 1c4b 16       		.uleb128 0x16
 4394 1c4c 49150000 		.4byte	.LASF393
 4395 1c50 02004600 		.4byte	0x460002
 4396 1c54 16       		.uleb128 0x16
 4397 1c55 1A040000 		.4byte	.LASF394
 4398 1c59 03004600 		.4byte	0x460003
 4399 1c5d 16       		.uleb128 0x16
 4400 1c5e 39030000 		.4byte	.LASF395
 4401 1c62 FF004600 		.4byte	0x4600ff
 4402 1c66 00       		.byte	0
 4403 1c67 13       		.uleb128 0x13
 4404 1c68 DE170000 		.4byte	.LASF396
 4405 1c6c 0C       		.byte	0xc
 4406 1c6d 1C01     		.2byte	0x11c
 4407 1c6f 2F1C0000 		.4byte	0x1c2f
ARM GAS  C:\Users\stijn\AppData\Local\Temp\ccLepBqo.s 			page 102


 4408 1c73 10       		.uleb128 0x10
 4409 1c74 04       		.byte	0x4
 4410 1c75 0C       		.byte	0xc
 4411 1c76 2701     		.2byte	0x127
 4412 1c78 FD1D0000 		.4byte	0x1dfd
 4413 1c7c 17       		.uleb128 0x17
 4414 1c7d E9010000 		.4byte	.LASF397
 4415 1c81 0C       		.byte	0xc
 4416 1c82 2A01     		.2byte	0x12a
 4417 1c84 D9000000 		.4byte	0xd9
 4418 1c88 04       		.byte	0x4
 4419 1c89 01       		.byte	0x1
 4420 1c8a 1F       		.byte	0x1f
 4421 1c8b 00       		.byte	0
 4422 1c8c 17       		.uleb128 0x17
 4423 1c8d C80F0000 		.4byte	.LASF398
 4424 1c91 0C       		.byte	0xc
 4425 1c92 2B01     		.2byte	0x12b
 4426 1c94 D9000000 		.4byte	0xd9
 4427 1c98 04       		.byte	0x4
 4428 1c99 01       		.byte	0x1
 4429 1c9a 1E       		.byte	0x1e
 4430 1c9b 00       		.byte	0
 4431 1c9c 17       		.uleb128 0x17
 4432 1c9d 32180000 		.4byte	.LASF399
 4433 1ca1 0C       		.byte	0xc
 4434 1ca2 2C01     		.2byte	0x12c
 4435 1ca4 D9000000 		.4byte	0xd9
 4436 1ca8 04       		.byte	0x4
 4437 1ca9 01       		.byte	0x1
 4438 1caa 1D       		.byte	0x1d
 4439 1cab 00       		.byte	0
 4440 1cac 17       		.uleb128 0x17
 4441 1cad FB010000 		.4byte	.LASF400
 4442 1cb1 0C       		.byte	0xc
 4443 1cb2 2D01     		.2byte	0x12d
 4444 1cb4 D9000000 		.4byte	0xd9
 4445 1cb8 04       		.byte	0x4
 4446 1cb9 01       		.byte	0x1
 4447 1cba 1C       		.byte	0x1c
 4448 1cbb 00       		.byte	0
 4449 1cbc 17       		.uleb128 0x17
 4450 1cbd AE150000 		.4byte	.LASF401
 4451 1cc1 0C       		.byte	0xc
 4452 1cc2 2E01     		.2byte	0x12e
 4453 1cc4 D9000000 		.4byte	0xd9
 4454 1cc8 04       		.byte	0x4
 4455 1cc9 01       		.byte	0x1
 4456 1cca 1B       		.byte	0x1b
 4457 1ccb 00       		.byte	0
 4458 1ccc 17       		.uleb128 0x17
 4459 1ccd B3090000 		.4byte	.LASF402
 4460 1cd1 0C       		.byte	0xc
 4461 1cd2 2F01     		.2byte	0x12f
 4462 1cd4 D9000000 		.4byte	0xd9
 4463 1cd8 04       		.byte	0x4
 4464 1cd9 01       		.byte	0x1
ARM GAS  C:\Users\stijn\AppData\Local\Temp\ccLepBqo.s 			page 103


 4465 1cda 1A       		.byte	0x1a
 4466 1cdb 00       		.byte	0
 4467 1cdc 17       		.uleb128 0x17
 4468 1cdd 3C180000 		.4byte	.LASF403
 4469 1ce1 0C       		.byte	0xc
 4470 1ce2 3001     		.2byte	0x130
 4471 1ce4 D9000000 		.4byte	0xd9
 4472 1ce8 04       		.byte	0x4
 4473 1ce9 01       		.byte	0x1
 4474 1cea 19       		.byte	0x19
 4475 1ceb 00       		.byte	0
 4476 1cec 17       		.uleb128 0x17
 4477 1ced AA0F0000 		.4byte	.LASF404
 4478 1cf1 0C       		.byte	0xc
 4479 1cf2 3101     		.2byte	0x131
 4480 1cf4 D9000000 		.4byte	0xd9
 4481 1cf8 04       		.byte	0x4
 4482 1cf9 01       		.byte	0x1
 4483 1cfa 18       		.byte	0x18
 4484 1cfb 00       		.byte	0
 4485 1cfc 17       		.uleb128 0x17
 4486 1cfd FC000000 		.4byte	.LASF405
 4487 1d01 0C       		.byte	0xc
 4488 1d02 3301     		.2byte	0x133
 4489 1d04 D9000000 		.4byte	0xd9
 4490 1d08 04       		.byte	0x4
 4491 1d09 01       		.byte	0x1
 4492 1d0a 17       		.byte	0x17
 4493 1d0b 00       		.byte	0
 4494 1d0c 17       		.uleb128 0x17
 4495 1d0d 45120000 		.4byte	.LASF406
 4496 1d11 0C       		.byte	0xc
 4497 1d12 3401     		.2byte	0x134
 4498 1d14 D9000000 		.4byte	0xd9
 4499 1d18 04       		.byte	0x4
 4500 1d19 01       		.byte	0x1
 4501 1d1a 16       		.byte	0x16
 4502 1d1b 00       		.byte	0
 4503 1d1c 17       		.uleb128 0x17
 4504 1d1d BC190000 		.4byte	.LASF407
 4505 1d21 0C       		.byte	0xc
 4506 1d22 3501     		.2byte	0x135
 4507 1d24 D9000000 		.4byte	0xd9
 4508 1d28 04       		.byte	0x4
 4509 1d29 01       		.byte	0x1
 4510 1d2a 15       		.byte	0x15
 4511 1d2b 00       		.byte	0
 4512 1d2c 17       		.uleb128 0x17
 4513 1d2d 1F080000 		.4byte	.LASF408
 4514 1d31 0C       		.byte	0xc
 4515 1d32 3601     		.2byte	0x136
 4516 1d34 D9000000 		.4byte	0xd9
 4517 1d38 04       		.byte	0x4
 4518 1d39 01       		.byte	0x1
 4519 1d3a 14       		.byte	0x14
 4520 1d3b 00       		.byte	0
 4521 1d3c 17       		.uleb128 0x17
ARM GAS  C:\Users\stijn\AppData\Local\Temp\ccLepBqo.s 			page 104


 4522 1d3d 90190000 		.4byte	.LASF409
 4523 1d41 0C       		.byte	0xc
 4524 1d42 3701     		.2byte	0x137
 4525 1d44 D9000000 		.4byte	0xd9
 4526 1d48 04       		.byte	0x4
 4527 1d49 01       		.byte	0x1
 4528 1d4a 13       		.byte	0x13
 4529 1d4b 00       		.byte	0
 4530 1d4c 17       		.uleb128 0x17
 4531 1d4d 75110000 		.4byte	.LASF410
 4532 1d51 0C       		.byte	0xc
 4533 1d52 3801     		.2byte	0x138
 4534 1d54 D9000000 		.4byte	0xd9
 4535 1d58 04       		.byte	0x4
 4536 1d59 01       		.byte	0x1
 4537 1d5a 12       		.byte	0x12
 4538 1d5b 00       		.byte	0
 4539 1d5c 17       		.uleb128 0x17
 4540 1d5d 46180000 		.4byte	.LASF411
 4541 1d61 0C       		.byte	0xc
 4542 1d62 3901     		.2byte	0x139
 4543 1d64 D9000000 		.4byte	0xd9
 4544 1d68 04       		.byte	0x4
 4545 1d69 01       		.byte	0x1
 4546 1d6a 11       		.byte	0x11
 4547 1d6b 00       		.byte	0
 4548 1d6c 17       		.uleb128 0x17
 4549 1d6d BB090000 		.4byte	.LASF412
 4550 1d71 0C       		.byte	0xc
 4551 1d72 3A01     		.2byte	0x13a
 4552 1d74 D9000000 		.4byte	0xd9
 4553 1d78 04       		.byte	0x4
 4554 1d79 01       		.byte	0x1
 4555 1d7a 10       		.byte	0x10
 4556 1d7b 00       		.byte	0
 4557 1d7c 17       		.uleb128 0x17
 4558 1d7d 57190000 		.4byte	.LASF413
 4559 1d81 0C       		.byte	0xc
 4560 1d82 3C01     		.2byte	0x13c
 4561 1d84 D9000000 		.4byte	0xd9
 4562 1d88 04       		.byte	0x4
 4563 1d89 01       		.byte	0x1
 4564 1d8a 0F       		.byte	0xf
 4565 1d8b 00       		.byte	0
 4566 1d8c 17       		.uleb128 0x17
 4567 1d8d E7180000 		.4byte	.LASF414
 4568 1d91 0C       		.byte	0xc
 4569 1d92 3D01     		.2byte	0x13d
 4570 1d94 D9000000 		.4byte	0xd9
 4571 1d98 04       		.byte	0x4
 4572 1d99 01       		.byte	0x1
 4573 1d9a 0E       		.byte	0xe
 4574 1d9b 00       		.byte	0
 4575 1d9c 17       		.uleb128 0x17
 4576 1d9d 53080000 		.4byte	.LASF415
 4577 1da1 0C       		.byte	0xc
 4578 1da2 3E01     		.2byte	0x13e
ARM GAS  C:\Users\stijn\AppData\Local\Temp\ccLepBqo.s 			page 105


 4579 1da4 D9000000 		.4byte	0xd9
 4580 1da8 04       		.byte	0x4
 4581 1da9 01       		.byte	0x1
 4582 1daa 0D       		.byte	0xd
 4583 1dab 00       		.byte	0
 4584 1dac 17       		.uleb128 0x17
 4585 1dad 71060000 		.4byte	.LASF416
 4586 1db1 0C       		.byte	0xc
 4587 1db2 3F01     		.2byte	0x13f
 4588 1db4 D9000000 		.4byte	0xd9
 4589 1db8 04       		.byte	0x4
 4590 1db9 01       		.byte	0x1
 4591 1dba 0C       		.byte	0xc
 4592 1dbb 00       		.byte	0
 4593 1dbc 17       		.uleb128 0x17
 4594 1dbd 50180000 		.4byte	.LASF417
 4595 1dc1 0C       		.byte	0xc
 4596 1dc2 4001     		.2byte	0x140
 4597 1dc4 D9000000 		.4byte	0xd9
 4598 1dc8 04       		.byte	0x4
 4599 1dc9 04       		.byte	0x4
 4600 1dca 08       		.byte	0x8
 4601 1dcb 00       		.byte	0
 4602 1dcc 17       		.uleb128 0x17
 4603 1dcd 9A080000 		.4byte	.LASF418
 4604 1dd1 0C       		.byte	0xc
 4605 1dd2 4101     		.2byte	0x141
 4606 1dd4 D9000000 		.4byte	0xd9
 4607 1dd8 04       		.byte	0x4
 4608 1dd9 01       		.byte	0x1
 4609 1dda 07       		.byte	0x7
 4610 1ddb 00       		.byte	0
 4611 1ddc 17       		.uleb128 0x17
 4612 1ddd 3E1A0000 		.4byte	.LASF419
 4613 1de1 0C       		.byte	0xc
 4614 1de2 4201     		.2byte	0x142
 4615 1de4 D9000000 		.4byte	0xd9
 4616 1de8 04       		.byte	0x4
 4617 1de9 01       		.byte	0x1
 4618 1dea 06       		.byte	0x6
 4619 1deb 00       		.byte	0
 4620 1dec 17       		.uleb128 0x17
 4621 1ded 5A180000 		.4byte	.LASF420
 4622 1df1 0C       		.byte	0xc
 4623 1df2 4301     		.2byte	0x143
 4624 1df4 D9000000 		.4byte	0xd9
 4625 1df8 04       		.byte	0x4
 4626 1df9 06       		.byte	0x6
 4627 1dfa 00       		.byte	0
 4628 1dfb 00       		.byte	0
 4629 1dfc 00       		.byte	0
 4630 1dfd 13       		.uleb128 0x13
 4631 1dfe 510F0000 		.4byte	.LASF421
 4632 1e02 0C       		.byte	0xc
 4633 1e03 4401     		.2byte	0x144
 4634 1e05 731C0000 		.4byte	0x1c73
 4635 1e09 10       		.uleb128 0x10
ARM GAS  C:\Users\stijn\AppData\Local\Temp\ccLepBqo.s 			page 106


 4636 1e0a 04       		.byte	0x4
 4637 1e0b 0C       		.byte	0xc
 4638 1e0c 4701     		.2byte	0x147
 4639 1e0e 631E0000 		.4byte	0x1e63
 4640 1e12 17       		.uleb128 0x17
 4641 1e13 32180000 		.4byte	.LASF399
 4642 1e17 0C       		.byte	0xc
 4643 1e18 4901     		.2byte	0x149
 4644 1e1a D9000000 		.4byte	0xd9
 4645 1e1e 04       		.byte	0x4
 4646 1e1f 01       		.byte	0x1
 4647 1e20 1F       		.byte	0x1f
 4648 1e21 00       		.byte	0
 4649 1e22 17       		.uleb128 0x17
 4650 1e23 0A1A0000 		.4byte	.LASF422
 4651 1e27 0C       		.byte	0xc
 4652 1e28 4A01     		.2byte	0x14a
 4653 1e2a D9000000 		.4byte	0xd9
 4654 1e2e 04       		.byte	0x4
 4655 1e2f 01       		.byte	0x1
 4656 1e30 1E       		.byte	0x1e
 4657 1e31 00       		.byte	0
 4658 1e32 17       		.uleb128 0x17
 4659 1e33 3C180000 		.4byte	.LASF403
 4660 1e37 0C       		.byte	0xc
 4661 1e38 4B01     		.2byte	0x14b
 4662 1e3a D9000000 		.4byte	0xd9
 4663 1e3e 04       		.byte	0x4
 4664 1e3f 1C       		.byte	0x1c
 4665 1e40 02       		.byte	0x2
 4666 1e41 00       		.byte	0
 4667 1e42 17       		.uleb128 0x17
 4668 1e43 650C0000 		.4byte	.LASF423
 4669 1e47 0C       		.byte	0xc
 4670 1e48 4C01     		.2byte	0x14c
 4671 1e4a D9000000 		.4byte	0xd9
 4672 1e4e 04       		.byte	0x4
 4673 1e4f 01       		.byte	0x1
 4674 1e50 01       		.byte	0x1
 4675 1e51 00       		.byte	0
 4676 1e52 17       		.uleb128 0x17
 4677 1e53 CD060000 		.4byte	.LASF424
 4678 1e57 0C       		.byte	0xc
 4679 1e58 4D01     		.2byte	0x14d
 4680 1e5a D9000000 		.4byte	0xd9
 4681 1e5e 04       		.byte	0x4
 4682 1e5f 01       		.byte	0x1
 4683 1e60 00       		.byte	0
 4684 1e61 00       		.byte	0
 4685 1e62 00       		.byte	0
 4686 1e63 13       		.uleb128 0x13
 4687 1e64 321B0000 		.4byte	.LASF425
 4688 1e68 0C       		.byte	0xc
 4689 1e69 4E01     		.2byte	0x14e
 4690 1e6b 091E0000 		.4byte	0x1e09
 4691 1e6f 10       		.uleb128 0x10
 4692 1e70 04       		.byte	0x4
ARM GAS  C:\Users\stijn\AppData\Local\Temp\ccLepBqo.s 			page 107


 4693 1e71 0C       		.byte	0xc
 4694 1e72 5101     		.2byte	0x151
 4695 1e74 991F0000 		.4byte	0x1f99
 4696 1e78 17       		.uleb128 0x17
 4697 1e79 24190000 		.4byte	.LASF426
 4698 1e7d 0C       		.byte	0xc
 4699 1e7e 5301     		.2byte	0x153
 4700 1e80 D9000000 		.4byte	0xd9
 4701 1e84 04       		.byte	0x4
 4702 1e85 01       		.byte	0x1
 4703 1e86 1F       		.byte	0x1f
 4704 1e87 00       		.byte	0
 4705 1e88 17       		.uleb128 0x17
 4706 1e89 C1060000 		.4byte	.LASF427
 4707 1e8d 0C       		.byte	0xc
 4708 1e8e 5401     		.2byte	0x154
 4709 1e90 D9000000 		.4byte	0xd9
 4710 1e94 04       		.byte	0x4
 4711 1e95 01       		.byte	0x1
 4712 1e96 1E       		.byte	0x1e
 4713 1e97 00       		.byte	0
 4714 1e98 17       		.uleb128 0x17
 4715 1e99 32180000 		.4byte	.LASF399
 4716 1e9d 0C       		.byte	0xc
 4717 1e9e 5501     		.2byte	0x155
 4718 1ea0 D9000000 		.4byte	0xd9
 4719 1ea4 04       		.byte	0x4
 4720 1ea5 01       		.byte	0x1
 4721 1ea6 1D       		.byte	0x1d
 4722 1ea7 00       		.byte	0
 4723 1ea8 17       		.uleb128 0x17
 4724 1ea9 F90D0000 		.4byte	.LASF428
 4725 1ead 0C       		.byte	0xc
 4726 1eae 5601     		.2byte	0x156
 4727 1eb0 D9000000 		.4byte	0xd9
 4728 1eb4 04       		.byte	0x4
 4729 1eb5 01       		.byte	0x1
 4730 1eb6 1C       		.byte	0x1c
 4731 1eb7 00       		.byte	0
 4732 1eb8 17       		.uleb128 0x17
 4733 1eb9 3C180000 		.4byte	.LASF403
 4734 1ebd 0C       		.byte	0xc
 4735 1ebe 5701     		.2byte	0x157
 4736 1ec0 D9000000 		.4byte	0xd9
 4737 1ec4 04       		.byte	0x4
 4738 1ec5 03       		.byte	0x3
 4739 1ec6 19       		.byte	0x19
 4740 1ec7 00       		.byte	0
 4741 1ec8 17       		.uleb128 0x17
 4742 1ec9 00000000 		.4byte	.LASF429
 4743 1ecd 0C       		.byte	0xc
 4744 1ece 5801     		.2byte	0x158
 4745 1ed0 D9000000 		.4byte	0xd9
 4746 1ed4 04       		.byte	0x4
 4747 1ed5 01       		.byte	0x1
 4748 1ed6 18       		.byte	0x18
 4749 1ed7 00       		.byte	0
ARM GAS  C:\Users\stijn\AppData\Local\Temp\ccLepBqo.s 			page 108


 4750 1ed8 17       		.uleb128 0x17
 4751 1ed9 840D0000 		.4byte	.LASF430
 4752 1edd 0C       		.byte	0xc
 4753 1ede 5901     		.2byte	0x159
 4754 1ee0 D9000000 		.4byte	0xd9
 4755 1ee4 04       		.byte	0x4
 4756 1ee5 01       		.byte	0x1
 4757 1ee6 17       		.byte	0x17
 4758 1ee7 00       		.byte	0
 4759 1ee8 17       		.uleb128 0x17
 4760 1ee9 46180000 		.4byte	.LASF411
 4761 1eed 0C       		.byte	0xc
 4762 1eee 5A01     		.2byte	0x15a
 4763 1ef0 D9000000 		.4byte	0xd9
 4764 1ef4 04       		.byte	0x4
 4765 1ef5 01       		.byte	0x1
 4766 1ef6 16       		.byte	0x16
 4767 1ef7 00       		.byte	0
 4768 1ef8 17       		.uleb128 0x17
 4769 1ef9 571A0000 		.4byte	.LASF431
 4770 1efd 0C       		.byte	0xc
 4771 1efe 5B01     		.2byte	0x15b
 4772 1f00 D9000000 		.4byte	0xd9
 4773 1f04 04       		.byte	0x4
 4774 1f05 01       		.byte	0x1
 4775 1f06 15       		.byte	0x15
 4776 1f07 00       		.byte	0
 4777 1f08 17       		.uleb128 0x17
 4778 1f09 EC120000 		.4byte	.LASF432
 4779 1f0d 0C       		.byte	0xc
 4780 1f0e 5C01     		.2byte	0x15c
 4781 1f10 D9000000 		.4byte	0xd9
 4782 1f14 04       		.byte	0x4
 4783 1f15 01       		.byte	0x1
 4784 1f16 14       		.byte	0x14
 4785 1f17 00       		.byte	0
 4786 1f18 17       		.uleb128 0x17
 4787 1f19 6F0B0000 		.4byte	.LASF433
 4788 1f1d 0C       		.byte	0xc
 4789 1f1e 5D01     		.2byte	0x15d
 4790 1f20 D9000000 		.4byte	0xd9
 4791 1f24 04       		.byte	0x4
 4792 1f25 01       		.byte	0x1
 4793 1f26 13       		.byte	0x13
 4794 1f27 00       		.byte	0
 4795 1f28 17       		.uleb128 0x17
 4796 1f29 1B0A0000 		.4byte	.LASF434
 4797 1f2d 0C       		.byte	0xc
 4798 1f2e 5E01     		.2byte	0x15e
 4799 1f30 D9000000 		.4byte	0xd9
 4800 1f34 04       		.byte	0x4
 4801 1f35 01       		.byte	0x1
 4802 1f36 12       		.byte	0x12
 4803 1f37 00       		.byte	0
 4804 1f38 17       		.uleb128 0x17
 4805 1f39 7E0B0000 		.4byte	.LASF435
 4806 1f3d 0C       		.byte	0xc
ARM GAS  C:\Users\stijn\AppData\Local\Temp\ccLepBqo.s 			page 109


 4807 1f3e 5F01     		.2byte	0x15f
 4808 1f40 D9000000 		.4byte	0xd9
 4809 1f44 04       		.byte	0x4
 4810 1f45 01       		.byte	0x1
 4811 1f46 11       		.byte	0x11
 4812 1f47 00       		.byte	0
 4813 1f48 17       		.uleb128 0x17
 4814 1f49 35170000 		.4byte	.LASF436
 4815 1f4d 0C       		.byte	0xc
 4816 1f4e 6001     		.2byte	0x160
 4817 1f50 D9000000 		.4byte	0xd9
 4818 1f54 04       		.byte	0x4
 4819 1f55 01       		.byte	0x1
 4820 1f56 10       		.byte	0x10
 4821 1f57 00       		.byte	0
 4822 1f58 17       		.uleb128 0x17
 4823 1f59 F0000000 		.4byte	.LASF437
 4824 1f5d 0C       		.byte	0xc
 4825 1f5e 6101     		.2byte	0x161
 4826 1f60 D9000000 		.4byte	0xd9
 4827 1f64 04       		.byte	0x4
 4828 1f65 01       		.byte	0x1
 4829 1f66 0F       		.byte	0xf
 4830 1f67 00       		.byte	0
 4831 1f68 17       		.uleb128 0x17
 4832 1f69 180B0000 		.4byte	.LASF438
 4833 1f6d 0C       		.byte	0xc
 4834 1f6e 6201     		.2byte	0x162
 4835 1f70 D9000000 		.4byte	0xd9
 4836 1f74 04       		.byte	0x4
 4837 1f75 01       		.byte	0x1
 4838 1f76 0E       		.byte	0xe
 4839 1f77 00       		.byte	0
 4840 1f78 17       		.uleb128 0x17
 4841 1f79 39120000 		.4byte	.LASF439
 4842 1f7d 0C       		.byte	0xc
 4843 1f7e 6301     		.2byte	0x163
 4844 1f80 D9000000 		.4byte	0xd9
 4845 1f84 04       		.byte	0x4
 4846 1f85 01       		.byte	0x1
 4847 1f86 0D       		.byte	0xd
 4848 1f87 00       		.byte	0
 4849 1f88 17       		.uleb128 0x17
 4850 1f89 50180000 		.4byte	.LASF417
 4851 1f8d 0C       		.byte	0xc
 4852 1f8e 6401     		.2byte	0x164
 4853 1f90 D9000000 		.4byte	0xd9
 4854 1f94 04       		.byte	0x4
 4855 1f95 0D       		.byte	0xd
 4856 1f96 00       		.byte	0
 4857 1f97 00       		.byte	0
 4858 1f98 00       		.byte	0
 4859 1f99 13       		.uleb128 0x13
 4860 1f9a CE100000 		.4byte	.LASF440
 4861 1f9e 0C       		.byte	0xc
 4862 1f9f 6501     		.2byte	0x165
 4863 1fa1 6F1E0000 		.4byte	0x1e6f
ARM GAS  C:\Users\stijn\AppData\Local\Temp\ccLepBqo.s 			page 110


 4864 1fa5 18       		.uleb128 0x18
 4865 1fa6 04       		.byte	0x4
 4866 1fa7 0C       		.byte	0xc
 4867 1fa8 7401     		.2byte	0x174
 4868 1faa C71F0000 		.4byte	0x1fc7
 4869 1fae 19       		.uleb128 0x19
 4870 1faf 500C0000 		.4byte	.LASF441
 4871 1fb3 0C       		.byte	0xc
 4872 1fb4 7601     		.2byte	0x176
 4873 1fb6 D9000000 		.4byte	0xd9
 4874 1fba 19       		.uleb128 0x19
 4875 1fbb CB130000 		.4byte	.LASF442
 4876 1fbf 0C       		.byte	0xc
 4877 1fc0 7701     		.2byte	0x177
 4878 1fc2 FD1D0000 		.4byte	0x1dfd
 4879 1fc6 00       		.byte	0
 4880 1fc7 18       		.uleb128 0x18
 4881 1fc8 04       		.byte	0x4
 4882 1fc9 0C       		.byte	0xc
 4883 1fca 7901     		.2byte	0x179
 4884 1fcc E91F0000 		.4byte	0x1fe9
 4885 1fd0 19       		.uleb128 0x19
 4886 1fd1 1C190000 		.4byte	.LASF443
 4887 1fd5 0C       		.byte	0xc
 4888 1fd6 7B01     		.2byte	0x17b
 4889 1fd8 D9000000 		.4byte	0xd9
 4890 1fdc 19       		.uleb128 0x19
 4891 1fdd 87190000 		.4byte	.LASF444
 4892 1fe1 0C       		.byte	0xc
 4893 1fe2 7C01     		.2byte	0x17c
 4894 1fe4 631E0000 		.4byte	0x1e63
 4895 1fe8 00       		.byte	0
 4896 1fe9 18       		.uleb128 0x18
 4897 1fea 04       		.byte	0x4
 4898 1feb 0C       		.byte	0xc
 4899 1fec 7E01     		.2byte	0x17e
 4900 1fee 0B200000 		.4byte	0x200b
 4901 1ff2 19       		.uleb128 0x19
 4902 1ff3 67030000 		.4byte	.LASF445
 4903 1ff7 0C       		.byte	0xc
 4904 1ff8 8001     		.2byte	0x180
 4905 1ffa D9000000 		.4byte	0xd9
 4906 1ffe 19       		.uleb128 0x19
 4907 1fff 40040000 		.4byte	.LASF446
 4908 2003 0C       		.byte	0xc
 4909 2004 8101     		.2byte	0x181
 4910 2006 991F0000 		.4byte	0x1f99
 4911 200a 00       		.byte	0
 4912 200b 10       		.uleb128 0x10
 4913 200c 78       		.byte	0x78
 4914 200d 0C       		.byte	0xc
 4915 200e 6901     		.2byte	0x169
 4916 2010 8B210000 		.4byte	0x218b
 4917 2014 12       		.uleb128 0x12
 4918 2015 723000   		.ascii	"r0\000"
 4919 2018 0C       		.byte	0xc
 4920 2019 6B01     		.2byte	0x16b
ARM GAS  C:\Users\stijn\AppData\Local\Temp\ccLepBqo.s 			page 111


 4921 201b D9000000 		.4byte	0xd9
 4922 201f 00       		.byte	0
 4923 2020 12       		.uleb128 0x12
 4924 2021 723100   		.ascii	"r1\000"
 4925 2024 0C       		.byte	0xc
 4926 2025 6C01     		.2byte	0x16c
 4927 2027 D9000000 		.4byte	0xd9
 4928 202b 04       		.byte	0x4
 4929 202c 12       		.uleb128 0x12
 4930 202d 723200   		.ascii	"r2\000"
 4931 2030 0C       		.byte	0xc
 4932 2031 6D01     		.2byte	0x16d
 4933 2033 D9000000 		.4byte	0xd9
 4934 2037 08       		.byte	0x8
 4935 2038 12       		.uleb128 0x12
 4936 2039 723300   		.ascii	"r3\000"
 4937 203c 0C       		.byte	0xc
 4938 203d 6E01     		.2byte	0x16e
 4939 203f D9000000 		.4byte	0xd9
 4940 2043 0C       		.byte	0xc
 4941 2044 12       		.uleb128 0x12
 4942 2045 72313200 		.ascii	"r12\000"
 4943 2049 0C       		.byte	0xc
 4944 204a 6F01     		.2byte	0x16f
 4945 204c D9000000 		.4byte	0xd9
 4946 2050 10       		.byte	0x10
 4947 2051 12       		.uleb128 0x12
 4948 2052 6C7200   		.ascii	"lr\000"
 4949 2055 0C       		.byte	0xc
 4950 2056 7001     		.2byte	0x170
 4951 2058 D9000000 		.4byte	0xd9
 4952 205c 14       		.byte	0x14
 4953 205d 12       		.uleb128 0x12
 4954 205e 706300   		.ascii	"pc\000"
 4955 2061 0C       		.byte	0xc
 4956 2062 7101     		.2byte	0x171
 4957 2064 D9000000 		.4byte	0xd9
 4958 2068 18       		.byte	0x18
 4959 2069 12       		.uleb128 0x12
 4960 206a 70737200 		.ascii	"psr\000"
 4961 206e 0C       		.byte	0xc
 4962 206f 7201     		.2byte	0x172
 4963 2071 D9000000 		.4byte	0xd9
 4964 2075 1C       		.byte	0x1c
 4965 2076 11       		.uleb128 0x11
 4966 2077 4B0C0000 		.4byte	.LASF447
 4967 207b 0C       		.byte	0xc
 4968 207c 7801     		.2byte	0x178
 4969 207e A51F0000 		.4byte	0x1fa5
 4970 2082 20       		.byte	0x20
 4971 2083 11       		.uleb128 0x11
 4972 2084 F91B0000 		.4byte	.LASF448
 4973 2088 0C       		.byte	0xc
 4974 2089 7D01     		.2byte	0x17d
 4975 208b C71F0000 		.4byte	0x1fc7
 4976 208f 24       		.byte	0x24
 4977 2090 11       		.uleb128 0x11
ARM GAS  C:\Users\stijn\AppData\Local\Temp\ccLepBqo.s 			page 112


 4978 2091 920A0000 		.4byte	.LASF449
 4979 2095 0C       		.byte	0xc
 4980 2096 8201     		.2byte	0x182
 4981 2098 E91F0000 		.4byte	0x1fe9
 4982 209c 28       		.byte	0x28
 4983 209d 11       		.uleb128 0x11
 4984 209e DC0E0000 		.4byte	.LASF450
 4985 20a2 0C       		.byte	0xc
 4986 20a3 8301     		.2byte	0x183
 4987 20a5 D9000000 		.4byte	0xd9
 4988 20a9 2C       		.byte	0x2c
 4989 20aa 11       		.uleb128 0x11
 4990 20ab CE090000 		.4byte	.LASF451
 4991 20af 0C       		.byte	0xc
 4992 20b0 8401     		.2byte	0x184
 4993 20b2 D9000000 		.4byte	0xd9
 4994 20b6 30       		.byte	0x30
 4995 20b7 12       		.uleb128 0x12
 4996 20b8 733000   		.ascii	"s0\000"
 4997 20bb 0C       		.byte	0xc
 4998 20bc 8701     		.2byte	0x187
 4999 20be D9000000 		.4byte	0xd9
 5000 20c2 34       		.byte	0x34
 5001 20c3 12       		.uleb128 0x12
 5002 20c4 733100   		.ascii	"s1\000"
 5003 20c7 0C       		.byte	0xc
 5004 20c8 8801     		.2byte	0x188
 5005 20ca D9000000 		.4byte	0xd9
 5006 20ce 38       		.byte	0x38
 5007 20cf 12       		.uleb128 0x12
 5008 20d0 733200   		.ascii	"s2\000"
 5009 20d3 0C       		.byte	0xc
 5010 20d4 8901     		.2byte	0x189
 5011 20d6 D9000000 		.4byte	0xd9
 5012 20da 3C       		.byte	0x3c
 5013 20db 12       		.uleb128 0x12
 5014 20dc 733300   		.ascii	"s3\000"
 5015 20df 0C       		.byte	0xc
 5016 20e0 8A01     		.2byte	0x18a
 5017 20e2 D9000000 		.4byte	0xd9
 5018 20e6 40       		.byte	0x40
 5019 20e7 12       		.uleb128 0x12
 5020 20e8 733400   		.ascii	"s4\000"
 5021 20eb 0C       		.byte	0xc
 5022 20ec 8B01     		.2byte	0x18b
 5023 20ee D9000000 		.4byte	0xd9
 5024 20f2 44       		.byte	0x44
 5025 20f3 12       		.uleb128 0x12
 5026 20f4 733500   		.ascii	"s5\000"
 5027 20f7 0C       		.byte	0xc
 5028 20f8 8C01     		.2byte	0x18c
 5029 20fa D9000000 		.4byte	0xd9
 5030 20fe 48       		.byte	0x48
 5031 20ff 12       		.uleb128 0x12
 5032 2100 733600   		.ascii	"s6\000"
 5033 2103 0C       		.byte	0xc
 5034 2104 8D01     		.2byte	0x18d
ARM GAS  C:\Users\stijn\AppData\Local\Temp\ccLepBqo.s 			page 113


 5035 2106 D9000000 		.4byte	0xd9
 5036 210a 4C       		.byte	0x4c
 5037 210b 12       		.uleb128 0x12
 5038 210c 733700   		.ascii	"s7\000"
 5039 210f 0C       		.byte	0xc
 5040 2110 8E01     		.2byte	0x18e
 5041 2112 D9000000 		.4byte	0xd9
 5042 2116 50       		.byte	0x50
 5043 2117 12       		.uleb128 0x12
 5044 2118 733800   		.ascii	"s8\000"
 5045 211b 0C       		.byte	0xc
 5046 211c 8F01     		.2byte	0x18f
 5047 211e D9000000 		.4byte	0xd9
 5048 2122 54       		.byte	0x54
 5049 2123 12       		.uleb128 0x12
 5050 2124 733900   		.ascii	"s9\000"
 5051 2127 0C       		.byte	0xc
 5052 2128 9001     		.2byte	0x190
 5053 212a D9000000 		.4byte	0xd9
 5054 212e 58       		.byte	0x58
 5055 212f 12       		.uleb128 0x12
 5056 2130 73313000 		.ascii	"s10\000"
 5057 2134 0C       		.byte	0xc
 5058 2135 9101     		.2byte	0x191
 5059 2137 D9000000 		.4byte	0xd9
 5060 213b 5C       		.byte	0x5c
 5061 213c 12       		.uleb128 0x12
 5062 213d 73313100 		.ascii	"s11\000"
 5063 2141 0C       		.byte	0xc
 5064 2142 9201     		.2byte	0x192
 5065 2144 D9000000 		.4byte	0xd9
 5066 2148 60       		.byte	0x60
 5067 2149 12       		.uleb128 0x12
 5068 214a 73313200 		.ascii	"s12\000"
 5069 214e 0C       		.byte	0xc
 5070 214f 9301     		.2byte	0x193
 5071 2151 D9000000 		.4byte	0xd9
 5072 2155 64       		.byte	0x64
 5073 2156 12       		.uleb128 0x12
 5074 2157 73313300 		.ascii	"s13\000"
 5075 215b 0C       		.byte	0xc
 5076 215c 9401     		.2byte	0x194
 5077 215e D9000000 		.4byte	0xd9
 5078 2162 68       		.byte	0x68
 5079 2163 12       		.uleb128 0x12
 5080 2164 73313400 		.ascii	"s14\000"
 5081 2168 0C       		.byte	0xc
 5082 2169 9501     		.2byte	0x195
 5083 216b D9000000 		.4byte	0xd9
 5084 216f 6C       		.byte	0x6c
 5085 2170 12       		.uleb128 0x12
 5086 2171 73313500 		.ascii	"s15\000"
 5087 2175 0C       		.byte	0xc
 5088 2176 9601     		.2byte	0x196
 5089 2178 D9000000 		.4byte	0xd9
 5090 217c 70       		.byte	0x70
 5091 217d 11       		.uleb128 0x11
ARM GAS  C:\Users\stijn\AppData\Local\Temp\ccLepBqo.s 			page 114


 5092 217e F4160000 		.4byte	.LASF452
 5093 2182 0C       		.byte	0xc
 5094 2183 9701     		.2byte	0x197
 5095 2185 D9000000 		.4byte	0xd9
 5096 2189 74       		.byte	0x74
 5097 218a 00       		.byte	0
 5098 218b 13       		.uleb128 0x13
 5099 218c 4F0B0000 		.4byte	.LASF453
 5100 2190 0C       		.byte	0xc
 5101 2191 9A01     		.2byte	0x19a
 5102 2193 0B200000 		.4byte	0x200b
 5103 2197 13       		.uleb128 0x13
 5104 2198 A8120000 		.4byte	.LASF454
 5105 219c 0C       		.byte	0xc
 5106 219d F601     		.2byte	0x1f6
 5107 219f A3210000 		.4byte	0x21a3
 5108 21a3 02       		.uleb128 0x2
 5109 21a4 01       		.byte	0x1
 5110 21a5 08       		.byte	0x8
 5111 21a6 42070000 		.4byte	.LASF455
 5112 21aa 02       		.uleb128 0x2
 5113 21ab 04       		.byte	0x4
 5114 21ac 04       		.byte	0x4
 5115 21ad 180F0000 		.4byte	.LASF456
 5116 21b1 02       		.uleb128 0x2
 5117 21b2 08       		.byte	0x8
 5118 21b3 04       		.byte	0x4
 5119 21b4 1F0E0000 		.4byte	.LASF457
 5120 21b8 1A       		.uleb128 0x1a
 5121 21b9 FB090000 		.4byte	.LASF494
 5122 21bd 02       		.byte	0x2
 5123 21be 0103     		.2byte	0x301
 5124 21c0 D9000000 		.4byte	0xd9
 5125 21c4 03       		.byte	0x3
 5126 21c5 D6210000 		.4byte	0x21d6
 5127 21c9 1B       		.uleb128 0x1b
 5128 21ca 60030000 		.4byte	.LASF495
 5129 21ce 02       		.byte	0x2
 5130 21cf 0903     		.2byte	0x309
 5131 21d1 D9000000 		.4byte	0xd9
 5132 21d5 00       		.byte	0
 5133 21d6 1C       		.uleb128 0x1c
 5134 21d7 471C0000 		.4byte	.LASF458
 5135 21db 01       		.byte	0x1
 5136 21dc 41       		.byte	0x41
 5137 21dd 00000000 		.4byte	.LFB151
 5138 21e1 44000000 		.4byte	.LFE151-.LFB151
 5139 21e5 01       		.uleb128 0x1
 5140 21e6 9C       		.byte	0x9c
 5141 21e7 FA210000 		.4byte	0x21fa
 5142 21eb 1D       		.uleb128 0x1d
 5143 21ec 4A190000 		.4byte	.LASF460
 5144 21f0 01       		.byte	0x1
 5145 21f1 41       		.byte	0x41
 5146 21f2 D9000000 		.4byte	0xd9
 5147 21f6 02       		.uleb128 0x2
 5148 21f7 91       		.byte	0x91
ARM GAS  C:\Users\stijn\AppData\Local\Temp\ccLepBqo.s 			page 115


 5149 21f8 74       		.sleb128 -12
 5150 21f9 00       		.byte	0
 5151 21fa 1C       		.uleb128 0x1c
 5152 21fb 47160000 		.4byte	.LASF459
 5153 21ff 01       		.byte	0x1
 5154 2200 60       		.byte	0x60
 5155 2201 00000000 		.4byte	.LFB152
 5156 2205 28000000 		.4byte	.LFE152-.LFB152
 5157 2209 01       		.uleb128 0x1
 5158 220a 9C       		.byte	0x9c
 5159 220b 1E220000 		.4byte	0x221e
 5160 220f 1D       		.uleb128 0x1d
 5161 2210 14070000 		.4byte	.LASF461
 5162 2214 01       		.byte	0x1
 5163 2215 60       		.byte	0x60
 5164 2216 C3000000 		.4byte	0xc3
 5165 221a 02       		.uleb128 0x2
 5166 221b 91       		.byte	0x91
 5167 221c 76       		.sleb128 -10
 5168 221d 00       		.byte	0
 5169 221e 1E       		.uleb128 0x1e
 5170 221f 30190000 		.4byte	.LASF466
 5171 2223 01       		.byte	0x1
 5172 2224 7F       		.byte	0x7f
 5173 2225 00000000 		.4byte	.LFB153
 5174 2229 0C000000 		.4byte	.LFE153-.LFB153
 5175 222d 01       		.uleb128 0x1
 5176 222e 9C       		.byte	0x9c
 5177 222f 42220000 		.4byte	0x2242
 5178 2233 1D       		.uleb128 0x1d
 5179 2234 FA130000 		.4byte	.LASF462
 5180 2238 01       		.byte	0x1
 5181 2239 7F       		.byte	0x7f
 5182 223a D9000000 		.4byte	0xd9
 5183 223e 02       		.uleb128 0x2
 5184 223f 91       		.byte	0x91
 5185 2240 74       		.sleb128 -12
 5186 2241 00       		.byte	0
 5187 2242 1C       		.uleb128 0x1c
 5188 2243 7C070000 		.4byte	.LASF463
 5189 2247 01       		.byte	0x1
 5190 2248 A6       		.byte	0xa6
 5191 2249 00000000 		.4byte	.LFB154
 5192 224d 28000000 		.4byte	.LFE154-.LFB154
 5193 2251 01       		.uleb128 0x1
 5194 2252 9C       		.byte	0x9c
 5195 2253 74220000 		.4byte	0x2274
 5196 2257 1D       		.uleb128 0x1d
 5197 2258 11090000 		.4byte	.LASF464
 5198 225c 01       		.byte	0x1
 5199 225d A6       		.byte	0xa6
 5200 225e 74220000 		.4byte	0x2274
 5201 2262 02       		.uleb128 0x2
 5202 2263 91       		.byte	0x91
 5203 2264 74       		.sleb128 -12
 5204 2265 1D       		.uleb128 0x1d
 5205 2266 BA0B0000 		.4byte	.LASF465
ARM GAS  C:\Users\stijn\AppData\Local\Temp\ccLepBqo.s 			page 116


 5206 226a 01       		.byte	0x1
 5207 226b A6       		.byte	0xa6
 5208 226c D9000000 		.4byte	0xd9
 5209 2270 02       		.uleb128 0x2
 5210 2271 91       		.byte	0x91
 5211 2272 70       		.sleb128 -16
 5212 2273 00       		.byte	0
 5213 2274 1F       		.uleb128 0x1f
 5214 2275 04       		.byte	0x4
 5215 2276 7A220000 		.4byte	0x227a
 5216 227a 06       		.uleb128 0x6
 5217 227b 97210000 		.4byte	0x2197
 5218 227f 20       		.uleb128 0x20
 5219 2280 F9020000 		.4byte	.LASF468
 5220 2284 01       		.byte	0x1
 5221 2285 BB       		.byte	0xbb
 5222 2286 00000000 		.4byte	.LFB155
 5223 228a 20000000 		.4byte	.LFE155-.LFB155
 5224 228e 01       		.uleb128 0x1
 5225 228f 9C       		.byte	0x9c
 5226 2290 21       		.uleb128 0x21
 5227 2291 02050000 		.4byte	.LASF496
 5228 2295 01       		.byte	0x1
 5229 2296 D4       		.byte	0xd4
 5230 2297 671C0000 		.4byte	0x1c67
 5231 229b 00000000 		.4byte	.LFB156
 5232 229f 2C000000 		.4byte	.LFE156-.LFB156
 5233 22a3 01       		.uleb128 0x1
 5234 22a4 9C       		.byte	0x9c
 5235 22a5 22       		.uleb128 0x22
 5236 22a6 1F150000 		.4byte	.LASF467
 5237 22aa 01       		.byte	0x1
 5238 22ab FC       		.byte	0xfc
 5239 22ac D9000000 		.4byte	0xd9
 5240 22b0 00000000 		.4byte	.LFB157
 5241 22b4 34000000 		.4byte	.LFE157-.LFB157
 5242 22b8 01       		.uleb128 0x1
 5243 22b9 9C       		.byte	0x9c
 5244 22ba CD220000 		.4byte	0x22cd
 5245 22be 23       		.uleb128 0x23
 5246 22bf 73000000 		.4byte	.LASF471
 5247 22c3 01       		.byte	0x1
 5248 22c4 FE       		.byte	0xfe
 5249 22c5 D9000000 		.4byte	0xd9
 5250 22c9 02       		.uleb128 0x2
 5251 22ca 91       		.byte	0x91
 5252 22cb 74       		.sleb128 -12
 5253 22cc 00       		.byte	0
 5254 22cd 24       		.uleb128 0x24
 5255 22ce 1A060000 		.4byte	.LASF469
 5256 22d2 01       		.byte	0x1
 5257 22d3 1101     		.2byte	0x111
 5258 22d5 00000000 		.4byte	.LFB158
 5259 22d9 3C000000 		.4byte	.LFE158-.LFB158
 5260 22dd 01       		.uleb128 0x1
 5261 22de 9C       		.byte	0x9c
 5262 22df 25       		.uleb128 0x25
ARM GAS  C:\Users\stijn\AppData\Local\Temp\ccLepBqo.s 			page 117


 5263 22e0 E2040000 		.4byte	.LASF470
 5264 22e4 01       		.byte	0x1
 5265 22e5 5C01     		.2byte	0x15c
 5266 22e7 E4000000 		.4byte	0xe4
 5267 22eb 00000000 		.4byte	.LFB159
 5268 22ef AC000000 		.4byte	.LFE159-.LFB159
 5269 22f3 01       		.uleb128 0x1
 5270 22f4 9C       		.byte	0x9c
 5271 22f5 18230000 		.4byte	0x2318
 5272 22f9 26       		.uleb128 0x26
 5273 22fa A8090000 		.4byte	.LASF472
 5274 22fe 01       		.byte	0x1
 5275 22ff 5E01     		.2byte	0x15e
 5276 2301 D9000000 		.4byte	0xd9
 5277 2305 02       		.uleb128 0x2
 5278 2306 91       		.byte	0x91
 5279 2307 74       		.sleb128 -12
 5280 2308 26       		.uleb128 0x26
 5281 2309 F80C0000 		.4byte	.LASF473
 5282 230d 01       		.byte	0x1
 5283 230e 5F01     		.2byte	0x15f
 5284 2310 D9000000 		.4byte	0xd9
 5285 2314 02       		.uleb128 0x2
 5286 2315 91       		.byte	0x91
 5287 2316 70       		.sleb128 -16
 5288 2317 00       		.byte	0
 5289 2318 27       		.uleb128 0x27
 5290 2319 AD170000 		.4byte	.LASF474
 5291 231d 01       		.byte	0x1
 5292 231e 8A01     		.2byte	0x18a
 5293 2320 00000000 		.4byte	.LFB160
 5294 2324 1C010000 		.4byte	.LFE160-.LFB160
 5295 2328 01       		.uleb128 0x1
 5296 2329 9C       		.byte	0x9c
 5297 232a 61230000 		.4byte	0x2361
 5298 232e 28       		.uleb128 0x28
 5299 232f D4130000 		.4byte	.LASF475
 5300 2333 01       		.byte	0x1
 5301 2334 8A01     		.2byte	0x18a
 5302 2336 61230000 		.4byte	0x2361
 5303 233a 02       		.uleb128 0x2
 5304 233b 91       		.byte	0x91
 5305 233c 6C       		.sleb128 -20
 5306 233d 29       		.uleb128 0x29
 5307 233e B8210000 		.4byte	0x21b8
 5308 2342 70000000 		.4byte	.LBB4
 5309 2346 08000000 		.4byte	.LBE4-.LBB4
 5310 234a 01       		.byte	0x1
 5311 234b A501     		.2byte	0x1a5
 5312 234d 2A       		.uleb128 0x2a
 5313 234e 70000000 		.4byte	.LBB5
 5314 2352 08000000 		.4byte	.LBE5-.LBB5
 5315 2356 2B       		.uleb128 0x2b
 5316 2357 C9210000 		.4byte	0x21c9
 5317 235b 02       		.uleb128 0x2
 5318 235c 91       		.byte	0x91
 5319 235d 74       		.sleb128 -12
ARM GAS  C:\Users\stijn\AppData\Local\Temp\ccLepBqo.s 			page 118


 5320 235e 00       		.byte	0
 5321 235f 00       		.byte	0
 5322 2360 00       		.byte	0
 5323 2361 1F       		.uleb128 0x1f
 5324 2362 04       		.byte	0x4
 5325 2363 67230000 		.4byte	0x2367
 5326 2367 06       		.uleb128 0x6
 5327 2368 D9000000 		.4byte	0xd9
 5328 236c 24       		.uleb128 0x24
 5329 236d C4170000 		.4byte	.LASF476
 5330 2371 01       		.byte	0x1
 5331 2372 CE01     		.2byte	0x1ce
 5332 2374 00000000 		.4byte	.LFB161
 5333 2378 06000000 		.4byte	.LFE161-.LFB161
 5334 237c 01       		.uleb128 0x1
 5335 237d 9C       		.byte	0x9c
 5336 237e 2C       		.uleb128 0x2c
 5337 237f 4A040000 		.4byte	.LASF477
 5338 2383 01       		.byte	0x1
 5339 2384 FB01     		.2byte	0x1fb
 5340 2386 00000000 		.4byte	.LFB162
 5341 238a 98010000 		.4byte	.LFE162-.LFB162
 5342 238e 01       		.uleb128 0x1
 5343 238f 9C       		.byte	0x9c
 5344 2390 D1230000 		.4byte	0x23d1
 5345 2394 28       		.uleb128 0x28
 5346 2395 F8100000 		.4byte	.LASF478
 5347 2399 01       		.byte	0x1
 5348 239a FB01     		.2byte	0x1fb
 5349 239c D1230000 		.4byte	0x23d1
 5350 23a0 02       		.uleb128 0x2
 5351 23a1 91       		.byte	0x91
 5352 23a2 6F       		.sleb128 -17
 5353 23a3 28       		.uleb128 0x28
 5354 23a4 01140000 		.4byte	.LASF479
 5355 23a8 01       		.byte	0x1
 5356 23a9 FB01     		.2byte	0x1fb
 5357 23ab D9000000 		.4byte	0xd9
 5358 23af 02       		.uleb128 0x2
 5359 23b0 91       		.byte	0x91
 5360 23b1 68       		.sleb128 -24
 5361 23b2 26       		.uleb128 0x26
 5362 23b3 FD070000 		.4byte	.LASF480
 5363 23b7 01       		.byte	0x1
 5364 23b8 FD01     		.2byte	0x1fd
 5365 23ba D9000000 		.4byte	0xd9
 5366 23be 02       		.uleb128 0x2
 5367 23bf 91       		.byte	0x91
 5368 23c0 74       		.sleb128 -12
 5369 23c1 26       		.uleb128 0x26
 5370 23c2 7E120000 		.4byte	.LASF481
 5371 23c6 01       		.byte	0x1
 5372 23c7 FE01     		.2byte	0x1fe
 5373 23c9 D9000000 		.4byte	0xd9
 5374 23cd 02       		.uleb128 0x2
 5375 23ce 91       		.byte	0x91
 5376 23cf 70       		.sleb128 -16
ARM GAS  C:\Users\stijn\AppData\Local\Temp\ccLepBqo.s 			page 119


 5377 23d0 00       		.byte	0
 5378 23d1 02       		.uleb128 0x2
 5379 23d2 01       		.byte	0x1
 5380 23d3 02       		.byte	0x2
 5381 23d4 E7060000 		.4byte	.LASF482
 5382 23d8 2D       		.uleb128 0x2d
 5383 23d9 3D160000 		.4byte	.LASF483
 5384 23dd 09       		.byte	0x9
 5385 23de A7       		.byte	0xa7
 5386 23df E3230000 		.4byte	0x23e3
 5387 23e3 1F       		.uleb128 0x1f
 5388 23e4 04       		.byte	0x4
 5389 23e5 E9230000 		.4byte	0x23e9
 5390 23e9 06       		.uleb128 0x6
 5391 23ea 961A0000 		.4byte	0x1a96
 5392 23ee 2E       		.uleb128 0x2e
 5393 23ef BA180000 		.4byte	.LASF484
 5394 23f3 0A       		.byte	0xa
 5395 23f4 F907     		.2byte	0x7f9
 5396 23f6 FA230000 		.4byte	0x23fa
 5397 23fa 05       		.uleb128 0x5
 5398 23fb CE000000 		.4byte	0xce
 5399 23ff 2E       		.uleb128 0x2e
 5400 2400 A7070000 		.4byte	.LASF485
 5401 2404 0D       		.byte	0xd
 5402 2405 2902     		.2byte	0x229
 5403 2407 D9000000 		.4byte	0xd9
 5404 240b 2E       		.uleb128 0x2e
 5405 240c DC070000 		.4byte	.LASF486
 5406 2410 0D       		.byte	0xd
 5407 2411 2A02     		.2byte	0x22a
 5408 2413 AD000000 		.4byte	0xad
 5409 2417 2E       		.uleb128 0x2e
 5410 2418 9A0D0000 		.4byte	.LASF487
 5411 241c 0D       		.byte	0xd
 5412 241d 2B02     		.2byte	0x22b
 5413 241f D9000000 		.4byte	0xd9
 5414 2423 07       		.uleb128 0x7
 5415 2424 97210000 		.4byte	0x2197
 5416 2428 33240000 		.4byte	0x2433
 5417 242c 08       		.uleb128 0x8
 5418 242d 00010000 		.4byte	0x100
 5419 2431 17       		.byte	0x17
 5420 2432 00       		.byte	0
 5421 2433 2F       		.uleb128 0x2f
 5422 2434 BF010000 		.4byte	.LASF488
 5423 2438 01       		.byte	0x1
 5424 2439 24       		.byte	0x24
 5425 243a 23240000 		.4byte	0x2423
 5426 243e 05       		.uleb128 0x5
 5427 243f 03       		.byte	0x3
 5428 2440 00000000 		.4byte	cy_assertFileName
 5429 2444 2F       		.uleb128 0x2f
 5430 2445 60170000 		.4byte	.LASF489
 5431 2449 01       		.byte	0x1
 5432 244a 25       		.byte	0x25
 5433 244b D9000000 		.4byte	0xd9
ARM GAS  C:\Users\stijn\AppData\Local\Temp\ccLepBqo.s 			page 120


 5434 244f 05       		.uleb128 0x5
 5435 2450 03       		.byte	0x3
 5436 2451 00000000 		.4byte	cy_assertLine
 5437 2455 2F       		.uleb128 0x2f
 5438 2456 A7160000 		.4byte	.LASF490
 5439 245a 01       		.byte	0x1
 5440 245b 29       		.byte	0x29
 5441 245c 8B210000 		.4byte	0x218b
 5442 2460 05       		.uleb128 0x5
 5443 2461 03       		.byte	0x3
 5444 2462 00000000 		.4byte	cy_faultFrame
 5445 2466 00       		.byte	0
 5446              		.section	.debug_abbrev,"",%progbits
 5447              	.Ldebug_abbrev0:
 5448 0000 01       		.uleb128 0x1
 5449 0001 11       		.uleb128 0x11
 5450 0002 01       		.byte	0x1
 5451 0003 25       		.uleb128 0x25
 5452 0004 0E       		.uleb128 0xe
 5453 0005 13       		.uleb128 0x13
 5454 0006 0B       		.uleb128 0xb
 5455 0007 03       		.uleb128 0x3
 5456 0008 0E       		.uleb128 0xe
 5457 0009 1B       		.uleb128 0x1b
 5458 000a 0E       		.uleb128 0xe
 5459 000b 55       		.uleb128 0x55
 5460 000c 17       		.uleb128 0x17
 5461 000d 11       		.uleb128 0x11
 5462 000e 01       		.uleb128 0x1
 5463 000f 10       		.uleb128 0x10
 5464 0010 17       		.uleb128 0x17
 5465 0011 00       		.byte	0
 5466 0012 00       		.byte	0
 5467 0013 02       		.uleb128 0x2
 5468 0014 24       		.uleb128 0x24
 5469 0015 00       		.byte	0
 5470 0016 0B       		.uleb128 0xb
 5471 0017 0B       		.uleb128 0xb
 5472 0018 3E       		.uleb128 0x3e
 5473 0019 0B       		.uleb128 0xb
 5474 001a 03       		.uleb128 0x3
 5475 001b 0E       		.uleb128 0xe
 5476 001c 00       		.byte	0
 5477 001d 00       		.byte	0
 5478 001e 03       		.uleb128 0x3
 5479 001f 16       		.uleb128 0x16
 5480 0020 00       		.byte	0
 5481 0021 03       		.uleb128 0x3
 5482 0022 0E       		.uleb128 0xe
 5483 0023 3A       		.uleb128 0x3a
 5484 0024 0B       		.uleb128 0xb
 5485 0025 3B       		.uleb128 0x3b
 5486 0026 0B       		.uleb128 0xb
 5487 0027 49       		.uleb128 0x49
 5488 0028 13       		.uleb128 0x13
 5489 0029 00       		.byte	0
 5490 002a 00       		.byte	0
ARM GAS  C:\Users\stijn\AppData\Local\Temp\ccLepBqo.s 			page 121


 5491 002b 04       		.uleb128 0x4
 5492 002c 24       		.uleb128 0x24
 5493 002d 00       		.byte	0
 5494 002e 0B       		.uleb128 0xb
 5495 002f 0B       		.uleb128 0xb
 5496 0030 3E       		.uleb128 0x3e
 5497 0031 0B       		.uleb128 0xb
 5498 0032 03       		.uleb128 0x3
 5499 0033 08       		.uleb128 0x8
 5500 0034 00       		.byte	0
 5501 0035 00       		.byte	0
 5502 0036 05       		.uleb128 0x5
 5503 0037 35       		.uleb128 0x35
 5504 0038 00       		.byte	0
 5505 0039 49       		.uleb128 0x49
 5506 003a 13       		.uleb128 0x13
 5507 003b 00       		.byte	0
 5508 003c 00       		.byte	0
 5509 003d 06       		.uleb128 0x6
 5510 003e 26       		.uleb128 0x26
 5511 003f 00       		.byte	0
 5512 0040 49       		.uleb128 0x49
 5513 0041 13       		.uleb128 0x13
 5514 0042 00       		.byte	0
 5515 0043 00       		.byte	0
 5516 0044 07       		.uleb128 0x7
 5517 0045 01       		.uleb128 0x1
 5518 0046 01       		.byte	0x1
 5519 0047 49       		.uleb128 0x49
 5520 0048 13       		.uleb128 0x13
 5521 0049 01       		.uleb128 0x1
 5522 004a 13       		.uleb128 0x13
 5523 004b 00       		.byte	0
 5524 004c 00       		.byte	0
 5525 004d 08       		.uleb128 0x8
 5526 004e 21       		.uleb128 0x21
 5527 004f 00       		.byte	0
 5528 0050 49       		.uleb128 0x49
 5529 0051 13       		.uleb128 0x13
 5530 0052 2F       		.uleb128 0x2f
 5531 0053 0B       		.uleb128 0xb
 5532 0054 00       		.byte	0
 5533 0055 00       		.byte	0
 5534 0056 09       		.uleb128 0x9
 5535 0057 13       		.uleb128 0x13
 5536 0058 01       		.byte	0x1
 5537 0059 0B       		.uleb128 0xb
 5538 005a 05       		.uleb128 0x5
 5539 005b 3A       		.uleb128 0x3a
 5540 005c 0B       		.uleb128 0xb
 5541 005d 3B       		.uleb128 0x3b
 5542 005e 0B       		.uleb128 0xb
 5543 005f 01       		.uleb128 0x1
 5544 0060 13       		.uleb128 0x13
 5545 0061 00       		.byte	0
 5546 0062 00       		.byte	0
 5547 0063 0A       		.uleb128 0xa
ARM GAS  C:\Users\stijn\AppData\Local\Temp\ccLepBqo.s 			page 122


 5548 0064 0D       		.uleb128 0xd
 5549 0065 00       		.byte	0
 5550 0066 03       		.uleb128 0x3
 5551 0067 0E       		.uleb128 0xe
 5552 0068 3A       		.uleb128 0x3a
 5553 0069 0B       		.uleb128 0xb
 5554 006a 3B       		.uleb128 0x3b
 5555 006b 0B       		.uleb128 0xb
 5556 006c 49       		.uleb128 0x49
 5557 006d 13       		.uleb128 0x13
 5558 006e 38       		.uleb128 0x38
 5559 006f 0B       		.uleb128 0xb
 5560 0070 00       		.byte	0
 5561 0071 00       		.byte	0
 5562 0072 0B       		.uleb128 0xb
 5563 0073 0D       		.uleb128 0xd
 5564 0074 00       		.byte	0
 5565 0075 03       		.uleb128 0x3
 5566 0076 0E       		.uleb128 0xe
 5567 0077 3A       		.uleb128 0x3a
 5568 0078 0B       		.uleb128 0xb
 5569 0079 3B       		.uleb128 0x3b
 5570 007a 0B       		.uleb128 0xb
 5571 007b 49       		.uleb128 0x49
 5572 007c 13       		.uleb128 0x13
 5573 007d 38       		.uleb128 0x38
 5574 007e 05       		.uleb128 0x5
 5575 007f 00       		.byte	0
 5576 0080 00       		.byte	0
 5577 0081 0C       		.uleb128 0xc
 5578 0082 21       		.uleb128 0x21
 5579 0083 00       		.byte	0
 5580 0084 49       		.uleb128 0x49
 5581 0085 13       		.uleb128 0x13
 5582 0086 2F       		.uleb128 0x2f
 5583 0087 05       		.uleb128 0x5
 5584 0088 00       		.byte	0
 5585 0089 00       		.byte	0
 5586 008a 0D       		.uleb128 0xd
 5587 008b 13       		.uleb128 0x13
 5588 008c 01       		.byte	0x1
 5589 008d 0B       		.uleb128 0xb
 5590 008e 06       		.uleb128 0x6
 5591 008f 3A       		.uleb128 0x3a
 5592 0090 0B       		.uleb128 0xb
 5593 0091 3B       		.uleb128 0x3b
 5594 0092 0B       		.uleb128 0xb
 5595 0093 01       		.uleb128 0x1
 5596 0094 13       		.uleb128 0x13
 5597 0095 00       		.byte	0
 5598 0096 00       		.byte	0
 5599 0097 0E       		.uleb128 0xe
 5600 0098 13       		.uleb128 0x13
 5601 0099 01       		.byte	0x1
 5602 009a 0B       		.uleb128 0xb
 5603 009b 0B       		.uleb128 0xb
 5604 009c 3A       		.uleb128 0x3a
ARM GAS  C:\Users\stijn\AppData\Local\Temp\ccLepBqo.s 			page 123


 5605 009d 0B       		.uleb128 0xb
 5606 009e 3B       		.uleb128 0x3b
 5607 009f 0B       		.uleb128 0xb
 5608 00a0 01       		.uleb128 0x1
 5609 00a1 13       		.uleb128 0x13
 5610 00a2 00       		.byte	0
 5611 00a3 00       		.byte	0
 5612 00a4 0F       		.uleb128 0xf
 5613 00a5 0D       		.uleb128 0xd
 5614 00a6 00       		.byte	0
 5615 00a7 03       		.uleb128 0x3
 5616 00a8 08       		.uleb128 0x8
 5617 00a9 3A       		.uleb128 0x3a
 5618 00aa 0B       		.uleb128 0xb
 5619 00ab 3B       		.uleb128 0x3b
 5620 00ac 0B       		.uleb128 0xb
 5621 00ad 49       		.uleb128 0x49
 5622 00ae 13       		.uleb128 0x13
 5623 00af 38       		.uleb128 0x38
 5624 00b0 0B       		.uleb128 0xb
 5625 00b1 00       		.byte	0
 5626 00b2 00       		.byte	0
 5627 00b3 10       		.uleb128 0x10
 5628 00b4 13       		.uleb128 0x13
 5629 00b5 01       		.byte	0x1
 5630 00b6 0B       		.uleb128 0xb
 5631 00b7 0B       		.uleb128 0xb
 5632 00b8 3A       		.uleb128 0x3a
 5633 00b9 0B       		.uleb128 0xb
 5634 00ba 3B       		.uleb128 0x3b
 5635 00bb 05       		.uleb128 0x5
 5636 00bc 01       		.uleb128 0x1
 5637 00bd 13       		.uleb128 0x13
 5638 00be 00       		.byte	0
 5639 00bf 00       		.byte	0
 5640 00c0 11       		.uleb128 0x11
 5641 00c1 0D       		.uleb128 0xd
 5642 00c2 00       		.byte	0
 5643 00c3 03       		.uleb128 0x3
 5644 00c4 0E       		.uleb128 0xe
 5645 00c5 3A       		.uleb128 0x3a
 5646 00c6 0B       		.uleb128 0xb
 5647 00c7 3B       		.uleb128 0x3b
 5648 00c8 05       		.uleb128 0x5
 5649 00c9 49       		.uleb128 0x49
 5650 00ca 13       		.uleb128 0x13
 5651 00cb 38       		.uleb128 0x38
 5652 00cc 0B       		.uleb128 0xb
 5653 00cd 00       		.byte	0
 5654 00ce 00       		.byte	0
 5655 00cf 12       		.uleb128 0x12
 5656 00d0 0D       		.uleb128 0xd
 5657 00d1 00       		.byte	0
 5658 00d2 03       		.uleb128 0x3
 5659 00d3 08       		.uleb128 0x8
 5660 00d4 3A       		.uleb128 0x3a
 5661 00d5 0B       		.uleb128 0xb
ARM GAS  C:\Users\stijn\AppData\Local\Temp\ccLepBqo.s 			page 124


 5662 00d6 3B       		.uleb128 0x3b
 5663 00d7 05       		.uleb128 0x5
 5664 00d8 49       		.uleb128 0x49
 5665 00d9 13       		.uleb128 0x13
 5666 00da 38       		.uleb128 0x38
 5667 00db 0B       		.uleb128 0xb
 5668 00dc 00       		.byte	0
 5669 00dd 00       		.byte	0
 5670 00de 13       		.uleb128 0x13
 5671 00df 16       		.uleb128 0x16
 5672 00e0 00       		.byte	0
 5673 00e1 03       		.uleb128 0x3
 5674 00e2 0E       		.uleb128 0xe
 5675 00e3 3A       		.uleb128 0x3a
 5676 00e4 0B       		.uleb128 0xb
 5677 00e5 3B       		.uleb128 0x3b
 5678 00e6 05       		.uleb128 0x5
 5679 00e7 49       		.uleb128 0x49
 5680 00e8 13       		.uleb128 0x13
 5681 00e9 00       		.byte	0
 5682 00ea 00       		.byte	0
 5683 00eb 14       		.uleb128 0x14
 5684 00ec 04       		.uleb128 0x4
 5685 00ed 01       		.byte	0x1
 5686 00ee 0B       		.uleb128 0xb
 5687 00ef 0B       		.uleb128 0xb
 5688 00f0 49       		.uleb128 0x49
 5689 00f1 13       		.uleb128 0x13
 5690 00f2 3A       		.uleb128 0x3a
 5691 00f3 0B       		.uleb128 0xb
 5692 00f4 3B       		.uleb128 0x3b
 5693 00f5 05       		.uleb128 0x5
 5694 00f6 01       		.uleb128 0x1
 5695 00f7 13       		.uleb128 0x13
 5696 00f8 00       		.byte	0
 5697 00f9 00       		.byte	0
 5698 00fa 15       		.uleb128 0x15
 5699 00fb 28       		.uleb128 0x28
 5700 00fc 00       		.byte	0
 5701 00fd 03       		.uleb128 0x3
 5702 00fe 0E       		.uleb128 0xe
 5703 00ff 1C       		.uleb128 0x1c
 5704 0100 0B       		.uleb128 0xb
 5705 0101 00       		.byte	0
 5706 0102 00       		.byte	0
 5707 0103 16       		.uleb128 0x16
 5708 0104 28       		.uleb128 0x28
 5709 0105 00       		.byte	0
 5710 0106 03       		.uleb128 0x3
 5711 0107 0E       		.uleb128 0xe
 5712 0108 1C       		.uleb128 0x1c
 5713 0109 06       		.uleb128 0x6
 5714 010a 00       		.byte	0
 5715 010b 00       		.byte	0
 5716 010c 17       		.uleb128 0x17
 5717 010d 0D       		.uleb128 0xd
 5718 010e 00       		.byte	0
ARM GAS  C:\Users\stijn\AppData\Local\Temp\ccLepBqo.s 			page 125


 5719 010f 03       		.uleb128 0x3
 5720 0110 0E       		.uleb128 0xe
 5721 0111 3A       		.uleb128 0x3a
 5722 0112 0B       		.uleb128 0xb
 5723 0113 3B       		.uleb128 0x3b
 5724 0114 05       		.uleb128 0x5
 5725 0115 49       		.uleb128 0x49
 5726 0116 13       		.uleb128 0x13
 5727 0117 0B       		.uleb128 0xb
 5728 0118 0B       		.uleb128 0xb
 5729 0119 0D       		.uleb128 0xd
 5730 011a 0B       		.uleb128 0xb
 5731 011b 0C       		.uleb128 0xc
 5732 011c 0B       		.uleb128 0xb
 5733 011d 38       		.uleb128 0x38
 5734 011e 0B       		.uleb128 0xb
 5735 011f 00       		.byte	0
 5736 0120 00       		.byte	0
 5737 0121 18       		.uleb128 0x18
 5738 0122 17       		.uleb128 0x17
 5739 0123 01       		.byte	0x1
 5740 0124 0B       		.uleb128 0xb
 5741 0125 0B       		.uleb128 0xb
 5742 0126 3A       		.uleb128 0x3a
 5743 0127 0B       		.uleb128 0xb
 5744 0128 3B       		.uleb128 0x3b
 5745 0129 05       		.uleb128 0x5
 5746 012a 01       		.uleb128 0x1
 5747 012b 13       		.uleb128 0x13
 5748 012c 00       		.byte	0
 5749 012d 00       		.byte	0
 5750 012e 19       		.uleb128 0x19
 5751 012f 0D       		.uleb128 0xd
 5752 0130 00       		.byte	0
 5753 0131 03       		.uleb128 0x3
 5754 0132 0E       		.uleb128 0xe
 5755 0133 3A       		.uleb128 0x3a
 5756 0134 0B       		.uleb128 0xb
 5757 0135 3B       		.uleb128 0x3b
 5758 0136 05       		.uleb128 0x5
 5759 0137 49       		.uleb128 0x49
 5760 0138 13       		.uleb128 0x13
 5761 0139 00       		.byte	0
 5762 013a 00       		.byte	0
 5763 013b 1A       		.uleb128 0x1a
 5764 013c 2E       		.uleb128 0x2e
 5765 013d 01       		.byte	0x1
 5766 013e 03       		.uleb128 0x3
 5767 013f 0E       		.uleb128 0xe
 5768 0140 3A       		.uleb128 0x3a
 5769 0141 0B       		.uleb128 0xb
 5770 0142 3B       		.uleb128 0x3b
 5771 0143 05       		.uleb128 0x5
 5772 0144 27       		.uleb128 0x27
 5773 0145 19       		.uleb128 0x19
 5774 0146 49       		.uleb128 0x49
 5775 0147 13       		.uleb128 0x13
ARM GAS  C:\Users\stijn\AppData\Local\Temp\ccLepBqo.s 			page 126


 5776 0148 20       		.uleb128 0x20
 5777 0149 0B       		.uleb128 0xb
 5778 014a 01       		.uleb128 0x1
 5779 014b 13       		.uleb128 0x13
 5780 014c 00       		.byte	0
 5781 014d 00       		.byte	0
 5782 014e 1B       		.uleb128 0x1b
 5783 014f 34       		.uleb128 0x34
 5784 0150 00       		.byte	0
 5785 0151 03       		.uleb128 0x3
 5786 0152 0E       		.uleb128 0xe
 5787 0153 3A       		.uleb128 0x3a
 5788 0154 0B       		.uleb128 0xb
 5789 0155 3B       		.uleb128 0x3b
 5790 0156 05       		.uleb128 0x5
 5791 0157 49       		.uleb128 0x49
 5792 0158 13       		.uleb128 0x13
 5793 0159 00       		.byte	0
 5794 015a 00       		.byte	0
 5795 015b 1C       		.uleb128 0x1c
 5796 015c 2E       		.uleb128 0x2e
 5797 015d 01       		.byte	0x1
 5798 015e 3F       		.uleb128 0x3f
 5799 015f 19       		.uleb128 0x19
 5800 0160 03       		.uleb128 0x3
 5801 0161 0E       		.uleb128 0xe
 5802 0162 3A       		.uleb128 0x3a
 5803 0163 0B       		.uleb128 0xb
 5804 0164 3B       		.uleb128 0x3b
 5805 0165 0B       		.uleb128 0xb
 5806 0166 27       		.uleb128 0x27
 5807 0167 19       		.uleb128 0x19
 5808 0168 11       		.uleb128 0x11
 5809 0169 01       		.uleb128 0x1
 5810 016a 12       		.uleb128 0x12
 5811 016b 06       		.uleb128 0x6
 5812 016c 40       		.uleb128 0x40
 5813 016d 18       		.uleb128 0x18
 5814 016e 9642     		.uleb128 0x2116
 5815 0170 19       		.uleb128 0x19
 5816 0171 01       		.uleb128 0x1
 5817 0172 13       		.uleb128 0x13
 5818 0173 00       		.byte	0
 5819 0174 00       		.byte	0
 5820 0175 1D       		.uleb128 0x1d
 5821 0176 05       		.uleb128 0x5
 5822 0177 00       		.byte	0
 5823 0178 03       		.uleb128 0x3
 5824 0179 0E       		.uleb128 0xe
 5825 017a 3A       		.uleb128 0x3a
 5826 017b 0B       		.uleb128 0xb
 5827 017c 3B       		.uleb128 0x3b
 5828 017d 0B       		.uleb128 0xb
 5829 017e 49       		.uleb128 0x49
 5830 017f 13       		.uleb128 0x13
 5831 0180 02       		.uleb128 0x2
 5832 0181 18       		.uleb128 0x18
ARM GAS  C:\Users\stijn\AppData\Local\Temp\ccLepBqo.s 			page 127


 5833 0182 00       		.byte	0
 5834 0183 00       		.byte	0
 5835 0184 1E       		.uleb128 0x1e
 5836 0185 2E       		.uleb128 0x2e
 5837 0186 01       		.byte	0x1
 5838 0187 3F       		.uleb128 0x3f
 5839 0188 19       		.uleb128 0x19
 5840 0189 03       		.uleb128 0x3
 5841 018a 0E       		.uleb128 0xe
 5842 018b 3A       		.uleb128 0x3a
 5843 018c 0B       		.uleb128 0xb
 5844 018d 3B       		.uleb128 0x3b
 5845 018e 0B       		.uleb128 0xb
 5846 018f 27       		.uleb128 0x27
 5847 0190 19       		.uleb128 0x19
 5848 0191 8701     		.uleb128 0x87
 5849 0193 19       		.uleb128 0x19
 5850 0194 11       		.uleb128 0x11
 5851 0195 01       		.uleb128 0x1
 5852 0196 12       		.uleb128 0x12
 5853 0197 06       		.uleb128 0x6
 5854 0198 40       		.uleb128 0x40
 5855 0199 18       		.uleb128 0x18
 5856 019a 9742     		.uleb128 0x2117
 5857 019c 19       		.uleb128 0x19
 5858 019d 01       		.uleb128 0x1
 5859 019e 13       		.uleb128 0x13
 5860 019f 00       		.byte	0
 5861 01a0 00       		.byte	0
 5862 01a1 1F       		.uleb128 0x1f
 5863 01a2 0F       		.uleb128 0xf
 5864 01a3 00       		.byte	0
 5865 01a4 0B       		.uleb128 0xb
 5866 01a5 0B       		.uleb128 0xb
 5867 01a6 49       		.uleb128 0x49
 5868 01a7 13       		.uleb128 0x13
 5869 01a8 00       		.byte	0
 5870 01a9 00       		.byte	0
 5871 01aa 20       		.uleb128 0x20
 5872 01ab 2E       		.uleb128 0x2e
 5873 01ac 00       		.byte	0
 5874 01ad 3F       		.uleb128 0x3f
 5875 01ae 19       		.uleb128 0x19
 5876 01af 03       		.uleb128 0x3
 5877 01b0 0E       		.uleb128 0xe
 5878 01b1 3A       		.uleb128 0x3a
 5879 01b2 0B       		.uleb128 0xb
 5880 01b3 3B       		.uleb128 0x3b
 5881 01b4 0B       		.uleb128 0xb
 5882 01b5 27       		.uleb128 0x27
 5883 01b6 19       		.uleb128 0x19
 5884 01b7 11       		.uleb128 0x11
 5885 01b8 01       		.uleb128 0x1
 5886 01b9 12       		.uleb128 0x12
 5887 01ba 06       		.uleb128 0x6
 5888 01bb 40       		.uleb128 0x40
 5889 01bc 18       		.uleb128 0x18
ARM GAS  C:\Users\stijn\AppData\Local\Temp\ccLepBqo.s 			page 128


 5890 01bd 9742     		.uleb128 0x2117
 5891 01bf 19       		.uleb128 0x19
 5892 01c0 00       		.byte	0
 5893 01c1 00       		.byte	0
 5894 01c2 21       		.uleb128 0x21
 5895 01c3 2E       		.uleb128 0x2e
 5896 01c4 00       		.byte	0
 5897 01c5 3F       		.uleb128 0x3f
 5898 01c6 19       		.uleb128 0x19
 5899 01c7 03       		.uleb128 0x3
 5900 01c8 0E       		.uleb128 0xe
 5901 01c9 3A       		.uleb128 0x3a
 5902 01ca 0B       		.uleb128 0xb
 5903 01cb 3B       		.uleb128 0x3b
 5904 01cc 0B       		.uleb128 0xb
 5905 01cd 27       		.uleb128 0x27
 5906 01ce 19       		.uleb128 0x19
 5907 01cf 49       		.uleb128 0x49
 5908 01d0 13       		.uleb128 0x13
 5909 01d1 11       		.uleb128 0x11
 5910 01d2 01       		.uleb128 0x1
 5911 01d3 12       		.uleb128 0x12
 5912 01d4 06       		.uleb128 0x6
 5913 01d5 40       		.uleb128 0x40
 5914 01d6 18       		.uleb128 0x18
 5915 01d7 9742     		.uleb128 0x2117
 5916 01d9 19       		.uleb128 0x19
 5917 01da 00       		.byte	0
 5918 01db 00       		.byte	0
 5919 01dc 22       		.uleb128 0x22
 5920 01dd 2E       		.uleb128 0x2e
 5921 01de 01       		.byte	0x1
 5922 01df 3F       		.uleb128 0x3f
 5923 01e0 19       		.uleb128 0x19
 5924 01e1 03       		.uleb128 0x3
 5925 01e2 0E       		.uleb128 0xe
 5926 01e3 3A       		.uleb128 0x3a
 5927 01e4 0B       		.uleb128 0xb
 5928 01e5 3B       		.uleb128 0x3b
 5929 01e6 0B       		.uleb128 0xb
 5930 01e7 27       		.uleb128 0x27
 5931 01e8 19       		.uleb128 0x19
 5932 01e9 49       		.uleb128 0x49
 5933 01ea 13       		.uleb128 0x13
 5934 01eb 11       		.uleb128 0x11
 5935 01ec 01       		.uleb128 0x1
 5936 01ed 12       		.uleb128 0x12
 5937 01ee 06       		.uleb128 0x6
 5938 01ef 40       		.uleb128 0x40
 5939 01f0 18       		.uleb128 0x18
 5940 01f1 9742     		.uleb128 0x2117
 5941 01f3 19       		.uleb128 0x19
 5942 01f4 01       		.uleb128 0x1
 5943 01f5 13       		.uleb128 0x13
 5944 01f6 00       		.byte	0
 5945 01f7 00       		.byte	0
 5946 01f8 23       		.uleb128 0x23
ARM GAS  C:\Users\stijn\AppData\Local\Temp\ccLepBqo.s 			page 129


 5947 01f9 34       		.uleb128 0x34
 5948 01fa 00       		.byte	0
 5949 01fb 03       		.uleb128 0x3
 5950 01fc 0E       		.uleb128 0xe
 5951 01fd 3A       		.uleb128 0x3a
 5952 01fe 0B       		.uleb128 0xb
 5953 01ff 3B       		.uleb128 0x3b
 5954 0200 0B       		.uleb128 0xb
 5955 0201 49       		.uleb128 0x49
 5956 0202 13       		.uleb128 0x13
 5957 0203 02       		.uleb128 0x2
 5958 0204 18       		.uleb128 0x18
 5959 0205 00       		.byte	0
 5960 0206 00       		.byte	0
 5961 0207 24       		.uleb128 0x24
 5962 0208 2E       		.uleb128 0x2e
 5963 0209 00       		.byte	0
 5964 020a 3F       		.uleb128 0x3f
 5965 020b 19       		.uleb128 0x19
 5966 020c 03       		.uleb128 0x3
 5967 020d 0E       		.uleb128 0xe
 5968 020e 3A       		.uleb128 0x3a
 5969 020f 0B       		.uleb128 0xb
 5970 0210 3B       		.uleb128 0x3b
 5971 0211 05       		.uleb128 0x5
 5972 0212 27       		.uleb128 0x27
 5973 0213 19       		.uleb128 0x19
 5974 0214 11       		.uleb128 0x11
 5975 0215 01       		.uleb128 0x1
 5976 0216 12       		.uleb128 0x12
 5977 0217 06       		.uleb128 0x6
 5978 0218 40       		.uleb128 0x40
 5979 0219 18       		.uleb128 0x18
 5980 021a 9742     		.uleb128 0x2117
 5981 021c 19       		.uleb128 0x19
 5982 021d 00       		.byte	0
 5983 021e 00       		.byte	0
 5984 021f 25       		.uleb128 0x25
 5985 0220 2E       		.uleb128 0x2e
 5986 0221 01       		.byte	0x1
 5987 0222 3F       		.uleb128 0x3f
 5988 0223 19       		.uleb128 0x19
 5989 0224 03       		.uleb128 0x3
 5990 0225 0E       		.uleb128 0xe
 5991 0226 3A       		.uleb128 0x3a
 5992 0227 0B       		.uleb128 0xb
 5993 0228 3B       		.uleb128 0x3b
 5994 0229 05       		.uleb128 0x5
 5995 022a 27       		.uleb128 0x27
 5996 022b 19       		.uleb128 0x19
 5997 022c 49       		.uleb128 0x49
 5998 022d 13       		.uleb128 0x13
 5999 022e 11       		.uleb128 0x11
 6000 022f 01       		.uleb128 0x1
 6001 0230 12       		.uleb128 0x12
 6002 0231 06       		.uleb128 0x6
 6003 0232 40       		.uleb128 0x40
ARM GAS  C:\Users\stijn\AppData\Local\Temp\ccLepBqo.s 			page 130


 6004 0233 18       		.uleb128 0x18
 6005 0234 9742     		.uleb128 0x2117
 6006 0236 19       		.uleb128 0x19
 6007 0237 01       		.uleb128 0x1
 6008 0238 13       		.uleb128 0x13
 6009 0239 00       		.byte	0
 6010 023a 00       		.byte	0
 6011 023b 26       		.uleb128 0x26
 6012 023c 34       		.uleb128 0x34
 6013 023d 00       		.byte	0
 6014 023e 03       		.uleb128 0x3
 6015 023f 0E       		.uleb128 0xe
 6016 0240 3A       		.uleb128 0x3a
 6017 0241 0B       		.uleb128 0xb
 6018 0242 3B       		.uleb128 0x3b
 6019 0243 05       		.uleb128 0x5
 6020 0244 49       		.uleb128 0x49
 6021 0245 13       		.uleb128 0x13
 6022 0246 02       		.uleb128 0x2
 6023 0247 18       		.uleb128 0x18
 6024 0248 00       		.byte	0
 6025 0249 00       		.byte	0
 6026 024a 27       		.uleb128 0x27
 6027 024b 2E       		.uleb128 0x2e
 6028 024c 01       		.byte	0x1
 6029 024d 3F       		.uleb128 0x3f
 6030 024e 19       		.uleb128 0x19
 6031 024f 03       		.uleb128 0x3
 6032 0250 0E       		.uleb128 0xe
 6033 0251 3A       		.uleb128 0x3a
 6034 0252 0B       		.uleb128 0xb
 6035 0253 3B       		.uleb128 0x3b
 6036 0254 05       		.uleb128 0x5
 6037 0255 27       		.uleb128 0x27
 6038 0256 19       		.uleb128 0x19
 6039 0257 11       		.uleb128 0x11
 6040 0258 01       		.uleb128 0x1
 6041 0259 12       		.uleb128 0x12
 6042 025a 06       		.uleb128 0x6
 6043 025b 40       		.uleb128 0x40
 6044 025c 18       		.uleb128 0x18
 6045 025d 9642     		.uleb128 0x2116
 6046 025f 19       		.uleb128 0x19
 6047 0260 01       		.uleb128 0x1
 6048 0261 13       		.uleb128 0x13
 6049 0262 00       		.byte	0
 6050 0263 00       		.byte	0
 6051 0264 28       		.uleb128 0x28
 6052 0265 05       		.uleb128 0x5
 6053 0266 00       		.byte	0
 6054 0267 03       		.uleb128 0x3
 6055 0268 0E       		.uleb128 0xe
 6056 0269 3A       		.uleb128 0x3a
 6057 026a 0B       		.uleb128 0xb
 6058 026b 3B       		.uleb128 0x3b
 6059 026c 05       		.uleb128 0x5
 6060 026d 49       		.uleb128 0x49
ARM GAS  C:\Users\stijn\AppData\Local\Temp\ccLepBqo.s 			page 131


 6061 026e 13       		.uleb128 0x13
 6062 026f 02       		.uleb128 0x2
 6063 0270 18       		.uleb128 0x18
 6064 0271 00       		.byte	0
 6065 0272 00       		.byte	0
 6066 0273 29       		.uleb128 0x29
 6067 0274 1D       		.uleb128 0x1d
 6068 0275 01       		.byte	0x1
 6069 0276 31       		.uleb128 0x31
 6070 0277 13       		.uleb128 0x13
 6071 0278 11       		.uleb128 0x11
 6072 0279 01       		.uleb128 0x1
 6073 027a 12       		.uleb128 0x12
 6074 027b 06       		.uleb128 0x6
 6075 027c 58       		.uleb128 0x58
 6076 027d 0B       		.uleb128 0xb
 6077 027e 59       		.uleb128 0x59
 6078 027f 05       		.uleb128 0x5
 6079 0280 00       		.byte	0
 6080 0281 00       		.byte	0
 6081 0282 2A       		.uleb128 0x2a
 6082 0283 0B       		.uleb128 0xb
 6083 0284 01       		.byte	0x1
 6084 0285 11       		.uleb128 0x11
 6085 0286 01       		.uleb128 0x1
 6086 0287 12       		.uleb128 0x12
 6087 0288 06       		.uleb128 0x6
 6088 0289 00       		.byte	0
 6089 028a 00       		.byte	0
 6090 028b 2B       		.uleb128 0x2b
 6091 028c 34       		.uleb128 0x34
 6092 028d 00       		.byte	0
 6093 028e 31       		.uleb128 0x31
 6094 028f 13       		.uleb128 0x13
 6095 0290 02       		.uleb128 0x2
 6096 0291 18       		.uleb128 0x18
 6097 0292 00       		.byte	0
 6098 0293 00       		.byte	0
 6099 0294 2C       		.uleb128 0x2c
 6100 0295 2E       		.uleb128 0x2e
 6101 0296 01       		.byte	0x1
 6102 0297 3F       		.uleb128 0x3f
 6103 0298 19       		.uleb128 0x19
 6104 0299 03       		.uleb128 0x3
 6105 029a 0E       		.uleb128 0xe
 6106 029b 3A       		.uleb128 0x3a
 6107 029c 0B       		.uleb128 0xb
 6108 029d 3B       		.uleb128 0x3b
 6109 029e 05       		.uleb128 0x5
 6110 029f 27       		.uleb128 0x27
 6111 02a0 19       		.uleb128 0x19
 6112 02a1 11       		.uleb128 0x11
 6113 02a2 01       		.uleb128 0x1
 6114 02a3 12       		.uleb128 0x12
 6115 02a4 06       		.uleb128 0x6
 6116 02a5 40       		.uleb128 0x40
 6117 02a6 18       		.uleb128 0x18
ARM GAS  C:\Users\stijn\AppData\Local\Temp\ccLepBqo.s 			page 132


 6118 02a7 9742     		.uleb128 0x2117
 6119 02a9 19       		.uleb128 0x19
 6120 02aa 01       		.uleb128 0x1
 6121 02ab 13       		.uleb128 0x13
 6122 02ac 00       		.byte	0
 6123 02ad 00       		.byte	0
 6124 02ae 2D       		.uleb128 0x2d
 6125 02af 34       		.uleb128 0x34
 6126 02b0 00       		.byte	0
 6127 02b1 03       		.uleb128 0x3
 6128 02b2 0E       		.uleb128 0xe
 6129 02b3 3A       		.uleb128 0x3a
 6130 02b4 0B       		.uleb128 0xb
 6131 02b5 3B       		.uleb128 0x3b
 6132 02b6 0B       		.uleb128 0xb
 6133 02b7 49       		.uleb128 0x49
 6134 02b8 13       		.uleb128 0x13
 6135 02b9 3F       		.uleb128 0x3f
 6136 02ba 19       		.uleb128 0x19
 6137 02bb 3C       		.uleb128 0x3c
 6138 02bc 19       		.uleb128 0x19
 6139 02bd 00       		.byte	0
 6140 02be 00       		.byte	0
 6141 02bf 2E       		.uleb128 0x2e
 6142 02c0 34       		.uleb128 0x34
 6143 02c1 00       		.byte	0
 6144 02c2 03       		.uleb128 0x3
 6145 02c3 0E       		.uleb128 0xe
 6146 02c4 3A       		.uleb128 0x3a
 6147 02c5 0B       		.uleb128 0xb
 6148 02c6 3B       		.uleb128 0x3b
 6149 02c7 05       		.uleb128 0x5
 6150 02c8 49       		.uleb128 0x49
 6151 02c9 13       		.uleb128 0x13
 6152 02ca 3F       		.uleb128 0x3f
 6153 02cb 19       		.uleb128 0x19
 6154 02cc 3C       		.uleb128 0x3c
 6155 02cd 19       		.uleb128 0x19
 6156 02ce 00       		.byte	0
 6157 02cf 00       		.byte	0
 6158 02d0 2F       		.uleb128 0x2f
 6159 02d1 34       		.uleb128 0x34
 6160 02d2 00       		.byte	0
 6161 02d3 03       		.uleb128 0x3
 6162 02d4 0E       		.uleb128 0xe
 6163 02d5 3A       		.uleb128 0x3a
 6164 02d6 0B       		.uleb128 0xb
 6165 02d7 3B       		.uleb128 0x3b
 6166 02d8 0B       		.uleb128 0xb
 6167 02d9 49       		.uleb128 0x49
 6168 02da 13       		.uleb128 0x13
 6169 02db 3F       		.uleb128 0x3f
 6170 02dc 19       		.uleb128 0x19
 6171 02dd 02       		.uleb128 0x2
 6172 02de 18       		.uleb128 0x18
 6173 02df 00       		.byte	0
 6174 02e0 00       		.byte	0
ARM GAS  C:\Users\stijn\AppData\Local\Temp\ccLepBqo.s 			page 133


 6175 02e1 00       		.byte	0
 6176              		.section	.debug_aranges,"",%progbits
 6177 0000 74000000 		.4byte	0x74
 6178 0004 0200     		.2byte	0x2
 6179 0006 00000000 		.4byte	.Ldebug_info0
 6180 000a 04       		.byte	0x4
 6181 000b 00       		.byte	0
 6182 000c 0000     		.2byte	0
 6183 000e 0000     		.2byte	0
 6184 0010 00000000 		.4byte	.LFB151
 6185 0014 44000000 		.4byte	.LFE151-.LFB151
 6186 0018 00000000 		.4byte	.LFB152
 6187 001c 28000000 		.4byte	.LFE152-.LFB152
 6188 0020 00000000 		.4byte	.LFB153
 6189 0024 0C000000 		.4byte	.LFE153-.LFB153
 6190 0028 00000000 		.4byte	.LFB154
 6191 002c 28000000 		.4byte	.LFE154-.LFB154
 6192 0030 00000000 		.4byte	.LFB155
 6193 0034 20000000 		.4byte	.LFE155-.LFB155
 6194 0038 00000000 		.4byte	.LFB156
 6195 003c 2C000000 		.4byte	.LFE156-.LFB156
 6196 0040 00000000 		.4byte	.LFB157
 6197 0044 34000000 		.4byte	.LFE157-.LFB157
 6198 0048 00000000 		.4byte	.LFB158
 6199 004c 3C000000 		.4byte	.LFE158-.LFB158
 6200 0050 00000000 		.4byte	.LFB159
 6201 0054 AC000000 		.4byte	.LFE159-.LFB159
 6202 0058 00000000 		.4byte	.LFB160
 6203 005c 1C010000 		.4byte	.LFE160-.LFB160
 6204 0060 00000000 		.4byte	.LFB161
 6205 0064 06000000 		.4byte	.LFE161-.LFB161
 6206 0068 00000000 		.4byte	.LFB162
 6207 006c 98010000 		.4byte	.LFE162-.LFB162
 6208 0070 00000000 		.4byte	0
 6209 0074 00000000 		.4byte	0
 6210              		.section	.debug_ranges,"",%progbits
 6211              	.Ldebug_ranges0:
 6212 0000 00000000 		.4byte	.LFB151
 6213 0004 44000000 		.4byte	.LFE151
 6214 0008 00000000 		.4byte	.LFB152
 6215 000c 28000000 		.4byte	.LFE152
 6216 0010 00000000 		.4byte	.LFB153
 6217 0014 0C000000 		.4byte	.LFE153
 6218 0018 00000000 		.4byte	.LFB154
 6219 001c 28000000 		.4byte	.LFE154
 6220 0020 00000000 		.4byte	.LFB155
 6221 0024 20000000 		.4byte	.LFE155
 6222 0028 00000000 		.4byte	.LFB156
 6223 002c 2C000000 		.4byte	.LFE156
 6224 0030 00000000 		.4byte	.LFB157
 6225 0034 34000000 		.4byte	.LFE157
 6226 0038 00000000 		.4byte	.LFB158
 6227 003c 3C000000 		.4byte	.LFE158
 6228 0040 00000000 		.4byte	.LFB159
 6229 0044 AC000000 		.4byte	.LFE159
 6230 0048 00000000 		.4byte	.LFB160
 6231 004c 1C010000 		.4byte	.LFE160
ARM GAS  C:\Users\stijn\AppData\Local\Temp\ccLepBqo.s 			page 134


 6232 0050 00000000 		.4byte	.LFB161
 6233 0054 06000000 		.4byte	.LFE161
 6234 0058 00000000 		.4byte	.LFB162
 6235 005c 98010000 		.4byte	.LFE162
 6236 0060 00000000 		.4byte	0
 6237 0064 00000000 		.4byte	0
 6238              		.section	.debug_line,"",%progbits
 6239              	.Ldebug_line0:
 6240 0000 7D040000 		.section	.debug_str,"MS",%progbits,1
 6240      0200BD02 
 6240      00000201 
 6240      FB0E0D00 
 6240      01010101 
 6241              	.LASF429:
 6242 0000 73764361 		.ascii	"svCallAct\000"
 6242      6C6C4163 
 6242      7400
 6243              	.LASF294:
 6244 000a 63727970 		.ascii	"cryptoBase\000"
 6244      746F4261 
 6244      736500
 6245              	.LASF1:
 6246 0015 756E7369 		.ascii	"unsigned char\000"
 6246      676E6564 
 6246      20636861 
 6246      7200
 6247              	.LASF222:
 6248 0023 5057525F 		.ascii	"PWR_BUCK_CTL\000"
 6248      4255434B 
 6248      5F43544C 
 6248      00
 6249              	.LASF325:
 6250 0030 666C6173 		.ascii	"flashProgramDelay\000"
 6250      6850726F 
 6250      6772616D 
 6250      44656C61 
 6250      7900
 6251              	.LASF22:
 6252 0042 73697A65 		.ascii	"sizetype\000"
 6252      74797065 
 6252      00
 6253              	.LASF193:
 6254 004b 544F4332 		.ascii	"TOC2_CRC_ADDR\000"
 6254      5F435243 
 6254      5F414444 
 6254      5200
 6255              	.LASF171:
 6256 0059 544F4331 		.ascii	"TOC1_BOOT_PROTECTION_ADDR\000"
 6256      5F424F4F 
 6256      545F5052 
 6256      4F544543 
 6256      54494F4E 
 6257              	.LASF471:
 6258 0073 72657456 		.ascii	"retVal\000"
 6258      616C00
 6259              	.LASF176:
 6260 007a 52544F43 		.ascii	"RTOC1_SFLASH_GENERAL_TRIM_ADDR\000"
ARM GAS  C:\Users\stijn\AppData\Local\Temp\ccLepBqo.s 			page 135


 6260      315F5346 
 6260      4C415348 
 6260      5F47454E 
 6260      4552414C 
 6261              	.LASF66:
 6262 0099 42495354 		.ascii	"BIST_DATA\000"
 6262      5F444154 
 6262      4100
 6263              	.LASF142:
 6264 00a3 43534456 		.ascii	"CSDV2_CSD0_ADC_VREF0\000"
 6264      325F4353 
 6264      44305F41 
 6264      44435F56 
 6264      52454630 
 6265              	.LASF143:
 6266 00b8 43534456 		.ascii	"CSDV2_CSD0_ADC_VREF1\000"
 6266      325F4353 
 6266      44305F41 
 6266      44435F56 
 6266      52454631 
 6267              	.LASF144:
 6268 00cd 43534456 		.ascii	"CSDV2_CSD0_ADC_VREF2\000"
 6268      325F4353 
 6268      44305F41 
 6268      44435F56 
 6268      52454632 
 6269              	.LASF61:
 6270 00e2 464C4153 		.ascii	"FLASH_PWR_CTL\000"
 6270      485F5057 
 6270      525F4354 
 6270      4C00
 6271              	.LASF437:
 6272 00f0 6D656D46 		.ascii	"memFaultEna\000"
 6272      61756C74 
 6272      456E6100 
 6273              	.LASF405:
 6274 00fc 69427573 		.ascii	"iBusErr\000"
 6274      45727200 
 6275              	.LASF290:
 6276 0104 6873696F 		.ascii	"hsiomBase\000"
 6276      6D426173 
 6276      6500
 6277              	.LASF267:
 6278 010e 434C4B5F 		.ascii	"CLK_TRIM_PILO_CTL2\000"
 6278      5452494D 
 6278      5F50494C 
 6278      4F5F4354 
 6278      4C3200
 6279              	.LASF268:
 6280 0121 434C4B5F 		.ascii	"CLK_TRIM_PILO_CTL3\000"
 6280      5452494D 
 6280      5F50494C 
 6280      4F5F4354 
 6280      4C3300
 6281              	.LASF168:
 6282 0134 544F4331 		.ascii	"TOC1_UNIQUE_ID_ADDR\000"
 6282      5F554E49 
ARM GAS  C:\Users\stijn\AppData\Local\Temp\ccLepBqo.s 			page 136


 6282      5155455F 
 6282      49445F41 
 6282      44445200 
 6283              	.LASF102:
 6284 0148 4441505F 		.ascii	"DAP_BUFF_CMD\000"
 6284      42554646 
 6284      5F434D44 
 6284      00
 6285              	.LASF55:
 6286 0155 544D5F43 		.ascii	"TM_CMPR\000"
 6286      4D505200 
 6287              	.LASF251:
 6288 015d 53525353 		.ascii	"SRSS_INTR\000"
 6288      5F494E54 
 6288      5200
 6289              	.LASF106:
 6290 0167 4558545F 		.ascii	"EXT_MS0_BUFF_CMD\000"
 6290      4D53305F 
 6290      42554646 
 6290      5F434D44 
 6290      00
 6291              	.LASF170:
 6292 0178 544F4331 		.ascii	"TOC1_SYSCALL_TABLE_ADDR\000"
 6292      5F535953 
 6292      43414C4C 
 6292      5F544142 
 6292      4C455F41 
 6293              	.LASF374:
 6294 0190 56544F52 		.ascii	"VTOR\000"
 6294      00
 6295              	.LASF183:
 6296 0195 544F4332 		.ascii	"TOC2_KEY_BLOCK_ADDR\000"
 6296      5F4B4559 
 6296      5F424C4F 
 6296      434B5F41 
 6296      44445200 
 6297              	.LASF41:
 6298 01a9 494E5452 		.ascii	"INTR_MASKED\000"
 6298      5F4D4153 
 6298      4B454400 
 6299              	.LASF50:
 6300 01b5 5245445F 		.ascii	"RED_CTL23\000"
 6300      43544C32 
 6300      3300
 6301              	.LASF488:
 6302 01bf 63795F61 		.ascii	"cy_assertFileName\000"
 6302      73736572 
 6302      7446696C 
 6302      654E616D 
 6302      6500
 6303              	.LASF351:
 6304 01d1 6770696F 		.ascii	"gpioPrtCfgOffset\000"
 6304      50727443 
 6304      66674F66 
 6304      66736574 
 6304      00
 6305              	.LASF36:
ARM GAS  C:\Users\stijn\AppData\Local\Temp\ccLepBqo.s 			page 137


 6306 01e2 48565F43 		.ascii	"HV_CTL\000"
 6306      544C00
 6307              	.LASF397:
 6308 01e9 69616363 		.ascii	"iaccViol\000"
 6308      56696F6C 
 6308      00
 6309              	.LASF29:
 6310 01f2 414E415F 		.ascii	"ANA_CTL0\000"
 6310      43544C30 
 6310      00
 6311              	.LASF400:
 6312 01fb 6D556E73 		.ascii	"mUnstkErr\000"
 6312      746B4572 
 6312      7200
 6313              	.LASF30:
 6314 0205 414E415F 		.ascii	"ANA_CTL1\000"
 6314      43544C31 
 6314      00
 6315              	.LASF492:
 6316 020e 47656E65 		.ascii	"Generated_Source\\PSoC6\\pdl\\drivers\\peripheral\\"
 6316      72617465 
 6316      645F536F 
 6316      75726365 
 6316      5C50536F 
 6317 023c 7379736C 		.ascii	"syslib\\cy_syslib.c\000"
 6317      69625C63 
 6317      795F7379 
 6317      736C6962 
 6317      2E6300
 6318              	.LASF147:
 6319 024f 43505553 		.ascii	"CPUSS_TRIM_ROM_CTL_ULP\000"
 6319      535F5452 
 6319      494D5F52 
 6319      4F4D5F43 
 6319      544C5F55 
 6320              	.LASF313:
 6321 0266 73727373 		.ascii	"srssNumHfroot\000"
 6321      4E756D48 
 6321      66726F6F 
 6321      7400
 6322              	.LASF116:
 6323 0274 4449455F 		.ascii	"DIE_LOT\000"
 6323      4C4F5400 
 6324              	.LASF215:
 6325 027c 4D435744 		.ascii	"MCWDT_INTR_MASK\000"
 6325      545F494E 
 6325      54525F4D 
 6325      41534B00 
 6326              	.LASF40:
 6327 028c 494E5452 		.ascii	"INTR_MASK\000"
 6327      5F4D4153 
 6327      4B00
 6328              	.LASF203:
 6329 0296 52544F43 		.ascii	"RTOC2_SIGNATURE_VERIF_KEY\000"
 6329      325F5349 
 6329      474E4154 
 6329      5552455F 
ARM GAS  C:\Users\stijn\AppData\Local\Temp\ccLepBqo.s 			page 138


 6329      56455249 
 6330              	.LASF221:
 6331 02b0 5057525F 		.ascii	"PWR_LVD_CTL\000"
 6331      4C56445F 
 6331      43544C00 
 6332              	.LASF200:
 6333 02bc 52544F43 		.ascii	"RTOC2_SECOND_USER_APP_ADDR\000"
 6333      325F5345 
 6333      434F4E44 
 6333      5F555345 
 6333      525F4150 
 6334              	.LASF336:
 6335 02d7 64775374 		.ascii	"dwStatusChIdxPos\000"
 6335      61747573 
 6335      43684964 
 6335      78506F73 
 6335      00
 6336              	.LASF108:
 6337 02e8 4558545F 		.ascii	"EXT_MS1_BUFF_CTL\000"
 6337      4D53315F 
 6337      42554646 
 6337      5F43544C 
 6337      00
 6338              	.LASF468:
 6339 02f9 43795F53 		.ascii	"Cy_SysLib_ClearFlashCacheAndBuffer\000"
 6339      79734C69 
 6339      625F436C 
 6339      65617246 
 6339      6C617368 
 6340              	.LASF139:
 6341 031c 5354414E 		.ascii	"STANDARD_MPU_STRUCT\000"
 6341      44415244 
 6341      5F4D5055 
 6341      5F535452 
 6341      55435400 
 6342              	.LASF273:
 6343 0330 5254435F 		.ascii	"RTC_DATE\000"
 6343      44415445 
 6343      00
 6344              	.LASF395:
 6345 0339 43595F53 		.ascii	"CY_SYSLIB_UNKNOWN\000"
 6345      59534C49 
 6345      425F554E 
 6345      4B4E4F57 
 6345      4E00
 6346              	.LASF2:
 6347 034b 5F5F7569 		.ascii	"__uint8_t\000"
 6347      6E74385F 
 6347      7400
 6348              	.LASF134:
 6349 0355 44455649 		.ascii	"DEVICE_UID\000"
 6349      43455F55 
 6349      494400
 6350              	.LASF495:
 6351 0360 72657375 		.ascii	"result\000"
 6351      6C7400
 6352              	.LASF445:
ARM GAS  C:\Users\stijn\AppData\Local\Temp\ccLepBqo.s 			page 139


 6353 0367 73686373 		.ascii	"shcsrReg\000"
 6353      72526567 
 6353      00
 6354              	.LASF375:
 6355 0370 41495243 		.ascii	"AIRCR\000"
 6355      5200
 6356              	.LASF58:
 6357 0376 464D5F4D 		.ascii	"FM_MEM_DATA\000"
 6357      454D5F44 
 6357      41544100 
 6358              	.LASF37:
 6359 0382 41434C4B 		.ascii	"ACLK_CTL\000"
 6359      5F43544C 
 6359      00
 6360              	.LASF49:
 6361 038b 5245445F 		.ascii	"RED_CTL01\000"
 6361      43544C30 
 6361      3100
 6362              	.LASF74:
 6363 0395 434D305F 		.ascii	"CM0_CA_CMD\000"
 6363      43415F43 
 6363      4D4400
 6364              	.LASF8:
 6365 03a0 6C6F6E67 		.ascii	"long int\000"
 6365      20696E74 
 6365      00
 6366              	.LASF260:
 6367 03a9 434C4B5F 		.ascii	"CLK_TRIM_CCO_CTL\000"
 6367      5452494D 
 6367      5F43434F 
 6367      5F43544C 
 6367      00
 6368              	.LASF303:
 6369 03ba 70726F74 		.ascii	"protVersion\000"
 6369      56657273 
 6369      696F6E00 
 6370              	.LASF372:
 6371 03c6 43505549 		.ascii	"CPUID\000"
 6371      4400
 6372              	.LASF181:
 6373 03cc 544F4332 		.ascii	"TOC2_OBJECT_SIZE\000"
 6373      5F4F424A 
 6373      4543545F 
 6373      53495A45 
 6373      00
 6374              	.LASF123:
 6375 03dd 4449455F 		.ascii	"DIE_MONTH\000"
 6375      4D4F4E54 
 6375      4800
 6376              	.LASF346:
 6377 03e7 70657269 		.ascii	"periDiv8CtlOffset\000"
 6377      44697638 
 6377      43746C4F 
 6377      66667365 
 6377      7400
 6378              	.LASF341:
 6379 03f9 70657269 		.ascii	"periTrGrSize\000"
ARM GAS  C:\Users\stijn\AppData\Local\Temp\ccLepBqo.s 			page 140


 6379      54724772 
 6379      53697A65 
 6379      00
 6380              	.LASF114:
 6381 0406 53494C49 		.ascii	"SILICON_ID\000"
 6381      434F4E5F 
 6381      494400
 6382              	.LASF32:
 6383 0411 54455354 		.ascii	"TEST_CTL\000"
 6383      5F43544C 
 6383      00
 6384              	.LASF394:
 6385 041a 43595F53 		.ascii	"CY_SYSLIB_INVALID_STATE\000"
 6385      59534C49 
 6385      425F494E 
 6385      56414C49 
 6385      445F5354 
 6386              	.LASF67:
 6387 0432 42495354 		.ascii	"BIST_DATA_ACT\000"
 6387      5F444154 
 6387      415F4143 
 6387      5400
 6388              	.LASF446:
 6389 0440 73686373 		.ascii	"shcsrBits\000"
 6389      72426974 
 6389      7300
 6390              	.LASF477:
 6391 044a 43795F53 		.ascii	"Cy_SysLib_SetWaitStates\000"
 6391      79734C69 
 6391      625F5365 
 6391      74576169 
 6391      74537461 
 6392              	.LASF172:
 6393 0462 544F4331 		.ascii	"TOC1_CRC_ADDR\000"
 6393      5F435243 
 6393      5F414444 
 6393      5200
 6394              	.LASF252:
 6395 0470 53525353 		.ascii	"SRSS_INTR_SET\000"
 6395      5F494E54 
 6395      525F5345 
 6395      5400
 6396              	.LASF177:
 6397 047e 52544F43 		.ascii	"RTOC1_UNIQUE_ID_ADDR\000"
 6397      315F554E 
 6397      49515545 
 6397      5F49445F 
 6397      41444452 
 6398              	.LASF155:
 6399 0493 464C4153 		.ascii	"FLASH_BOOT_OBJECT_SIZE\000"
 6399      485F424F 
 6399      4F545F4F 
 6399      424A4543 
 6399      545F5349 
 6400              	.LASF373:
 6401 04aa 49435352 		.ascii	"ICSR\000"
 6401      00
ARM GAS  C:\Users\stijn\AppData\Local\Temp\ccLepBqo.s 			page 141


 6402              	.LASF314:
 6403 04af 70657269 		.ascii	"periClockNr\000"
 6403      436C6F63 
 6403      6B4E7200 
 6404              	.LASF0:
 6405 04bb 7369676E 		.ascii	"signed char\000"
 6405      65642063 
 6405      68617200 
 6406              	.LASF15:
 6407 04c7 75696E74 		.ascii	"uint8_t\000"
 6407      385F7400 
 6408              	.LASF189:
 6409 04cf 544F4332 		.ascii	"TOC2_SHASH_OBJECTS\000"
 6409      5F534841 
 6409      53485F4F 
 6409      424A4543 
 6409      545300
 6410              	.LASF470:
 6411 04e2 43795F53 		.ascii	"Cy_SysLib_GetUniqueId\000"
 6411      79734C69 
 6411      625F4765 
 6411      74556E69 
 6411      71756549 
 6412              	.LASF389:
 6413 04f8 53525353 		.ascii	"SRSS_Type\000"
 6413      5F547970 
 6413      6500
 6414              	.LASF496:
 6415 0502 43795F53 		.ascii	"Cy_SysLib_ResetBackupDomain\000"
 6415      79734C69 
 6415      625F5265 
 6415      73657442 
 6415      61636B75 
 6416              	.LASF392:
 6417 051e 43595F53 		.ascii	"CY_SYSLIB_BAD_PARAM\000"
 6417      59534C49 
 6417      425F4241 
 6417      445F5041 
 6417      52414D00 
 6418              	.LASF179:
 6419 0532 52544F43 		.ascii	"RTOC1_SYSCALL_TABLE_ADDR\000"
 6419      315F5359 
 6419      5343414C 
 6419      4C5F5441 
 6419      424C455F 
 6420              	.LASF344:
 6421 054b 70657269 		.ascii	"periDivCmdPaDivSelPos\000"
 6421      44697643 
 6421      6D645061 
 6421      44697653 
 6421      656C506F 
 6422              	.LASF27:
 6423 0561 47454F4D 		.ascii	"GEOMETRY_SUPERVISORY\000"
 6423      45545259 
 6423      5F535550 
 6423      45525649 
 6423      534F5259 
ARM GAS  C:\Users\stijn\AppData\Local\Temp\ccLepBqo.s 			page 142


 6424              	.LASF149:
 6425 0576 43505553 		.ascii	"CPUSS_TRIM_ROM_CTL_LP\000"
 6425      535F5452 
 6425      494D5F52 
 6425      4F4D5F43 
 6425      544C5F4C 
 6426              	.LASF244:
 6427 058c 434C4B5F 		.ascii	"CLK_FLL_CONFIG\000"
 6427      464C4C5F 
 6427      434F4E46 
 6427      494700
 6428              	.LASF365:
 6429 059b 63707573 		.ascii	"cpussRomCtl\000"
 6429      73526F6D 
 6429      43746C00 
 6430              	.LASF65:
 6431 05a7 42495354 		.ascii	"BIST_ADDR_START\000"
 6431      5F414444 
 6431      525F5354 
 6431      41525400 
 6432              	.LASF44:
 6433 05b7 43414C5F 		.ascii	"CAL_CTL1\000"
 6433      43544C31 
 6433      00
 6434              	.LASF45:
 6435 05c0 43414C5F 		.ascii	"CAL_CTL2\000"
 6435      43544C32 
 6435      00
 6436              	.LASF46:
 6437 05c9 43414C5F 		.ascii	"CAL_CTL3\000"
 6437      43544C33 
 6437      00
 6438              	.LASF282:
 6439 05d2 42524547 		.ascii	"BREG\000"
 6439      00
 6440              	.LASF280:
 6441 05d7 504D4943 		.ascii	"PMIC_CTL\000"
 6441      5F43544C 
 6441      00
 6442              	.LASF286:
 6443 05e0 666C6173 		.ascii	"flashcBase\000"
 6443      68634261 
 6443      736500
 6444              	.LASF385:
 6445 05eb 52455345 		.ascii	"RESERVED0\000"
 6445      52564544 
 6445      3000
 6446              	.LASF54:
 6447 05f5 52455345 		.ascii	"RESERVED1\000"
 6447      52564544 
 6447      3100
 6448              	.LASF186:
 6449 05ff 544F4332 		.ascii	"TOC2_FIRST_USER_APP_FORMAT\000"
 6449      5F464952 
 6449      53545F55 
 6449      5345525F 
 6449      4150505F 
ARM GAS  C:\Users\stijn\AppData\Local\Temp\ccLepBqo.s 			page 143


 6450              	.LASF469:
 6451 061a 43795F53 		.ascii	"Cy_SysLib_ClearResetReason\000"
 6451      79734C69 
 6451      625F436C 
 6451      65617252 
 6451      65736574 
 6452              	.LASF83:
 6453 0635 52455345 		.ascii	"RESERVED4\000"
 6453      52564544 
 6453      3400
 6454              	.LASF87:
 6455 063f 52455345 		.ascii	"RESERVED5\000"
 6455      52564544 
 6455      3500
 6456              	.LASF89:
 6457 0649 52455345 		.ascii	"RESERVED6\000"
 6457      52564544 
 6457      3600
 6458              	.LASF91:
 6459 0653 52455345 		.ascii	"RESERVED7\000"
 6459      52564544 
 6459      3700
 6460              	.LASF93:
 6461 065d 52455345 		.ascii	"RESERVED8\000"
 6461      52564544 
 6461      3800
 6462              	.LASF95:
 6463 0667 52455345 		.ascii	"RESERVED9\000"
 6463      52564544 
 6463      3900
 6464              	.LASF416:
 6465 0671 6E6F4350 		.ascii	"noCP\000"
 6465      00
 6466              	.LASF23:
 6467 0676 464D5F43 		.ascii	"FM_CTL\000"
 6467      544C00
 6468              	.LASF188:
 6469 067d 544F4332 		.ascii	"TOC2_SECOND_USER_APP_FORMAT\000"
 6469      5F534543 
 6469      4F4E445F 
 6469      55534552 
 6469      5F415050 
 6470              	.LASF194:
 6471 0699 52544F43 		.ascii	"RTOC2_OBJECT_SIZE\000"
 6471      325F4F42 
 6471      4A454354 
 6471      5F53495A 
 6471      4500
 6472              	.LASF360:
 6473 06ab 63707573 		.ascii	"cpussTrimRamCtlOffset\000"
 6473      73547269 
 6473      6D52616D 
 6473      43746C4F 
 6473      66667365 
 6474              	.LASF427:
 6475 06c1 62757346 		.ascii	"busFaultAct\000"
 6475      61756C74 
ARM GAS  C:\Users\stijn\AppData\Local\Temp\ccLepBqo.s 			page 144


 6475      41637400 
 6476              	.LASF424:
 6477 06cd 64656275 		.ascii	"debugEvt\000"
 6477      67457674 
 6477      00
 6478              	.LASF265:
 6479 06d6 434C4B5F 		.ascii	"CLK_TRIM_ECO_CTL\000"
 6479      5452494D 
 6479      5F45434F 
 6479      5F43544C 
 6479      00
 6480              	.LASF482:
 6481 06e7 5F426F6F 		.ascii	"_Bool\000"
 6481      6C00
 6482              	.LASF219:
 6483 06ed 5057525F 		.ascii	"PWR_CTL\000"
 6483      43544C00 
 6484              	.LASF292:
 6485 06f5 70617373 		.ascii	"passBase\000"
 6485      42617365 
 6485      00
 6486              	.LASF361:
 6487 06fe 63707573 		.ascii	"cpussTrimRomCtlOffset\000"
 6487      73547269 
 6487      6D526F6D 
 6487      43746C4F 
 6487      66667365 
 6488              	.LASF461:
 6489 0714 6D696372 		.ascii	"microseconds\000"
 6489      6F736563 
 6489      6F6E6473 
 6489      00
 6490              	.LASF56:
 6491 0721 52455345 		.ascii	"RESERVED2\000"
 6491      52564544 
 6491      3200
 6492              	.LASF78:
 6493 072b 52455345 		.ascii	"RESERVED3\000"
 6493      52564544 
 6493      3300
 6494              	.LASF211:
 6495 0735 4D435744 		.ascii	"MCWDT_CONFIG\000"
 6495      545F434F 
 6495      4E464947 
 6495      00
 6496              	.LASF455:
 6497 0742 63686172 		.ascii	"char\000"
 6497      00
 6498              	.LASF210:
 6499 0747 4D435744 		.ascii	"MCWDT_MATCH\000"
 6499      545F4D41 
 6499      54434800 
 6500              	.LASF387:
 6501 0753 5343425F 		.ascii	"SCB_Type\000"
 6501      54797065 
 6501      00
 6502              	.LASF270:
ARM GAS  C:\Users\stijn\AppData\Local\Temp\ccLepBqo.s 			page 145


 6503 075c 5254435F 		.ascii	"RTC_RW\000"
 6503      525700
 6504              	.LASF113:
 6505 0763 53495F52 		.ascii	"SI_REVISION_ID\000"
 6505      45564953 
 6505      494F4E5F 
 6505      494400
 6506              	.LASF51:
 6507 0772 5245445F 		.ascii	"RED_CTL45\000"
 6507      43544C34 
 6507      3500
 6508              	.LASF463:
 6509 077c 43795F53 		.ascii	"Cy_SysLib_AssertFailed\000"
 6509      79734C69 
 6509      625F4173 
 6509      73657274 
 6509      4661696C 
 6510              	.LASF379:
 6511 0793 44465352 		.ascii	"DFSR\000"
 6511      00
 6512              	.LASF214:
 6513 0798 4D435744 		.ascii	"MCWDT_INTR_SET\000"
 6513      545F494E 
 6513      54525F53 
 6513      455400
 6514              	.LASF485:
 6515 07a7 63795F64 		.ascii	"cy_delayFreqKhz\000"
 6515      656C6179 
 6515      46726571 
 6515      4B687A00 
 6516              	.LASF100:
 6517 07b7 4441505F 		.ascii	"DAP_BUFF_CTL\000"
 6517      42554646 
 6517      5F43544C 
 6517      00
 6518              	.LASF94:
 6519 07c4 4457305F 		.ascii	"DW0_BUFF_CMD\000"
 6519      42554646 
 6519      5F434D44 
 6519      00
 6520              	.LASF5:
 6521 07d1 5F5F7569 		.ascii	"__uint16_t\000"
 6521      6E743136 
 6521      5F7400
 6522              	.LASF486:
 6523 07dc 63795F64 		.ascii	"cy_delayFreqMhz\000"
 6523      656C6179 
 6523      46726571 
 6523      4D687A00 
 6524              	.LASF104:
 6525 07ec 4558545F 		.ascii	"EXT_MS0_BUFF_CTL\000"
 6525      4D53305F 
 6525      42554646 
 6525      5F43544C 
 6525      00
 6526              	.LASF480:
 6527 07fd 77616974 		.ascii	"waitStates\000"
ARM GAS  C:\Users\stijn\AppData\Local\Temp\ccLepBqo.s 			page 146


 6527      53746174 
 6527      657300
 6528              	.LASF13:
 6529 0808 6C6F6E67 		.ascii	"long long unsigned int\000"
 6529      206C6F6E 
 6529      6720756E 
 6529      7369676E 
 6529      65642069 
 6530              	.LASF408:
 6531 081f 756E7374 		.ascii	"unstkErr\000"
 6531      6B457272 
 6531      00
 6532              	.LASF175:
 6533 0828 52544F43 		.ascii	"RTOC1_FHASH_OBJECTS\000"
 6533      315F4648 
 6533      4153485F 
 6533      4F424A45 
 6533      43545300 
 6534              	.LASF378:
 6535 083c 48465352 		.ascii	"HFSR\000"
 6535      00
 6536              	.LASF266:
 6537 0841 434C4B5F 		.ascii	"CLK_TRIM_PILO_CTL\000"
 6537      5452494D 
 6537      5F50494C 
 6537      4F5F4354 
 6537      4C00
 6538              	.LASF415:
 6539 0853 696E7650 		.ascii	"invPC\000"
 6539      4300
 6540              	.LASF205:
 6541 0859 52544F43 		.ascii	"RTOC2_FLAGS\000"
 6541      325F464C 
 6541      41475300 
 6542              	.LASF47:
 6543 0865 424F4F4B 		.ascii	"BOOKMARK\000"
 6543      4D41524B 
 6543      00
 6544              	.LASF232:
 6545 086e 434C4B5F 		.ascii	"CLK_ROOT_SELECT\000"
 6545      524F4F54 
 6545      5F53454C 
 6545      45435400 
 6546              	.LASF275:
 6547 087e 414C4D31 		.ascii	"ALM1_DATE\000"
 6547      5F444154 
 6547      4500
 6548              	.LASF339:
 6549 0888 70657269 		.ascii	"periTrCmdGrSelMsk\000"
 6549      5472436D 
 6549      64477253 
 6549      656C4D73 
 6549      6B00
 6550              	.LASF418:
 6551 089a 756E616C 		.ascii	"unaligned\000"
 6551      69676E65 
 6551      6400
ARM GAS  C:\Users\stijn\AppData\Local\Temp\ccLepBqo.s 			page 147


 6552              	.LASF216:
 6553 08a4 4D435744 		.ascii	"MCWDT_INTR_MASKED\000"
 6553      545F494E 
 6553      54525F4D 
 6553      41534B45 
 6553      4400
 6554              	.LASF288:
 6555 08b6 75646242 		.ascii	"udbBase\000"
 6555      61736500 
 6556              	.LASF355:
 6557 08be 63707573 		.ascii	"cpussCm0ClockCtlOffset\000"
 6557      73436D30 
 6557      436C6F63 
 6557      6B43746C 
 6557      4F666673 
 6558              	.LASF130:
 6559 08d5 424C455F 		.ascii	"BLE_DEVICE_ADDRESS\000"
 6559      44455649 
 6559      43455F41 
 6559      44445245 
 6559      535300
 6560              	.LASF340:
 6561 08e8 70657269 		.ascii	"periTrGrOffset\000"
 6561      54724772 
 6561      4F666673 
 6561      657400
 6562              	.LASF308:
 6563 08f7 63707573 		.ascii	"cpussIpc0Irq\000"
 6563      73497063 
 6563      30497271 
 6563      00
 6564              	.LASF96:
 6565 0904 4457315F 		.ascii	"DW1_BUFF_CTL\000"
 6565      42554646 
 6565      5F43544C 
 6565      00
 6566              	.LASF464:
 6567 0911 66696C65 		.ascii	"file\000"
 6567      00
 6568              	.LASF370:
 6569 0916 6970634C 		.ascii	"ipcLockStatusOffset\000"
 6569      6F636B53 
 6569      74617475 
 6569      734F6666 
 6569      73657400 
 6570              	.LASF231:
 6571 092a 434C4B5F 		.ascii	"CLK_PATH_SELECT\000"
 6571      50415448 
 6571      5F53454C 
 6571      45435400 
 6572              	.LASF187:
 6573 093a 544F4332 		.ascii	"TOC2_SECOND_USER_APP_ADDR\000"
 6573      5F534543 
 6573      4F4E445F 
 6573      55534552 
 6573      5F415050 
 6574              	.LASF52:
ARM GAS  C:\Users\stijn\AppData\Local\Temp\ccLepBqo.s 			page 148


 6575 0954 5245445F 		.ascii	"RED_CTL67\000"
 6575      43544C36 
 6575      3700
 6576              	.LASF376:
 6577 095e 53484353 		.ascii	"SHCSR\000"
 6577      5200
 6578              	.LASF126:
 6579 0964 5341525F 		.ascii	"SAR_TEMP_OFFSET\000"
 6579      54454D50 
 6579      5F4F4646 
 6579      53455400 
 6580              	.LASF239:
 6581 0974 434C4B5F 		.ascii	"CLK_CAL_CNT1\000"
 6581      43414C5F 
 6581      434E5431 
 6581      00
 6582              	.LASF240:
 6583 0981 434C4B5F 		.ascii	"CLK_CAL_CNT2\000"
 6583      43414C5F 
 6583      434E5432 
 6583      00
 6584              	.LASF206:
 6585 098e 52544F43 		.ascii	"RTOC2_CRC_ADDR\000"
 6585      325F4352 
 6585      435F4144 
 6585      445200
 6586              	.LASF213:
 6587 099d 4D435744 		.ascii	"MCWDT_INTR\000"
 6587      545F494E 
 6587      545200
 6588              	.LASF472:
 6589 09a8 756E6971 		.ascii	"uniqueIdHi\000"
 6589      75654964 
 6589      486900
 6590              	.LASF402:
 6591 09b3 6D6C7370 		.ascii	"mlspErr\000"
 6591      45727200 
 6592              	.LASF412:
 6593 09bb 62666172 		.ascii	"bfarValid\000"
 6593      56616C69 
 6593      6400
 6594              	.LASF48:
 6595 09c5 52455345 		.ascii	"RESERVED\000"
 6595      52564544 
 6595      00
 6596              	.LASF451:
 6597 09ce 62666172 		.ascii	"bfar\000"
 6597      00
 6598              	.LASF359:
 6599 09d3 63707573 		.ascii	"cpussCm4PwrCtlOffset\000"
 6599      73436D34 
 6599      50777243 
 6599      746C4F66 
 6599      66736574 
 6600              	.LASF62:
 6601 09e8 464C4153 		.ascii	"FLASH_CMD\000"
 6601      485F434D 
ARM GAS  C:\Users\stijn\AppData\Local\Temp\ccLepBqo.s 			page 149


 6601      4400
 6602              	.LASF124:
 6603 09f2 4449455F 		.ascii	"DIE_YEAR\000"
 6603      59454152 
 6603      00
 6604              	.LASF494:
 6605 09fb 5F5F6765 		.ascii	"__get_FPSCR\000"
 6605      745F4650 
 6605      53435200 
 6606              	.LASF331:
 6607 0a07 666C6173 		.ascii	"flashCtlMainWs4Freq\000"
 6607      6843746C 
 6607      4D61696E 
 6607      57733446 
 6607      72657100 
 6608              	.LASF434:
 6609 0a1b 6D656D46 		.ascii	"memFaultPended\000"
 6609      61756C74 
 6609      50656E64 
 6609      656400
 6610              	.LASF115:
 6611 0a2a 46414D49 		.ascii	"FAMILY_ID\000"
 6611      4C595F49 
 6611      4400
 6612              	.LASF59:
 6613 0a34 464C4153 		.ascii	"FLASHC_FM_CTL_V1_Type\000"
 6613      48435F46 
 6613      4D5F4354 
 6613      4C5F5631 
 6613      5F547970 
 6614              	.LASF311:
 6615 0a4a 73727373 		.ascii	"srssNumClkpath\000"
 6615      4E756D43 
 6615      6C6B7061 
 6615      746800
 6616              	.LASF390:
 6617 0a59 4241434B 		.ascii	"BACKUP_Type\000"
 6617      55505F54 
 6617      79706500 
 6618              	.LASF71:
 6619 0a65 434D305F 		.ascii	"CM0_CA_CTL0\000"
 6619      43415F43 
 6619      544C3000 
 6620              	.LASF72:
 6621 0a71 434D305F 		.ascii	"CM0_CA_CTL1\000"
 6621      43415F43 
 6621      544C3100 
 6622              	.LASF310:
 6623 0a7d 63707573 		.ascii	"cpussNotConnectedIrq\000"
 6623      734E6F74 
 6623      436F6E6E 
 6623      65637465 
 6623      64497271 
 6624              	.LASF449:
 6625 0a92 73686373 		.ascii	"shcsr\000"
 6625      7200
 6626              	.LASF276:
ARM GAS  C:\Users\stijn\AppData\Local\Temp\ccLepBqo.s 			page 150


 6627 0a98 414C4D32 		.ascii	"ALM2_TIME\000"
 6627      5F54494D 
 6627      4500
 6628              	.LASF352:
 6629 0aa2 6770696F 		.ascii	"gpioPrtCfgInOffset\000"
 6629      50727443 
 6629      6667496E 
 6629      4F666673 
 6629      657400
 6630              	.LASF287:
 6631 0ab5 70657269 		.ascii	"periBase\000"
 6631      42617365 
 6631      00
 6632              	.LASF220:
 6633 0abe 5057525F 		.ascii	"PWR_HIBERNATE\000"
 6633      48494245 
 6633      524E4154 
 6633      4500
 6634              	.LASF178:
 6635 0acc 52544F43 		.ascii	"RTOC1_FB_OBJECT_ADDR\000"
 6635      315F4642 
 6635      5F4F424A 
 6635      4543545F 
 6635      41444452 
 6636              	.LASF257:
 6637 0ae1 5245535F 		.ascii	"RES_CAUSE2\000"
 6637      43415553 
 6637      453200
 6638              	.LASF271:
 6639 0aec 43414C5F 		.ascii	"CAL_CTL\000"
 6639      43544C00 
 6640              	.LASF349:
 6641 0af4 70657269 		.ascii	"periDiv24_5CtlOffset\000"
 6641      44697632 
 6641      345F3543 
 6641      746C4F66 
 6641      66736574 
 6642              	.LASF207:
 6643 0b09 53464C41 		.ascii	"SFLASH_V1_Type\000"
 6643      53485F56 
 6643      315F5479 
 6643      706500
 6644              	.LASF438:
 6645 0b18 62757346 		.ascii	"busFaultEna\000"
 6645      61756C74 
 6645      456E6100 
 6646              	.LASF128:
 6647 0b24 4C444F5F 		.ascii	"LDO_0P9V_TRIM\000"
 6647      30503956 
 6647      5F545249 
 6647      4D00
 6648              	.LASF233:
 6649 0b32 434C4B5F 		.ascii	"CLK_SELECT\000"
 6649      53454C45 
 6649      435400
 6650              	.LASF10:
 6651 0b3d 6C6F6E67 		.ascii	"long unsigned int\000"
ARM GAS  C:\Users\stijn\AppData\Local\Temp\ccLepBqo.s 			page 151


 6651      20756E73 
 6651      69676E65 
 6651      6420696E 
 6651      7400
 6652              	.LASF453:
 6653 0b4f 63795F73 		.ascii	"cy_stc_fault_frame_t\000"
 6653      74635F66 
 6653      61756C74 
 6653      5F667261 
 6653      6D655F74 
 6654              	.LASF9:
 6655 0b64 5F5F7569 		.ascii	"__uint32_t\000"
 6655      6E743332 
 6655      5F7400
 6656              	.LASF433:
 6657 0b6f 75736746 		.ascii	"usgFaultPended\000"
 6657      61756C74 
 6657      50656E64 
 6657      656400
 6658              	.LASF435:
 6659 0b7e 62757346 		.ascii	"busFaultPended\000"
 6659      61756C74 
 6659      50656E64 
 6659      656400
 6660              	.LASF317:
 6661 0b8d 65704D6F 		.ascii	"epMonitorNr\000"
 6661      6E69746F 
 6661      724E7200 
 6662              	.LASF368:
 6663 0b99 63707573 		.ascii	"cpussRam2Ctl0\000"
 6663      7352616D 
 6663      3243746C 
 6663      3000
 6664              	.LASF279:
 6665 0ba7 5449434B 		.ascii	"TICKS\000"
 6665      5300
 6666              	.LASF295:
 6667 0bad 63707573 		.ascii	"cpussVersion\000"
 6667      73566572 
 6667      73696F6E 
 6667      00
 6668              	.LASF465:
 6669 0bba 6C696E65 		.ascii	"line\000"
 6669      00
 6670              	.LASF321:
 6671 0bbf 63727970 		.ascii	"cryptoMemSize\000"
 6671      746F4D65 
 6671      6D53697A 
 6671      6500
 6672              	.LASF274:
 6673 0bcd 414C4D31 		.ascii	"ALM1_TIME\000"
 6673      5F54494D 
 6673      4500
 6674              	.LASF309:
 6675 0bd7 63707573 		.ascii	"cpussFmIrq\000"
 6675      73466D49 
 6675      727100
ARM GAS  C:\Users\stijn\AppData\Local\Temp\ccLepBqo.s 			page 152


 6676              	.LASF117:
 6677 0be2 4449455F 		.ascii	"DIE_WAFER\000"
 6677      57414645 
 6677      5200
 6678              	.LASF33:
 6679 0bec 57414954 		.ascii	"WAIT_CTL\000"
 6679      5F43544C 
 6679      00
 6680              	.LASF333:
 6681 0bf5 64774368 		.ascii	"dwChSize\000"
 6681      53697A65 
 6681      00
 6682              	.LASF245:
 6683 0bfe 434C4B5F 		.ascii	"CLK_FLL_CONFIG2\000"
 6683      464C4C5F 
 6683      434F4E46 
 6683      49473200 
 6684              	.LASF259:
 6685 0c0e 5057525F 		.ascii	"PWR_TRIM_BODOVP_CTL\000"
 6685      5452494D 
 6685      5F424F44 
 6685      4F56505F 
 6685      43544C00 
 6686              	.LASF247:
 6687 0c22 434C4B5F 		.ascii	"CLK_FLL_CONFIG4\000"
 6687      464C4C5F 
 6687      434F4E46 
 6687      49473400 
 6688              	.LASF283:
 6689 0c32 5452494D 		.ascii	"TRIM\000"
 6689      00
 6690              	.LASF38:
 6691 0c37 494E5452 		.ascii	"INTR\000"
 6691      00
 6692              	.LASF284:
 6693 0c3c 4241434B 		.ascii	"BACKUP_V1_Type\000"
 6693      55505F56 
 6693      315F5479 
 6693      706500
 6694              	.LASF447:
 6695 0c4b 63667372 		.ascii	"cfsr\000"
 6695      00
 6696              	.LASF441:
 6697 0c50 63667372 		.ascii	"cfsrReg\000"
 6697      52656700 
 6698              	.LASF315:
 6699 0c58 736D6966 		.ascii	"smifDeviceNr\000"
 6699      44657669 
 6699      63654E72 
 6699      00
 6700              	.LASF423:
 6701 0c65 666F7263 		.ascii	"forced\000"
 6701      656400
 6702              	.LASF225:
 6703 0c6c 5057525F 		.ascii	"PWR_HIB_DATA\000"
 6703      4849425F 
 6703      44415441 
ARM GAS  C:\Users\stijn\AppData\Local\Temp\ccLepBqo.s 			page 153


 6703      00
 6704              	.LASF162:
 6705 0c79 5055424C 		.ascii	"PUBLIC_KEY\000"
 6705      49435F4B 
 6705      455900
 6706              	.LASF347:
 6707 0c84 70657269 		.ascii	"periDiv16CtlOffset\000"
 6707      44697631 
 6707      3643746C 
 6707      4F666673 
 6707      657400
 6708              	.LASF362:
 6709 0c97 63707573 		.ascii	"cpussSysTickCtlOffset\000"
 6709      73537973 
 6709      5469636B 
 6709      43746C4F 
 6709      66667365 
 6710              	.LASF26:
 6711 0cad 47454F4D 		.ascii	"GEOMETRY\000"
 6711      45545259 
 6711      00
 6712              	.LASF151:
 6713 0cb6 43505553 		.ascii	"CPUSS_TRIM_ROM_CTL_HALF_ULP\000"
 6713      535F5452 
 6713      494D5F52 
 6713      4F4D5F43 
 6713      544C5F48 
 6714              	.LASF343:
 6715 0cd2 70657269 		.ascii	"periDivCmdTypeSelPos\000"
 6715      44697643 
 6715      6D645479 
 6715      70655365 
 6715      6C506F73 
 6716              	.LASF278:
 6717 0ce7 4F534343 		.ascii	"OSCCNT\000"
 6717      4E5400
 6718              	.LASF285:
 6719 0cee 63707573 		.ascii	"cpussBase\000"
 6719      73426173 
 6719      6500
 6720              	.LASF473:
 6721 0cf8 756E6971 		.ascii	"uniqueIdLo\000"
 6721      75654964 
 6721      4C6F00
 6722              	.LASF190:
 6723 0d03 544F4332 		.ascii	"TOC2_SIGNATURE_VERIF_KEY\000"
 6723      5F534947 
 6723      4E415455 
 6723      52455F56 
 6723      45524946 
 6724              	.LASF289:
 6725 0d1c 70726F74 		.ascii	"protBase\000"
 6725      42617365 
 6725      00
 6726              	.LASF301:
 6727 0d25 69706356 		.ascii	"ipcVersion\000"
 6727      65727369 
ARM GAS  C:\Users\stijn\AppData\Local\Temp\ccLepBqo.s 			page 154


 6727      6F6E00
 6728              	.LASF131:
 6729 0d30 55534552 		.ascii	"USER_FREE_ROW1\000"
 6729      5F465245 
 6729      455F524F 
 6729      573100
 6730              	.LASF132:
 6731 0d3f 55534552 		.ascii	"USER_FREE_ROW2\000"
 6731      5F465245 
 6731      455F524F 
 6731      573200
 6732              	.LASF133:
 6733 0d4e 55534552 		.ascii	"USER_FREE_ROW3\000"
 6733      5F465245 
 6733      455F524F 
 6733      573300
 6734              	.LASF316:
 6735 0d5d 70617373 		.ascii	"passSarChannels\000"
 6735      53617243 
 6735      68616E6E 
 6735      656C7300 
 6736              	.LASF11:
 6737 0d6d 6C6F6E67 		.ascii	"long long int\000"
 6737      206C6F6E 
 6737      6720696E 
 6737      7400
 6738              	.LASF43:
 6739 0d7b 43414C5F 		.ascii	"CAL_CTL0\000"
 6739      43544C30 
 6739      00
 6740              	.LASF430:
 6741 0d84 6D6F6E69 		.ascii	"monitorAct\000"
 6741      746F7241 
 6741      637400
 6742              	.LASF217:
 6743 0d8f 4D435744 		.ascii	"MCWDT_LOCK\000"
 6743      545F4C4F 
 6743      434B00
 6744              	.LASF487:
 6745 0d9a 63795F64 		.ascii	"cy_delay32kMs\000"
 6745      656C6179 
 6745      33326B4D 
 6745      7300
 6746              	.LASF264:
 6747 0da8 5057525F 		.ascii	"PWR_TRIM_PWRSYS_CTL\000"
 6747      5452494D 
 6747      5F505752 
 6747      5359535F 
 6747      43544C00 
 6748              	.LASF371:
 6749 0dbc 63795F73 		.ascii	"cy_stc_device_t\000"
 6749      74635F64 
 6749      65766963 
 6749      655F7400 
 6750              	.LASF84:
 6751 0dcc 434D345F 		.ascii	"CM4_CA_STATUS0\000"
 6751      43415F53 
ARM GAS  C:\Users\stijn\AppData\Local\Temp\ccLepBqo.s 			page 155


 6751      54415455 
 6751      533000
 6752              	.LASF85:
 6753 0ddb 434D345F 		.ascii	"CM4_CA_STATUS1\000"
 6753      43415F53 
 6753      54415455 
 6753      533100
 6754              	.LASF86:
 6755 0dea 434D345F 		.ascii	"CM4_CA_STATUS2\000"
 6755      43415F53 
 6755      54415455 
 6755      533200
 6756              	.LASF428:
 6757 0df9 75736746 		.ascii	"usgFaultAct\000"
 6757      61756C74 
 6757      41637400 
 6758              	.LASF122:
 6759 0e05 4449455F 		.ascii	"DIE_DAY\000"
 6759      44415900 
 6760              	.LASF391:
 6761 0e0d 43595F53 		.ascii	"CY_SYSLIB_SUCCESS\000"
 6761      59534C49 
 6761      425F5355 
 6761      43434553 
 6761      5300
 6762              	.LASF457:
 6763 0e1f 646F7562 		.ascii	"double\000"
 6763      6C6500
 6764              	.LASF353:
 6765 0e26 6770696F 		.ascii	"gpioPrtCfgOutOffset\000"
 6765      50727443 
 6765      66674F75 
 6765      744F6666 
 6765      73657400 
 6766              	.LASF121:
 6767 0e3a 4449455F 		.ascii	"DIE_MINOR\000"
 6767      4D494E4F 
 6767      5200
 6768              	.LASF92:
 6769 0e44 4457305F 		.ascii	"DW0_BUFF_CTL\000"
 6769      42554646 
 6769      5F43544C 
 6769      00
 6770              	.LASF249:
 6771 0e51 434C4B5F 		.ascii	"CLK_PLL_CONFIG\000"
 6771      504C4C5F 
 6771      434F4E46 
 6771      494700
 6772              	.LASF324:
 6773 0e60 666C6173 		.ascii	"flashWriteDelay\000"
 6773      68577269 
 6773      74654465 
 6773      6C617900 
 6774              	.LASF322:
 6775 0e70 666C6173 		.ascii	"flashRwwRequired\000"
 6775      68527777 
 6775      52657175 
ARM GAS  C:\Users\stijn\AppData\Local\Temp\ccLepBqo.s 			page 156


 6775      69726564 
 6775      00
 6776              	.LASF330:
 6777 0e81 666C6173 		.ascii	"flashCtlMainWs3Freq\000"
 6777      6843746C 
 6777      4D61696E 
 6777      57733346 
 6777      72657100 
 6778              	.LASF180:
 6779 0e95 52544F43 		.ascii	"RTOC1_CRC_ADDR\000"
 6779      315F4352 
 6779      435F4144 
 6779      445200
 6780              	.LASF348:
 6781 0ea4 70657269 		.ascii	"periDiv16_5CtlOffset\000"
 6781      44697631 
 6781      365F3543 
 6781      746C4F66 
 6781      66736574 
 6782              	.LASF158:
 6783 0eb9 464C4153 		.ascii	"FLASH_BOOT_N_CORES\000"
 6783      485F424F 
 6783      4F545F4E 
 6783      5F434F52 
 6783      455300
 6784              	.LASF90:
 6785 0ecc 43525950 		.ascii	"CRYPTO_BUFF_CMD\000"
 6785      544F5F42 
 6785      5546465F 
 6785      434D4400 
 6786              	.LASF450:
 6787 0edc 6D6D6661 		.ascii	"mmfar\000"
 6787      7200
 6788              	.LASF141:
 6789 0ee2 50494C4F 		.ascii	"PILO_FREQ_STEP\000"
 6789      5F465245 
 6789      515F5354 
 6789      455000
 6790              	.LASF202:
 6791 0ef1 52544F43 		.ascii	"RTOC2_SHASH_OBJECTS\000"
 6791      325F5348 
 6791      4153485F 
 6791      4F424A45 
 6791      43545300 
 6792              	.LASF163:
 6793 0f05 424F4F54 		.ascii	"BOOT_PROT_SETTINGS\000"
 6793      5F50524F 
 6793      545F5345 
 6793      5454494E 
 6793      475300
 6794              	.LASF456:
 6795 0f18 666C6F61 		.ascii	"float\000"
 6795      7400
 6796              	.LASF138:
 6797 0f1e 5354414E 		.ascii	"STANDARD_SMPU_STRUCT_MASTER_ATTR\000"
 6797      44415244 
 6797      5F534D50 
ARM GAS  C:\Users\stijn\AppData\Local\Temp\ccLepBqo.s 			page 157


 6797      555F5354 
 6797      52554354 
 6798              	.LASF173:
 6799 0f3f 52544F43 		.ascii	"RTOC1_OBJECT_SIZE\000"
 6799      315F4F42 
 6799      4A454354 
 6799      5F53495A 
 6799      4500
 6800              	.LASF421:
 6801 0f51 63795F73 		.ascii	"cy_stc_fault_cfsr_t\000"
 6801      74635F66 
 6801      61756C74 
 6801      5F636673 
 6801      725F7400 
 6802              	.LASF304:
 6803 0f65 63707573 		.ascii	"cpussIpcNr\000"
 6803      73497063 
 6803      4E7200
 6804              	.LASF161:
 6805 0f70 464C4153 		.ascii	"FLASH_BOOT_CODE\000"
 6805      485F424F 
 6805      4F545F43 
 6805      4F444500 
 6806              	.LASF14:
 6807 0f80 756E7369 		.ascii	"unsigned int\000"
 6807      676E6564 
 6807      20696E74 
 6807      00
 6808              	.LASF209:
 6809 0f8d 4D435744 		.ascii	"MCWDT_CNTHIGH\000"
 6809      545F434E 
 6809      54484947 
 6809      4800
 6810              	.LASF248:
 6811 0f9b 434C4B5F 		.ascii	"CLK_FLL_STATUS\000"
 6811      464C4C5F 
 6811      53544154 
 6811      555300
 6812              	.LASF404:
 6813 0faa 6D6D6172 		.ascii	"mmarValid\000"
 6813      56616C69 
 6813      6400
 6814              	.LASF169:
 6815 0fb4 544F4331 		.ascii	"TOC1_FB_OBJECT_ADDR\000"
 6815      5F46425F 
 6815      4F424A45 
 6815      43545F41 
 6815      44445200 
 6816              	.LASF398:
 6817 0fc8 64616363 		.ascii	"daccViol\000"
 6817      56696F6C 
 6817      00
 6818              	.LASF298:
 6819 0fd1 666C6173 		.ascii	"flashcVersion\000"
 6819      68635665 
 6819      7273696F 
 6819      6E00
ARM GAS  C:\Users\stijn\AppData\Local\Temp\ccLepBqo.s 			page 158


 6820              	.LASF140:
 6821 0fdf 5354414E 		.ascii	"STANDARD_PPU_STRUCT\000"
 6821      44415244 
 6821      5F505055 
 6821      5F535452 
 6821      55435400 
 6822              	.LASF234:
 6823 0ff3 434C4B5F 		.ascii	"CLK_TIMER_CTL\000"
 6823      54494D45 
 6823      525F4354 
 6823      4C00
 6824              	.LASF350:
 6825 1001 6770696F 		.ascii	"gpioPrtIntrCfgOffset\000"
 6825      50727449 
 6825      6E747243 
 6825      66674F66 
 6825      66736574 
 6826              	.LASF272:
 6827 1016 5254435F 		.ascii	"RTC_TIME\000"
 6827      54494D45 
 6827      00
 6828              	.LASF367:
 6829 101f 63707573 		.ascii	"cpussRam1Ctl0\000"
 6829      7352616D 
 6829      3143746C 
 6829      3000
 6830              	.LASF137:
 6831 102d 5354414E 		.ascii	"STANDARD_SMPU_STRUCT_SLAVE_ATTR\000"
 6831      44415244 
 6831      5F534D50 
 6831      555F5354 
 6831      52554354 
 6832              	.LASF256:
 6833 104d 5245535F 		.ascii	"RES_CAUSE\000"
 6833      43415553 
 6833      4500
 6834              	.LASF253:
 6835 1057 53525353 		.ascii	"SRSS_INTR_MASK\000"
 6835      5F494E54 
 6835      525F4D41 
 6835      534B00
 6836              	.LASF182:
 6837 1066 544F4332 		.ascii	"TOC2_MAGIC_NUMBER\000"
 6837      5F4D4147 
 6837      49435F4E 
 6837      554D4245 
 6837      5200
 6838              	.LASF60:
 6839 1078 464C4153 		.ascii	"FLASH_CTL\000"
 6839      485F4354 
 6839      4C00
 6840              	.LASF148:
 6841 1082 43505553 		.ascii	"CPUSS_TRIM_RAM_CTL_ULP\000"
 6841      535F5452 
 6841      494D5F52 
 6841      414D5F43 
 6841      544C5F55 
ARM GAS  C:\Users\stijn\AppData\Local\Temp\ccLepBqo.s 			page 159


 6842              	.LASF185:
 6843 1099 544F4332 		.ascii	"TOC2_FIRST_USER_APP_ADDR\000"
 6843      5F464952 
 6843      53545F55 
 6843      5345525F 
 6843      4150505F 
 6844              	.LASF69:
 6845 10b2 42495354 		.ascii	"BIST_ADDR\000"
 6845      5F414444 
 6845      5200
 6846              	.LASF156:
 6847 10bc 464C4153 		.ascii	"FLASH_BOOT_APP_ID\000"
 6847      485F424F 
 6847      4F545F41 
 6847      50505F49 
 6847      4400
 6848              	.LASF440:
 6849 10ce 63795F73 		.ascii	"cy_stc_fault_shcsr_t\000"
 6849      74635F66 
 6849      61756C74 
 6849      5F736863 
 6849      73725F74 
 6850              	.LASF159:
 6851 10e3 464C4153 		.ascii	"FLASH_BOOT_VT_OFFSET\000"
 6851      485F424F 
 6851      4F545F56 
 6851      545F4F46 
 6851      46534554 
 6852              	.LASF478:
 6853 10f8 756C704D 		.ascii	"ulpMode\000"
 6853      6F646500 
 6854              	.LASF358:
 6855 1100 63707573 		.ascii	"cpussCm0StatusOffset\000"
 6855      73436D30 
 6855      53746174 
 6855      75734F66 
 6855      66736574 
 6856              	.LASF254:
 6857 1115 53525353 		.ascii	"SRSS_INTR_MASKED\000"
 6857      5F494E54 
 6857      525F4D41 
 6857      534B4544 
 6857      00
 6858              	.LASF135:
 6859 1126 4D415354 		.ascii	"MASTER_KEY\000"
 6859      45525F4B 
 6859      455900
 6860              	.LASF31:
 6861 1131 47454F4D 		.ascii	"GEOMETRY_GEN\000"
 6861      45545259 
 6861      5F47454E 
 6861      00
 6862              	.LASF160:
 6863 113e 464C4153 		.ascii	"FLASH_BOOT_CORE_CPUID\000"
 6863      485F424F 
 6863      4F545F43 
 6863      4F52455F 
ARM GAS  C:\Users\stijn\AppData\Local\Temp\ccLepBqo.s 			page 160


 6863      43505549 
 6864              	.LASF195:
 6865 1154 52544F43 		.ascii	"RTOC2_MAGIC_NUMBER\000"
 6865      325F4D41 
 6865      4749435F 
 6865      4E554D42 
 6865      455200
 6866              	.LASF305:
 6867 1167 63707573 		.ascii	"cpussIpcIrqNr\000"
 6867      73497063 
 6867      4972714E 
 6867      7200
 6868              	.LASF410:
 6869 1175 6C737045 		.ascii	"lspErr\000"
 6869      727200
 6870              	.LASF337:
 6871 117c 64775374 		.ascii	"dwStatusChIdxMsk\000"
 6871      61747573 
 6871      43684964 
 6871      784D736B 
 6871      00
 6872              	.LASF238:
 6873 118d 434C4B5F 		.ascii	"CLK_OUTPUT_SLOW\000"
 6873      4F555450 
 6873      55545F53 
 6873      4C4F5700 
 6874              	.LASF326:
 6875 119d 666C6173 		.ascii	"flashEraseDelay\000"
 6875      68457261 
 6875      73654465 
 6875      6C617900 
 6876              	.LASF129:
 6877 11ad 4C444F5F 		.ascii	"LDO_1P1V_TRIM\000"
 6877      31503156 
 6877      5F545249 
 6877      4D00
 6878              	.LASF246:
 6879 11bb 434C4B5F 		.ascii	"CLK_FLL_CONFIG3\000"
 6879      464C4C5F 
 6879      434F4E46 
 6879      49473300 
 6880              	.LASF241:
 6881 11cb 434C4B5F 		.ascii	"CLK_ECO_CONFIG\000"
 6881      45434F5F 
 6881      434F4E46 
 6881      494700
 6882              	.LASF21:
 6883 11da 6C6F6E67 		.ascii	"long double\000"
 6883      20646F75 
 6883      626C6500 
 6884              	.LASF34:
 6885 11e6 4D4F4E49 		.ascii	"MONITOR_STATUS\000"
 6885      544F525F 
 6885      53544154 
 6885      555300
 6886              	.LASF39:
 6887 11f5 494E5452 		.ascii	"INTR_SET\000"
ARM GAS  C:\Users\stijn\AppData\Local\Temp\ccLepBqo.s 			page 161


 6887      5F534554 
 6887      00
 6888              	.LASF157:
 6889 11fe 464C4153 		.ascii	"FLASH_BOOT_ATTRIBUTE\000"
 6889      485F424F 
 6889      4F545F41 
 6889      54545249 
 6889      42555445 
 6890              	.LASF312:
 6891 1213 73727373 		.ascii	"srssNumPll\000"
 6891      4E756D50 
 6891      6C6C00
 6892              	.LASF81:
 6893 121e 434D345F 		.ascii	"CM4_CA_CTL2\000"
 6893      43415F43 
 6893      544C3200 
 6894              	.LASF230:
 6895 122a 434C4B5F 		.ascii	"CLK_DSI_SELECT\000"
 6895      4453495F 
 6895      53454C45 
 6895      435400
 6896              	.LASF439:
 6897 1239 75736746 		.ascii	"usgFaultEna\000"
 6897      61756C74 
 6897      456E6100 
 6898              	.LASF406:
 6899 1245 70726563 		.ascii	"precisErr\000"
 6899      69734572 
 6899      7200
 6900              	.LASF364:
 6901 124f 63707573 		.ascii	"cpussCm4NmiCtlOffset\000"
 6901      73436D34 
 6901      4E6D6943 
 6901      746C4F66 
 6901      66736574 
 6902              	.LASF381:
 6903 1264 42464152 		.ascii	"BFAR\000"
 6903      00
 6904              	.LASF363:
 6905 1269 63707573 		.ascii	"cpussCm0NmiCtlOffset\000"
 6905      73436D30 
 6905      4E6D6943 
 6905      746C4F66 
 6905      66736574 
 6906              	.LASF481:
 6907 127e 66726571 		.ascii	"freqMax\000"
 6907      4D617800 
 6908              	.LASF329:
 6909 1286 666C6173 		.ascii	"flashCtlMainWs2Freq\000"
 6909      6843746C 
 6909      4D61696E 
 6909      57733246 
 6909      72657100 
 6910              	.LASF68:
 6911 129a 42495354 		.ascii	"BIST_DATA_EXP\000"
 6911      5F444154 
 6911      415F4558 
ARM GAS  C:\Users\stijn\AppData\Local\Temp\ccLepBqo.s 			page 162


 6911      5000
 6912              	.LASF454:
 6913 12a8 63686172 		.ascii	"char_t\000"
 6913      5F7400
 6914              	.LASF197:
 6915 12af 52544F43 		.ascii	"RTOC2_SMIF_CFG_STRUCT_ADDR\000"
 6915      325F534D 
 6915      49465F43 
 6915      46475F53 
 6915      54525543 
 6916              	.LASF35:
 6917 12ca 53435241 		.ascii	"SCRATCH_CTL\000"
 6917      5443485F 
 6917      43544C00 
 6918              	.LASF82:
 6919 12d6 434D345F 		.ascii	"CM4_CA_CMD\000"
 6919      43415F43 
 6919      4D4400
 6920              	.LASF12:
 6921 12e1 5F5F7569 		.ascii	"__uint64_t\000"
 6921      6E743634 
 6921      5F7400
 6922              	.LASF432:
 6923 12ec 73797354 		.ascii	"sysTickAct\000"
 6923      69636B41 
 6923      637400
 6924              	.LASF17:
 6925 12f7 75696E74 		.ascii	"uint16_t\000"
 6925      31365F74 
 6925      00
 6926              	.LASF152:
 6927 1300 43505553 		.ascii	"CPUSS_TRIM_RAM_CTL_HALF_ULP\000"
 6927      535F5452 
 6927      494D5F52 
 6927      414D5F43 
 6927      544C5F48 
 6928              	.LASF198:
 6929 131c 52544F43 		.ascii	"RTOC2_FIRST_USER_APP_ADDR\000"
 6929      325F4649 
 6929      5253545F 
 6929      55534552 
 6929      5F415050 
 6930              	.LASF307:
 6931 1336 63707573 		.ascii	"cpussFlashPaSize\000"
 6931      73466C61 
 6931      73685061 
 6931      53697A65 
 6931      00
 6932              	.LASF97:
 6933 1347 52455345 		.ascii	"RESERVED10\000"
 6933      52564544 
 6933      313000
 6934              	.LASF99:
 6935 1352 52455345 		.ascii	"RESERVED11\000"
 6935      52564544 
 6935      313100
 6936              	.LASF101:
ARM GAS  C:\Users\stijn\AppData\Local\Temp\ccLepBqo.s 			page 163


 6937 135d 52455345 		.ascii	"RESERVED12\000"
 6937      52564544 
 6937      313200
 6938              	.LASF103:
 6939 1368 52455345 		.ascii	"RESERVED13\000"
 6939      52564544 
 6939      313300
 6940              	.LASF105:
 6941 1373 52455345 		.ascii	"RESERVED14\000"
 6941      52564544 
 6941      313400
 6942              	.LASF107:
 6943 137e 52455345 		.ascii	"RESERVED15\000"
 6943      52564544 
 6943      313500
 6944              	.LASF109:
 6945 1389 52455345 		.ascii	"RESERVED16\000"
 6945      52564544 
 6945      313600
 6946              	.LASF111:
 6947 1394 52455345 		.ascii	"RESERVED17\000"
 6947      52564544 
 6947      313700
 6948              	.LASF191:
 6949 139f 52455345 		.ascii	"RESERVED18\000"
 6949      52564544 
 6949      313800
 6950              	.LASF204:
 6951 13aa 52455345 		.ascii	"RESERVED19\000"
 6951      52564544 
 6951      313900
 6952              	.LASF150:
 6953 13b5 43505553 		.ascii	"CPUSS_TRIM_RAM_CTL_LP\000"
 6953      535F5452 
 6953      494D5F52 
 6953      414D5F43 
 6953      544C5F4C 
 6954              	.LASF442:
 6955 13cb 63667372 		.ascii	"cfsrBits\000"
 6955      42697473 
 6955      00
 6956              	.LASF475:
 6957 13d4 6661756C 		.ascii	"faultStackAddr\000"
 6957      74537461 
 6957      636B4164 
 6957      647200
 6958              	.LASF223:
 6959 13e3 5057525F 		.ascii	"PWR_BUCK_CTL2\000"
 6959      4255434B 
 6959      5F43544C 
 6959      3200
 6960              	.LASF64:
 6961 13f1 42495354 		.ascii	"BIST_CMD\000"
 6961      5F434D44 
 6961      00
 6962              	.LASF462:
 6963 13fa 72656173 		.ascii	"reason\000"
ARM GAS  C:\Users\stijn\AppData\Local\Temp\ccLepBqo.s 			page 164


 6963      6F6E00
 6964              	.LASF479:
 6965 1401 636C6B48 		.ascii	"clkHfMHz\000"
 6965      664D487A 
 6965      00
 6966              	.LASF356:
 6967 140a 63707573 		.ascii	"cpussCm4ClockCtlOffset\000"
 6967      73436D34 
 6967      436C6F63 
 6967      6B43746C 
 6967      4F666673 
 6968              	.LASF258:
 6969 1421 5057525F 		.ascii	"PWR_TRIM_REF_CTL\000"
 6969      5452494D 
 6969      5F524546 
 6969      5F43544C 
 6969      00
 6970              	.LASF18:
 6971 1432 696E7433 		.ascii	"int32_t\000"
 6971      325F7400 
 6972              	.LASF79:
 6973 143a 434D345F 		.ascii	"CM4_CA_CTL0\000"
 6973      43415F43 
 6973      544C3000 
 6974              	.LASF80:
 6975 1446 434D345F 		.ascii	"CM4_CA_CTL1\000"
 6975      43415F43 
 6975      544C3100 
 6976              	.LASF306:
 6977 1452 63707573 		.ascii	"cpussDwChNr\000"
 6977      73447743 
 6977      684E7200 
 6978              	.LASF366:
 6979 145e 63707573 		.ascii	"cpussRam0Ctl0\000"
 6979      7352616D 
 6979      3043746C 
 6979      3000
 6980              	.LASF491:
 6981 146c 474E5520 		.ascii	"GNU C11 5.4.1 20160609 (release) [ARM/embedded-5-br"
 6981      43313120 
 6981      352E342E 
 6981      31203230 
 6981      31363036 
 6982 149f 616E6368 		.ascii	"anch revision 237715] -mcpu=cortex-m4 -mfloat-abi=s"
 6982      20726576 
 6982      6973696F 
 6982      6E203233 
 6982      37373135 
 6983 14d2 6F667466 		.ascii	"oftfp -mfpu=fpv4-sp-d16 -mthumb -g -O0 -ffunction-s"
 6983      70202D6D 
 6983      6670753D 
 6983      66707634 
 6983      2D73702D 
 6984 1505 65637469 		.ascii	"ections -ffat-lto-objects\000"
 6984      6F6E7320 
 6984      2D666661 
 6984      742D6C74 
ARM GAS  C:\Users\stijn\AppData\Local\Temp\ccLepBqo.s 			page 165


 6984      6F2D6F62 
 6985              	.LASF467:
 6986 151f 43795F53 		.ascii	"Cy_SysLib_GetResetReason\000"
 6986      79734C69 
 6986      625F4765 
 6986      74526573 
 6986      65745265 
 6987              	.LASF164:
 6988 1538 544F4331 		.ascii	"TOC1_OBJECT_SIZE\000"
 6988      5F4F424A 
 6988      4543545F 
 6988      53495A45 
 6988      00
 6989              	.LASF393:
 6990 1549 43595F53 		.ascii	"CY_SYSLIB_TIMEOUT\000"
 6990      59534C49 
 6990      425F5449 
 6990      4D454F55 
 6990      5400
 6991              	.LASF3:
 6992 155b 5F5F696E 		.ascii	"__int16_t\000"
 6992      7431365F 
 6992      7400
 6993              	.LASF127:
 6994 1565 4353505F 		.ascii	"CSP_PANEL_ID\000"
 6994      50414E45 
 6994      4C5F4944 
 6994      00
 6995              	.LASF281:
 6996 1572 52455345 		.ascii	"RESET\000"
 6996      5400
 6997              	.LASF154:
 6998 1578 43505553 		.ascii	"CPUSS_TRIM_RAM_CTL_HALF_LP\000"
 6998      535F5452 
 6998      494D5F52 
 6998      414D5F43 
 6998      544C5F48 
 6999              	.LASF24:
 7000 1593 53544154 		.ascii	"STATUS\000"
 7000      555300
 7001              	.LASF342:
 7002 159a 70657269 		.ascii	"periDivCmdDivSelMsk\000"
 7002      44697643 
 7002      6D644469 
 7002      7653656C 
 7002      4D736B00 
 7003              	.LASF401:
 7004 15ae 6D53746B 		.ascii	"mStkErr\000"
 7004      45727200 
 7005              	.LASF250:
 7006 15b6 434C4B5F 		.ascii	"CLK_PLL_STATUS\000"
 7006      504C4C5F 
 7006      53544154 
 7006      555300
 7007              	.LASF382:
 7008 15c5 41465352 		.ascii	"AFSR\000"
 7008      00
ARM GAS  C:\Users\stijn\AppData\Local\Temp\ccLepBqo.s 			page 166


 7009              	.LASF70:
 7010 15ca 42495354 		.ascii	"BIST_STATUS\000"
 7010      5F535441 
 7010      54555300 
 7011              	.LASF297:
 7012 15d6 64775665 		.ascii	"dwVersion\000"
 7012      7273696F 
 7012      6E00
 7013              	.LASF88:
 7014 15e0 43525950 		.ascii	"CRYPTO_BUFF_CTL\000"
 7014      544F5F42 
 7014      5546465F 
 7014      43544C00 
 7015              	.LASF291:
 7016 15f0 6770696F 		.ascii	"gpioBase\000"
 7016      42617365 
 7016      00
 7017              	.LASF377:
 7018 15f9 43465352 		.ascii	"CFSR\000"
 7018      00
 7019              	.LASF320:
 7020 15fe 70726F74 		.ascii	"protBusMasterMask\000"
 7020      4275734D 
 7020      61737465 
 7020      724D6173 
 7020      6B00
 7021              	.LASF319:
 7022 1610 73797350 		.ascii	"sysPmSimoPresent\000"
 7022      6D53696D 
 7022      6F507265 
 7022      73656E74 
 7022      00
 7023              	.LASF7:
 7024 1621 5F5F696E 		.ascii	"__int32_t\000"
 7024      7433325F 
 7024      7400
 7025              	.LASF261:
 7026 162b 434C4B5F 		.ascii	"CLK_TRIM_CCO_CTL2\000"
 7026      5452494D 
 7026      5F43434F 
 7026      5F43544C 
 7026      3200
 7027              	.LASF483:
 7028 163d 63795F64 		.ascii	"cy_device\000"
 7028      65766963 
 7028      6500
 7029              	.LASF459:
 7030 1647 43795F53 		.ascii	"Cy_SysLib_DelayUs\000"
 7030      79734C69 
 7030      625F4465 
 7030      6C617955 
 7030      7300
 7031              	.LASF227:
 7032 1659 5744545F 		.ascii	"WDT_CNT\000"
 7032      434E5400 
 7033              	.LASF75:
 7034 1661 434D305F 		.ascii	"CM0_CA_STATUS0\000"
ARM GAS  C:\Users\stijn\AppData\Local\Temp\ccLepBqo.s 			page 167


 7034      43415F53 
 7034      54415455 
 7034      533000
 7035              	.LASF76:
 7036 1670 434D305F 		.ascii	"CM0_CA_STATUS1\000"
 7036      43415F53 
 7036      54415455 
 7036      533100
 7037              	.LASF77:
 7038 167f 434D305F 		.ascii	"CM0_CA_STATUS2\000"
 7038      43415F53 
 7038      54415455 
 7038      533200
 7039              	.LASF212:
 7040 168e 4D435744 		.ascii	"MCWDT_CTL\000"
 7040      545F4354 
 7040      4C00
 7041              	.LASF236:
 7042 1698 434C4B5F 		.ascii	"CLK_IMO_CONFIG\000"
 7042      494D4F5F 
 7042      434F4E46 
 7042      494700
 7043              	.LASF490:
 7044 16a7 63795F66 		.ascii	"cy_faultFrame\000"
 7044      61756C74 
 7044      4672616D 
 7044      6500
 7045              	.LASF383:
 7046 16b5 4D4D4652 		.ascii	"MMFR\000"
 7046      00
 7047              	.LASF229:
 7048 16ba 4D435744 		.ascii	"MCWDT_STRUCT\000"
 7048      545F5354 
 7048      52554354 
 7048      00
 7049              	.LASF380:
 7050 16c7 4D4D4641 		.ascii	"MMFAR\000"
 7050      5200
 7051              	.LASF302:
 7052 16cd 70657269 		.ascii	"periVersion\000"
 7052      56657273 
 7052      696F6E00 
 7053              	.LASF25:
 7054 16d9 464D5F41 		.ascii	"FM_ADDR\000"
 7054      44445200 
 7055              	.LASF4:
 7056 16e1 73686F72 		.ascii	"short int\000"
 7056      7420696E 
 7056      7400
 7057              	.LASF20:
 7058 16eb 75696E74 		.ascii	"uint64_t\000"
 7058      36345F74 
 7058      00
 7059              	.LASF452:
 7060 16f4 66707363 		.ascii	"fpscr\000"
 7060      7200
 7061              	.LASF165:
ARM GAS  C:\Users\stijn\AppData\Local\Temp\ccLepBqo.s 			page 168


 7062 16fa 544F4331 		.ascii	"TOC1_MAGIC_NUMBER\000"
 7062      5F4D4147 
 7062      49435F4E 
 7062      554D4245 
 7062      5200
 7063              	.LASF125:
 7064 170c 5341525F 		.ascii	"SAR_TEMP_MULTIPLIER\000"
 7064      54454D50 
 7064      5F4D554C 
 7064      5449504C 
 7064      49455200 
 7065              	.LASF218:
 7066 1720 4D435744 		.ascii	"MCWDT_STRUCT_V1_Type\000"
 7066      545F5354 
 7066      52554354 
 7066      5F56315F 
 7066      54797065 
 7067              	.LASF436:
 7068 1735 73764361 		.ascii	"svCallPended\000"
 7068      6C6C5065 
 7068      6E646564 
 7068      00
 7069              	.LASF262:
 7070 1742 5057525F 		.ascii	"PWR_TRIM_LVD_CTL\000"
 7070      5452494D 
 7070      5F4C5644 
 7070      5F43544C 
 7070      00
 7071              	.LASF16:
 7072 1753 696E7431 		.ascii	"int16_t\000"
 7072      365F7400 
 7073              	.LASF384:
 7074 175b 49534152 		.ascii	"ISAR\000"
 7074      00
 7075              	.LASF489:
 7076 1760 63795F61 		.ascii	"cy_assertLine\000"
 7076      73736572 
 7076      744C696E 
 7076      6500
 7077              	.LASF136:
 7078 176e 5354414E 		.ascii	"STANDARD_SMPU_STRUCT_SLAVE_ADDR\000"
 7078      44415244 
 7078      5F534D50 
 7078      555F5354 
 7078      52554354 
 7079              	.LASF328:
 7080 178e 666C6173 		.ascii	"flashCtlMainWs1Freq\000"
 7080      6843746C 
 7080      4D61696E 
 7080      57733146 
 7080      72657100 
 7081              	.LASF57:
 7082 17a2 464D5F48 		.ascii	"FM_HV_DATA\000"
 7082      565F4441 
 7082      544100
 7083              	.LASF474:
 7084 17ad 43795F53 		.ascii	"Cy_SysLib_FaultHandler\000"
ARM GAS  C:\Users\stijn\AppData\Local\Temp\ccLepBqo.s 			page 169


 7084      79734C69 
 7084      625F4661 
 7084      756C7448 
 7084      616E646C 
 7085              	.LASF476:
 7086 17c4 43795F53 		.ascii	"Cy_SysLib_ProcessingFault\000"
 7086      79734C69 
 7086      625F5072 
 7086      6F636573 
 7086      73696E67 
 7087              	.LASF396:
 7088 17de 63795F65 		.ascii	"cy_en_syslib_status_t\000"
 7088      6E5F7379 
 7088      736C6962 
 7088      5F737461 
 7088      7475735F 
 7089              	.LASF199:
 7090 17f4 52544F43 		.ascii	"RTOC2_FIRST_USER_APP_FORMAT\000"
 7090      325F4649 
 7090      5253545F 
 7090      55534552 
 7090      5F415050 
 7091              	.LASF174:
 7092 1810 52544F43 		.ascii	"RTOC1_MAGIC_NUMBER\000"
 7092      315F4D41 
 7092      4749435F 
 7092      4E554D42 
 7092      455200
 7093              	.LASF112:
 7094 1823 464C4153 		.ascii	"FLASHC_V1_Type\000"
 7094      48435F56 
 7094      315F5479 
 7094      706500
 7095              	.LASF399:
 7096 1832 72657365 		.ascii	"reserved1\000"
 7096      72766564 
 7096      3100
 7097              	.LASF403:
 7098 183c 72657365 		.ascii	"reserved2\000"
 7098      72766564 
 7098      3200
 7099              	.LASF411:
 7100 1846 72657365 		.ascii	"reserved3\000"
 7100      72766564 
 7100      3300
 7101              	.LASF417:
 7102 1850 72657365 		.ascii	"reserved4\000"
 7102      72766564 
 7102      3400
 7103              	.LASF420:
 7104 185a 72657365 		.ascii	"reserved5\000"
 7104      72766564 
 7104      3500
 7105              	.LASF73:
 7106 1864 434D305F 		.ascii	"CM0_CA_CTL2\000"
 7106      43415F43 
 7106      544C3200 
ARM GAS  C:\Users\stijn\AppData\Local\Temp\ccLepBqo.s 			page 170


 7107              	.LASF323:
 7108 1870 666C6173 		.ascii	"flashPipeRequired\000"
 7108      68506970 
 7108      65526571 
 7108      75697265 
 7108      6400
 7109              	.LASF269:
 7110 1882 53525353 		.ascii	"SRSS_V1_Type\000"
 7110      5F56315F 
 7110      54797065 
 7110      00
 7111              	.LASF208:
 7112 188f 4D435744 		.ascii	"MCWDT_CNTLOW\000"
 7112      545F434E 
 7112      544C4F57 
 7112      00
 7113              	.LASF167:
 7114 189c 544F4331 		.ascii	"TOC1_SFLASH_GENERAL_TRIM_ADDR\000"
 7114      5F53464C 
 7114      4153485F 
 7114      47454E45 
 7114      52414C5F 
 7115              	.LASF484:
 7116 18ba 49544D5F 		.ascii	"ITM_RxBuffer\000"
 7116      52784275 
 7116      66666572 
 7116      00
 7117              	.LASF299:
 7118 18c7 6770696F 		.ascii	"gpioVersion\000"
 7118      56657273 
 7118      696F6E00 
 7119              	.LASF354:
 7120 18d3 6770696F 		.ascii	"gpioPrtCfgSioOffset\000"
 7120      50727443 
 7120      66675369 
 7120      6F4F6666 
 7120      73657400 
 7121              	.LASF414:
 7122 18e7 696E7653 		.ascii	"invState\000"
 7122      74617465 
 7122      00
 7123              	.LASF42:
 7124 18f0 464D5F48 		.ascii	"FM_HV_DATA_ALL\000"
 7124      565F4441 
 7124      54415F41 
 7124      4C4C00
 7125              	.LASF388:
 7126 18ff 53464C41 		.ascii	"SFLASH_Type\000"
 7126      53485F54 
 7126      79706500 
 7127              	.LASF110:
 7128 190b 4558545F 		.ascii	"EXT_MS1_BUFF_CMD\000"
 7128      4D53315F 
 7128      42554646 
 7128      5F434D44 
 7128      00
 7129              	.LASF443:
ARM GAS  C:\Users\stijn\AppData\Local\Temp\ccLepBqo.s 			page 171


 7130 191c 68667372 		.ascii	"hfsrReg\000"
 7130      52656700 
 7131              	.LASF426:
 7132 1924 6D656D46 		.ascii	"memFaultAct\000"
 7132      61756C74 
 7132      41637400 
 7133              	.LASF466:
 7134 1930 43795F53 		.ascii	"Cy_SysLib_Halt\000"
 7134      79734C69 
 7134      625F4861 
 7134      6C7400
 7135              	.LASF318:
 7136 193f 75646250 		.ascii	"udbPresent\000"
 7136      72657365 
 7136      6E7400
 7137              	.LASF460:
 7138 194a 6D696C6C 		.ascii	"milliseconds\000"
 7138      69736563 
 7138      6F6E6473 
 7138      00
 7139              	.LASF413:
 7140 1957 756E6465 		.ascii	"undefInstr\000"
 7140      66496E73 
 7140      747200
 7141              	.LASF196:
 7142 1962 52544F43 		.ascii	"RTOC2_KEY_BLOCK_ADDR\000"
 7142      325F4B45 
 7142      595F424C 
 7142      4F434B5F 
 7142      41444452 
 7143              	.LASF146:
 7144 1977 52414449 		.ascii	"RADIO_LDO_TRIMS\000"
 7144      4F5F4C44 
 7144      4F5F5452 
 7144      494D5300 
 7145              	.LASF444:
 7146 1987 68667372 		.ascii	"hfsrBits\000"
 7146      42697473 
 7146      00
 7147              	.LASF409:
 7148 1990 73746B45 		.ascii	"stkErr\000"
 7148      727200
 7149              	.LASF19:
 7150 1997 75696E74 		.ascii	"uint32_t\000"
 7150      33325F74 
 7150      00
 7151              	.LASF53:
 7152 19a0 5245445F 		.ascii	"RED_CTL_SM01\000"
 7152      43544C5F 
 7152      534D3031 
 7152      00
 7153              	.LASF235:
 7154 19ad 434C4B5F 		.ascii	"CLK_ILO_CONFIG\000"
 7154      494C4F5F 
 7154      434F4E46 
 7154      494700
 7155              	.LASF407:
ARM GAS  C:\Users\stijn\AppData\Local\Temp\ccLepBqo.s 			page 172


 7156 19bc 696D7072 		.ascii	"imprecisErr\000"
 7156      65636973 
 7156      45727200 
 7157              	.LASF166:
 7158 19c8 544F4331 		.ascii	"TOC1_FHASH_OBJECTS\000"
 7158      5F464841 
 7158      53485F4F 
 7158      424A4543 
 7158      545300
 7159              	.LASF120:
 7160 19db 4449455F 		.ascii	"DIE_SORT\000"
 7160      534F5254 
 7160      00
 7161              	.LASF192:
 7162 19e4 544F4332 		.ascii	"TOC2_FLAGS\000"
 7162      5F464C41 
 7162      475300
 7163              	.LASF153:
 7164 19ef 43505553 		.ascii	"CPUSS_TRIM_ROM_CTL_HALF_LP\000"
 7164      535F5452 
 7164      494D5F52 
 7164      4F4D5F43 
 7164      544C5F48 
 7165              	.LASF422:
 7166 1a0a 76656374 		.ascii	"vectTbl\000"
 7166      54626C00 
 7167              	.LASF237:
 7168 1a12 434C4B5F 		.ascii	"CLK_OUTPUT_FAST\000"
 7168      4F555450 
 7168      55545F46 
 7168      41535400 
 7169              	.LASF145:
 7170 1a22 5057525F 		.ascii	"PWR_TRIM_WAKE_CTL\000"
 7170      5452494D 
 7170      5F57414B 
 7170      455F4354 
 7170      4C00
 7171              	.LASF28:
 7172 1a34 54494D45 		.ascii	"TIMER_CTL\000"
 7172      525F4354 
 7172      4C00
 7173              	.LASF419:
 7174 1a3e 64697642 		.ascii	"divByZero\000"
 7174      795A6572 
 7174      6F00
 7175              	.LASF334:
 7176 1a48 64774368 		.ascii	"dwChCtlPrioPos\000"
 7176      43746C50 
 7176      72696F50 
 7176      6F7300
 7177              	.LASF431:
 7178 1a57 70656E64 		.ascii	"pendSVAct\000"
 7178      53564163 
 7178      7400
 7179              	.LASF277:
 7180 1a61 414C4D32 		.ascii	"ALM2_DATE\000"
 7180      5F444154 
ARM GAS  C:\Users\stijn\AppData\Local\Temp\ccLepBqo.s 			page 173


 7180      4500
 7181              	.LASF357:
 7182 1a6b 63707573 		.ascii	"cpussCm4StatusOffset\000"
 7182      73436D34 
 7182      53746174 
 7182      75734F66 
 7182      66736574 
 7183              	.LASF335:
 7184 1a80 64774368 		.ascii	"dwChCtlPreemptablePos\000"
 7184      43746C50 
 7184      7265656D 
 7184      70746162 
 7184      6C65506F 
 7185              	.LASF6:
 7186 1a96 73686F72 		.ascii	"short unsigned int\000"
 7186      7420756E 
 7186      7369676E 
 7186      65642069 
 7186      6E7400
 7187              	.LASF184:
 7188 1aa9 544F4332 		.ascii	"TOC2_SMIF_CFG_STRUCT_ADDR\000"
 7188      5F534D49 
 7188      465F4346 
 7188      475F5354 
 7188      52554354 
 7189              	.LASF293:
 7190 1ac3 69706342 		.ascii	"ipcBase\000"
 7190      61736500 
 7191              	.LASF386:
 7192 1acb 43504143 		.ascii	"CPACR\000"
 7192      5200
 7193              	.LASF201:
 7194 1ad1 52544F43 		.ascii	"RTOC2_SECOND_USER_APP_FORMAT\000"
 7194      325F5345 
 7194      434F4E44 
 7194      5F555345 
 7194      525F4150 
 7195              	.LASF224:
 7196 1aee 5057525F 		.ascii	"PWR_LVD_STATUS\000"
 7196      4C56445F 
 7196      53544154 
 7196      555300
 7197              	.LASF345:
 7198 1afd 70657269 		.ascii	"periDivCmdPaTypeSelPos\000"
 7198      44697643 
 7198      6D645061 
 7198      54797065 
 7198      53656C50 
 7199              	.LASF369:
 7200 1b14 69706353 		.ascii	"ipcStructSize\000"
 7200      74727563 
 7200      7453697A 
 7200      6500
 7201              	.LASF338:
 7202 1b22 70657269 		.ascii	"periTrCmdOffset\000"
 7202      5472436D 
 7202      644F6666 
ARM GAS  C:\Users\stijn\AppData\Local\Temp\ccLepBqo.s 			page 174


 7202      73657400 
 7203              	.LASF425:
 7204 1b32 63795F73 		.ascii	"cy_stc_fault_hfsr_t\000"
 7204      74635F66 
 7204      61756C74 
 7204      5F686673 
 7204      725F7400 
 7205              	.LASF63:
 7206 1b46 42495354 		.ascii	"BIST_CTL\000"
 7206      5F43544C 
 7206      00
 7207              	.LASF296:
 7208 1b4f 63727970 		.ascii	"cryptoVersion\000"
 7208      746F5665 
 7208      7273696F 
 7208      6E00
 7209              	.LASF243:
 7210 1b5d 434C4B5F 		.ascii	"CLK_PILO_CONFIG\000"
 7210      50494C4F 
 7210      5F434F4E 
 7210      46494700 
 7211              	.LASF263:
 7212 1b6d 434C4B5F 		.ascii	"CLK_TRIM_ILO_CTL\000"
 7212      5452494D 
 7212      5F494C4F 
 7212      5F43544C 
 7212      00
 7213              	.LASF228:
 7214 1b7e 5744545F 		.ascii	"WDT_MATCH\000"
 7214      4D415443 
 7214      4800
 7215              	.LASF98:
 7216 1b88 4457315F 		.ascii	"DW1_BUFF_CMD\000"
 7216      42554646 
 7216      5F434D44 
 7216      00
 7217              	.LASF118:
 7218 1b95 4449455F 		.ascii	"DIE_X\000"
 7218      5800
 7219              	.LASF119:
 7220 1b9b 4449455F 		.ascii	"DIE_Y\000"
 7220      5900
 7221              	.LASF493:
 7222 1ba1 433A5C55 		.ascii	"C:\\Users\\stijn\\OneDrive\\Documenten\\PSoC Creato"
 7222      73657273 
 7222      5C737469 
 7222      6A6E5C4F 
 7222      6E654472 
 7223 1bcf 725C4144 		.ascii	"r\\ADC Klodden\\RTOS_I2C_Test.cydsn\000"
 7223      43204B6C 
 7223      6F646465 
 7223      6E5C5254 
 7223      4F535F49 
 7224              	.LASF226:
 7225 1bf1 5744545F 		.ascii	"WDT_CTL\000"
 7225      43544C00 
 7226              	.LASF448:
ARM GAS  C:\Users\stijn\AppData\Local\Temp\ccLepBqo.s 			page 175


 7227 1bf9 68667372 		.ascii	"hfsr\000"
 7227      00
 7228              	.LASF242:
 7229 1bfe 434C4B5F 		.ascii	"CLK_ECO_STATUS\000"
 7229      45434F5F 
 7229      53544154 
 7229      555300
 7230              	.LASF327:
 7231 1c0d 666C6173 		.ascii	"flashCtlMainWs0Freq\000"
 7231      6843746C 
 7231      4D61696E 
 7231      57733046 
 7231      72657100 
 7232              	.LASF300:
 7233 1c21 6873696F 		.ascii	"hsiomVersion\000"
 7233      6D566572 
 7233      73696F6E 
 7233      00
 7234              	.LASF255:
 7235 1c2e 53525353 		.ascii	"SRSS_INTR_CFG\000"
 7235      5F494E54 
 7235      525F4346 
 7235      4700
 7236              	.LASF332:
 7237 1c3c 64774368 		.ascii	"dwChOffset\000"
 7237      4F666673 
 7237      657400
 7238              	.LASF458:
 7239 1c47 43795F53 		.ascii	"Cy_SysLib_Delay\000"
 7239      79734C69 
 7239      625F4465 
 7239      6C617900 
 7240              		.ident	"GCC: (GNU Tools for ARM Embedded Processors) 5.4.1 20160609 (release) [ARM/embedded-5-bran
