ARM GAS  C:\Users\stijn\AppData\Local\Temp\ccilyJFa.s 			page 1


   1              		.syntax unified
   2              		.cpu cortex-m4
   3              		.eabi_attribute 27, 1
   4              		.fpu fpv4-sp-d16
   5              		.eabi_attribute 20, 1
   6              		.eabi_attribute 21, 1
   7              		.eabi_attribute 23, 3
   8              		.eabi_attribute 24, 1
   9              		.eabi_attribute 25, 1
  10              		.eabi_attribute 26, 1
  11              		.eabi_attribute 30, 1
  12              		.eabi_attribute 34, 1
  13              		.eabi_attribute 18, 4
  14              		.thumb
  15              		.syntax unified
  16              		.file	"LSM303DLHC.c"
  17              		.text
  18              	.Ltext0:
  19              		.cfi_sections	.debug_frame
  20              		.section	.text.initAccel,"ax",%progbits
  21              		.align	2
  22              		.global	initAccel
  23              		.thumb
  24              		.thumb_func
  25              		.type	initAccel, %function
  26              	initAccel:
  27              	.LFB560:
  28              		.file 1 "LSM303DLHC.c"
   1:LSM303DLHC.c  **** /*  ____  ____      _    __  __  ____ ___
   2:LSM303DLHC.c  ****  * |  _ \|  _ \    / \  |  \/  |/ ___/ _ \
   3:LSM303DLHC.c  ****  * | | | | |_) |  / _ \ | |\/| | |  | | | |
   4:LSM303DLHC.c  ****  * | |_| |  _ <  / ___ \| |  | | |__| |_| |
   5:LSM303DLHC.c  ****  * |____/|_| \_\/_/   \_\_|  |_|\____\___/
   6:LSM303DLHC.c  ****  *                           research group
   7:LSM303DLHC.c  ****  *                             dramco.be/
   8:LSM303DLHC.c  ****  *
   9:LSM303DLHC.c  ****  *  KU Leuven - Technology Campus Gent,
  10:LSM303DLHC.c  ****  *  Gebroeders De Smetstraat 1,
  11:LSM303DLHC.c  ****  *  B-9000 Gent, Belgium
  12:LSM303DLHC.c  ****  *
  13:LSM303DLHC.c  ****  *         File: LSM303DLHC.h
  14:LSM303DLHC.c  ****  *      Created: 2019-04-11
  15:LSM303DLHC.c  ****  *       Author: Stijn Crul
  16:LSM303DLHC.c  ****  *      Version: 0.1
  17:LSM303DLHC.c  ****  *
  18:LSM303DLHC.c  ****  *  Description: LSM303DLHC library for PSOC6
  19:LSM303DLHC.c  ****  */
  20:LSM303DLHC.c  **** 
  21:LSM303DLHC.c  **** #include "project.h"
  22:LSM303DLHC.c  **** #include "LSM303DLHC.h"
  23:LSM303DLHC.c  **** #include "i2c.h"
  24:LSM303DLHC.c  **** #include "FreeRTOS.h"
  25:LSM303DLHC.c  **** #include "task.h"
  26:LSM303DLHC.c  **** 
  27:LSM303DLHC.c  **** /* 
  28:LSM303DLHC.c  **** *   Function: setupAccel 
  29:LSM303DLHC.c  **** *  
ARM GAS  C:\Users\stijn\AppData\Local\Temp\ccilyJFa.s 			page 2


  30:LSM303DLHC.c  **** *   Description: Setup up the accelerometer by writing to CTRL_REG1_A
  31:LSM303DLHC.c  **** *
  32:LSM303DLHC.c  **** *   Arguments:
  33:LSM303DLHC.c  **** *   masterTransferCfg = psoc I2C settings
  34:LSM303DLHC.c  **** *   mask = bits for the control register of the lsm303dlhc. Page 24 of datasheet
  35:LSM303DLHC.c  **** */
  36:LSM303DLHC.c  **** uint8_t initAccel(cy_stc_scb_i2c_master_xfer_config_t masterTransferCfg, uint8_t mask){
  29              		.loc 1 36 0
  30              		.cfi_startproc
  31              		@ args = 4, pretend = 0, frame = 24
  32              		@ frame_needed = 0, uses_anonymous_args = 0
  33              	.LVL0:
  34 0000 10B5     		push	{r4, lr}
  35              		.cfi_def_cfa_offset 8
  36              		.cfi_offset 4, -8
  37              		.cfi_offset 14, -4
  38 0002 8AB0     		sub	sp, sp, #40
  39              		.cfi_def_cfa_offset 48
  40 0004 04AC     		add	r4, sp, #16
  41 0006 84E80F00 		stmia	r4, {r0, r1, r2, r3}
  42              	.LVL1:
  37:LSM303DLHC.c  ****     uint8_t status = TRANSFER_ERROR; 
  38:LSM303DLHC.c  ****     uint8_t msg[WRITE_PACKET_SIZE] = {LSM303_REGISTER_ACCEL_CTRL_REG1_A, mask};
  43              		.loc 1 38 0
  44 000a 2023     		movs	r3, #32
  45 000c 8DF82430 		strb	r3, [sp, #36]
  46 0010 9DF83030 		ldrb	r3, [sp, #48]	@ zero_extendqisi2
  47 0014 8DF82530 		strb	r3, [sp, #37]
  39:LSM303DLHC.c  ****     
  40:LSM303DLHC.c  ****     status = WriteCommandPacketToI2C(masterTransferCfg, LSM303_ADDRESS_ACCEL, msg, 2);
  48              		.loc 1 40 0
  49 0018 0223     		movs	r3, #2
  50 001a 0293     		str	r3, [sp, #8]
  51 001c 09AB     		add	r3, sp, #36
  52 001e 0193     		str	r3, [sp, #4]
  53 0020 1923     		movs	r3, #25
  54 0022 0093     		str	r3, [sp]
  55 0024 94E80F00 		ldmia	r4, {r0, r1, r2, r3}
  56 0028 FFF7FEFF 		bl	WriteCommandPacketToI2C
  57              	.LVL2:
  41:LSM303DLHC.c  ****     
  42:LSM303DLHC.c  ****     return status;
  43:LSM303DLHC.c  **** }
  58              		.loc 1 43 0
  59 002c 0AB0     		add	sp, sp, #40
  60              		.cfi_def_cfa_offset 8
  61              		@ sp needed
  62 002e 10BD     		pop	{r4, pc}
  63              		.cfi_endproc
  64              	.LFE560:
  65              		.size	initAccel, .-initAccel
  66              		.section	.text.readAccel,"ax",%progbits
  67              		.align	2
  68              		.global	readAccel
  69              		.thumb
  70              		.thumb_func
  71              		.type	readAccel, %function
ARM GAS  C:\Users\stijn\AppData\Local\Temp\ccilyJFa.s 			page 3


  72              	readAccel:
  73              	.LFB561:
  44:LSM303DLHC.c  **** 
  45:LSM303DLHC.c  **** /* 
  46:LSM303DLHC.c  **** *   Function: readAccel 
  47:LSM303DLHC.c  **** *  
  48:LSM303DLHC.c  **** *   Description: Read values from accelerometer after it has been setup
  49:LSM303DLHC.c  **** *
  50:LSM303DLHC.c  **** *   Arguments:
  51:LSM303DLHC.c  **** *   masterTransferCfg = psoc I2C settings
  52:LSM303DLHC.c  **** */
  53:LSM303DLHC.c  **** uint8_t readAccel(cy_stc_scb_i2c_master_xfer_config_t masterTransferCfg){
  74              		.loc 1 53 0
  75              		.cfi_startproc
  76              		@ args = 0, pretend = 0, frame = 24
  77              		@ frame_needed = 0, uses_anonymous_args = 0
  78 0000 10B5     		push	{r4, lr}
  79              		.cfi_def_cfa_offset 8
  80              		.cfi_offset 4, -8
  81              		.cfi_offset 14, -4
  82 0002 8AB0     		sub	sp, sp, #40
  83              		.cfi_def_cfa_offset 48
  84 0004 04AC     		add	r4, sp, #16
  85 0006 84E80F00 		stmia	r4, {r0, r1, r2, r3}
  86              	.LVL3:
  54:LSM303DLHC.c  ****     uint8_t status = TRANSFER_ERROR;
  55:LSM303DLHC.c  ****     uint8_t msg[WRITE_PACKET_SIZE];
  56:LSM303DLHC.c  ****     msg[0] = (LSM303_REGISTER_ACCEL_OUT_X_L_A | (1 << 7));
  87              		.loc 1 56 0
  88 000a 0AAB     		add	r3, sp, #40
  89 000c A822     		movs	r2, #168
  90 000e 03F8042D 		strb	r2, [r3, #-4]!
  57:LSM303DLHC.c  ****     
  58:LSM303DLHC.c  ****     if(TRANSFER_CMPLT == WriteCommandPacketToI2C(masterTransferCfg, LSM303_ADDRESS_ACCEL, msg, 1)){
  91              		.loc 1 58 0
  92 0012 0122     		movs	r2, #1
  93 0014 0292     		str	r2, [sp, #8]
  94 0016 0193     		str	r3, [sp, #4]
  95 0018 1923     		movs	r3, #25
  96 001a 0093     		str	r3, [sp]
  97 001c 94E80F00 		ldmia	r4, {r0, r1, r2, r3}
  98 0020 FFF7FEFF 		bl	WriteCommandPacketToI2C
  99              	.LVL4:
 100 0024 40B9     		cbnz	r0, .L5
  59:LSM303DLHC.c  ****         status = ReadStatusPacketFromI2C(masterTransferCfg, LSM303_ADDRESS_ACCEL, 6);
 101              		.loc 1 59 0
 102 0026 0623     		movs	r3, #6
 103 0028 0193     		str	r3, [sp, #4]
 104 002a 1923     		movs	r3, #25
 105 002c 0093     		str	r3, [sp]
 106 002e 04AB     		add	r3, sp, #16
 107 0030 0FCB     		ldmia	r3, {r0, r1, r2, r3}
 108 0032 FFF7FEFF 		bl	ReadStatusPacketFromI2C
 109              	.LVL5:
 110 0036 00E0     		b	.L4
 111              	.LVL6:
 112              	.L5:
ARM GAS  C:\Users\stijn\AppData\Local\Temp\ccilyJFa.s 			page 4


  54:LSM303DLHC.c  ****     uint8_t status = TRANSFER_ERROR;
 113              		.loc 1 54 0
 114 0038 FF20     		movs	r0, #255
 115              	.LVL7:
 116              	.L4:
  60:LSM303DLHC.c  ****         // todo: Do something with read data
  61:LSM303DLHC.c  ****     }
  62:LSM303DLHC.c  ****     
  63:LSM303DLHC.c  ****     return status;
  64:LSM303DLHC.c  **** }
 117              		.loc 1 64 0
 118 003a 0AB0     		add	sp, sp, #40
 119              		.cfi_def_cfa_offset 8
 120              		@ sp needed
 121 003c 10BD     		pop	{r4, pc}
 122              		.cfi_endproc
 123              	.LFE561:
 124              		.size	readAccel, .-readAccel
 125 003e 00BF     		.section	.text.acceleroTask,"ax",%progbits
 126              		.align	2
 127              		.global	acceleroTask
 128              		.thumb
 129              		.thumb_func
 130              		.type	acceleroTask, %function
 131              	acceleroTask:
 132              	.LFB562:
  65:LSM303DLHC.c  **** 
  66:LSM303DLHC.c  **** void acceleroTask(void *masterTransfer){
 133              		.loc 1 66 0
 134              		.cfi_startproc
 135              		@ args = 0, pretend = 0, frame = 24
 136              		@ frame_needed = 0, uses_anonymous_args = 0
 137              	.LVL8:
 138 0000 10B5     		push	{r4, lr}
 139              		.cfi_def_cfa_offset 8
 140              		.cfi_offset 4, -8
 141              		.cfi_offset 14, -4
 142 0002 88B0     		sub	sp, sp, #32
 143              		.cfi_def_cfa_offset 40
  67:LSM303DLHC.c  ****     
  68:LSM303DLHC.c  ****     cy_stc_scb_i2c_master_xfer_config_t masterTransferCfg;
  69:LSM303DLHC.c  ****     
  70:LSM303DLHC.c  ****     masterTransferCfg = *(cy_stc_scb_i2c_master_xfer_config_t *) masterTransfer;
 144              		.loc 1 70 0
 145 0004 04AC     		add	r4, sp, #16
 146 0006 0FC8     		ldmia	r0, {r0, r1, r2, r3}
 147              	.LVL9:
 148 0008 84E80F00 		stmia	r4, {r0, r1, r2, r3}
 149              	.LVL10:
  71:LSM303DLHC.c  ****     
  72:LSM303DLHC.c  ****     TickType_t xLastWakeTime;
  73:LSM303DLHC.c  ****     const TickType_t xFrequency = 1000;
  74:LSM303DLHC.c  ****       
  75:LSM303DLHC.c  ****     xLastWakeTime = xTaskGetTickCount();    
 150              		.loc 1 75 0
 151 000c FFF7FEFF 		bl	xTaskGetTickCount
 152              	.LVL11:
ARM GAS  C:\Users\stijn\AppData\Local\Temp\ccilyJFa.s 			page 5


 153 0010 0390     		str	r0, [sp, #12]
  76:LSM303DLHC.c  ****     
  77:LSM303DLHC.c  ****     if (TRANSFER_CMPLT == initAccel(masterTransferCfg, 0x97)){
 154              		.loc 1 77 0
 155 0012 9723     		movs	r3, #151
 156 0014 0093     		str	r3, [sp]
 157 0016 94E80F00 		ldmia	r4, {r0, r1, r2, r3}
 158 001a FFF7FEFF 		bl	initAccel
 159              	.LVL12:
 160 001e 50B9     		cbnz	r0, .L7
 161              	.L9:
  78:LSM303DLHC.c  ****         for(;;){
  79:LSM303DLHC.c  ****             vTaskDelayUntil(&xLastWakeTime, xFrequency);
 162              		.loc 1 79 0
 163 0020 4FF47A71 		mov	r1, #1000
 164 0024 03A8     		add	r0, sp, #12
 165 0026 FFF7FEFF 		bl	vTaskDelayUntil
 166              	.LVL13:
  80:LSM303DLHC.c  ****             if(TRANSFER_CMPLT == readAccel(masterTransferCfg)){
 167              		.loc 1 80 0
 168 002a 08AB     		add	r3, sp, #32
 169 002c 13E90F00 		ldmdb	r3, {r0, r1, r2, r3}
 170 0030 FFF7FEFF 		bl	readAccel
 171              	.LVL14:
 172 0034 F4E7     		b	.L9
 173              	.L7:
  81:LSM303DLHC.c  ****                 //Todo do something with accelerometer data
  82:LSM303DLHC.c  ****                 //accelData.x = (float)((int16_t)((masterTransferCfg.buffer[1] << 8) | masterTransf
  83:LSM303DLHC.c  ****                 //accelData.y = (float)((int16_t)((masterTransferCfg.buffer[3] << 8) | masterTransf
  84:LSM303DLHC.c  ****                 //accelData.z = (float)((int16_t)((masterTransferCfg.buffer[5] << 8) | masterTransf
  85:LSM303DLHC.c  ****             }
  86:LSM303DLHC.c  ****         }
  87:LSM303DLHC.c  ****     }
  88:LSM303DLHC.c  **** }...
 174              		.loc 1 88 0
 175 0036 08B0     		add	sp, sp, #32
 176              		.cfi_def_cfa_offset 8
 177              		@ sp needed
 178 0038 10BD     		pop	{r4, pc}
 179              		.cfi_endproc
 180              	.LFE562:
 181              		.size	acceleroTask, .-acceleroTask
 182              		.comm	readBuffer,6,4
 183              		.comm	writebuffer,2,4
 184              		.comm	magData,6,4
 185              		.comm	accelData,16,4
 186 003a 00BF     		.text
 187              	.Letext0:
 188              		.file 2 "c:\\program files (x86)\\cypress\\psoc creator\\4.2\\psoc creator\\import\\gnu\\arm\\5.4.
 189              		.file 3 "c:\\program files (x86)\\cypress\\psoc creator\\4.2\\psoc creator\\import\\gnu\\arm\\5.4.
 190              		.file 4 "Generated_Source\\PSoC6\\pdl\\drivers/peripheral/device/cy_device.h"
 191              		.file 5 "Generated_Source\\PSoC6\\pdl\\drivers/peripheral/sar/cy_sar.h"
 192              		.file 6 "Generated_Source\\PSoC6\\pdl\\drivers/peripheral/scb/cy_scb_i2c.h"
 193              		.file 7 "Generated_Source\\PSoC6\\pdl\\drivers/peripheral/scb/cy_scb_uart.h"
 194              		.file 8 "Generated_Source\\PSoC6/ADC.h"
 195              		.file 9 "LSM303DLHC.h"
 196              		.file 10 "Generated_Source\\PSoC6\\pdl\\rtos/FreeRTOS/10.0.1/Source/portable/GCC/CM4F/portmacro.h"
ARM GAS  C:\Users\stijn\AppData\Local\Temp\ccilyJFa.s 			page 6


 197              		.file 11 "Generated_Source\\PSoC6\\pdl\\cmsis/include/core_cm4.h"
 198              		.file 12 "Generated_Source\\PSoC6/UART.h"
 199              		.file 13 "Generated_Source\\PSoC6/mI2C.h"
 200              		.file 14 "i2c.h"
 201              		.file 15 "Generated_Source\\PSoC6\\pdl\\rtos/FreeRTOS/10.0.1/Source/include/task.h"