ARM GAS  C:\Users\stijn\AppData\Local\Temp\ccsk8IDG.s 			page 1


   1              		.syntax unified
   2              		.cpu cortex-m4
   3              		.eabi_attribute 27, 1
   4              		.fpu fpv4-sp-d16
   5              		.eabi_attribute 20, 1
   6              		.eabi_attribute 21, 1
   7              		.eabi_attribute 23, 3
   8              		.eabi_attribute 24, 1
   9              		.eabi_attribute 25, 1
  10              		.eabi_attribute 26, 1
  11              		.eabi_attribute 30, 6
  12              		.eabi_attribute 34, 1
  13              		.eabi_attribute 18, 4
  14              		.thumb
  15              		.syntax unified
  16              		.file	"serial.c"
  17              		.text
  18              	.Ltext0:
  19              		.cfi_sections	.debug_frame
  20              		.section	.rodata
  21              		.align	2
  22              	.LC0:
  23 0000 0D0A4920 		.ascii	"\015\012I AM ALIVE\000"
  23      414D2041 
  23      4C495645 
  23      00
  24              		.section	.text.UARTTask,"ax",%progbits
  25              		.align	2
  26              		.global	UARTTask
  27              		.thumb
  28              		.thumb_func
  29              		.type	UARTTask, %function
  30              	UARTTask:
  31              	.LFB893:
  32              		.file 1 "serial.c"
   1:serial.c      ****  /* ____  ____      _    __  __  ____ ___
   2:serial.c      ****  * |  _ \|  _ \    / \  |  \/  |/ ___/ _ \
   3:serial.c      ****  * | | | | |_) |  / _ \ | |\/| | |  | | | |
   4:serial.c      ****  * | |_| |  _ <  / ___ \| |  | | |__| |_| |
   5:serial.c      ****  * |____/|_| \_\/_/   \_\_|  |_|\____\___/
   6:serial.c      ****  *                           research group
   7:serial.c      ****  *                             dramco.be/
   8:serial.c      ****  *
   9:serial.c      ****  *  KU Leuven - Technology Campus Gent,
  10:serial.c      ****  *  Gebroeders De Smetstraat 1,
  11:serial.c      ****  *  B-9000 Gent, Belgium
  12:serial.c      ****  *
  13:serial.c      ****  *         File: serial.c
  14:serial.c      ****  *      Created: 2019-04-11
  15:serial.c      ****  *       Author: Stijn Crul
  16:serial.c      ****  *      Version: 0.1
  17:serial.c      ****  *
  18:serial.c      ****  *  Description: UART library for sending messages on a PSOC 6 development kit using an RTOS task
  19:serial.c      ****  */    
  20:serial.c      **** 
  21:serial.c      **** #include "serial.h"
  22:serial.c      **** #include "FreeRTOS.h"
ARM GAS  C:\Users\stijn\AppData\Local\Temp\ccsk8IDG.s 			page 2


  23:serial.c      **** #include "task.h"
  24:serial.c      **** 
  25:serial.c      **** /* 
  26:serial.c      **** * Name: UARTTask
  27:serial.c      **** * Description: UART RTOS tasks that prints something at a set interval of time
  28:serial.c      **** *
  29:serial.c      **** * Arguments:    none
  30:serial.c      **** * Output:       none
  31:serial.c      **** */
  32:serial.c      **** void UARTTask(){
  33              		.loc 1 32 0
  34              		.cfi_startproc
  35              		@ args = 0, pretend = 0, frame = 8
  36              		@ frame_needed = 1, uses_anonymous_args = 0
  37 0000 80B5     		push	{r7, lr}
  38              		.cfi_def_cfa_offset 8
  39              		.cfi_offset 7, -8
  40              		.cfi_offset 14, -4
  41 0002 82B0     		sub	sp, sp, #8
  42              		.cfi_def_cfa_offset 16
  43 0004 00AF     		add	r7, sp, #0
  44              		.cfi_def_cfa_register 7
  33:serial.c      ****     TickType_t xLastWakeTime ;
  34:serial.c      ****     const TickType_t xFrequency = 10000;
  45              		.loc 1 34 0
  46 0006 42F21073 		movw	r3, #10000
  47 000a 7B60     		str	r3, [r7, #4]
  35:serial.c      ****     xLastWakeTime = xTaskGetTickCount();    
  48              		.loc 1 35 0
  49 000c FFF7FEFF 		bl	xTaskGetTickCount
  50 0010 0346     		mov	r3, r0
  51 0012 3B60     		str	r3, [r7]
  52              	.L2:
  53              	.LBB2:
  36:serial.c      ****     for(;;){
  37:serial.c      ****         vTaskDelayUntil(&xLastWakeTime, xFrequency);
  54              		.loc 1 37 0 discriminator 1
  55 0014 3B46     		mov	r3, r7
  56 0016 7968     		ldr	r1, [r7, #4]
  57 0018 1846     		mov	r0, r3
  58 001a FFF7FEFF 		bl	vTaskDelayUntil
  38:serial.c      ****         printf("\r\nI AM ALIVE");
  59              		.loc 1 38 0 discriminator 1
  60 001e 0248     		ldr	r0, .L3
  61 0020 FFF7FEFF 		bl	printf
  62              	.LBE2:
  39:serial.c      ****     }
  63              		.loc 1 39 0 discriminator 1
  64 0024 F6E7     		b	.L2
  65              	.L4:
  66 0026 00BF     		.align	2
  67              	.L3:
  68 0028 00000000 		.word	.LC0
  69              		.cfi_endproc
  70              	.LFE893:
  71              		.size	UARTTask, .-UARTTask
  72              		.text
ARM GAS  C:\Users\stijn\AppData\Local\Temp\ccsk8IDG.s 			page 3


  73              	.Letext0:
  74              		.file 2 "c:\\program files (x86)\\cypress\\psoc creator\\4.2\\psoc creator\\import\\gnu\\arm\\5.4.
  75              		.file 3 "c:\\program files (x86)\\cypress\\psoc creator\\4.2\\psoc creator\\import\\gnu\\arm\\5.4.
  76              		.file 4 "Generated_Source\\PSoC6\\pdl\\drivers/peripheral/device/cy_device.h"
  77              		.file 5 "Generated_Source\\PSoC6\\pdl\\drivers/peripheral/sar/cy_sar.h"
  78              		.file 6 "Generated_Source\\PSoC6\\pdl\\drivers/peripheral/scb/cy_scb_i2c.h"
  79              		.file 7 "Generated_Source\\PSoC6\\pdl\\drivers/peripheral/scb/cy_scb_uart.h"
  80              		.file 8 "Generated_Source\\PSoC6\\pdl\\drivers/peripheral/tcpwm/cy_tcpwm_counter.h"
  81              		.file 9 "Generated_Source\\PSoC6/ADC.h"
  82              		.file 10 "Generated_Source\\PSoC6\\pdl\\rtos/FreeRTOS/10.0.1/Source/portable/GCC/CM4F/portmacro.h"
  83              		.file 11 "Generated_Source\\PSoC6\\pdl\\cmsis/include/core_cm4.h"
  84              		.file 12 "Generated_Source\\PSoC6/UART.h"
  85              		.file 13 "Generated_Source\\PSoC6/mI2C.h"
  86              		.file 14 "Generated_Source\\PSoC6/ADCSOCCounter.h"
  87              		.file 15 "<built-in>"