ARM GAS  C:\Users\stijn\AppData\Local\Temp\cccniDcZ.s 			page 1


   1              		.syntax unified
   2              		.cpu cortex-m4
   3              		.eabi_attribute 27, 1
   4              		.fpu fpv4-sp-d16
   5              		.eabi_attribute 20, 1
   6              		.eabi_attribute 21, 1
   7              		.eabi_attribute 23, 3
   8              		.eabi_attribute 24, 1
   9              		.eabi_attribute 25, 1
  10              		.eabi_attribute 26, 1
  11              		.eabi_attribute 30, 6
  12              		.eabi_attribute 34, 1
  13              		.eabi_attribute 18, 4
  14              		.thumb
  15              		.syntax unified
  16              		.file	"stream_buffer.c"
  17              		.text
  18              	.Ltext0:
  19              		.cfi_sections	.debug_frame
  20              		.section	.text.xStreamBufferGenericCreate,"ax",%progbits
  21              		.align	2
  22              		.global	xStreamBufferGenericCreate
  23              		.thumb
  24              		.thumb_func
  25              		.type	xStreamBufferGenericCreate, %function
  26              	xStreamBufferGenericCreate:
  27              	.LFB136:
  28              		.file 1 "Generated_Source\\PSoC6\\pdl\\rtos\\FreeRTOS\\10.0.1\\Source\\stream_buffer.c"
   1:Generated_Source\PSoC6\pdl\rtos\FreeRTOS\10.0.1\Source/stream_buffer.c **** /*
   2:Generated_Source\PSoC6\pdl\rtos\FreeRTOS\10.0.1\Source/stream_buffer.c ****  * FreeRTOS Kernel V10.0.1
   3:Generated_Source\PSoC6\pdl\rtos\FreeRTOS\10.0.1\Source/stream_buffer.c ****  * Copyright (C) 2017 Amazon.com, Inc. or its affiliates.  All Rights Reserved.
   4:Generated_Source\PSoC6\pdl\rtos\FreeRTOS\10.0.1\Source/stream_buffer.c ****  *
   5:Generated_Source\PSoC6\pdl\rtos\FreeRTOS\10.0.1\Source/stream_buffer.c ****  * Permission is hereby granted, free of charge, to any person obtaining a copy of
   6:Generated_Source\PSoC6\pdl\rtos\FreeRTOS\10.0.1\Source/stream_buffer.c ****  * this software and associated documentation files (the "Software"), to deal in
   7:Generated_Source\PSoC6\pdl\rtos\FreeRTOS\10.0.1\Source/stream_buffer.c ****  * the Software without restriction, including without limitation the rights to
   8:Generated_Source\PSoC6\pdl\rtos\FreeRTOS\10.0.1\Source/stream_buffer.c ****  * use, copy, modify, merge, publish, distribute, sublicense, and/or sell copies of
   9:Generated_Source\PSoC6\pdl\rtos\FreeRTOS\10.0.1\Source/stream_buffer.c ****  * the Software, and to permit persons to whom the Software is furnished to do so,
  10:Generated_Source\PSoC6\pdl\rtos\FreeRTOS\10.0.1\Source/stream_buffer.c ****  * subject to the following conditions:
  11:Generated_Source\PSoC6\pdl\rtos\FreeRTOS\10.0.1\Source/stream_buffer.c ****  *
  12:Generated_Source\PSoC6\pdl\rtos\FreeRTOS\10.0.1\Source/stream_buffer.c ****  * The above copyright notice and this permission notice shall be included in all
  13:Generated_Source\PSoC6\pdl\rtos\FreeRTOS\10.0.1\Source/stream_buffer.c ****  * copies or substantial portions of the Software.
  14:Generated_Source\PSoC6\pdl\rtos\FreeRTOS\10.0.1\Source/stream_buffer.c ****  *
  15:Generated_Source\PSoC6\pdl\rtos\FreeRTOS\10.0.1\Source/stream_buffer.c ****  * THE SOFTWARE IS PROVIDED "AS IS", WITHOUT WARRANTY OF ANY KIND, EXPRESS OR
  16:Generated_Source\PSoC6\pdl\rtos\FreeRTOS\10.0.1\Source/stream_buffer.c ****  * IMPLIED, INCLUDING BUT NOT LIMITED TO THE WARRANTIES OF MERCHANTABILITY, FITNESS
  17:Generated_Source\PSoC6\pdl\rtos\FreeRTOS\10.0.1\Source/stream_buffer.c ****  * FOR A PARTICULAR PURPOSE AND NONINFRINGEMENT. IN NO EVENT SHALL THE AUTHORS OR
  18:Generated_Source\PSoC6\pdl\rtos\FreeRTOS\10.0.1\Source/stream_buffer.c ****  * COPYRIGHT HOLDERS BE LIABLE FOR ANY CLAIM, DAMAGES OR OTHER LIABILITY, WHETHER
  19:Generated_Source\PSoC6\pdl\rtos\FreeRTOS\10.0.1\Source/stream_buffer.c ****  * IN AN ACTION OF CONTRACT, TORT OR OTHERWISE, ARISING FROM, OUT OF OR IN
  20:Generated_Source\PSoC6\pdl\rtos\FreeRTOS\10.0.1\Source/stream_buffer.c ****  * CONNECTION WITH THE SOFTWARE OR THE USE OR OTHER DEALINGS IN THE SOFTWARE.
  21:Generated_Source\PSoC6\pdl\rtos\FreeRTOS\10.0.1\Source/stream_buffer.c ****  *
  22:Generated_Source\PSoC6\pdl\rtos\FreeRTOS\10.0.1\Source/stream_buffer.c ****  * http://www.FreeRTOS.org
  23:Generated_Source\PSoC6\pdl\rtos\FreeRTOS\10.0.1\Source/stream_buffer.c ****  * http://aws.amazon.com/freertos
  24:Generated_Source\PSoC6\pdl\rtos\FreeRTOS\10.0.1\Source/stream_buffer.c ****  *
  25:Generated_Source\PSoC6\pdl\rtos\FreeRTOS\10.0.1\Source/stream_buffer.c ****  * 1 tab == 4 spaces!
  26:Generated_Source\PSoC6\pdl\rtos\FreeRTOS\10.0.1\Source/stream_buffer.c ****  */
  27:Generated_Source\PSoC6\pdl\rtos\FreeRTOS\10.0.1\Source/stream_buffer.c **** 
  28:Generated_Source\PSoC6\pdl\rtos\FreeRTOS\10.0.1\Source/stream_buffer.c **** /* Standard includes. */
  29:Generated_Source\PSoC6\pdl\rtos\FreeRTOS\10.0.1\Source/stream_buffer.c **** #include <stdint.h>
ARM GAS  C:\Users\stijn\AppData\Local\Temp\cccniDcZ.s 			page 2


  30:Generated_Source\PSoC6\pdl\rtos\FreeRTOS\10.0.1\Source/stream_buffer.c **** #include <string.h>
  31:Generated_Source\PSoC6\pdl\rtos\FreeRTOS\10.0.1\Source/stream_buffer.c **** 
  32:Generated_Source\PSoC6\pdl\rtos\FreeRTOS\10.0.1\Source/stream_buffer.c **** /* Defining MPU_WRAPPERS_INCLUDED_FROM_API_FILE prevents task.h from redefining
  33:Generated_Source\PSoC6\pdl\rtos\FreeRTOS\10.0.1\Source/stream_buffer.c **** all the API functions to use the MPU wrappers.  That should only be done when
  34:Generated_Source\PSoC6\pdl\rtos\FreeRTOS\10.0.1\Source/stream_buffer.c **** task.h is included from an application file. */
  35:Generated_Source\PSoC6\pdl\rtos\FreeRTOS\10.0.1\Source/stream_buffer.c **** #define MPU_WRAPPERS_INCLUDED_FROM_API_FILE
  36:Generated_Source\PSoC6\pdl\rtos\FreeRTOS\10.0.1\Source/stream_buffer.c **** 
  37:Generated_Source\PSoC6\pdl\rtos\FreeRTOS\10.0.1\Source/stream_buffer.c **** /* FreeRTOS includes. */
  38:Generated_Source\PSoC6\pdl\rtos\FreeRTOS\10.0.1\Source/stream_buffer.c **** #include "FreeRTOS.h"
  39:Generated_Source\PSoC6\pdl\rtos\FreeRTOS\10.0.1\Source/stream_buffer.c **** #include "task.h"
  40:Generated_Source\PSoC6\pdl\rtos\FreeRTOS\10.0.1\Source/stream_buffer.c **** #include "stream_buffer.h"
  41:Generated_Source\PSoC6\pdl\rtos\FreeRTOS\10.0.1\Source/stream_buffer.c **** 
  42:Generated_Source\PSoC6\pdl\rtos\FreeRTOS\10.0.1\Source/stream_buffer.c **** #if( configUSE_TASK_NOTIFICATIONS != 1 )
  43:Generated_Source\PSoC6\pdl\rtos\FreeRTOS\10.0.1\Source/stream_buffer.c **** 	#error configUSE_TASK_NOTIFICATIONS must be set to 1 to build stream_buffer.c
  44:Generated_Source\PSoC6\pdl\rtos\FreeRTOS\10.0.1\Source/stream_buffer.c **** #endif
  45:Generated_Source\PSoC6\pdl\rtos\FreeRTOS\10.0.1\Source/stream_buffer.c **** 
  46:Generated_Source\PSoC6\pdl\rtos\FreeRTOS\10.0.1\Source/stream_buffer.c **** /* Lint e961 and e750 are suppressed as a MISRA exception justified because the
  47:Generated_Source\PSoC6\pdl\rtos\FreeRTOS\10.0.1\Source/stream_buffer.c **** MPU ports require MPU_WRAPPERS_INCLUDED_FROM_API_FILE to be defined for the
  48:Generated_Source\PSoC6\pdl\rtos\FreeRTOS\10.0.1\Source/stream_buffer.c **** header files above, but not in this file, in order to generate the correct
  49:Generated_Source\PSoC6\pdl\rtos\FreeRTOS\10.0.1\Source/stream_buffer.c **** privileged Vs unprivileged linkage and placement. */
  50:Generated_Source\PSoC6\pdl\rtos\FreeRTOS\10.0.1\Source/stream_buffer.c **** #undef MPU_WRAPPERS_INCLUDED_FROM_API_FILE /*lint !e961 !e750. */
  51:Generated_Source\PSoC6\pdl\rtos\FreeRTOS\10.0.1\Source/stream_buffer.c **** 
  52:Generated_Source\PSoC6\pdl\rtos\FreeRTOS\10.0.1\Source/stream_buffer.c **** /* If the user has not provided application specific Rx notification macros,
  53:Generated_Source\PSoC6\pdl\rtos\FreeRTOS\10.0.1\Source/stream_buffer.c **** or #defined the notification macros away, them provide default implementations
  54:Generated_Source\PSoC6\pdl\rtos\FreeRTOS\10.0.1\Source/stream_buffer.c **** that uses task notifications. */
  55:Generated_Source\PSoC6\pdl\rtos\FreeRTOS\10.0.1\Source/stream_buffer.c **** /*lint -save -e9026 Function like macros allowed and needed here so they can be overidden. */
  56:Generated_Source\PSoC6\pdl\rtos\FreeRTOS\10.0.1\Source/stream_buffer.c **** #ifndef sbRECEIVE_COMPLETED
  57:Generated_Source\PSoC6\pdl\rtos\FreeRTOS\10.0.1\Source/stream_buffer.c **** 	#define sbRECEIVE_COMPLETED( pxStreamBuffer )										\
  58:Generated_Source\PSoC6\pdl\rtos\FreeRTOS\10.0.1\Source/stream_buffer.c **** 		vTaskSuspendAll();																\
  59:Generated_Source\PSoC6\pdl\rtos\FreeRTOS\10.0.1\Source/stream_buffer.c **** 		{																				\
  60:Generated_Source\PSoC6\pdl\rtos\FreeRTOS\10.0.1\Source/stream_buffer.c **** 			if( ( pxStreamBuffer )->xTaskWaitingToSend != NULL )						\
  61:Generated_Source\PSoC6\pdl\rtos\FreeRTOS\10.0.1\Source/stream_buffer.c **** 			{																			\
  62:Generated_Source\PSoC6\pdl\rtos\FreeRTOS\10.0.1\Source/stream_buffer.c **** 				( void ) xTaskNotify( ( pxStreamBuffer )->xTaskWaitingToSend,			\
  63:Generated_Source\PSoC6\pdl\rtos\FreeRTOS\10.0.1\Source/stream_buffer.c **** 									  ( uint32_t ) 0,									\
  64:Generated_Source\PSoC6\pdl\rtos\FreeRTOS\10.0.1\Source/stream_buffer.c **** 									  eNoAction );										\
  65:Generated_Source\PSoC6\pdl\rtos\FreeRTOS\10.0.1\Source/stream_buffer.c **** 				( pxStreamBuffer )->xTaskWaitingToSend = NULL;							\
  66:Generated_Source\PSoC6\pdl\rtos\FreeRTOS\10.0.1\Source/stream_buffer.c **** 			}																			\
  67:Generated_Source\PSoC6\pdl\rtos\FreeRTOS\10.0.1\Source/stream_buffer.c **** 		}																				\
  68:Generated_Source\PSoC6\pdl\rtos\FreeRTOS\10.0.1\Source/stream_buffer.c **** 		( void ) xTaskResumeAll();
  69:Generated_Source\PSoC6\pdl\rtos\FreeRTOS\10.0.1\Source/stream_buffer.c **** #endif /* sbRECEIVE_COMPLETED */
  70:Generated_Source\PSoC6\pdl\rtos\FreeRTOS\10.0.1\Source/stream_buffer.c **** 
  71:Generated_Source\PSoC6\pdl\rtos\FreeRTOS\10.0.1\Source/stream_buffer.c **** #ifndef sbRECEIVE_COMPLETED_FROM_ISR
  72:Generated_Source\PSoC6\pdl\rtos\FreeRTOS\10.0.1\Source/stream_buffer.c **** 	#define sbRECEIVE_COMPLETED_FROM_ISR( pxStreamBuffer,								\
  73:Generated_Source\PSoC6\pdl\rtos\FreeRTOS\10.0.1\Source/stream_buffer.c **** 										  pxHigherPriorityTaskWoken )					\
  74:Generated_Source\PSoC6\pdl\rtos\FreeRTOS\10.0.1\Source/stream_buffer.c **** 	{																					\
  75:Generated_Source\PSoC6\pdl\rtos\FreeRTOS\10.0.1\Source/stream_buffer.c **** 	UBaseType_t uxSavedInterruptStatus;													\
  76:Generated_Source\PSoC6\pdl\rtos\FreeRTOS\10.0.1\Source/stream_buffer.c **** 																						\
  77:Generated_Source\PSoC6\pdl\rtos\FreeRTOS\10.0.1\Source/stream_buffer.c **** 		uxSavedInterruptStatus = ( UBaseType_t ) portSET_INTERRUPT_MASK_FROM_ISR();		\
  78:Generated_Source\PSoC6\pdl\rtos\FreeRTOS\10.0.1\Source/stream_buffer.c **** 		{																				\
  79:Generated_Source\PSoC6\pdl\rtos\FreeRTOS\10.0.1\Source/stream_buffer.c **** 			if( ( pxStreamBuffer )->xTaskWaitingToSend != NULL )						\
  80:Generated_Source\PSoC6\pdl\rtos\FreeRTOS\10.0.1\Source/stream_buffer.c **** 			{																			\
  81:Generated_Source\PSoC6\pdl\rtos\FreeRTOS\10.0.1\Source/stream_buffer.c **** 				( void ) xTaskNotifyFromISR( ( pxStreamBuffer )->xTaskWaitingToSend,	\
  82:Generated_Source\PSoC6\pdl\rtos\FreeRTOS\10.0.1\Source/stream_buffer.c **** 											 ( uint32_t ) 0,							\
  83:Generated_Source\PSoC6\pdl\rtos\FreeRTOS\10.0.1\Source/stream_buffer.c **** 											 eNoAction,									\
  84:Generated_Source\PSoC6\pdl\rtos\FreeRTOS\10.0.1\Source/stream_buffer.c **** 											 pxHigherPriorityTaskWoken );				\
  85:Generated_Source\PSoC6\pdl\rtos\FreeRTOS\10.0.1\Source/stream_buffer.c **** 				( pxStreamBuffer )->xTaskWaitingToSend = NULL;							\
  86:Generated_Source\PSoC6\pdl\rtos\FreeRTOS\10.0.1\Source/stream_buffer.c **** 			}																			\
ARM GAS  C:\Users\stijn\AppData\Local\Temp\cccniDcZ.s 			page 3


  87:Generated_Source\PSoC6\pdl\rtos\FreeRTOS\10.0.1\Source/stream_buffer.c **** 		}																				\
  88:Generated_Source\PSoC6\pdl\rtos\FreeRTOS\10.0.1\Source/stream_buffer.c **** 		portCLEAR_INTERRUPT_MASK_FROM_ISR( uxSavedInterruptStatus );					\
  89:Generated_Source\PSoC6\pdl\rtos\FreeRTOS\10.0.1\Source/stream_buffer.c **** 	}
  90:Generated_Source\PSoC6\pdl\rtos\FreeRTOS\10.0.1\Source/stream_buffer.c **** #endif /* sbRECEIVE_COMPLETED_FROM_ISR */
  91:Generated_Source\PSoC6\pdl\rtos\FreeRTOS\10.0.1\Source/stream_buffer.c **** 
  92:Generated_Source\PSoC6\pdl\rtos\FreeRTOS\10.0.1\Source/stream_buffer.c **** /* If the user has not provided an application specific Tx notification macro,
  93:Generated_Source\PSoC6\pdl\rtos\FreeRTOS\10.0.1\Source/stream_buffer.c **** or #defined the notification macro away, them provide a default implementation
  94:Generated_Source\PSoC6\pdl\rtos\FreeRTOS\10.0.1\Source/stream_buffer.c **** that uses task notifications. */
  95:Generated_Source\PSoC6\pdl\rtos\FreeRTOS\10.0.1\Source/stream_buffer.c **** #ifndef sbSEND_COMPLETED
  96:Generated_Source\PSoC6\pdl\rtos\FreeRTOS\10.0.1\Source/stream_buffer.c **** 	#define sbSEND_COMPLETED( pxStreamBuffer )											\
  97:Generated_Source\PSoC6\pdl\rtos\FreeRTOS\10.0.1\Source/stream_buffer.c **** 		vTaskSuspendAll();																\
  98:Generated_Source\PSoC6\pdl\rtos\FreeRTOS\10.0.1\Source/stream_buffer.c **** 		{																				\
  99:Generated_Source\PSoC6\pdl\rtos\FreeRTOS\10.0.1\Source/stream_buffer.c **** 			if( ( pxStreamBuffer )->xTaskWaitingToReceive != NULL )						\
 100:Generated_Source\PSoC6\pdl\rtos\FreeRTOS\10.0.1\Source/stream_buffer.c **** 			{																			\
 101:Generated_Source\PSoC6\pdl\rtos\FreeRTOS\10.0.1\Source/stream_buffer.c **** 				( void ) xTaskNotify( ( pxStreamBuffer )->xTaskWaitingToReceive,		\
 102:Generated_Source\PSoC6\pdl\rtos\FreeRTOS\10.0.1\Source/stream_buffer.c **** 									  ( uint32_t ) 0,									\
 103:Generated_Source\PSoC6\pdl\rtos\FreeRTOS\10.0.1\Source/stream_buffer.c **** 									  eNoAction );										\
 104:Generated_Source\PSoC6\pdl\rtos\FreeRTOS\10.0.1\Source/stream_buffer.c **** 				( pxStreamBuffer )->xTaskWaitingToReceive = NULL;						\
 105:Generated_Source\PSoC6\pdl\rtos\FreeRTOS\10.0.1\Source/stream_buffer.c **** 			}																			\
 106:Generated_Source\PSoC6\pdl\rtos\FreeRTOS\10.0.1\Source/stream_buffer.c **** 		}																				\
 107:Generated_Source\PSoC6\pdl\rtos\FreeRTOS\10.0.1\Source/stream_buffer.c **** 		( void ) xTaskResumeAll();
 108:Generated_Source\PSoC6\pdl\rtos\FreeRTOS\10.0.1\Source/stream_buffer.c **** #endif /* sbSEND_COMPLETED */
 109:Generated_Source\PSoC6\pdl\rtos\FreeRTOS\10.0.1\Source/stream_buffer.c **** 
 110:Generated_Source\PSoC6\pdl\rtos\FreeRTOS\10.0.1\Source/stream_buffer.c **** #ifndef sbSEND_COMPLETE_FROM_ISR
 111:Generated_Source\PSoC6\pdl\rtos\FreeRTOS\10.0.1\Source/stream_buffer.c **** 	#define sbSEND_COMPLETE_FROM_ISR( pxStreamBuffer, pxHigherPriorityTaskWoken )		\
 112:Generated_Source\PSoC6\pdl\rtos\FreeRTOS\10.0.1\Source/stream_buffer.c **** 	{																					\
 113:Generated_Source\PSoC6\pdl\rtos\FreeRTOS\10.0.1\Source/stream_buffer.c **** 	UBaseType_t uxSavedInterruptStatus;													\
 114:Generated_Source\PSoC6\pdl\rtos\FreeRTOS\10.0.1\Source/stream_buffer.c **** 																						\
 115:Generated_Source\PSoC6\pdl\rtos\FreeRTOS\10.0.1\Source/stream_buffer.c **** 		uxSavedInterruptStatus = ( UBaseType_t ) portSET_INTERRUPT_MASK_FROM_ISR();		\
 116:Generated_Source\PSoC6\pdl\rtos\FreeRTOS\10.0.1\Source/stream_buffer.c **** 		{																				\
 117:Generated_Source\PSoC6\pdl\rtos\FreeRTOS\10.0.1\Source/stream_buffer.c **** 			if( ( pxStreamBuffer )->xTaskWaitingToReceive != NULL )						\
 118:Generated_Source\PSoC6\pdl\rtos\FreeRTOS\10.0.1\Source/stream_buffer.c **** 			{																			\
 119:Generated_Source\PSoC6\pdl\rtos\FreeRTOS\10.0.1\Source/stream_buffer.c **** 				( void ) xTaskNotifyFromISR( ( pxStreamBuffer )->xTaskWaitingToReceive,	\
 120:Generated_Source\PSoC6\pdl\rtos\FreeRTOS\10.0.1\Source/stream_buffer.c **** 											 ( uint32_t ) 0,							\
 121:Generated_Source\PSoC6\pdl\rtos\FreeRTOS\10.0.1\Source/stream_buffer.c **** 											 eNoAction,									\
 122:Generated_Source\PSoC6\pdl\rtos\FreeRTOS\10.0.1\Source/stream_buffer.c **** 											 pxHigherPriorityTaskWoken );				\
 123:Generated_Source\PSoC6\pdl\rtos\FreeRTOS\10.0.1\Source/stream_buffer.c **** 				( pxStreamBuffer )->xTaskWaitingToReceive = NULL;						\
 124:Generated_Source\PSoC6\pdl\rtos\FreeRTOS\10.0.1\Source/stream_buffer.c **** 			}																			\
 125:Generated_Source\PSoC6\pdl\rtos\FreeRTOS\10.0.1\Source/stream_buffer.c **** 		}																				\
 126:Generated_Source\PSoC6\pdl\rtos\FreeRTOS\10.0.1\Source/stream_buffer.c **** 		portCLEAR_INTERRUPT_MASK_FROM_ISR( uxSavedInterruptStatus );					\
 127:Generated_Source\PSoC6\pdl\rtos\FreeRTOS\10.0.1\Source/stream_buffer.c **** 	}
 128:Generated_Source\PSoC6\pdl\rtos\FreeRTOS\10.0.1\Source/stream_buffer.c **** #endif /* sbSEND_COMPLETE_FROM_ISR */
 129:Generated_Source\PSoC6\pdl\rtos\FreeRTOS\10.0.1\Source/stream_buffer.c **** /*lint -restore (9026) */
 130:Generated_Source\PSoC6\pdl\rtos\FreeRTOS\10.0.1\Source/stream_buffer.c **** 
 131:Generated_Source\PSoC6\pdl\rtos\FreeRTOS\10.0.1\Source/stream_buffer.c **** /* The number of bytes used to hold the length of a message in the buffer. */
 132:Generated_Source\PSoC6\pdl\rtos\FreeRTOS\10.0.1\Source/stream_buffer.c **** #define sbBYTES_TO_STORE_MESSAGE_LENGTH ( sizeof( size_t ) )
 133:Generated_Source\PSoC6\pdl\rtos\FreeRTOS\10.0.1\Source/stream_buffer.c **** 
 134:Generated_Source\PSoC6\pdl\rtos\FreeRTOS\10.0.1\Source/stream_buffer.c **** /* Bits stored in the ucFlags field of the stream buffer. */
 135:Generated_Source\PSoC6\pdl\rtos\FreeRTOS\10.0.1\Source/stream_buffer.c **** #define sbFLAGS_IS_MESSAGE_BUFFER		( ( uint8_t ) 1 ) /* Set if the stream buffer was created as a m
 136:Generated_Source\PSoC6\pdl\rtos\FreeRTOS\10.0.1\Source/stream_buffer.c **** #define sbFLAGS_IS_STATICALLY_ALLOCATED ( ( uint8_t ) 2 ) /* Set if the stream buffer was created u
 137:Generated_Source\PSoC6\pdl\rtos\FreeRTOS\10.0.1\Source/stream_buffer.c **** 
 138:Generated_Source\PSoC6\pdl\rtos\FreeRTOS\10.0.1\Source/stream_buffer.c **** /*-----------------------------------------------------------*/
 139:Generated_Source\PSoC6\pdl\rtos\FreeRTOS\10.0.1\Source/stream_buffer.c **** 
 140:Generated_Source\PSoC6\pdl\rtos\FreeRTOS\10.0.1\Source/stream_buffer.c **** /* Structure that hold state information on the buffer. */
 141:Generated_Source\PSoC6\pdl\rtos\FreeRTOS\10.0.1\Source/stream_buffer.c **** typedef struct xSTREAM_BUFFER /*lint !e9058 Style convention uses tag. */
 142:Generated_Source\PSoC6\pdl\rtos\FreeRTOS\10.0.1\Source/stream_buffer.c **** {
 143:Generated_Source\PSoC6\pdl\rtos\FreeRTOS\10.0.1\Source/stream_buffer.c **** 	volatile size_t xTail;				/* Index to the next item to read within the buffer. */
ARM GAS  C:\Users\stijn\AppData\Local\Temp\cccniDcZ.s 			page 4


 144:Generated_Source\PSoC6\pdl\rtos\FreeRTOS\10.0.1\Source/stream_buffer.c **** 	volatile size_t xHead;				/* Index to the next item to write within the buffer. */
 145:Generated_Source\PSoC6\pdl\rtos\FreeRTOS\10.0.1\Source/stream_buffer.c **** 	size_t xLength;						/* The length of the buffer pointed to by pucBuffer. */
 146:Generated_Source\PSoC6\pdl\rtos\FreeRTOS\10.0.1\Source/stream_buffer.c **** 	size_t xTriggerLevelBytes;			/* The number of bytes that must be in the stream buffer before a tas
 147:Generated_Source\PSoC6\pdl\rtos\FreeRTOS\10.0.1\Source/stream_buffer.c **** 	volatile TaskHandle_t xTaskWaitingToReceive; /* Holds the handle of a task waiting for data, or NU
 148:Generated_Source\PSoC6\pdl\rtos\FreeRTOS\10.0.1\Source/stream_buffer.c **** 	volatile TaskHandle_t xTaskWaitingToSend;	/* Holds the handle of a task waiting to send data to a 
 149:Generated_Source\PSoC6\pdl\rtos\FreeRTOS\10.0.1\Source/stream_buffer.c **** 	uint8_t *pucBuffer;					/* Points to the buffer itself - that is - the RAM that stores the data pa
 150:Generated_Source\PSoC6\pdl\rtos\FreeRTOS\10.0.1\Source/stream_buffer.c **** 	uint8_t ucFlags;
 151:Generated_Source\PSoC6\pdl\rtos\FreeRTOS\10.0.1\Source/stream_buffer.c **** 
 152:Generated_Source\PSoC6\pdl\rtos\FreeRTOS\10.0.1\Source/stream_buffer.c **** 	#if ( configUSE_TRACE_FACILITY == 1 )
 153:Generated_Source\PSoC6\pdl\rtos\FreeRTOS\10.0.1\Source/stream_buffer.c **** 		UBaseType_t uxStreamBufferNumber;		/* Used for tracing purposes. */
 154:Generated_Source\PSoC6\pdl\rtos\FreeRTOS\10.0.1\Source/stream_buffer.c **** 	#endif
 155:Generated_Source\PSoC6\pdl\rtos\FreeRTOS\10.0.1\Source/stream_buffer.c **** } StreamBuffer_t;
 156:Generated_Source\PSoC6\pdl\rtos\FreeRTOS\10.0.1\Source/stream_buffer.c **** 
 157:Generated_Source\PSoC6\pdl\rtos\FreeRTOS\10.0.1\Source/stream_buffer.c **** /*
 158:Generated_Source\PSoC6\pdl\rtos\FreeRTOS\10.0.1\Source/stream_buffer.c ****  * The number of bytes available to be read from the buffer.
 159:Generated_Source\PSoC6\pdl\rtos\FreeRTOS\10.0.1\Source/stream_buffer.c ****  */
 160:Generated_Source\PSoC6\pdl\rtos\FreeRTOS\10.0.1\Source/stream_buffer.c **** static size_t prvBytesInBuffer( const StreamBuffer_t * const pxStreamBuffer ) PRIVILEGED_FUNCTION;
 161:Generated_Source\PSoC6\pdl\rtos\FreeRTOS\10.0.1\Source/stream_buffer.c **** 
 162:Generated_Source\PSoC6\pdl\rtos\FreeRTOS\10.0.1\Source/stream_buffer.c **** /*
 163:Generated_Source\PSoC6\pdl\rtos\FreeRTOS\10.0.1\Source/stream_buffer.c ****  * Add xCount bytes from pucData into the pxStreamBuffer message buffer.
 164:Generated_Source\PSoC6\pdl\rtos\FreeRTOS\10.0.1\Source/stream_buffer.c ****  * Returns the number of bytes written, which will either equal xCount in the
 165:Generated_Source\PSoC6\pdl\rtos\FreeRTOS\10.0.1\Source/stream_buffer.c ****  * success case, or 0 if there was not enough space in the buffer (in which case
 166:Generated_Source\PSoC6\pdl\rtos\FreeRTOS\10.0.1\Source/stream_buffer.c ****  * no data is written into the buffer).
 167:Generated_Source\PSoC6\pdl\rtos\FreeRTOS\10.0.1\Source/stream_buffer.c ****  */
 168:Generated_Source\PSoC6\pdl\rtos\FreeRTOS\10.0.1\Source/stream_buffer.c **** static size_t prvWriteBytesToBuffer( StreamBuffer_t * const pxStreamBuffer, const uint8_t *pucData,
 169:Generated_Source\PSoC6\pdl\rtos\FreeRTOS\10.0.1\Source/stream_buffer.c **** 
 170:Generated_Source\PSoC6\pdl\rtos\FreeRTOS\10.0.1\Source/stream_buffer.c **** /*
 171:Generated_Source\PSoC6\pdl\rtos\FreeRTOS\10.0.1\Source/stream_buffer.c ****  * If the stream buffer is being used as a message buffer, then reads an entire
 172:Generated_Source\PSoC6\pdl\rtos\FreeRTOS\10.0.1\Source/stream_buffer.c ****  * message out of the buffer.  If the stream buffer is being used as a stream
 173:Generated_Source\PSoC6\pdl\rtos\FreeRTOS\10.0.1\Source/stream_buffer.c ****  * buffer then read as many bytes as possible from the buffer.
 174:Generated_Source\PSoC6\pdl\rtos\FreeRTOS\10.0.1\Source/stream_buffer.c ****  * prvReadBytesFromBuffer() is called to actually extract the bytes from the
 175:Generated_Source\PSoC6\pdl\rtos\FreeRTOS\10.0.1\Source/stream_buffer.c ****  * buffer's data storage area.
 176:Generated_Source\PSoC6\pdl\rtos\FreeRTOS\10.0.1\Source/stream_buffer.c ****  */
 177:Generated_Source\PSoC6\pdl\rtos\FreeRTOS\10.0.1\Source/stream_buffer.c **** static size_t prvReadMessageFromBuffer( StreamBuffer_t *pxStreamBuffer,
 178:Generated_Source\PSoC6\pdl\rtos\FreeRTOS\10.0.1\Source/stream_buffer.c **** 										void *pvRxData,
 179:Generated_Source\PSoC6\pdl\rtos\FreeRTOS\10.0.1\Source/stream_buffer.c **** 										size_t xBufferLengthBytes,
 180:Generated_Source\PSoC6\pdl\rtos\FreeRTOS\10.0.1\Source/stream_buffer.c **** 										size_t xBytesAvailable,
 181:Generated_Source\PSoC6\pdl\rtos\FreeRTOS\10.0.1\Source/stream_buffer.c **** 										size_t xBytesToStoreMessageLength ) PRIVILEGED_FUNCTION;
 182:Generated_Source\PSoC6\pdl\rtos\FreeRTOS\10.0.1\Source/stream_buffer.c **** 
 183:Generated_Source\PSoC6\pdl\rtos\FreeRTOS\10.0.1\Source/stream_buffer.c **** /*
 184:Generated_Source\PSoC6\pdl\rtos\FreeRTOS\10.0.1\Source/stream_buffer.c ****  * If the stream buffer is being used as a message buffer, then writes an entire
 185:Generated_Source\PSoC6\pdl\rtos\FreeRTOS\10.0.1\Source/stream_buffer.c ****  * message to the buffer.  If the stream buffer is being used as a stream
 186:Generated_Source\PSoC6\pdl\rtos\FreeRTOS\10.0.1\Source/stream_buffer.c ****  * buffer then write as many bytes as possible to the buffer.
 187:Generated_Source\PSoC6\pdl\rtos\FreeRTOS\10.0.1\Source/stream_buffer.c ****  * prvWriteBytestoBuffer() is called to actually send the bytes to the buffer's
 188:Generated_Source\PSoC6\pdl\rtos\FreeRTOS\10.0.1\Source/stream_buffer.c ****  * data storage area.
 189:Generated_Source\PSoC6\pdl\rtos\FreeRTOS\10.0.1\Source/stream_buffer.c ****  */
 190:Generated_Source\PSoC6\pdl\rtos\FreeRTOS\10.0.1\Source/stream_buffer.c **** static size_t prvWriteMessageToBuffer(  StreamBuffer_t * const pxStreamBuffer,
 191:Generated_Source\PSoC6\pdl\rtos\FreeRTOS\10.0.1\Source/stream_buffer.c **** 										const void * pvTxData,
 192:Generated_Source\PSoC6\pdl\rtos\FreeRTOS\10.0.1\Source/stream_buffer.c **** 										size_t xDataLengthBytes,
 193:Generated_Source\PSoC6\pdl\rtos\FreeRTOS\10.0.1\Source/stream_buffer.c **** 										size_t xSpace,
 194:Generated_Source\PSoC6\pdl\rtos\FreeRTOS\10.0.1\Source/stream_buffer.c **** 										size_t xRequiredSpace ) PRIVILEGED_FUNCTION;
 195:Generated_Source\PSoC6\pdl\rtos\FreeRTOS\10.0.1\Source/stream_buffer.c **** 
 196:Generated_Source\PSoC6\pdl\rtos\FreeRTOS\10.0.1\Source/stream_buffer.c **** /*
 197:Generated_Source\PSoC6\pdl\rtos\FreeRTOS\10.0.1\Source/stream_buffer.c ****  * Read xMaxCount bytes from the pxStreamBuffer message buffer and write them
 198:Generated_Source\PSoC6\pdl\rtos\FreeRTOS\10.0.1\Source/stream_buffer.c ****  * to pucData.
 199:Generated_Source\PSoC6\pdl\rtos\FreeRTOS\10.0.1\Source/stream_buffer.c ****  */
 200:Generated_Source\PSoC6\pdl\rtos\FreeRTOS\10.0.1\Source/stream_buffer.c **** static size_t prvReadBytesFromBuffer( StreamBuffer_t *pxStreamBuffer,
ARM GAS  C:\Users\stijn\AppData\Local\Temp\cccniDcZ.s 			page 5


 201:Generated_Source\PSoC6\pdl\rtos\FreeRTOS\10.0.1\Source/stream_buffer.c **** 									  uint8_t *pucData,
 202:Generated_Source\PSoC6\pdl\rtos\FreeRTOS\10.0.1\Source/stream_buffer.c **** 									  size_t xMaxCount,
 203:Generated_Source\PSoC6\pdl\rtos\FreeRTOS\10.0.1\Source/stream_buffer.c **** 									  size_t xBytesAvailable ); PRIVILEGED_FUNCTION
 204:Generated_Source\PSoC6\pdl\rtos\FreeRTOS\10.0.1\Source/stream_buffer.c **** 
 205:Generated_Source\PSoC6\pdl\rtos\FreeRTOS\10.0.1\Source/stream_buffer.c **** /*
 206:Generated_Source\PSoC6\pdl\rtos\FreeRTOS\10.0.1\Source/stream_buffer.c ****  * Called by both pxStreamBufferCreate() and pxStreamBufferCreateStatic() to
 207:Generated_Source\PSoC6\pdl\rtos\FreeRTOS\10.0.1\Source/stream_buffer.c ****  * initialise the members of the newly created stream buffer structure.
 208:Generated_Source\PSoC6\pdl\rtos\FreeRTOS\10.0.1\Source/stream_buffer.c ****  */
 209:Generated_Source\PSoC6\pdl\rtos\FreeRTOS\10.0.1\Source/stream_buffer.c **** static void prvInitialiseNewStreamBuffer( StreamBuffer_t * const pxStreamBuffer,
 210:Generated_Source\PSoC6\pdl\rtos\FreeRTOS\10.0.1\Source/stream_buffer.c **** 										  uint8_t * const pucBuffer,
 211:Generated_Source\PSoC6\pdl\rtos\FreeRTOS\10.0.1\Source/stream_buffer.c **** 										  size_t xBufferSizeBytes,
 212:Generated_Source\PSoC6\pdl\rtos\FreeRTOS\10.0.1\Source/stream_buffer.c **** 										  size_t xTriggerLevelBytes,
 213:Generated_Source\PSoC6\pdl\rtos\FreeRTOS\10.0.1\Source/stream_buffer.c **** 										  BaseType_t xIsMessageBuffer ) PRIVILEGED_FUNCTION;
 214:Generated_Source\PSoC6\pdl\rtos\FreeRTOS\10.0.1\Source/stream_buffer.c **** 
 215:Generated_Source\PSoC6\pdl\rtos\FreeRTOS\10.0.1\Source/stream_buffer.c **** /*-----------------------------------------------------------*/
 216:Generated_Source\PSoC6\pdl\rtos\FreeRTOS\10.0.1\Source/stream_buffer.c **** 
 217:Generated_Source\PSoC6\pdl\rtos\FreeRTOS\10.0.1\Source/stream_buffer.c **** #if( configSUPPORT_DYNAMIC_ALLOCATION == 1 )
 218:Generated_Source\PSoC6\pdl\rtos\FreeRTOS\10.0.1\Source/stream_buffer.c **** 
 219:Generated_Source\PSoC6\pdl\rtos\FreeRTOS\10.0.1\Source/stream_buffer.c **** 	StreamBufferHandle_t xStreamBufferGenericCreate( size_t xBufferSizeBytes, size_t xTriggerLevelByte
 220:Generated_Source\PSoC6\pdl\rtos\FreeRTOS\10.0.1\Source/stream_buffer.c **** 	{
  29              		.loc 1 220 0
  30              		.cfi_startproc
  31              		@ args = 0, pretend = 0, frame = 32
  32              		@ frame_needed = 1, uses_anonymous_args = 0
  33 0000 80B5     		push	{r7, lr}
  34              		.cfi_def_cfa_offset 8
  35              		.cfi_offset 7, -8
  36              		.cfi_offset 14, -4
  37 0002 8AB0     		sub	sp, sp, #40
  38              		.cfi_def_cfa_offset 48
  39 0004 02AF     		add	r7, sp, #8
  40              		.cfi_def_cfa 7, 40
  41 0006 F860     		str	r0, [r7, #12]
  42 0008 B960     		str	r1, [r7, #8]
  43 000a 7A60     		str	r2, [r7, #4]
 221:Generated_Source\PSoC6\pdl\rtos\FreeRTOS\10.0.1\Source/stream_buffer.c **** 	uint8_t *pucAllocatedMemory;
 222:Generated_Source\PSoC6\pdl\rtos\FreeRTOS\10.0.1\Source/stream_buffer.c **** 
 223:Generated_Source\PSoC6\pdl\rtos\FreeRTOS\10.0.1\Source/stream_buffer.c **** 		/* In case the stream buffer is going to be used as a message buffer
 224:Generated_Source\PSoC6\pdl\rtos\FreeRTOS\10.0.1\Source/stream_buffer.c **** 		(that is, it will hold discrete messages with a little meta data that
 225:Generated_Source\PSoC6\pdl\rtos\FreeRTOS\10.0.1\Source/stream_buffer.c **** 		says how big the next message is) check the buffer will be large enough
 226:Generated_Source\PSoC6\pdl\rtos\FreeRTOS\10.0.1\Source/stream_buffer.c **** 		to hold at least one message. */
 227:Generated_Source\PSoC6\pdl\rtos\FreeRTOS\10.0.1\Source/stream_buffer.c **** 		configASSERT( xBufferSizeBytes > sbBYTES_TO_STORE_MESSAGE_LENGTH );
  44              		.loc 1 227 0
  45 000c FB68     		ldr	r3, [r7, #12]
  46 000e 042B     		cmp	r3, #4
  47 0010 09D8     		bhi	.L2
  48              	.LBB77:
  49              	.LBB78:
  50              		.file 2 "Generated_Source\\PSoC6\\pdl\\rtos/FreeRTOS/10.0.1/Source/portable/GCC/CM4F/portmacro.h"
   1:Generated_Source\PSoC6\pdl\rtos/FreeRTOS/10.0.1/Source/portable/GCC/CM4F/portmacro.h **** /*
   2:Generated_Source\PSoC6\pdl\rtos/FreeRTOS/10.0.1/Source/portable/GCC/CM4F/portmacro.h ****  * FreeRTOS Kernel V10.0.1
   3:Generated_Source\PSoC6\pdl\rtos/FreeRTOS/10.0.1/Source/portable/GCC/CM4F/portmacro.h ****  * Copyright (C) 2017 Amazon.com, Inc. or its affiliates.  All Rights Reserved.
   4:Generated_Source\PSoC6\pdl\rtos/FreeRTOS/10.0.1/Source/portable/GCC/CM4F/portmacro.h ****  *
   5:Generated_Source\PSoC6\pdl\rtos/FreeRTOS/10.0.1/Source/portable/GCC/CM4F/portmacro.h ****  * Permission is hereby granted, free of charge, to any person obtaining a copy of
   6:Generated_Source\PSoC6\pdl\rtos/FreeRTOS/10.0.1/Source/portable/GCC/CM4F/portmacro.h ****  * this software and associated documentation files (the "Software"), to deal in
   7:Generated_Source\PSoC6\pdl\rtos/FreeRTOS/10.0.1/Source/portable/GCC/CM4F/portmacro.h ****  * the Software without restriction, including without limitation the rights to
   8:Generated_Source\PSoC6\pdl\rtos/FreeRTOS/10.0.1/Source/portable/GCC/CM4F/portmacro.h ****  * use, copy, modify, merge, publish, distribute, sublicense, and/or sell copies of
ARM GAS  C:\Users\stijn\AppData\Local\Temp\cccniDcZ.s 			page 6


   9:Generated_Source\PSoC6\pdl\rtos/FreeRTOS/10.0.1/Source/portable/GCC/CM4F/portmacro.h ****  * the Software, and to permit persons to whom the Software is furnished to do so,
  10:Generated_Source\PSoC6\pdl\rtos/FreeRTOS/10.0.1/Source/portable/GCC/CM4F/portmacro.h ****  * subject to the following conditions:
  11:Generated_Source\PSoC6\pdl\rtos/FreeRTOS/10.0.1/Source/portable/GCC/CM4F/portmacro.h ****  *
  12:Generated_Source\PSoC6\pdl\rtos/FreeRTOS/10.0.1/Source/portable/GCC/CM4F/portmacro.h ****  * The above copyright notice and this permission notice shall be included in all
  13:Generated_Source\PSoC6\pdl\rtos/FreeRTOS/10.0.1/Source/portable/GCC/CM4F/portmacro.h ****  * copies or substantial portions of the Software.
  14:Generated_Source\PSoC6\pdl\rtos/FreeRTOS/10.0.1/Source/portable/GCC/CM4F/portmacro.h ****  *
  15:Generated_Source\PSoC6\pdl\rtos/FreeRTOS/10.0.1/Source/portable/GCC/CM4F/portmacro.h ****  * THE SOFTWARE IS PROVIDED "AS IS", WITHOUT WARRANTY OF ANY KIND, EXPRESS OR
  16:Generated_Source\PSoC6\pdl\rtos/FreeRTOS/10.0.1/Source/portable/GCC/CM4F/portmacro.h ****  * IMPLIED, INCLUDING BUT NOT LIMITED TO THE WARRANTIES OF MERCHANTABILITY, FITNESS
  17:Generated_Source\PSoC6\pdl\rtos/FreeRTOS/10.0.1/Source/portable/GCC/CM4F/portmacro.h ****  * FOR A PARTICULAR PURPOSE AND NONINFRINGEMENT. IN NO EVENT SHALL THE AUTHORS OR
  18:Generated_Source\PSoC6\pdl\rtos/FreeRTOS/10.0.1/Source/portable/GCC/CM4F/portmacro.h ****  * COPYRIGHT HOLDERS BE LIABLE FOR ANY CLAIM, DAMAGES OR OTHER LIABILITY, WHETHER
  19:Generated_Source\PSoC6\pdl\rtos/FreeRTOS/10.0.1/Source/portable/GCC/CM4F/portmacro.h ****  * IN AN ACTION OF CONTRACT, TORT OR OTHERWISE, ARISING FROM, OUT OF OR IN
  20:Generated_Source\PSoC6\pdl\rtos/FreeRTOS/10.0.1/Source/portable/GCC/CM4F/portmacro.h ****  * CONNECTION WITH THE SOFTWARE OR THE USE OR OTHER DEALINGS IN THE SOFTWARE.
  21:Generated_Source\PSoC6\pdl\rtos/FreeRTOS/10.0.1/Source/portable/GCC/CM4F/portmacro.h ****  *
  22:Generated_Source\PSoC6\pdl\rtos/FreeRTOS/10.0.1/Source/portable/GCC/CM4F/portmacro.h ****  * http://www.FreeRTOS.org
  23:Generated_Source\PSoC6\pdl\rtos/FreeRTOS/10.0.1/Source/portable/GCC/CM4F/portmacro.h ****  * http://aws.amazon.com/freertos
  24:Generated_Source\PSoC6\pdl\rtos/FreeRTOS/10.0.1/Source/portable/GCC/CM4F/portmacro.h ****  *
  25:Generated_Source\PSoC6\pdl\rtos/FreeRTOS/10.0.1/Source/portable/GCC/CM4F/portmacro.h ****  * 1 tab == 4 spaces!
  26:Generated_Source\PSoC6\pdl\rtos/FreeRTOS/10.0.1/Source/portable/GCC/CM4F/portmacro.h ****  */
  27:Generated_Source\PSoC6\pdl\rtos/FreeRTOS/10.0.1/Source/portable/GCC/CM4F/portmacro.h **** 
  28:Generated_Source\PSoC6\pdl\rtos/FreeRTOS/10.0.1/Source/portable/GCC/CM4F/portmacro.h **** 
  29:Generated_Source\PSoC6\pdl\rtos/FreeRTOS/10.0.1/Source/portable/GCC/CM4F/portmacro.h **** #ifndef PORTMACRO_H
  30:Generated_Source\PSoC6\pdl\rtos/FreeRTOS/10.0.1/Source/portable/GCC/CM4F/portmacro.h **** #define PORTMACRO_H
  31:Generated_Source\PSoC6\pdl\rtos/FreeRTOS/10.0.1/Source/portable/GCC/CM4F/portmacro.h **** 
  32:Generated_Source\PSoC6\pdl\rtos/FreeRTOS/10.0.1/Source/portable/GCC/CM4F/portmacro.h **** #ifdef __cplusplus
  33:Generated_Source\PSoC6\pdl\rtos/FreeRTOS/10.0.1/Source/portable/GCC/CM4F/portmacro.h **** extern "C" {
  34:Generated_Source\PSoC6\pdl\rtos/FreeRTOS/10.0.1/Source/portable/GCC/CM4F/portmacro.h **** #endif
  35:Generated_Source\PSoC6\pdl\rtos/FreeRTOS/10.0.1/Source/portable/GCC/CM4F/portmacro.h **** 
  36:Generated_Source\PSoC6\pdl\rtos/FreeRTOS/10.0.1/Source/portable/GCC/CM4F/portmacro.h **** /*-----------------------------------------------------------
  37:Generated_Source\PSoC6\pdl\rtos/FreeRTOS/10.0.1/Source/portable/GCC/CM4F/portmacro.h ****  * Port specific definitions.
  38:Generated_Source\PSoC6\pdl\rtos/FreeRTOS/10.0.1/Source/portable/GCC/CM4F/portmacro.h ****  *
  39:Generated_Source\PSoC6\pdl\rtos/FreeRTOS/10.0.1/Source/portable/GCC/CM4F/portmacro.h ****  * The settings in this file configure FreeRTOS correctly for the
  40:Generated_Source\PSoC6\pdl\rtos/FreeRTOS/10.0.1/Source/portable/GCC/CM4F/portmacro.h ****  * given hardware and compiler.
  41:Generated_Source\PSoC6\pdl\rtos/FreeRTOS/10.0.1/Source/portable/GCC/CM4F/portmacro.h ****  *
  42:Generated_Source\PSoC6\pdl\rtos/FreeRTOS/10.0.1/Source/portable/GCC/CM4F/portmacro.h ****  * These settings should not be altered.
  43:Generated_Source\PSoC6\pdl\rtos/FreeRTOS/10.0.1/Source/portable/GCC/CM4F/portmacro.h ****  *-----------------------------------------------------------
  44:Generated_Source\PSoC6\pdl\rtos/FreeRTOS/10.0.1/Source/portable/GCC/CM4F/portmacro.h ****  */
  45:Generated_Source\PSoC6\pdl\rtos/FreeRTOS/10.0.1/Source/portable/GCC/CM4F/portmacro.h **** 
  46:Generated_Source\PSoC6\pdl\rtos/FreeRTOS/10.0.1/Source/portable/GCC/CM4F/portmacro.h **** /* Type definitions. */
  47:Generated_Source\PSoC6\pdl\rtos/FreeRTOS/10.0.1/Source/portable/GCC/CM4F/portmacro.h **** #define portCHAR		char
  48:Generated_Source\PSoC6\pdl\rtos/FreeRTOS/10.0.1/Source/portable/GCC/CM4F/portmacro.h **** #define portFLOAT		float
  49:Generated_Source\PSoC6\pdl\rtos/FreeRTOS/10.0.1/Source/portable/GCC/CM4F/portmacro.h **** #define portDOUBLE		double
  50:Generated_Source\PSoC6\pdl\rtos/FreeRTOS/10.0.1/Source/portable/GCC/CM4F/portmacro.h **** #define portLONG		long
  51:Generated_Source\PSoC6\pdl\rtos/FreeRTOS/10.0.1/Source/portable/GCC/CM4F/portmacro.h **** #define portSHORT		short
  52:Generated_Source\PSoC6\pdl\rtos/FreeRTOS/10.0.1/Source/portable/GCC/CM4F/portmacro.h **** #define portSTACK_TYPE	uint32_t
  53:Generated_Source\PSoC6\pdl\rtos/FreeRTOS/10.0.1/Source/portable/GCC/CM4F/portmacro.h **** #define portBASE_TYPE	long
  54:Generated_Source\PSoC6\pdl\rtos/FreeRTOS/10.0.1/Source/portable/GCC/CM4F/portmacro.h **** 
  55:Generated_Source\PSoC6\pdl\rtos/FreeRTOS/10.0.1/Source/portable/GCC/CM4F/portmacro.h **** typedef portSTACK_TYPE StackType_t;
  56:Generated_Source\PSoC6\pdl\rtos/FreeRTOS/10.0.1/Source/portable/GCC/CM4F/portmacro.h **** typedef long BaseType_t;
  57:Generated_Source\PSoC6\pdl\rtos/FreeRTOS/10.0.1/Source/portable/GCC/CM4F/portmacro.h **** typedef unsigned long UBaseType_t;
  58:Generated_Source\PSoC6\pdl\rtos/FreeRTOS/10.0.1/Source/portable/GCC/CM4F/portmacro.h **** 
  59:Generated_Source\PSoC6\pdl\rtos/FreeRTOS/10.0.1/Source/portable/GCC/CM4F/portmacro.h **** #if( configUSE_16_BIT_TICKS == 1 )
  60:Generated_Source\PSoC6\pdl\rtos/FreeRTOS/10.0.1/Source/portable/GCC/CM4F/portmacro.h **** 	typedef uint16_t TickType_t;
  61:Generated_Source\PSoC6\pdl\rtos/FreeRTOS/10.0.1/Source/portable/GCC/CM4F/portmacro.h **** 	#define portMAX_DELAY ( TickType_t ) 0xffff
  62:Generated_Source\PSoC6\pdl\rtos/FreeRTOS/10.0.1/Source/portable/GCC/CM4F/portmacro.h **** #else
  63:Generated_Source\PSoC6\pdl\rtos/FreeRTOS/10.0.1/Source/portable/GCC/CM4F/portmacro.h **** 	typedef uint32_t TickType_t;
  64:Generated_Source\PSoC6\pdl\rtos/FreeRTOS/10.0.1/Source/portable/GCC/CM4F/portmacro.h **** 	#define portMAX_DELAY ( TickType_t ) 0xffffffffUL
  65:Generated_Source\PSoC6\pdl\rtos/FreeRTOS/10.0.1/Source/portable/GCC/CM4F/portmacro.h **** 
ARM GAS  C:\Users\stijn\AppData\Local\Temp\cccniDcZ.s 			page 7


  66:Generated_Source\PSoC6\pdl\rtos/FreeRTOS/10.0.1/Source/portable/GCC/CM4F/portmacro.h **** 	/* 32-bit tick type on a 32-bit architecture, so reads of the tick count do
  67:Generated_Source\PSoC6\pdl\rtos/FreeRTOS/10.0.1/Source/portable/GCC/CM4F/portmacro.h **** 	not need to be guarded with a critical section. */
  68:Generated_Source\PSoC6\pdl\rtos/FreeRTOS/10.0.1/Source/portable/GCC/CM4F/portmacro.h **** 	#define portTICK_TYPE_IS_ATOMIC 1
  69:Generated_Source\PSoC6\pdl\rtos/FreeRTOS/10.0.1/Source/portable/GCC/CM4F/portmacro.h **** #endif
  70:Generated_Source\PSoC6\pdl\rtos/FreeRTOS/10.0.1/Source/portable/GCC/CM4F/portmacro.h **** /*-----------------------------------------------------------*/
  71:Generated_Source\PSoC6\pdl\rtos/FreeRTOS/10.0.1/Source/portable/GCC/CM4F/portmacro.h **** 
  72:Generated_Source\PSoC6\pdl\rtos/FreeRTOS/10.0.1/Source/portable/GCC/CM4F/portmacro.h **** /* Architecture specifics. */
  73:Generated_Source\PSoC6\pdl\rtos/FreeRTOS/10.0.1/Source/portable/GCC/CM4F/portmacro.h **** #define portSTACK_GROWTH			( -1 )
  74:Generated_Source\PSoC6\pdl\rtos/FreeRTOS/10.0.1/Source/portable/GCC/CM4F/portmacro.h **** #define portTICK_PERIOD_MS			( ( TickType_t ) 1000 / configTICK_RATE_HZ )
  75:Generated_Source\PSoC6\pdl\rtos/FreeRTOS/10.0.1/Source/portable/GCC/CM4F/portmacro.h **** #define portBYTE_ALIGNMENT			8
  76:Generated_Source\PSoC6\pdl\rtos/FreeRTOS/10.0.1/Source/portable/GCC/CM4F/portmacro.h **** /*-----------------------------------------------------------*/
  77:Generated_Source\PSoC6\pdl\rtos/FreeRTOS/10.0.1/Source/portable/GCC/CM4F/portmacro.h **** 
  78:Generated_Source\PSoC6\pdl\rtos/FreeRTOS/10.0.1/Source/portable/GCC/CM4F/portmacro.h **** /* Scheduler utilities. */
  79:Generated_Source\PSoC6\pdl\rtos/FreeRTOS/10.0.1/Source/portable/GCC/CM4F/portmacro.h **** #define portYIELD() 															\
  80:Generated_Source\PSoC6\pdl\rtos/FreeRTOS/10.0.1/Source/portable/GCC/CM4F/portmacro.h **** {																				\
  81:Generated_Source\PSoC6\pdl\rtos/FreeRTOS/10.0.1/Source/portable/GCC/CM4F/portmacro.h **** 	/* Set a PendSV to request a context switch. */								\
  82:Generated_Source\PSoC6\pdl\rtos/FreeRTOS/10.0.1/Source/portable/GCC/CM4F/portmacro.h **** 	portNVIC_INT_CTRL_REG = portNVIC_PENDSVSET_BIT;								\
  83:Generated_Source\PSoC6\pdl\rtos/FreeRTOS/10.0.1/Source/portable/GCC/CM4F/portmacro.h **** 																				\
  84:Generated_Source\PSoC6\pdl\rtos/FreeRTOS/10.0.1/Source/portable/GCC/CM4F/portmacro.h **** 	/* Barriers are normally not required but do ensure the code is completely	\
  85:Generated_Source\PSoC6\pdl\rtos/FreeRTOS/10.0.1/Source/portable/GCC/CM4F/portmacro.h **** 	within the specified behaviour for the architecture. */						\
  86:Generated_Source\PSoC6\pdl\rtos/FreeRTOS/10.0.1/Source/portable/GCC/CM4F/portmacro.h **** 	__asm volatile( "dsb" ::: "memory" );										\
  87:Generated_Source\PSoC6\pdl\rtos/FreeRTOS/10.0.1/Source/portable/GCC/CM4F/portmacro.h **** 	__asm volatile( "isb" );													\
  88:Generated_Source\PSoC6\pdl\rtos/FreeRTOS/10.0.1/Source/portable/GCC/CM4F/portmacro.h **** }
  89:Generated_Source\PSoC6\pdl\rtos/FreeRTOS/10.0.1/Source/portable/GCC/CM4F/portmacro.h **** 
  90:Generated_Source\PSoC6\pdl\rtos/FreeRTOS/10.0.1/Source/portable/GCC/CM4F/portmacro.h **** #define portNVIC_INT_CTRL_REG		( * ( ( volatile uint32_t * ) 0xe000ed04 ) )
  91:Generated_Source\PSoC6\pdl\rtos/FreeRTOS/10.0.1/Source/portable/GCC/CM4F/portmacro.h **** #define portNVIC_PENDSVSET_BIT		( 1UL << 28UL )
  92:Generated_Source\PSoC6\pdl\rtos/FreeRTOS/10.0.1/Source/portable/GCC/CM4F/portmacro.h **** #define portEND_SWITCHING_ISR( xSwitchRequired ) if( xSwitchRequired != pdFALSE ) portYIELD()
  93:Generated_Source\PSoC6\pdl\rtos/FreeRTOS/10.0.1/Source/portable/GCC/CM4F/portmacro.h **** #define portYIELD_FROM_ISR( x ) portEND_SWITCHING_ISR( x )
  94:Generated_Source\PSoC6\pdl\rtos/FreeRTOS/10.0.1/Source/portable/GCC/CM4F/portmacro.h **** /*-----------------------------------------------------------*/
  95:Generated_Source\PSoC6\pdl\rtos/FreeRTOS/10.0.1/Source/portable/GCC/CM4F/portmacro.h **** 
  96:Generated_Source\PSoC6\pdl\rtos/FreeRTOS/10.0.1/Source/portable/GCC/CM4F/portmacro.h **** /* Critical section management. */
  97:Generated_Source\PSoC6\pdl\rtos/FreeRTOS/10.0.1/Source/portable/GCC/CM4F/portmacro.h **** extern void vPortEnterCritical( void );
  98:Generated_Source\PSoC6\pdl\rtos/FreeRTOS/10.0.1/Source/portable/GCC/CM4F/portmacro.h **** extern void vPortExitCritical( void );
  99:Generated_Source\PSoC6\pdl\rtos/FreeRTOS/10.0.1/Source/portable/GCC/CM4F/portmacro.h **** #define portSET_INTERRUPT_MASK_FROM_ISR()		ulPortRaiseBASEPRI()
 100:Generated_Source\PSoC6\pdl\rtos/FreeRTOS/10.0.1/Source/portable/GCC/CM4F/portmacro.h **** #define portCLEAR_INTERRUPT_MASK_FROM_ISR(x)	vPortSetBASEPRI(x)
 101:Generated_Source\PSoC6\pdl\rtos/FreeRTOS/10.0.1/Source/portable/GCC/CM4F/portmacro.h **** #define portDISABLE_INTERRUPTS()				vPortRaiseBASEPRI()
 102:Generated_Source\PSoC6\pdl\rtos/FreeRTOS/10.0.1/Source/portable/GCC/CM4F/portmacro.h **** #define portENABLE_INTERRUPTS()					vPortSetBASEPRI(0)
 103:Generated_Source\PSoC6\pdl\rtos/FreeRTOS/10.0.1/Source/portable/GCC/CM4F/portmacro.h **** #define portENTER_CRITICAL()					vPortEnterCritical()
 104:Generated_Source\PSoC6\pdl\rtos/FreeRTOS/10.0.1/Source/portable/GCC/CM4F/portmacro.h **** #define portEXIT_CRITICAL()						vPortExitCritical()
 105:Generated_Source\PSoC6\pdl\rtos/FreeRTOS/10.0.1/Source/portable/GCC/CM4F/portmacro.h **** 
 106:Generated_Source\PSoC6\pdl\rtos/FreeRTOS/10.0.1/Source/portable/GCC/CM4F/portmacro.h **** /*-----------------------------------------------------------*/
 107:Generated_Source\PSoC6\pdl\rtos/FreeRTOS/10.0.1/Source/portable/GCC/CM4F/portmacro.h **** 
 108:Generated_Source\PSoC6\pdl\rtos/FreeRTOS/10.0.1/Source/portable/GCC/CM4F/portmacro.h **** /* Task function macros as described on the FreeRTOS.org WEB site.  These are
 109:Generated_Source\PSoC6\pdl\rtos/FreeRTOS/10.0.1/Source/portable/GCC/CM4F/portmacro.h **** not necessary for to use this port.  They are defined so the common demo files
 110:Generated_Source\PSoC6\pdl\rtos/FreeRTOS/10.0.1/Source/portable/GCC/CM4F/portmacro.h **** (which build with all the ports) will build. */
 111:Generated_Source\PSoC6\pdl\rtos/FreeRTOS/10.0.1/Source/portable/GCC/CM4F/portmacro.h **** #define portTASK_FUNCTION_PROTO( vFunction, pvParameters ) void vFunction( void *pvParameters )
 112:Generated_Source\PSoC6\pdl\rtos/FreeRTOS/10.0.1/Source/portable/GCC/CM4F/portmacro.h **** #define portTASK_FUNCTION( vFunction, pvParameters ) void vFunction( void *pvParameters )
 113:Generated_Source\PSoC6\pdl\rtos/FreeRTOS/10.0.1/Source/portable/GCC/CM4F/portmacro.h **** 
 114:Generated_Source\PSoC6\pdl\rtos/FreeRTOS/10.0.1/Source/portable/GCC/CM4F/portmacro.h **** /*-----------------------------------------------------------*/
 115:Generated_Source\PSoC6\pdl\rtos/FreeRTOS/10.0.1/Source/portable/GCC/CM4F/portmacro.h **** 
 116:Generated_Source\PSoC6\pdl\rtos/FreeRTOS/10.0.1/Source/portable/GCC/CM4F/portmacro.h **** #ifdef configASSERT
 117:Generated_Source\PSoC6\pdl\rtos/FreeRTOS/10.0.1/Source/portable/GCC/CM4F/portmacro.h **** 	void vPortValidateInterruptPriority( void );
 118:Generated_Source\PSoC6\pdl\rtos/FreeRTOS/10.0.1/Source/portable/GCC/CM4F/portmacro.h **** 	#define portASSERT_IF_INTERRUPT_PRIORITY_INVALID() 	vPortValidateInterruptPriority()
 119:Generated_Source\PSoC6\pdl\rtos/FreeRTOS/10.0.1/Source/portable/GCC/CM4F/portmacro.h **** #endif
 120:Generated_Source\PSoC6\pdl\rtos/FreeRTOS/10.0.1/Source/portable/GCC/CM4F/portmacro.h **** 
 121:Generated_Source\PSoC6\pdl\rtos/FreeRTOS/10.0.1/Source/portable/GCC/CM4F/portmacro.h **** /* portNOP() is not required by this port. */
 122:Generated_Source\PSoC6\pdl\rtos/FreeRTOS/10.0.1/Source/portable/GCC/CM4F/portmacro.h **** #define portNOP()
ARM GAS  C:\Users\stijn\AppData\Local\Temp\cccniDcZ.s 			page 8


 123:Generated_Source\PSoC6\pdl\rtos/FreeRTOS/10.0.1/Source/portable/GCC/CM4F/portmacro.h **** 
 124:Generated_Source\PSoC6\pdl\rtos/FreeRTOS/10.0.1/Source/portable/GCC/CM4F/portmacro.h **** #define portINLINE	__inline
 125:Generated_Source\PSoC6\pdl\rtos/FreeRTOS/10.0.1/Source/portable/GCC/CM4F/portmacro.h **** 
 126:Generated_Source\PSoC6\pdl\rtos/FreeRTOS/10.0.1/Source/portable/GCC/CM4F/portmacro.h **** #ifndef portFORCE_INLINE
 127:Generated_Source\PSoC6\pdl\rtos/FreeRTOS/10.0.1/Source/portable/GCC/CM4F/portmacro.h **** 	#define portFORCE_INLINE inline __attribute__(( always_inline))
 128:Generated_Source\PSoC6\pdl\rtos/FreeRTOS/10.0.1/Source/portable/GCC/CM4F/portmacro.h **** #endif
 129:Generated_Source\PSoC6\pdl\rtos/FreeRTOS/10.0.1/Source/portable/GCC/CM4F/portmacro.h **** 
 130:Generated_Source\PSoC6\pdl\rtos/FreeRTOS/10.0.1/Source/portable/GCC/CM4F/portmacro.h **** portFORCE_INLINE static BaseType_t xPortIsInsideInterrupt( void )
 131:Generated_Source\PSoC6\pdl\rtos/FreeRTOS/10.0.1/Source/portable/GCC/CM4F/portmacro.h **** {
 132:Generated_Source\PSoC6\pdl\rtos/FreeRTOS/10.0.1/Source/portable/GCC/CM4F/portmacro.h **** uint32_t ulCurrentInterrupt;
 133:Generated_Source\PSoC6\pdl\rtos/FreeRTOS/10.0.1/Source/portable/GCC/CM4F/portmacro.h **** BaseType_t xReturn;
 134:Generated_Source\PSoC6\pdl\rtos/FreeRTOS/10.0.1/Source/portable/GCC/CM4F/portmacro.h **** 
 135:Generated_Source\PSoC6\pdl\rtos/FreeRTOS/10.0.1/Source/portable/GCC/CM4F/portmacro.h **** 	/* Obtain the number of the currently executing interrupt. */
 136:Generated_Source\PSoC6\pdl\rtos/FreeRTOS/10.0.1/Source/portable/GCC/CM4F/portmacro.h **** 	__asm volatile( "mrs %0, ipsr" : "=r"( ulCurrentInterrupt ) :: "memory" );
 137:Generated_Source\PSoC6\pdl\rtos/FreeRTOS/10.0.1/Source/portable/GCC/CM4F/portmacro.h **** 
 138:Generated_Source\PSoC6\pdl\rtos/FreeRTOS/10.0.1/Source/portable/GCC/CM4F/portmacro.h **** 	if( ulCurrentInterrupt == 0 )
 139:Generated_Source\PSoC6\pdl\rtos/FreeRTOS/10.0.1/Source/portable/GCC/CM4F/portmacro.h **** 	{
 140:Generated_Source\PSoC6\pdl\rtos/FreeRTOS/10.0.1/Source/portable/GCC/CM4F/portmacro.h **** 		xReturn = pdFALSE;
 141:Generated_Source\PSoC6\pdl\rtos/FreeRTOS/10.0.1/Source/portable/GCC/CM4F/portmacro.h **** 	}
 142:Generated_Source\PSoC6\pdl\rtos/FreeRTOS/10.0.1/Source/portable/GCC/CM4F/portmacro.h **** 	else
 143:Generated_Source\PSoC6\pdl\rtos/FreeRTOS/10.0.1/Source/portable/GCC/CM4F/portmacro.h **** 	{
 144:Generated_Source\PSoC6\pdl\rtos/FreeRTOS/10.0.1/Source/portable/GCC/CM4F/portmacro.h **** 		xReturn = pdTRUE;
 145:Generated_Source\PSoC6\pdl\rtos/FreeRTOS/10.0.1/Source/portable/GCC/CM4F/portmacro.h **** 	}
 146:Generated_Source\PSoC6\pdl\rtos/FreeRTOS/10.0.1/Source/portable/GCC/CM4F/portmacro.h **** 
 147:Generated_Source\PSoC6\pdl\rtos/FreeRTOS/10.0.1/Source/portable/GCC/CM4F/portmacro.h **** 	return xReturn;
 148:Generated_Source\PSoC6\pdl\rtos/FreeRTOS/10.0.1/Source/portable/GCC/CM4F/portmacro.h **** }
 149:Generated_Source\PSoC6\pdl\rtos/FreeRTOS/10.0.1/Source/portable/GCC/CM4F/portmacro.h **** 
 150:Generated_Source\PSoC6\pdl\rtos/FreeRTOS/10.0.1/Source/portable/GCC/CM4F/portmacro.h **** /*-----------------------------------------------------------*/
 151:Generated_Source\PSoC6\pdl\rtos/FreeRTOS/10.0.1/Source/portable/GCC/CM4F/portmacro.h **** 
 152:Generated_Source\PSoC6\pdl\rtos/FreeRTOS/10.0.1/Source/portable/GCC/CM4F/portmacro.h **** portFORCE_INLINE static void vPortRaiseBASEPRI( void )
 153:Generated_Source\PSoC6\pdl\rtos/FreeRTOS/10.0.1/Source/portable/GCC/CM4F/portmacro.h **** {
 154:Generated_Source\PSoC6\pdl\rtos/FreeRTOS/10.0.1/Source/portable/GCC/CM4F/portmacro.h **** uint32_t ulNewBASEPRI;
 155:Generated_Source\PSoC6\pdl\rtos/FreeRTOS/10.0.1/Source/portable/GCC/CM4F/portmacro.h **** 
 156:Generated_Source\PSoC6\pdl\rtos/FreeRTOS/10.0.1/Source/portable/GCC/CM4F/portmacro.h **** 	__asm volatile
  51              		.loc 2 156 0 discriminator 1
  52              		.syntax unified
  53              	@ 156 "Generated_Source\PSoC6\pdl\rtos/FreeRTOS/10.0.1/Source/portable/GCC/CM4F/portmacro.h" 1
  54 0012 4FF03F03 			mov r3, #63												
  55 0016 83F31188 		msr basepri, r3											
  56 001a BFF36F8F 		isb														
  57 001e BFF34F8F 		dsb														
  58              	
  59              	@ 0 "" 2
  60              		.thumb
  61              		.syntax unified
  62 0022 7B61     		str	r3, [r7, #20]
  63              	.L3:
  64              	.LBE78:
  65              	.LBE77:
  66              		.loc 1 227 0 discriminator 1
  67 0024 FEE7     		b	.L3
  68              	.L2:
 228:Generated_Source\PSoC6\pdl\rtos\FreeRTOS\10.0.1\Source/stream_buffer.c **** 		configASSERT( xTriggerLevelBytes <= xBufferSizeBytes );
  69              		.loc 1 228 0
  70 0026 BA68     		ldr	r2, [r7, #8]
  71 0028 FB68     		ldr	r3, [r7, #12]
  72 002a 9A42     		cmp	r2, r3
ARM GAS  C:\Users\stijn\AppData\Local\Temp\cccniDcZ.s 			page 9


  73 002c 09D9     		bls	.L4
  74              	.LBB79:
  75              	.LBB80:
  76              		.loc 2 156 0 discriminator 1
  77              		.syntax unified
  78              	@ 156 "Generated_Source\PSoC6\pdl\rtos/FreeRTOS/10.0.1/Source/portable/GCC/CM4F/portmacro.h" 1
  79 002e 4FF03F03 			mov r3, #63												
  80 0032 83F31188 		msr basepri, r3											
  81 0036 BFF36F8F 		isb														
  82 003a BFF34F8F 		dsb														
  83              	
  84              	@ 0 "" 2
  85              		.thumb
  86              		.syntax unified
  87 003e BB61     		str	r3, [r7, #24]
  88              	.L5:
  89              	.LBE80:
  90              	.LBE79:
  91              		.loc 1 228 0 discriminator 2
  92 0040 FEE7     		b	.L5
  93              	.L4:
 229:Generated_Source\PSoC6\pdl\rtos\FreeRTOS\10.0.1\Source/stream_buffer.c **** 
 230:Generated_Source\PSoC6\pdl\rtos\FreeRTOS\10.0.1\Source/stream_buffer.c **** 		/* A trigger level of 0 would cause a waiting task to unblock even when
 231:Generated_Source\PSoC6\pdl\rtos\FreeRTOS\10.0.1\Source/stream_buffer.c **** 		the buffer was empty. */
 232:Generated_Source\PSoC6\pdl\rtos\FreeRTOS\10.0.1\Source/stream_buffer.c **** 		if( xTriggerLevelBytes == ( size_t ) 0 )
  94              		.loc 1 232 0
  95 0042 BB68     		ldr	r3, [r7, #8]
  96 0044 002B     		cmp	r3, #0
  97 0046 01D1     		bne	.L6
 233:Generated_Source\PSoC6\pdl\rtos\FreeRTOS\10.0.1\Source/stream_buffer.c **** 		{
 234:Generated_Source\PSoC6\pdl\rtos\FreeRTOS\10.0.1\Source/stream_buffer.c **** 			xTriggerLevelBytes = ( size_t ) 1; /*lint !e9044 Parameter modified to ensure it doesn't have a 
  98              		.loc 1 234 0
  99 0048 0123     		movs	r3, #1
 100 004a BB60     		str	r3, [r7, #8]
 101              	.L6:
 235:Generated_Source\PSoC6\pdl\rtos\FreeRTOS\10.0.1\Source/stream_buffer.c **** 		}
 236:Generated_Source\PSoC6\pdl\rtos\FreeRTOS\10.0.1\Source/stream_buffer.c **** 
 237:Generated_Source\PSoC6\pdl\rtos\FreeRTOS\10.0.1\Source/stream_buffer.c **** 		/* A stream buffer requires a StreamBuffer_t structure and a buffer.
 238:Generated_Source\PSoC6\pdl\rtos\FreeRTOS\10.0.1\Source/stream_buffer.c **** 		Both are allocated in a single call to pvPortMalloc().  The
 239:Generated_Source\PSoC6\pdl\rtos\FreeRTOS\10.0.1\Source/stream_buffer.c **** 		StreamBuffer_t structure is placed at the start of the allocated memory
 240:Generated_Source\PSoC6\pdl\rtos\FreeRTOS\10.0.1\Source/stream_buffer.c **** 		and the buffer follows immediately after.  The requested size is
 241:Generated_Source\PSoC6\pdl\rtos\FreeRTOS\10.0.1\Source/stream_buffer.c **** 		incremented so the free space is returned as the user would expect -
 242:Generated_Source\PSoC6\pdl\rtos\FreeRTOS\10.0.1\Source/stream_buffer.c **** 		this is a quirk of the implementation that means otherwise the free
 243:Generated_Source\PSoC6\pdl\rtos\FreeRTOS\10.0.1\Source/stream_buffer.c **** 		space would be reported as one byte smaller than would be logically
 244:Generated_Source\PSoC6\pdl\rtos\FreeRTOS\10.0.1\Source/stream_buffer.c **** 		expected. */
 245:Generated_Source\PSoC6\pdl\rtos\FreeRTOS\10.0.1\Source/stream_buffer.c **** 		xBufferSizeBytes++;
 102              		.loc 1 245 0
 103 004c FB68     		ldr	r3, [r7, #12]
 104 004e 0133     		adds	r3, r3, #1
 105 0050 FB60     		str	r3, [r7, #12]
 246:Generated_Source\PSoC6\pdl\rtos\FreeRTOS\10.0.1\Source/stream_buffer.c **** 		pucAllocatedMemory = ( uint8_t * ) pvPortMalloc( xBufferSizeBytes + sizeof( StreamBuffer_t ) ); /
 106              		.loc 1 246 0
 107 0052 FB68     		ldr	r3, [r7, #12]
 108 0054 2033     		adds	r3, r3, #32
 109 0056 1846     		mov	r0, r3
 110 0058 FFF7FEFF 		bl	pvPortMalloc
 111 005c F861     		str	r0, [r7, #28]
ARM GAS  C:\Users\stijn\AppData\Local\Temp\cccniDcZ.s 			page 10


 247:Generated_Source\PSoC6\pdl\rtos\FreeRTOS\10.0.1\Source/stream_buffer.c **** 
 248:Generated_Source\PSoC6\pdl\rtos\FreeRTOS\10.0.1\Source/stream_buffer.c **** 		if( pucAllocatedMemory != NULL )
 112              		.loc 1 248 0
 113 005e FB69     		ldr	r3, [r7, #28]
 114 0060 002B     		cmp	r3, #0
 115 0062 09D0     		beq	.L7
 249:Generated_Source\PSoC6\pdl\rtos\FreeRTOS\10.0.1\Source/stream_buffer.c **** 		{
 250:Generated_Source\PSoC6\pdl\rtos\FreeRTOS\10.0.1\Source/stream_buffer.c **** 			prvInitialiseNewStreamBuffer( ( StreamBuffer_t * ) pucAllocatedMemory, /* Structure at the start
 116              		.loc 1 250 0
 117 0064 FB69     		ldr	r3, [r7, #28]
 118 0066 03F12001 		add	r1, r3, #32
 119 006a 7B68     		ldr	r3, [r7, #4]
 120 006c 0093     		str	r3, [sp]
 121 006e BB68     		ldr	r3, [r7, #8]
 122 0070 FA68     		ldr	r2, [r7, #12]
 123 0072 F869     		ldr	r0, [r7, #28]
 124 0074 FFF7FEFF 		bl	prvInitialiseNewStreamBuffer
 125              	.L7:
 251:Generated_Source\PSoC6\pdl\rtos\FreeRTOS\10.0.1\Source/stream_buffer.c **** 										   pucAllocatedMemory + sizeof( StreamBuffer_t ),  /* Storage area follows. */ /*lint !e9
 252:Generated_Source\PSoC6\pdl\rtos\FreeRTOS\10.0.1\Source/stream_buffer.c **** 										   xBufferSizeBytes,
 253:Generated_Source\PSoC6\pdl\rtos\FreeRTOS\10.0.1\Source/stream_buffer.c **** 										   xTriggerLevelBytes,
 254:Generated_Source\PSoC6\pdl\rtos\FreeRTOS\10.0.1\Source/stream_buffer.c **** 										   xIsMessageBuffer );
 255:Generated_Source\PSoC6\pdl\rtos\FreeRTOS\10.0.1\Source/stream_buffer.c **** 
 256:Generated_Source\PSoC6\pdl\rtos\FreeRTOS\10.0.1\Source/stream_buffer.c **** 			traceSTREAM_BUFFER_CREATE( ( ( StreamBuffer_t * ) pucAllocatedMemory ), xIsMessageBuffer );
 257:Generated_Source\PSoC6\pdl\rtos\FreeRTOS\10.0.1\Source/stream_buffer.c **** 		}
 258:Generated_Source\PSoC6\pdl\rtos\FreeRTOS\10.0.1\Source/stream_buffer.c **** 		else
 259:Generated_Source\PSoC6\pdl\rtos\FreeRTOS\10.0.1\Source/stream_buffer.c **** 		{
 260:Generated_Source\PSoC6\pdl\rtos\FreeRTOS\10.0.1\Source/stream_buffer.c **** 			traceSTREAM_BUFFER_CREATE_FAILED( xIsMessageBuffer );
 261:Generated_Source\PSoC6\pdl\rtos\FreeRTOS\10.0.1\Source/stream_buffer.c **** 		}
 262:Generated_Source\PSoC6\pdl\rtos\FreeRTOS\10.0.1\Source/stream_buffer.c **** 
 263:Generated_Source\PSoC6\pdl\rtos\FreeRTOS\10.0.1\Source/stream_buffer.c **** 		return ( StreamBufferHandle_t * ) pucAllocatedMemory; /*lint !e9087 !e826 Safe cast as allocated 
 126              		.loc 1 263 0
 127 0078 FB69     		ldr	r3, [r7, #28]
 264:Generated_Source\PSoC6\pdl\rtos\FreeRTOS\10.0.1\Source/stream_buffer.c **** 	}
 128              		.loc 1 264 0
 129 007a 1846     		mov	r0, r3
 130 007c 2037     		adds	r7, r7, #32
 131              		.cfi_def_cfa_offset 8
 132 007e BD46     		mov	sp, r7
 133              		.cfi_def_cfa_register 13
 134              		@ sp needed
 135 0080 80BD     		pop	{r7, pc}
 136              		.cfi_endproc
 137              	.LFE136:
 138              		.size	xStreamBufferGenericCreate, .-xStreamBufferGenericCreate
 139 0082 00BF     		.section	.text.vStreamBufferDelete,"ax",%progbits
 140              		.align	2
 141              		.global	vStreamBufferDelete
 142              		.thumb
 143              		.thumb_func
 144              		.type	vStreamBufferDelete, %function
 145              	vStreamBufferDelete:
 146              	.LFB137:
 265:Generated_Source\PSoC6\pdl\rtos\FreeRTOS\10.0.1\Source/stream_buffer.c **** 
 266:Generated_Source\PSoC6\pdl\rtos\FreeRTOS\10.0.1\Source/stream_buffer.c **** #endif /* configSUPPORT_DYNAMIC_ALLOCATION */
 267:Generated_Source\PSoC6\pdl\rtos\FreeRTOS\10.0.1\Source/stream_buffer.c **** /*-----------------------------------------------------------*/
 268:Generated_Source\PSoC6\pdl\rtos\FreeRTOS\10.0.1\Source/stream_buffer.c **** 
ARM GAS  C:\Users\stijn\AppData\Local\Temp\cccniDcZ.s 			page 11


 269:Generated_Source\PSoC6\pdl\rtos\FreeRTOS\10.0.1\Source/stream_buffer.c **** #if( configSUPPORT_STATIC_ALLOCATION == 1 )
 270:Generated_Source\PSoC6\pdl\rtos\FreeRTOS\10.0.1\Source/stream_buffer.c **** 
 271:Generated_Source\PSoC6\pdl\rtos\FreeRTOS\10.0.1\Source/stream_buffer.c **** 	StreamBufferHandle_t xStreamBufferGenericCreateStatic( size_t xBufferSizeBytes,
 272:Generated_Source\PSoC6\pdl\rtos\FreeRTOS\10.0.1\Source/stream_buffer.c **** 														   size_t xTriggerLevelBytes,
 273:Generated_Source\PSoC6\pdl\rtos\FreeRTOS\10.0.1\Source/stream_buffer.c **** 														   BaseType_t xIsMessageBuffer,
 274:Generated_Source\PSoC6\pdl\rtos\FreeRTOS\10.0.1\Source/stream_buffer.c **** 														   uint8_t * const pucStreamBufferStorageArea,
 275:Generated_Source\PSoC6\pdl\rtos\FreeRTOS\10.0.1\Source/stream_buffer.c **** 														   StaticStreamBuffer_t * const pxStaticStreamBuffer )
 276:Generated_Source\PSoC6\pdl\rtos\FreeRTOS\10.0.1\Source/stream_buffer.c **** 	{
 277:Generated_Source\PSoC6\pdl\rtos\FreeRTOS\10.0.1\Source/stream_buffer.c **** 	StreamBuffer_t * const pxStreamBuffer = ( StreamBuffer_t * ) pxStaticStreamBuffer; /*lint !e740 !e
 278:Generated_Source\PSoC6\pdl\rtos\FreeRTOS\10.0.1\Source/stream_buffer.c **** 	StreamBufferHandle_t xReturn;
 279:Generated_Source\PSoC6\pdl\rtos\FreeRTOS\10.0.1\Source/stream_buffer.c **** 
 280:Generated_Source\PSoC6\pdl\rtos\FreeRTOS\10.0.1\Source/stream_buffer.c **** 		configASSERT( pucStreamBufferStorageArea );
 281:Generated_Source\PSoC6\pdl\rtos\FreeRTOS\10.0.1\Source/stream_buffer.c **** 		configASSERT( pxStaticStreamBuffer );
 282:Generated_Source\PSoC6\pdl\rtos\FreeRTOS\10.0.1\Source/stream_buffer.c **** 		configASSERT( xTriggerLevelBytes <= xBufferSizeBytes );
 283:Generated_Source\PSoC6\pdl\rtos\FreeRTOS\10.0.1\Source/stream_buffer.c **** 
 284:Generated_Source\PSoC6\pdl\rtos\FreeRTOS\10.0.1\Source/stream_buffer.c **** 		/* A trigger level of 0 would cause a waiting task to unblock even when
 285:Generated_Source\PSoC6\pdl\rtos\FreeRTOS\10.0.1\Source/stream_buffer.c **** 		the buffer was empty. */
 286:Generated_Source\PSoC6\pdl\rtos\FreeRTOS\10.0.1\Source/stream_buffer.c **** 		if( xTriggerLevelBytes == ( size_t ) 0 )
 287:Generated_Source\PSoC6\pdl\rtos\FreeRTOS\10.0.1\Source/stream_buffer.c **** 		{
 288:Generated_Source\PSoC6\pdl\rtos\FreeRTOS\10.0.1\Source/stream_buffer.c **** 			xTriggerLevelBytes = ( size_t ) 1; /*lint !e9044 Function parameter deliberately modified to ens
 289:Generated_Source\PSoC6\pdl\rtos\FreeRTOS\10.0.1\Source/stream_buffer.c **** 		}
 290:Generated_Source\PSoC6\pdl\rtos\FreeRTOS\10.0.1\Source/stream_buffer.c **** 
 291:Generated_Source\PSoC6\pdl\rtos\FreeRTOS\10.0.1\Source/stream_buffer.c **** 		/* In case the stream buffer is going to be used as a message buffer
 292:Generated_Source\PSoC6\pdl\rtos\FreeRTOS\10.0.1\Source/stream_buffer.c **** 		(that is, it will hold discrete messages with a little meta data that
 293:Generated_Source\PSoC6\pdl\rtos\FreeRTOS\10.0.1\Source/stream_buffer.c **** 		says how big the next message is) check the buffer will be large enough
 294:Generated_Source\PSoC6\pdl\rtos\FreeRTOS\10.0.1\Source/stream_buffer.c **** 		to hold at least one message. */
 295:Generated_Source\PSoC6\pdl\rtos\FreeRTOS\10.0.1\Source/stream_buffer.c **** 		configASSERT( xBufferSizeBytes > sbBYTES_TO_STORE_MESSAGE_LENGTH );
 296:Generated_Source\PSoC6\pdl\rtos\FreeRTOS\10.0.1\Source/stream_buffer.c **** 
 297:Generated_Source\PSoC6\pdl\rtos\FreeRTOS\10.0.1\Source/stream_buffer.c **** 		#if( configASSERT_DEFINED == 1 )
 298:Generated_Source\PSoC6\pdl\rtos\FreeRTOS\10.0.1\Source/stream_buffer.c **** 		{
 299:Generated_Source\PSoC6\pdl\rtos\FreeRTOS\10.0.1\Source/stream_buffer.c **** 			/* Sanity check that the size of the structure used to declare a
 300:Generated_Source\PSoC6\pdl\rtos\FreeRTOS\10.0.1\Source/stream_buffer.c **** 			variable of type StaticStreamBuffer_t equals the size of the real
 301:Generated_Source\PSoC6\pdl\rtos\FreeRTOS\10.0.1\Source/stream_buffer.c **** 			message buffer structure. */
 302:Generated_Source\PSoC6\pdl\rtos\FreeRTOS\10.0.1\Source/stream_buffer.c **** 			volatile size_t xSize = sizeof( StaticStreamBuffer_t );
 303:Generated_Source\PSoC6\pdl\rtos\FreeRTOS\10.0.1\Source/stream_buffer.c **** 			configASSERT( xSize == sizeof( StreamBuffer_t ) );
 304:Generated_Source\PSoC6\pdl\rtos\FreeRTOS\10.0.1\Source/stream_buffer.c **** 		}
 305:Generated_Source\PSoC6\pdl\rtos\FreeRTOS\10.0.1\Source/stream_buffer.c **** 		#endif /* configASSERT_DEFINED */
 306:Generated_Source\PSoC6\pdl\rtos\FreeRTOS\10.0.1\Source/stream_buffer.c **** 
 307:Generated_Source\PSoC6\pdl\rtos\FreeRTOS\10.0.1\Source/stream_buffer.c **** 		if( ( pucStreamBufferStorageArea != NULL ) && ( pxStaticStreamBuffer != NULL ) )
 308:Generated_Source\PSoC6\pdl\rtos\FreeRTOS\10.0.1\Source/stream_buffer.c **** 		{
 309:Generated_Source\PSoC6\pdl\rtos\FreeRTOS\10.0.1\Source/stream_buffer.c **** 			prvInitialiseNewStreamBuffer( pxStreamBuffer,
 310:Generated_Source\PSoC6\pdl\rtos\FreeRTOS\10.0.1\Source/stream_buffer.c **** 										  pucStreamBufferStorageArea,
 311:Generated_Source\PSoC6\pdl\rtos\FreeRTOS\10.0.1\Source/stream_buffer.c **** 										  xBufferSizeBytes,
 312:Generated_Source\PSoC6\pdl\rtos\FreeRTOS\10.0.1\Source/stream_buffer.c **** 										  xTriggerLevelBytes,
 313:Generated_Source\PSoC6\pdl\rtos\FreeRTOS\10.0.1\Source/stream_buffer.c **** 										  xIsMessageBuffer );
 314:Generated_Source\PSoC6\pdl\rtos\FreeRTOS\10.0.1\Source/stream_buffer.c **** 
 315:Generated_Source\PSoC6\pdl\rtos\FreeRTOS\10.0.1\Source/stream_buffer.c **** 			/* Remember this was statically allocated in case it is ever deleted
 316:Generated_Source\PSoC6\pdl\rtos\FreeRTOS\10.0.1\Source/stream_buffer.c **** 			again. */
 317:Generated_Source\PSoC6\pdl\rtos\FreeRTOS\10.0.1\Source/stream_buffer.c **** 			pxStreamBuffer->ucFlags |= sbFLAGS_IS_STATICALLY_ALLOCATED;
 318:Generated_Source\PSoC6\pdl\rtos\FreeRTOS\10.0.1\Source/stream_buffer.c **** 
 319:Generated_Source\PSoC6\pdl\rtos\FreeRTOS\10.0.1\Source/stream_buffer.c **** 			traceSTREAM_BUFFER_CREATE( pxStreamBuffer, xIsMessageBuffer );
 320:Generated_Source\PSoC6\pdl\rtos\FreeRTOS\10.0.1\Source/stream_buffer.c **** 
 321:Generated_Source\PSoC6\pdl\rtos\FreeRTOS\10.0.1\Source/stream_buffer.c **** 			xReturn = ( StreamBufferHandle_t ) pxStaticStreamBuffer; /*lint !e9087 Data hiding requires cast
 322:Generated_Source\PSoC6\pdl\rtos\FreeRTOS\10.0.1\Source/stream_buffer.c **** 		}
 323:Generated_Source\PSoC6\pdl\rtos\FreeRTOS\10.0.1\Source/stream_buffer.c **** 		else
 324:Generated_Source\PSoC6\pdl\rtos\FreeRTOS\10.0.1\Source/stream_buffer.c **** 		{
 325:Generated_Source\PSoC6\pdl\rtos\FreeRTOS\10.0.1\Source/stream_buffer.c **** 			xReturn = NULL;
ARM GAS  C:\Users\stijn\AppData\Local\Temp\cccniDcZ.s 			page 12


 326:Generated_Source\PSoC6\pdl\rtos\FreeRTOS\10.0.1\Source/stream_buffer.c **** 			traceSTREAM_BUFFER_CREATE_STATIC_FAILED( xReturn, xIsMessageBuffer );
 327:Generated_Source\PSoC6\pdl\rtos\FreeRTOS\10.0.1\Source/stream_buffer.c **** 		}
 328:Generated_Source\PSoC6\pdl\rtos\FreeRTOS\10.0.1\Source/stream_buffer.c **** 
 329:Generated_Source\PSoC6\pdl\rtos\FreeRTOS\10.0.1\Source/stream_buffer.c **** 		return xReturn;
 330:Generated_Source\PSoC6\pdl\rtos\FreeRTOS\10.0.1\Source/stream_buffer.c **** 	}
 331:Generated_Source\PSoC6\pdl\rtos\FreeRTOS\10.0.1\Source/stream_buffer.c **** 
 332:Generated_Source\PSoC6\pdl\rtos\FreeRTOS\10.0.1\Source/stream_buffer.c **** #endif /* ( configSUPPORT_STATIC_ALLOCATION == 1 ) */
 333:Generated_Source\PSoC6\pdl\rtos\FreeRTOS\10.0.1\Source/stream_buffer.c **** /*-----------------------------------------------------------*/
 334:Generated_Source\PSoC6\pdl\rtos\FreeRTOS\10.0.1\Source/stream_buffer.c **** 
 335:Generated_Source\PSoC6\pdl\rtos\FreeRTOS\10.0.1\Source/stream_buffer.c **** void vStreamBufferDelete( StreamBufferHandle_t xStreamBuffer )
 336:Generated_Source\PSoC6\pdl\rtos\FreeRTOS\10.0.1\Source/stream_buffer.c **** {
 147              		.loc 1 336 0
 148              		.cfi_startproc
 149              		@ args = 0, pretend = 0, frame = 16
 150              		@ frame_needed = 1, uses_anonymous_args = 0
 151 0000 80B5     		push	{r7, lr}
 152              		.cfi_def_cfa_offset 8
 153              		.cfi_offset 7, -8
 154              		.cfi_offset 14, -4
 155 0002 84B0     		sub	sp, sp, #16
 156              		.cfi_def_cfa_offset 24
 157 0004 00AF     		add	r7, sp, #0
 158              		.cfi_def_cfa_register 7
 159 0006 7860     		str	r0, [r7, #4]
 337:Generated_Source\PSoC6\pdl\rtos\FreeRTOS\10.0.1\Source/stream_buffer.c **** StreamBuffer_t * pxStreamBuffer = ( StreamBuffer_t * ) xStreamBuffer; /*lint !e9087 !e9079 Safe cas
 160              		.loc 1 337 0
 161 0008 7B68     		ldr	r3, [r7, #4]
 162 000a FB60     		str	r3, [r7, #12]
 338:Generated_Source\PSoC6\pdl\rtos\FreeRTOS\10.0.1\Source/stream_buffer.c **** 
 339:Generated_Source\PSoC6\pdl\rtos\FreeRTOS\10.0.1\Source/stream_buffer.c **** 	configASSERT( pxStreamBuffer );
 163              		.loc 1 339 0
 164 000c FB68     		ldr	r3, [r7, #12]
 165 000e 002B     		cmp	r3, #0
 166 0010 09D1     		bne	.L10
 167              	.LBB81:
 168              	.LBB82:
 169              		.loc 2 156 0 discriminator 1
 170              		.syntax unified
 171              	@ 156 "Generated_Source\PSoC6\pdl\rtos/FreeRTOS/10.0.1/Source/portable/GCC/CM4F/portmacro.h" 1
 172 0012 4FF03F03 			mov r3, #63												
 173 0016 83F31188 		msr basepri, r3											
 174 001a BFF36F8F 		isb														
 175 001e BFF34F8F 		dsb														
 176              	
 177              	@ 0 "" 2
 178              		.thumb
 179              		.syntax unified
 180 0022 BB60     		str	r3, [r7, #8]
 181              	.L11:
 182              	.LBE82:
 183              	.LBE81:
 184              		.loc 1 339 0 discriminator 1
 185 0024 FEE7     		b	.L11
 186              	.L10:
 340:Generated_Source\PSoC6\pdl\rtos\FreeRTOS\10.0.1\Source/stream_buffer.c **** 
 341:Generated_Source\PSoC6\pdl\rtos\FreeRTOS\10.0.1\Source/stream_buffer.c **** 	traceSTREAM_BUFFER_DELETE( xStreamBuffer );
 342:Generated_Source\PSoC6\pdl\rtos\FreeRTOS\10.0.1\Source/stream_buffer.c **** 
ARM GAS  C:\Users\stijn\AppData\Local\Temp\cccniDcZ.s 			page 13


 343:Generated_Source\PSoC6\pdl\rtos\FreeRTOS\10.0.1\Source/stream_buffer.c **** 	if( ( pxStreamBuffer->ucFlags & sbFLAGS_IS_STATICALLY_ALLOCATED ) == ( uint8_t ) pdFALSE )
 187              		.loc 1 343 0
 188 0026 FB68     		ldr	r3, [r7, #12]
 189 0028 1B7F     		ldrb	r3, [r3, #28]	@ zero_extendqisi2
 190 002a 03F00203 		and	r3, r3, #2
 191 002e 002B     		cmp	r3, #0
 192 0030 03D1     		bne	.L12
 344:Generated_Source\PSoC6\pdl\rtos\FreeRTOS\10.0.1\Source/stream_buffer.c **** 	{
 345:Generated_Source\PSoC6\pdl\rtos\FreeRTOS\10.0.1\Source/stream_buffer.c **** 		#if( configSUPPORT_DYNAMIC_ALLOCATION == 1 )
 346:Generated_Source\PSoC6\pdl\rtos\FreeRTOS\10.0.1\Source/stream_buffer.c **** 		{
 347:Generated_Source\PSoC6\pdl\rtos\FreeRTOS\10.0.1\Source/stream_buffer.c **** 			/* Both the structure and the buffer were allocated using a single call
 348:Generated_Source\PSoC6\pdl\rtos\FreeRTOS\10.0.1\Source/stream_buffer.c **** 			to pvPortMalloc(), hence only one call to vPortFree() is required. */
 349:Generated_Source\PSoC6\pdl\rtos\FreeRTOS\10.0.1\Source/stream_buffer.c **** 			vPortFree( ( void * ) pxStreamBuffer ); /*lint !e9087 Standard free() semantics require void *, 
 193              		.loc 1 349 0
 194 0032 F868     		ldr	r0, [r7, #12]
 195 0034 FFF7FEFF 		bl	vPortFree
 350:Generated_Source\PSoC6\pdl\rtos\FreeRTOS\10.0.1\Source/stream_buffer.c **** 		}
 351:Generated_Source\PSoC6\pdl\rtos\FreeRTOS\10.0.1\Source/stream_buffer.c **** 		#else
 352:Generated_Source\PSoC6\pdl\rtos\FreeRTOS\10.0.1\Source/stream_buffer.c **** 		{
 353:Generated_Source\PSoC6\pdl\rtos\FreeRTOS\10.0.1\Source/stream_buffer.c **** 			/* Should not be possible to get here, ucFlags must be corrupt.
 354:Generated_Source\PSoC6\pdl\rtos\FreeRTOS\10.0.1\Source/stream_buffer.c **** 			Force an assert. */
 355:Generated_Source\PSoC6\pdl\rtos\FreeRTOS\10.0.1\Source/stream_buffer.c **** 			configASSERT( xStreamBuffer == ( StreamBufferHandle_t ) ~0 );
 356:Generated_Source\PSoC6\pdl\rtos\FreeRTOS\10.0.1\Source/stream_buffer.c **** 		}
 357:Generated_Source\PSoC6\pdl\rtos\FreeRTOS\10.0.1\Source/stream_buffer.c **** 		#endif
 358:Generated_Source\PSoC6\pdl\rtos\FreeRTOS\10.0.1\Source/stream_buffer.c **** 	}
 359:Generated_Source\PSoC6\pdl\rtos\FreeRTOS\10.0.1\Source/stream_buffer.c **** 	else
 360:Generated_Source\PSoC6\pdl\rtos\FreeRTOS\10.0.1\Source/stream_buffer.c **** 	{
 361:Generated_Source\PSoC6\pdl\rtos\FreeRTOS\10.0.1\Source/stream_buffer.c **** 		/* The structure and buffer were not allocated dynamically and cannot be
 362:Generated_Source\PSoC6\pdl\rtos\FreeRTOS\10.0.1\Source/stream_buffer.c **** 		freed - just scrub the structure so future use will assert. */
 363:Generated_Source\PSoC6\pdl\rtos\FreeRTOS\10.0.1\Source/stream_buffer.c **** 		memset( pxStreamBuffer, 0x00, sizeof( StreamBuffer_t ) );
 364:Generated_Source\PSoC6\pdl\rtos\FreeRTOS\10.0.1\Source/stream_buffer.c **** 	}
 365:Generated_Source\PSoC6\pdl\rtos\FreeRTOS\10.0.1\Source/stream_buffer.c **** }
 196              		.loc 1 365 0
 197 0038 04E0     		b	.L14
 198              	.L12:
 363:Generated_Source\PSoC6\pdl\rtos\FreeRTOS\10.0.1\Source/stream_buffer.c **** 	}
 199              		.loc 1 363 0
 200 003a 2022     		movs	r2, #32
 201 003c 0021     		movs	r1, #0
 202 003e F868     		ldr	r0, [r7, #12]
 203 0040 FFF7FEFF 		bl	memset
 204              	.L14:
 205              		.loc 1 365 0
 206 0044 00BF     		nop
 207 0046 1037     		adds	r7, r7, #16
 208              		.cfi_def_cfa_offset 8
 209 0048 BD46     		mov	sp, r7
 210              		.cfi_def_cfa_register 13
 211              		@ sp needed
 212 004a 80BD     		pop	{r7, pc}
 213              		.cfi_endproc
 214              	.LFE137:
 215              		.size	vStreamBufferDelete, .-vStreamBufferDelete
 216              		.section	.text.xStreamBufferReset,"ax",%progbits
 217              		.align	2
 218              		.global	xStreamBufferReset
 219              		.thumb
ARM GAS  C:\Users\stijn\AppData\Local\Temp\cccniDcZ.s 			page 14


 220              		.thumb_func
 221              		.type	xStreamBufferReset, %function
 222              	xStreamBufferReset:
 223              	.LFB138:
 366:Generated_Source\PSoC6\pdl\rtos\FreeRTOS\10.0.1\Source/stream_buffer.c **** /*-----------------------------------------------------------*/
 367:Generated_Source\PSoC6\pdl\rtos\FreeRTOS\10.0.1\Source/stream_buffer.c **** 
 368:Generated_Source\PSoC6\pdl\rtos\FreeRTOS\10.0.1\Source/stream_buffer.c **** BaseType_t xStreamBufferReset( StreamBufferHandle_t xStreamBuffer )
 369:Generated_Source\PSoC6\pdl\rtos\FreeRTOS\10.0.1\Source/stream_buffer.c **** {
 224              		.loc 1 369 0
 225              		.cfi_startproc
 226              		@ args = 0, pretend = 0, frame = 24
 227              		@ frame_needed = 1, uses_anonymous_args = 0
 228 0000 80B5     		push	{r7, lr}
 229              		.cfi_def_cfa_offset 8
 230              		.cfi_offset 7, -8
 231              		.cfi_offset 14, -4
 232 0002 88B0     		sub	sp, sp, #32
 233              		.cfi_def_cfa_offset 40
 234 0004 02AF     		add	r7, sp, #8
 235              		.cfi_def_cfa 7, 32
 236 0006 7860     		str	r0, [r7, #4]
 370:Generated_Source\PSoC6\pdl\rtos\FreeRTOS\10.0.1\Source/stream_buffer.c **** StreamBuffer_t * const pxStreamBuffer = ( StreamBuffer_t * ) xStreamBuffer; /*lint !e9087 !e9079 Sa
 237              		.loc 1 370 0
 238 0008 7B68     		ldr	r3, [r7, #4]
 239 000a FB60     		str	r3, [r7, #12]
 371:Generated_Source\PSoC6\pdl\rtos\FreeRTOS\10.0.1\Source/stream_buffer.c **** BaseType_t xReturn = pdFAIL, xIsMessageBuffer;
 240              		.loc 1 371 0
 241 000c 0023     		movs	r3, #0
 242 000e 7B61     		str	r3, [r7, #20]
 372:Generated_Source\PSoC6\pdl\rtos\FreeRTOS\10.0.1\Source/stream_buffer.c **** 
 373:Generated_Source\PSoC6\pdl\rtos\FreeRTOS\10.0.1\Source/stream_buffer.c **** #if( configUSE_TRACE_FACILITY == 1 )
 374:Generated_Source\PSoC6\pdl\rtos\FreeRTOS\10.0.1\Source/stream_buffer.c **** 	UBaseType_t uxStreamBufferNumber;
 375:Generated_Source\PSoC6\pdl\rtos\FreeRTOS\10.0.1\Source/stream_buffer.c **** #endif
 376:Generated_Source\PSoC6\pdl\rtos\FreeRTOS\10.0.1\Source/stream_buffer.c **** 
 377:Generated_Source\PSoC6\pdl\rtos\FreeRTOS\10.0.1\Source/stream_buffer.c **** 	configASSERT( pxStreamBuffer );
 243              		.loc 1 377 0
 244 0010 FB68     		ldr	r3, [r7, #12]
 245 0012 002B     		cmp	r3, #0
 246 0014 09D1     		bne	.L16
 247              	.LBB83:
 248              	.LBB84:
 249              		.loc 2 156 0 discriminator 1
 250              		.syntax unified
 251              	@ 156 "Generated_Source\PSoC6\pdl\rtos/FreeRTOS/10.0.1/Source/portable/GCC/CM4F/portmacro.h" 1
 252 0016 4FF03F03 			mov r3, #63												
 253 001a 83F31188 		msr basepri, r3											
 254 001e BFF36F8F 		isb														
 255 0022 BFF34F8F 		dsb														
 256              	
 257              	@ 0 "" 2
 258              		.thumb
 259              		.syntax unified
 260 0026 BB60     		str	r3, [r7, #8]
 261              	.L17:
 262              	.LBE84:
 263              	.LBE83:
 264              		.loc 1 377 0 discriminator 1
ARM GAS  C:\Users\stijn\AppData\Local\Temp\cccniDcZ.s 			page 15


 265 0028 FEE7     		b	.L17
 266              	.L16:
 378:Generated_Source\PSoC6\pdl\rtos\FreeRTOS\10.0.1\Source/stream_buffer.c **** 
 379:Generated_Source\PSoC6\pdl\rtos\FreeRTOS\10.0.1\Source/stream_buffer.c **** 	#if( configUSE_TRACE_FACILITY == 1 )
 380:Generated_Source\PSoC6\pdl\rtos\FreeRTOS\10.0.1\Source/stream_buffer.c **** 	{
 381:Generated_Source\PSoC6\pdl\rtos\FreeRTOS\10.0.1\Source/stream_buffer.c **** 		/* Store the stream buffer number so it can be restored after the
 382:Generated_Source\PSoC6\pdl\rtos\FreeRTOS\10.0.1\Source/stream_buffer.c **** 		reset. */
 383:Generated_Source\PSoC6\pdl\rtos\FreeRTOS\10.0.1\Source/stream_buffer.c **** 		uxStreamBufferNumber = pxStreamBuffer->uxStreamBufferNumber;
 384:Generated_Source\PSoC6\pdl\rtos\FreeRTOS\10.0.1\Source/stream_buffer.c **** 	}
 385:Generated_Source\PSoC6\pdl\rtos\FreeRTOS\10.0.1\Source/stream_buffer.c **** 	#endif
 386:Generated_Source\PSoC6\pdl\rtos\FreeRTOS\10.0.1\Source/stream_buffer.c **** 
 387:Generated_Source\PSoC6\pdl\rtos\FreeRTOS\10.0.1\Source/stream_buffer.c **** 	/* Can only reset a message buffer if there are no tasks blocked on it. */
 388:Generated_Source\PSoC6\pdl\rtos\FreeRTOS\10.0.1\Source/stream_buffer.c **** 	if( pxStreamBuffer->xTaskWaitingToReceive == NULL )
 267              		.loc 1 388 0
 268 002a FB68     		ldr	r3, [r7, #12]
 269 002c 1B69     		ldr	r3, [r3, #16]
 270 002e 002B     		cmp	r3, #0
 271 0030 1CD1     		bne	.L18
 389:Generated_Source\PSoC6\pdl\rtos\FreeRTOS\10.0.1\Source/stream_buffer.c **** 	{
 390:Generated_Source\PSoC6\pdl\rtos\FreeRTOS\10.0.1\Source/stream_buffer.c **** 		if( pxStreamBuffer->xTaskWaitingToSend == NULL )
 272              		.loc 1 390 0
 273 0032 FB68     		ldr	r3, [r7, #12]
 274 0034 5B69     		ldr	r3, [r3, #20]
 275 0036 002B     		cmp	r3, #0
 276 0038 18D1     		bne	.L18
 391:Generated_Source\PSoC6\pdl\rtos\FreeRTOS\10.0.1\Source/stream_buffer.c **** 		{
 392:Generated_Source\PSoC6\pdl\rtos\FreeRTOS\10.0.1\Source/stream_buffer.c **** 			if( ( pxStreamBuffer->ucFlags & sbFLAGS_IS_MESSAGE_BUFFER ) != ( uint8_t ) 0 )
 277              		.loc 1 392 0
 278 003a FB68     		ldr	r3, [r7, #12]
 279 003c 1B7F     		ldrb	r3, [r3, #28]	@ zero_extendqisi2
 280 003e 03F00103 		and	r3, r3, #1
 281 0042 002B     		cmp	r3, #0
 282 0044 02D0     		beq	.L19
 393:Generated_Source\PSoC6\pdl\rtos\FreeRTOS\10.0.1\Source/stream_buffer.c **** 			{
 394:Generated_Source\PSoC6\pdl\rtos\FreeRTOS\10.0.1\Source/stream_buffer.c **** 				xIsMessageBuffer = pdTRUE;
 283              		.loc 1 394 0
 284 0046 0123     		movs	r3, #1
 285 0048 3B61     		str	r3, [r7, #16]
 286 004a 01E0     		b	.L20
 287              	.L19:
 395:Generated_Source\PSoC6\pdl\rtos\FreeRTOS\10.0.1\Source/stream_buffer.c **** 			}
 396:Generated_Source\PSoC6\pdl\rtos\FreeRTOS\10.0.1\Source/stream_buffer.c **** 			else
 397:Generated_Source\PSoC6\pdl\rtos\FreeRTOS\10.0.1\Source/stream_buffer.c **** 			{
 398:Generated_Source\PSoC6\pdl\rtos\FreeRTOS\10.0.1\Source/stream_buffer.c **** 				xIsMessageBuffer = pdFALSE;
 288              		.loc 1 398 0
 289 004c 0023     		movs	r3, #0
 290 004e 3B61     		str	r3, [r7, #16]
 291              	.L20:
 399:Generated_Source\PSoC6\pdl\rtos\FreeRTOS\10.0.1\Source/stream_buffer.c **** 			}
 400:Generated_Source\PSoC6\pdl\rtos\FreeRTOS\10.0.1\Source/stream_buffer.c **** 
 401:Generated_Source\PSoC6\pdl\rtos\FreeRTOS\10.0.1\Source/stream_buffer.c **** 			prvInitialiseNewStreamBuffer( pxStreamBuffer,
 292              		.loc 1 401 0
 293 0050 FB68     		ldr	r3, [r7, #12]
 294 0052 9969     		ldr	r1, [r3, #24]
 295 0054 FB68     		ldr	r3, [r7, #12]
 296 0056 9A68     		ldr	r2, [r3, #8]
 297 0058 FB68     		ldr	r3, [r7, #12]
ARM GAS  C:\Users\stijn\AppData\Local\Temp\cccniDcZ.s 			page 16


 298 005a D868     		ldr	r0, [r3, #12]
 299 005c 3B69     		ldr	r3, [r7, #16]
 300 005e 0093     		str	r3, [sp]
 301 0060 0346     		mov	r3, r0
 302 0062 F868     		ldr	r0, [r7, #12]
 303 0064 FFF7FEFF 		bl	prvInitialiseNewStreamBuffer
 402:Generated_Source\PSoC6\pdl\rtos\FreeRTOS\10.0.1\Source/stream_buffer.c **** 										  pxStreamBuffer->pucBuffer,
 403:Generated_Source\PSoC6\pdl\rtos\FreeRTOS\10.0.1\Source/stream_buffer.c **** 										  pxStreamBuffer->xLength,
 404:Generated_Source\PSoC6\pdl\rtos\FreeRTOS\10.0.1\Source/stream_buffer.c **** 										  pxStreamBuffer->xTriggerLevelBytes,
 405:Generated_Source\PSoC6\pdl\rtos\FreeRTOS\10.0.1\Source/stream_buffer.c **** 										  xIsMessageBuffer );
 406:Generated_Source\PSoC6\pdl\rtos\FreeRTOS\10.0.1\Source/stream_buffer.c **** 			xReturn = pdPASS;
 304              		.loc 1 406 0
 305 0068 0123     		movs	r3, #1
 306 006a 7B61     		str	r3, [r7, #20]
 307              	.L18:
 407:Generated_Source\PSoC6\pdl\rtos\FreeRTOS\10.0.1\Source/stream_buffer.c **** 
 408:Generated_Source\PSoC6\pdl\rtos\FreeRTOS\10.0.1\Source/stream_buffer.c **** 			#if( configUSE_TRACE_FACILITY == 1 )
 409:Generated_Source\PSoC6\pdl\rtos\FreeRTOS\10.0.1\Source/stream_buffer.c **** 			{
 410:Generated_Source\PSoC6\pdl\rtos\FreeRTOS\10.0.1\Source/stream_buffer.c **** 				pxStreamBuffer->uxStreamBufferNumber = uxStreamBufferNumber;
 411:Generated_Source\PSoC6\pdl\rtos\FreeRTOS\10.0.1\Source/stream_buffer.c **** 			}
 412:Generated_Source\PSoC6\pdl\rtos\FreeRTOS\10.0.1\Source/stream_buffer.c **** 			#endif
 413:Generated_Source\PSoC6\pdl\rtos\FreeRTOS\10.0.1\Source/stream_buffer.c **** 
 414:Generated_Source\PSoC6\pdl\rtos\FreeRTOS\10.0.1\Source/stream_buffer.c **** 			traceSTREAM_BUFFER_RESET( xStreamBuffer );
 415:Generated_Source\PSoC6\pdl\rtos\FreeRTOS\10.0.1\Source/stream_buffer.c **** 		}
 416:Generated_Source\PSoC6\pdl\rtos\FreeRTOS\10.0.1\Source/stream_buffer.c **** 	}
 417:Generated_Source\PSoC6\pdl\rtos\FreeRTOS\10.0.1\Source/stream_buffer.c **** 
 418:Generated_Source\PSoC6\pdl\rtos\FreeRTOS\10.0.1\Source/stream_buffer.c **** 	return xReturn;
 308              		.loc 1 418 0
 309 006c 7B69     		ldr	r3, [r7, #20]
 419:Generated_Source\PSoC6\pdl\rtos\FreeRTOS\10.0.1\Source/stream_buffer.c **** }
 310              		.loc 1 419 0
 311 006e 1846     		mov	r0, r3
 312 0070 1837     		adds	r7, r7, #24
 313              		.cfi_def_cfa_offset 8
 314 0072 BD46     		mov	sp, r7
 315              		.cfi_def_cfa_register 13
 316              		@ sp needed
 317 0074 80BD     		pop	{r7, pc}
 318              		.cfi_endproc
 319              	.LFE138:
 320              		.size	xStreamBufferReset, .-xStreamBufferReset
 321 0076 00BF     		.section	.text.xStreamBufferSetTriggerLevel,"ax",%progbits
 322              		.align	2
 323              		.global	xStreamBufferSetTriggerLevel
 324              		.thumb
 325              		.thumb_func
 326              		.type	xStreamBufferSetTriggerLevel, %function
 327              	xStreamBufferSetTriggerLevel:
 328              	.LFB139:
 420:Generated_Source\PSoC6\pdl\rtos\FreeRTOS\10.0.1\Source/stream_buffer.c **** /*-----------------------------------------------------------*/
 421:Generated_Source\PSoC6\pdl\rtos\FreeRTOS\10.0.1\Source/stream_buffer.c **** 
 422:Generated_Source\PSoC6\pdl\rtos\FreeRTOS\10.0.1\Source/stream_buffer.c **** BaseType_t xStreamBufferSetTriggerLevel( StreamBufferHandle_t xStreamBuffer, size_t xTriggerLevel )
 423:Generated_Source\PSoC6\pdl\rtos\FreeRTOS\10.0.1\Source/stream_buffer.c **** {
 329              		.loc 1 423 0
 330              		.cfi_startproc
 331              		@ args = 0, pretend = 0, frame = 24
 332              		@ frame_needed = 1, uses_anonymous_args = 0
ARM GAS  C:\Users\stijn\AppData\Local\Temp\cccniDcZ.s 			page 17


 333              		@ link register save eliminated.
 334 0000 80B4     		push	{r7}
 335              		.cfi_def_cfa_offset 4
 336              		.cfi_offset 7, -4
 337 0002 87B0     		sub	sp, sp, #28
 338              		.cfi_def_cfa_offset 32
 339 0004 00AF     		add	r7, sp, #0
 340              		.cfi_def_cfa_register 7
 341 0006 7860     		str	r0, [r7, #4]
 342 0008 3960     		str	r1, [r7]
 424:Generated_Source\PSoC6\pdl\rtos\FreeRTOS\10.0.1\Source/stream_buffer.c **** StreamBuffer_t * const pxStreamBuffer = ( StreamBuffer_t * ) xStreamBuffer; /*lint !e9087 !e9079 Sa
 343              		.loc 1 424 0
 344 000a 7B68     		ldr	r3, [r7, #4]
 345 000c 3B61     		str	r3, [r7, #16]
 425:Generated_Source\PSoC6\pdl\rtos\FreeRTOS\10.0.1\Source/stream_buffer.c **** BaseType_t xReturn;
 426:Generated_Source\PSoC6\pdl\rtos\FreeRTOS\10.0.1\Source/stream_buffer.c **** 
 427:Generated_Source\PSoC6\pdl\rtos\FreeRTOS\10.0.1\Source/stream_buffer.c **** 	configASSERT( pxStreamBuffer );
 346              		.loc 1 427 0
 347 000e 3B69     		ldr	r3, [r7, #16]
 348 0010 002B     		cmp	r3, #0
 349 0012 09D1     		bne	.L23
 350              	.LBB85:
 351              	.LBB86:
 352              		.loc 2 156 0 discriminator 1
 353              		.syntax unified
 354              	@ 156 "Generated_Source\PSoC6\pdl\rtos/FreeRTOS/10.0.1/Source/portable/GCC/CM4F/portmacro.h" 1
 355 0014 4FF03F03 			mov r3, #63												
 356 0018 83F31188 		msr basepri, r3											
 357 001c BFF36F8F 		isb														
 358 0020 BFF34F8F 		dsb														
 359              	
 360              	@ 0 "" 2
 361              		.thumb
 362              		.syntax unified
 363 0024 FB60     		str	r3, [r7, #12]
 364              	.L24:
 365              	.LBE86:
 366              	.LBE85:
 367              		.loc 1 427 0 discriminator 1
 368 0026 FEE7     		b	.L24
 369              	.L23:
 428:Generated_Source\PSoC6\pdl\rtos\FreeRTOS\10.0.1\Source/stream_buffer.c **** 
 429:Generated_Source\PSoC6\pdl\rtos\FreeRTOS\10.0.1\Source/stream_buffer.c **** 	/* It is not valid for the trigger level to be 0. */
 430:Generated_Source\PSoC6\pdl\rtos\FreeRTOS\10.0.1\Source/stream_buffer.c **** 	if( xTriggerLevel == ( size_t ) 0 )
 370              		.loc 1 430 0
 371 0028 3B68     		ldr	r3, [r7]
 372 002a 002B     		cmp	r3, #0
 373 002c 01D1     		bne	.L25
 431:Generated_Source\PSoC6\pdl\rtos\FreeRTOS\10.0.1\Source/stream_buffer.c **** 	{
 432:Generated_Source\PSoC6\pdl\rtos\FreeRTOS\10.0.1\Source/stream_buffer.c **** 		xTriggerLevel = ( size_t ) 1; /*lint !e9044 Parameter modified to ensure it doesn't have a danger
 374              		.loc 1 432 0
 375 002e 0123     		movs	r3, #1
 376 0030 3B60     		str	r3, [r7]
 377              	.L25:
 433:Generated_Source\PSoC6\pdl\rtos\FreeRTOS\10.0.1\Source/stream_buffer.c **** 	}
 434:Generated_Source\PSoC6\pdl\rtos\FreeRTOS\10.0.1\Source/stream_buffer.c **** 
 435:Generated_Source\PSoC6\pdl\rtos\FreeRTOS\10.0.1\Source/stream_buffer.c **** 	/* The trigger level is the number of bytes that must be in the stream
ARM GAS  C:\Users\stijn\AppData\Local\Temp\cccniDcZ.s 			page 18


 436:Generated_Source\PSoC6\pdl\rtos\FreeRTOS\10.0.1\Source/stream_buffer.c **** 	buffer before a task that is waiting for data is unblocked. */
 437:Generated_Source\PSoC6\pdl\rtos\FreeRTOS\10.0.1\Source/stream_buffer.c **** 	if( xTriggerLevel <= pxStreamBuffer->xLength )
 378              		.loc 1 437 0
 379 0032 3B69     		ldr	r3, [r7, #16]
 380 0034 9A68     		ldr	r2, [r3, #8]
 381 0036 3B68     		ldr	r3, [r7]
 382 0038 9A42     		cmp	r2, r3
 383 003a 05D3     		bcc	.L26
 438:Generated_Source\PSoC6\pdl\rtos\FreeRTOS\10.0.1\Source/stream_buffer.c **** 	{
 439:Generated_Source\PSoC6\pdl\rtos\FreeRTOS\10.0.1\Source/stream_buffer.c **** 		pxStreamBuffer->xTriggerLevelBytes = xTriggerLevel;
 384              		.loc 1 439 0
 385 003c 3B69     		ldr	r3, [r7, #16]
 386 003e 3A68     		ldr	r2, [r7]
 387 0040 DA60     		str	r2, [r3, #12]
 440:Generated_Source\PSoC6\pdl\rtos\FreeRTOS\10.0.1\Source/stream_buffer.c **** 		xReturn = pdPASS;
 388              		.loc 1 440 0
 389 0042 0123     		movs	r3, #1
 390 0044 7B61     		str	r3, [r7, #20]
 391 0046 01E0     		b	.L27
 392              	.L26:
 441:Generated_Source\PSoC6\pdl\rtos\FreeRTOS\10.0.1\Source/stream_buffer.c **** 	}
 442:Generated_Source\PSoC6\pdl\rtos\FreeRTOS\10.0.1\Source/stream_buffer.c **** 	else
 443:Generated_Source\PSoC6\pdl\rtos\FreeRTOS\10.0.1\Source/stream_buffer.c **** 	{
 444:Generated_Source\PSoC6\pdl\rtos\FreeRTOS\10.0.1\Source/stream_buffer.c **** 		xReturn = pdFALSE;
 393              		.loc 1 444 0
 394 0048 0023     		movs	r3, #0
 395 004a 7B61     		str	r3, [r7, #20]
 396              	.L27:
 445:Generated_Source\PSoC6\pdl\rtos\FreeRTOS\10.0.1\Source/stream_buffer.c **** 	}
 446:Generated_Source\PSoC6\pdl\rtos\FreeRTOS\10.0.1\Source/stream_buffer.c **** 
 447:Generated_Source\PSoC6\pdl\rtos\FreeRTOS\10.0.1\Source/stream_buffer.c **** 	return xReturn;
 397              		.loc 1 447 0
 398 004c 7B69     		ldr	r3, [r7, #20]
 448:Generated_Source\PSoC6\pdl\rtos\FreeRTOS\10.0.1\Source/stream_buffer.c **** }
 399              		.loc 1 448 0
 400 004e 1846     		mov	r0, r3
 401 0050 1C37     		adds	r7, r7, #28
 402              		.cfi_def_cfa_offset 4
 403 0052 BD46     		mov	sp, r7
 404              		.cfi_def_cfa_register 13
 405              		@ sp needed
 406 0054 5DF8047B 		ldr	r7, [sp], #4
 407              		.cfi_restore 7
 408              		.cfi_def_cfa_offset 0
 409 0058 7047     		bx	lr
 410              		.cfi_endproc
 411              	.LFE139:
 412              		.size	xStreamBufferSetTriggerLevel, .-xStreamBufferSetTriggerLevel
 413 005a 00BF     		.section	.text.xStreamBufferSpacesAvailable,"ax",%progbits
 414              		.align	2
 415              		.global	xStreamBufferSpacesAvailable
 416              		.thumb
 417              		.thumb_func
 418              		.type	xStreamBufferSpacesAvailable, %function
 419              	xStreamBufferSpacesAvailable:
 420              	.LFB140:
 449:Generated_Source\PSoC6\pdl\rtos\FreeRTOS\10.0.1\Source/stream_buffer.c **** /*-----------------------------------------------------------*/
ARM GAS  C:\Users\stijn\AppData\Local\Temp\cccniDcZ.s 			page 19


 450:Generated_Source\PSoC6\pdl\rtos\FreeRTOS\10.0.1\Source/stream_buffer.c **** 
 451:Generated_Source\PSoC6\pdl\rtos\FreeRTOS\10.0.1\Source/stream_buffer.c **** size_t xStreamBufferSpacesAvailable( StreamBufferHandle_t xStreamBuffer )
 452:Generated_Source\PSoC6\pdl\rtos\FreeRTOS\10.0.1\Source/stream_buffer.c **** {
 421              		.loc 1 452 0
 422              		.cfi_startproc
 423              		@ args = 0, pretend = 0, frame = 24
 424              		@ frame_needed = 1, uses_anonymous_args = 0
 425              		@ link register save eliminated.
 426 0000 80B4     		push	{r7}
 427              		.cfi_def_cfa_offset 4
 428              		.cfi_offset 7, -4
 429 0002 87B0     		sub	sp, sp, #28
 430              		.cfi_def_cfa_offset 32
 431 0004 00AF     		add	r7, sp, #0
 432              		.cfi_def_cfa_register 7
 433 0006 7860     		str	r0, [r7, #4]
 453:Generated_Source\PSoC6\pdl\rtos\FreeRTOS\10.0.1\Source/stream_buffer.c **** const StreamBuffer_t * const pxStreamBuffer = ( StreamBuffer_t * ) xStreamBuffer; /*lint !e9087 !e9
 434              		.loc 1 453 0
 435 0008 7B68     		ldr	r3, [r7, #4]
 436 000a 3B61     		str	r3, [r7, #16]
 454:Generated_Source\PSoC6\pdl\rtos\FreeRTOS\10.0.1\Source/stream_buffer.c **** size_t xSpace;
 455:Generated_Source\PSoC6\pdl\rtos\FreeRTOS\10.0.1\Source/stream_buffer.c **** 
 456:Generated_Source\PSoC6\pdl\rtos\FreeRTOS\10.0.1\Source/stream_buffer.c **** 	configASSERT( pxStreamBuffer );
 437              		.loc 1 456 0
 438 000c 3B69     		ldr	r3, [r7, #16]
 439 000e 002B     		cmp	r3, #0
 440 0010 09D1     		bne	.L30
 441              	.LBB87:
 442              	.LBB88:
 443              		.loc 2 156 0 discriminator 1
 444              		.syntax unified
 445              	@ 156 "Generated_Source\PSoC6\pdl\rtos/FreeRTOS/10.0.1/Source/portable/GCC/CM4F/portmacro.h" 1
 446 0012 4FF03F03 			mov r3, #63												
 447 0016 83F31188 		msr basepri, r3											
 448 001a BFF36F8F 		isb														
 449 001e BFF34F8F 		dsb														
 450              	
 451              	@ 0 "" 2
 452              		.thumb
 453              		.syntax unified
 454 0022 FB60     		str	r3, [r7, #12]
 455              	.L31:
 456              	.LBE88:
 457              	.LBE87:
 458              		.loc 1 456 0 discriminator 1
 459 0024 FEE7     		b	.L31
 460              	.L30:
 457:Generated_Source\PSoC6\pdl\rtos\FreeRTOS\10.0.1\Source/stream_buffer.c **** 
 458:Generated_Source\PSoC6\pdl\rtos\FreeRTOS\10.0.1\Source/stream_buffer.c **** 	xSpace = pxStreamBuffer->xLength + pxStreamBuffer->xTail;
 461              		.loc 1 458 0
 462 0026 3B69     		ldr	r3, [r7, #16]
 463 0028 9A68     		ldr	r2, [r3, #8]
 464 002a 3B69     		ldr	r3, [r7, #16]
 465 002c 1B68     		ldr	r3, [r3]
 466 002e 1344     		add	r3, r3, r2
 467 0030 7B61     		str	r3, [r7, #20]
 459:Generated_Source\PSoC6\pdl\rtos\FreeRTOS\10.0.1\Source/stream_buffer.c **** 	xSpace -= pxStreamBuffer->xHead;
ARM GAS  C:\Users\stijn\AppData\Local\Temp\cccniDcZ.s 			page 20


 468              		.loc 1 459 0
 469 0032 3B69     		ldr	r3, [r7, #16]
 470 0034 5B68     		ldr	r3, [r3, #4]
 471 0036 7A69     		ldr	r2, [r7, #20]
 472 0038 D31A     		subs	r3, r2, r3
 473 003a 7B61     		str	r3, [r7, #20]
 460:Generated_Source\PSoC6\pdl\rtos\FreeRTOS\10.0.1\Source/stream_buffer.c **** 	xSpace -= ( size_t ) 1;
 474              		.loc 1 460 0
 475 003c 7B69     		ldr	r3, [r7, #20]
 476 003e 013B     		subs	r3, r3, #1
 477 0040 7B61     		str	r3, [r7, #20]
 461:Generated_Source\PSoC6\pdl\rtos\FreeRTOS\10.0.1\Source/stream_buffer.c **** 
 462:Generated_Source\PSoC6\pdl\rtos\FreeRTOS\10.0.1\Source/stream_buffer.c **** 	if( xSpace >= pxStreamBuffer->xLength )
 478              		.loc 1 462 0
 479 0042 3B69     		ldr	r3, [r7, #16]
 480 0044 9A68     		ldr	r2, [r3, #8]
 481 0046 7B69     		ldr	r3, [r7, #20]
 482 0048 9A42     		cmp	r2, r3
 483 004a 04D8     		bhi	.L32
 463:Generated_Source\PSoC6\pdl\rtos\FreeRTOS\10.0.1\Source/stream_buffer.c **** 	{
 464:Generated_Source\PSoC6\pdl\rtos\FreeRTOS\10.0.1\Source/stream_buffer.c **** 		xSpace -= pxStreamBuffer->xLength;
 484              		.loc 1 464 0
 485 004c 3B69     		ldr	r3, [r7, #16]
 486 004e 9B68     		ldr	r3, [r3, #8]
 487 0050 7A69     		ldr	r2, [r7, #20]
 488 0052 D31A     		subs	r3, r2, r3
 489 0054 7B61     		str	r3, [r7, #20]
 490              	.L32:
 465:Generated_Source\PSoC6\pdl\rtos\FreeRTOS\10.0.1\Source/stream_buffer.c **** 	}
 466:Generated_Source\PSoC6\pdl\rtos\FreeRTOS\10.0.1\Source/stream_buffer.c **** 	else
 467:Generated_Source\PSoC6\pdl\rtos\FreeRTOS\10.0.1\Source/stream_buffer.c **** 	{
 468:Generated_Source\PSoC6\pdl\rtos\FreeRTOS\10.0.1\Source/stream_buffer.c **** 		mtCOVERAGE_TEST_MARKER();
 469:Generated_Source\PSoC6\pdl\rtos\FreeRTOS\10.0.1\Source/stream_buffer.c **** 	}
 470:Generated_Source\PSoC6\pdl\rtos\FreeRTOS\10.0.1\Source/stream_buffer.c **** 
 471:Generated_Source\PSoC6\pdl\rtos\FreeRTOS\10.0.1\Source/stream_buffer.c **** 	return xSpace;
 491              		.loc 1 471 0
 492 0056 7B69     		ldr	r3, [r7, #20]
 472:Generated_Source\PSoC6\pdl\rtos\FreeRTOS\10.0.1\Source/stream_buffer.c **** }
 493              		.loc 1 472 0
 494 0058 1846     		mov	r0, r3
 495 005a 1C37     		adds	r7, r7, #28
 496              		.cfi_def_cfa_offset 4
 497 005c BD46     		mov	sp, r7
 498              		.cfi_def_cfa_register 13
 499              		@ sp needed
 500 005e 5DF8047B 		ldr	r7, [sp], #4
 501              		.cfi_restore 7
 502              		.cfi_def_cfa_offset 0
 503 0062 7047     		bx	lr
 504              		.cfi_endproc
 505              	.LFE140:
 506              		.size	xStreamBufferSpacesAvailable, .-xStreamBufferSpacesAvailable
 507              		.section	.text.xStreamBufferBytesAvailable,"ax",%progbits
 508              		.align	2
 509              		.global	xStreamBufferBytesAvailable
 510              		.thumb
 511              		.thumb_func
ARM GAS  C:\Users\stijn\AppData\Local\Temp\cccniDcZ.s 			page 21


 512              		.type	xStreamBufferBytesAvailable, %function
 513              	xStreamBufferBytesAvailable:
 514              	.LFB141:
 473:Generated_Source\PSoC6\pdl\rtos\FreeRTOS\10.0.1\Source/stream_buffer.c **** /*-----------------------------------------------------------*/
 474:Generated_Source\PSoC6\pdl\rtos\FreeRTOS\10.0.1\Source/stream_buffer.c **** 
 475:Generated_Source\PSoC6\pdl\rtos\FreeRTOS\10.0.1\Source/stream_buffer.c **** size_t xStreamBufferBytesAvailable( StreamBufferHandle_t xStreamBuffer )
 476:Generated_Source\PSoC6\pdl\rtos\FreeRTOS\10.0.1\Source/stream_buffer.c **** {
 515              		.loc 1 476 0
 516              		.cfi_startproc
 517              		@ args = 0, pretend = 0, frame = 24
 518              		@ frame_needed = 1, uses_anonymous_args = 0
 519 0000 80B5     		push	{r7, lr}
 520              		.cfi_def_cfa_offset 8
 521              		.cfi_offset 7, -8
 522              		.cfi_offset 14, -4
 523 0002 86B0     		sub	sp, sp, #24
 524              		.cfi_def_cfa_offset 32
 525 0004 00AF     		add	r7, sp, #0
 526              		.cfi_def_cfa_register 7
 527 0006 7860     		str	r0, [r7, #4]
 477:Generated_Source\PSoC6\pdl\rtos\FreeRTOS\10.0.1\Source/stream_buffer.c **** const StreamBuffer_t * const pxStreamBuffer = ( StreamBuffer_t * ) xStreamBuffer; /*lint !e9087 !e9
 528              		.loc 1 477 0
 529 0008 7B68     		ldr	r3, [r7, #4]
 530 000a 7B61     		str	r3, [r7, #20]
 478:Generated_Source\PSoC6\pdl\rtos\FreeRTOS\10.0.1\Source/stream_buffer.c **** size_t xReturn;
 479:Generated_Source\PSoC6\pdl\rtos\FreeRTOS\10.0.1\Source/stream_buffer.c **** 
 480:Generated_Source\PSoC6\pdl\rtos\FreeRTOS\10.0.1\Source/stream_buffer.c **** 	configASSERT( pxStreamBuffer );
 531              		.loc 1 480 0
 532 000c 7B69     		ldr	r3, [r7, #20]
 533 000e 002B     		cmp	r3, #0
 534 0010 09D1     		bne	.L35
 535              	.LBB89:
 536              	.LBB90:
 537              		.loc 2 156 0 discriminator 1
 538              		.syntax unified
 539              	@ 156 "Generated_Source\PSoC6\pdl\rtos/FreeRTOS/10.0.1/Source/portable/GCC/CM4F/portmacro.h" 1
 540 0012 4FF03F03 			mov r3, #63												
 541 0016 83F31188 		msr basepri, r3											
 542 001a BFF36F8F 		isb														
 543 001e BFF34F8F 		dsb														
 544              	
 545              	@ 0 "" 2
 546              		.thumb
 547              		.syntax unified
 548 0022 FB60     		str	r3, [r7, #12]
 549              	.L36:
 550              	.LBE90:
 551              	.LBE89:
 552              		.loc 1 480 0 discriminator 1
 553 0024 FEE7     		b	.L36
 554              	.L35:
 481:Generated_Source\PSoC6\pdl\rtos\FreeRTOS\10.0.1\Source/stream_buffer.c **** 
 482:Generated_Source\PSoC6\pdl\rtos\FreeRTOS\10.0.1\Source/stream_buffer.c **** 	xReturn = prvBytesInBuffer( pxStreamBuffer );
 555              		.loc 1 482 0
 556 0026 7869     		ldr	r0, [r7, #20]
 557 0028 FFF7FEFF 		bl	prvBytesInBuffer
 558 002c 3861     		str	r0, [r7, #16]
ARM GAS  C:\Users\stijn\AppData\Local\Temp\cccniDcZ.s 			page 22


 483:Generated_Source\PSoC6\pdl\rtos\FreeRTOS\10.0.1\Source/stream_buffer.c **** 	return xReturn;
 559              		.loc 1 483 0
 560 002e 3B69     		ldr	r3, [r7, #16]
 484:Generated_Source\PSoC6\pdl\rtos\FreeRTOS\10.0.1\Source/stream_buffer.c **** }
 561              		.loc 1 484 0
 562 0030 1846     		mov	r0, r3
 563 0032 1837     		adds	r7, r7, #24
 564              		.cfi_def_cfa_offset 8
 565 0034 BD46     		mov	sp, r7
 566              		.cfi_def_cfa_register 13
 567              		@ sp needed
 568 0036 80BD     		pop	{r7, pc}
 569              		.cfi_endproc
 570              	.LFE141:
 571              		.size	xStreamBufferBytesAvailable, .-xStreamBufferBytesAvailable
 572              		.section	.text.xStreamBufferSend,"ax",%progbits
 573              		.align	2
 574              		.global	xStreamBufferSend
 575              		.thumb
 576              		.thumb_func
 577              		.type	xStreamBufferSend, %function
 578              	xStreamBufferSend:
 579              	.LFB142:
 485:Generated_Source\PSoC6\pdl\rtos\FreeRTOS\10.0.1\Source/stream_buffer.c **** /*-----------------------------------------------------------*/
 486:Generated_Source\PSoC6\pdl\rtos\FreeRTOS\10.0.1\Source/stream_buffer.c **** 
 487:Generated_Source\PSoC6\pdl\rtos\FreeRTOS\10.0.1\Source/stream_buffer.c **** size_t xStreamBufferSend( StreamBufferHandle_t xStreamBuffer,
 488:Generated_Source\PSoC6\pdl\rtos\FreeRTOS\10.0.1\Source/stream_buffer.c **** 						  const void *pvTxData,
 489:Generated_Source\PSoC6\pdl\rtos\FreeRTOS\10.0.1\Source/stream_buffer.c **** 						  size_t xDataLengthBytes,
 490:Generated_Source\PSoC6\pdl\rtos\FreeRTOS\10.0.1\Source/stream_buffer.c **** 						  TickType_t xTicksToWait )
 491:Generated_Source\PSoC6\pdl\rtos\FreeRTOS\10.0.1\Source/stream_buffer.c **** {
 580              		.loc 1 491 0
 581              		.cfi_startproc
 582              		@ args = 0, pretend = 0, frame = 56
 583              		@ frame_needed = 1, uses_anonymous_args = 0
 584 0000 80B5     		push	{r7, lr}
 585              		.cfi_def_cfa_offset 8
 586              		.cfi_offset 7, -8
 587              		.cfi_offset 14, -4
 588 0002 90B0     		sub	sp, sp, #64
 589              		.cfi_def_cfa_offset 72
 590 0004 02AF     		add	r7, sp, #8
 591              		.cfi_def_cfa 7, 64
 592 0006 F860     		str	r0, [r7, #12]
 593 0008 B960     		str	r1, [r7, #8]
 594 000a 7A60     		str	r2, [r7, #4]
 595 000c 3B60     		str	r3, [r7]
 492:Generated_Source\PSoC6\pdl\rtos\FreeRTOS\10.0.1\Source/stream_buffer.c **** StreamBuffer_t * const pxStreamBuffer = ( StreamBuffer_t * ) xStreamBuffer; /*lint !e9087 !e9079 Sa
 596              		.loc 1 492 0
 597 000e FB68     		ldr	r3, [r7, #12]
 598 0010 FB62     		str	r3, [r7, #44]
 493:Generated_Source\PSoC6\pdl\rtos\FreeRTOS\10.0.1\Source/stream_buffer.c **** size_t xReturn, xSpace = 0;
 599              		.loc 1 493 0
 600 0012 0023     		movs	r3, #0
 601 0014 7B63     		str	r3, [r7, #52]
 494:Generated_Source\PSoC6\pdl\rtos\FreeRTOS\10.0.1\Source/stream_buffer.c **** size_t xRequiredSpace = xDataLengthBytes;
 602              		.loc 1 494 0
 603 0016 7B68     		ldr	r3, [r7, #4]
ARM GAS  C:\Users\stijn\AppData\Local\Temp\cccniDcZ.s 			page 23


 604 0018 3B63     		str	r3, [r7, #48]
 495:Generated_Source\PSoC6\pdl\rtos\FreeRTOS\10.0.1\Source/stream_buffer.c **** TimeOut_t xTimeOut;
 496:Generated_Source\PSoC6\pdl\rtos\FreeRTOS\10.0.1\Source/stream_buffer.c **** 
 497:Generated_Source\PSoC6\pdl\rtos\FreeRTOS\10.0.1\Source/stream_buffer.c **** 	configASSERT( pvTxData );
 605              		.loc 1 497 0
 606 001a BB68     		ldr	r3, [r7, #8]
 607 001c 002B     		cmp	r3, #0
 608 001e 09D1     		bne	.L39
 609              	.LBB91:
 610              	.LBB92:
 611              		.loc 2 156 0 discriminator 1
 612              		.syntax unified
 613              	@ 156 "Generated_Source\PSoC6\pdl\rtos/FreeRTOS/10.0.1/Source/portable/GCC/CM4F/portmacro.h" 1
 614 0020 4FF03F03 			mov r3, #63												
 615 0024 83F31188 		msr basepri, r3											
 616 0028 BFF36F8F 		isb														
 617 002c BFF34F8F 		dsb														
 618              	
 619              	@ 0 "" 2
 620              		.thumb
 621              		.syntax unified
 622 0030 FB61     		str	r3, [r7, #28]
 623              	.L40:
 624              	.LBE92:
 625              	.LBE91:
 626              		.loc 1 497 0 discriminator 1
 627 0032 FEE7     		b	.L40
 628              	.L39:
 498:Generated_Source\PSoC6\pdl\rtos\FreeRTOS\10.0.1\Source/stream_buffer.c **** 	configASSERT( pxStreamBuffer );
 629              		.loc 1 498 0
 630 0034 FB6A     		ldr	r3, [r7, #44]
 631 0036 002B     		cmp	r3, #0
 632 0038 09D1     		bne	.L41
 633              	.LBB93:
 634              	.LBB94:
 635              		.loc 2 156 0 discriminator 1
 636              		.syntax unified
 637              	@ 156 "Generated_Source\PSoC6\pdl\rtos/FreeRTOS/10.0.1/Source/portable/GCC/CM4F/portmacro.h" 1
 638 003a 4FF03F03 			mov r3, #63												
 639 003e 83F31188 		msr basepri, r3											
 640 0042 BFF36F8F 		isb														
 641 0046 BFF34F8F 		dsb														
 642              	
 643              	@ 0 "" 2
 644              		.thumb
 645              		.syntax unified
 646 004a 3B62     		str	r3, [r7, #32]
 647              	.L42:
 648              	.LBE94:
 649              	.LBE93:
 650              		.loc 1 498 0 discriminator 2
 651 004c FEE7     		b	.L42
 652              	.L41:
 499:Generated_Source\PSoC6\pdl\rtos\FreeRTOS\10.0.1\Source/stream_buffer.c **** 
 500:Generated_Source\PSoC6\pdl\rtos\FreeRTOS\10.0.1\Source/stream_buffer.c **** 	/* This send function is used to write to both message buffers and stream
 501:Generated_Source\PSoC6\pdl\rtos\FreeRTOS\10.0.1\Source/stream_buffer.c **** 	buffers.  If this is a message buffer then the space needed must be
 502:Generated_Source\PSoC6\pdl\rtos\FreeRTOS\10.0.1\Source/stream_buffer.c **** 	increased by the amount of bytes needed to store the length of the
ARM GAS  C:\Users\stijn\AppData\Local\Temp\cccniDcZ.s 			page 24


 503:Generated_Source\PSoC6\pdl\rtos\FreeRTOS\10.0.1\Source/stream_buffer.c **** 	message. */
 504:Generated_Source\PSoC6\pdl\rtos\FreeRTOS\10.0.1\Source/stream_buffer.c **** 	if( ( pxStreamBuffer->ucFlags & sbFLAGS_IS_MESSAGE_BUFFER ) != ( uint8_t ) 0 )
 653              		.loc 1 504 0
 654 004e FB6A     		ldr	r3, [r7, #44]
 655 0050 1B7F     		ldrb	r3, [r3, #28]	@ zero_extendqisi2
 656 0052 03F00103 		and	r3, r3, #1
 657 0056 002B     		cmp	r3, #0
 658 0058 02D0     		beq	.L43
 505:Generated_Source\PSoC6\pdl\rtos\FreeRTOS\10.0.1\Source/stream_buffer.c **** 	{
 506:Generated_Source\PSoC6\pdl\rtos\FreeRTOS\10.0.1\Source/stream_buffer.c **** 		xRequiredSpace += sbBYTES_TO_STORE_MESSAGE_LENGTH;
 659              		.loc 1 506 0
 660 005a 3B6B     		ldr	r3, [r7, #48]
 661 005c 0433     		adds	r3, r3, #4
 662 005e 3B63     		str	r3, [r7, #48]
 663              	.L43:
 507:Generated_Source\PSoC6\pdl\rtos\FreeRTOS\10.0.1\Source/stream_buffer.c **** 	}
 508:Generated_Source\PSoC6\pdl\rtos\FreeRTOS\10.0.1\Source/stream_buffer.c **** 	else
 509:Generated_Source\PSoC6\pdl\rtos\FreeRTOS\10.0.1\Source/stream_buffer.c **** 	{
 510:Generated_Source\PSoC6\pdl\rtos\FreeRTOS\10.0.1\Source/stream_buffer.c **** 		mtCOVERAGE_TEST_MARKER();
 511:Generated_Source\PSoC6\pdl\rtos\FreeRTOS\10.0.1\Source/stream_buffer.c **** 	}
 512:Generated_Source\PSoC6\pdl\rtos\FreeRTOS\10.0.1\Source/stream_buffer.c **** 
 513:Generated_Source\PSoC6\pdl\rtos\FreeRTOS\10.0.1\Source/stream_buffer.c **** 	if( xTicksToWait != ( TickType_t ) 0 )
 664              		.loc 1 513 0
 665 0060 3B68     		ldr	r3, [r7]
 666 0062 002B     		cmp	r3, #0
 667 0064 3ED0     		beq	.L44
 514:Generated_Source\PSoC6\pdl\rtos\FreeRTOS\10.0.1\Source/stream_buffer.c **** 	{
 515:Generated_Source\PSoC6\pdl\rtos\FreeRTOS\10.0.1\Source/stream_buffer.c **** 		vTaskSetTimeOutState( &xTimeOut );
 668              		.loc 1 515 0
 669 0066 07F11403 		add	r3, r7, #20
 670 006a 1846     		mov	r0, r3
 671 006c FFF7FEFF 		bl	vTaskSetTimeOutState
 672              	.L50:
 516:Generated_Source\PSoC6\pdl\rtos\FreeRTOS\10.0.1\Source/stream_buffer.c **** 
 517:Generated_Source\PSoC6\pdl\rtos\FreeRTOS\10.0.1\Source/stream_buffer.c **** 		do
 518:Generated_Source\PSoC6\pdl\rtos\FreeRTOS\10.0.1\Source/stream_buffer.c **** 		{
 519:Generated_Source\PSoC6\pdl\rtos\FreeRTOS\10.0.1\Source/stream_buffer.c **** 			/* Wait until the required number of bytes are free in the message
 520:Generated_Source\PSoC6\pdl\rtos\FreeRTOS\10.0.1\Source/stream_buffer.c **** 			buffer. */
 521:Generated_Source\PSoC6\pdl\rtos\FreeRTOS\10.0.1\Source/stream_buffer.c **** 			taskENTER_CRITICAL();
 673              		.loc 1 521 0
 674 0070 FFF7FEFF 		bl	vPortEnterCritical
 522:Generated_Source\PSoC6\pdl\rtos\FreeRTOS\10.0.1\Source/stream_buffer.c **** 			{
 523:Generated_Source\PSoC6\pdl\rtos\FreeRTOS\10.0.1\Source/stream_buffer.c **** 				xSpace = xStreamBufferSpacesAvailable( pxStreamBuffer );
 675              		.loc 1 523 0
 676 0074 F86A     		ldr	r0, [r7, #44]
 677 0076 FFF7FEFF 		bl	xStreamBufferSpacesAvailable
 678 007a 7863     		str	r0, [r7, #52]
 524:Generated_Source\PSoC6\pdl\rtos\FreeRTOS\10.0.1\Source/stream_buffer.c **** 
 525:Generated_Source\PSoC6\pdl\rtos\FreeRTOS\10.0.1\Source/stream_buffer.c **** 				if( xSpace < xRequiredSpace )
 679              		.loc 1 525 0
 680 007c 7A6B     		ldr	r2, [r7, #52]
 681 007e 3B6B     		ldr	r3, [r7, #48]
 682 0080 9A42     		cmp	r2, r3
 683 0082 16D2     		bcs	.L45
 526:Generated_Source\PSoC6\pdl\rtos\FreeRTOS\10.0.1\Source/stream_buffer.c **** 				{
 527:Generated_Source\PSoC6\pdl\rtos\FreeRTOS\10.0.1\Source/stream_buffer.c **** 					/* Clear notification state as going to wait for space. */
 528:Generated_Source\PSoC6\pdl\rtos\FreeRTOS\10.0.1\Source/stream_buffer.c **** 					( void ) xTaskNotifyStateClear( NULL );
ARM GAS  C:\Users\stijn\AppData\Local\Temp\cccniDcZ.s 			page 25


 684              		.loc 1 528 0
 685 0084 0020     		movs	r0, #0
 686 0086 FFF7FEFF 		bl	xTaskNotifyStateClear
 529:Generated_Source\PSoC6\pdl\rtos\FreeRTOS\10.0.1\Source/stream_buffer.c **** 
 530:Generated_Source\PSoC6\pdl\rtos\FreeRTOS\10.0.1\Source/stream_buffer.c **** 					/* Should only be one writer. */
 531:Generated_Source\PSoC6\pdl\rtos\FreeRTOS\10.0.1\Source/stream_buffer.c **** 					configASSERT( pxStreamBuffer->xTaskWaitingToSend == NULL );
 687              		.loc 1 531 0
 688 008a FB6A     		ldr	r3, [r7, #44]
 689 008c 5B69     		ldr	r3, [r3, #20]
 690 008e 002B     		cmp	r3, #0
 691 0090 09D0     		beq	.L46
 692              	.LBB95:
 693              	.LBB96:
 694              		.loc 2 156 0 discriminator 1
 695              		.syntax unified
 696              	@ 156 "Generated_Source\PSoC6\pdl\rtos/FreeRTOS/10.0.1/Source/portable/GCC/CM4F/portmacro.h" 1
 697 0092 4FF03F03 			mov r3, #63												
 698 0096 83F31188 		msr basepri, r3											
 699 009a BFF36F8F 		isb														
 700 009e BFF34F8F 		dsb														
 701              	
 702              	@ 0 "" 2
 703              		.thumb
 704              		.syntax unified
 705 00a2 7B62     		str	r3, [r7, #36]
 706              	.L47:
 707              	.LBE96:
 708              	.LBE95:
 709              		.loc 1 531 0 discriminator 3
 710 00a4 FEE7     		b	.L47
 711              	.L46:
 532:Generated_Source\PSoC6\pdl\rtos\FreeRTOS\10.0.1\Source/stream_buffer.c **** 					pxStreamBuffer->xTaskWaitingToSend = xTaskGetCurrentTaskHandle();
 712              		.loc 1 532 0
 713 00a6 FFF7FEFF 		bl	xTaskGetCurrentTaskHandle
 714 00aa 0246     		mov	r2, r0
 715 00ac FB6A     		ldr	r3, [r7, #44]
 716 00ae 5A61     		str	r2, [r3, #20]
 717 00b0 02E0     		b	.L55
 718              	.L45:
 533:Generated_Source\PSoC6\pdl\rtos\FreeRTOS\10.0.1\Source/stream_buffer.c **** 				}
 534:Generated_Source\PSoC6\pdl\rtos\FreeRTOS\10.0.1\Source/stream_buffer.c **** 				else
 535:Generated_Source\PSoC6\pdl\rtos\FreeRTOS\10.0.1\Source/stream_buffer.c **** 				{
 536:Generated_Source\PSoC6\pdl\rtos\FreeRTOS\10.0.1\Source/stream_buffer.c **** 					taskEXIT_CRITICAL();
 719              		.loc 1 536 0
 720 00b2 FFF7FEFF 		bl	vPortExitCritical
 537:Generated_Source\PSoC6\pdl\rtos\FreeRTOS\10.0.1\Source/stream_buffer.c **** 					break;
 721              		.loc 1 537 0
 722 00b6 15E0     		b	.L44
 723              	.L55:
 538:Generated_Source\PSoC6\pdl\rtos\FreeRTOS\10.0.1\Source/stream_buffer.c **** 				}
 539:Generated_Source\PSoC6\pdl\rtos\FreeRTOS\10.0.1\Source/stream_buffer.c **** 			}
 540:Generated_Source\PSoC6\pdl\rtos\FreeRTOS\10.0.1\Source/stream_buffer.c **** 			taskEXIT_CRITICAL();
 724              		.loc 1 540 0
 725 00b8 FFF7FEFF 		bl	vPortExitCritical
 541:Generated_Source\PSoC6\pdl\rtos\FreeRTOS\10.0.1\Source/stream_buffer.c **** 
 542:Generated_Source\PSoC6\pdl\rtos\FreeRTOS\10.0.1\Source/stream_buffer.c **** 			traceBLOCKING_ON_STREAM_BUFFER_SEND( xStreamBuffer );
 543:Generated_Source\PSoC6\pdl\rtos\FreeRTOS\10.0.1\Source/stream_buffer.c **** 			( void ) xTaskNotifyWait( ( uint32_t ) 0, UINT32_MAX, NULL, xTicksToWait );
ARM GAS  C:\Users\stijn\AppData\Local\Temp\cccniDcZ.s 			page 26


 726              		.loc 1 543 0
 727 00bc 3B68     		ldr	r3, [r7]
 728 00be 0022     		movs	r2, #0
 729 00c0 4FF0FF31 		mov	r1, #-1
 730 00c4 0020     		movs	r0, #0
 731 00c6 FFF7FEFF 		bl	xTaskNotifyWait
 544:Generated_Source\PSoC6\pdl\rtos\FreeRTOS\10.0.1\Source/stream_buffer.c **** 			pxStreamBuffer->xTaskWaitingToSend = NULL;
 732              		.loc 1 544 0
 733 00ca FB6A     		ldr	r3, [r7, #44]
 734 00cc 0022     		movs	r2, #0
 735 00ce 5A61     		str	r2, [r3, #20]
 545:Generated_Source\PSoC6\pdl\rtos\FreeRTOS\10.0.1\Source/stream_buffer.c **** 
 546:Generated_Source\PSoC6\pdl\rtos\FreeRTOS\10.0.1\Source/stream_buffer.c **** 		} while( xTaskCheckForTimeOut( &xTimeOut, &xTicksToWait ) == pdFALSE );
 736              		.loc 1 546 0
 737 00d0 3A46     		mov	r2, r7
 738 00d2 07F11403 		add	r3, r7, #20
 739 00d6 1146     		mov	r1, r2
 740 00d8 1846     		mov	r0, r3
 741 00da FFF7FEFF 		bl	xTaskCheckForTimeOut
 742 00de 0346     		mov	r3, r0
 743 00e0 002B     		cmp	r3, #0
 744 00e2 C5D0     		beq	.L50
 745              	.L44:
 547:Generated_Source\PSoC6\pdl\rtos\FreeRTOS\10.0.1\Source/stream_buffer.c **** 	}
 548:Generated_Source\PSoC6\pdl\rtos\FreeRTOS\10.0.1\Source/stream_buffer.c **** 	else
 549:Generated_Source\PSoC6\pdl\rtos\FreeRTOS\10.0.1\Source/stream_buffer.c **** 	{
 550:Generated_Source\PSoC6\pdl\rtos\FreeRTOS\10.0.1\Source/stream_buffer.c **** 		mtCOVERAGE_TEST_MARKER();
 551:Generated_Source\PSoC6\pdl\rtos\FreeRTOS\10.0.1\Source/stream_buffer.c **** 	}
 552:Generated_Source\PSoC6\pdl\rtos\FreeRTOS\10.0.1\Source/stream_buffer.c **** 
 553:Generated_Source\PSoC6\pdl\rtos\FreeRTOS\10.0.1\Source/stream_buffer.c **** 	if( xSpace == ( size_t ) 0 )
 746              		.loc 1 553 0
 747 00e4 7B6B     		ldr	r3, [r7, #52]
 748 00e6 002B     		cmp	r3, #0
 749 00e8 03D1     		bne	.L51
 554:Generated_Source\PSoC6\pdl\rtos\FreeRTOS\10.0.1\Source/stream_buffer.c **** 	{
 555:Generated_Source\PSoC6\pdl\rtos\FreeRTOS\10.0.1\Source/stream_buffer.c **** 		xSpace = xStreamBufferSpacesAvailable( pxStreamBuffer );
 750              		.loc 1 555 0
 751 00ea F86A     		ldr	r0, [r7, #44]
 752 00ec FFF7FEFF 		bl	xStreamBufferSpacesAvailable
 753 00f0 7863     		str	r0, [r7, #52]
 754              	.L51:
 556:Generated_Source\PSoC6\pdl\rtos\FreeRTOS\10.0.1\Source/stream_buffer.c **** 	}
 557:Generated_Source\PSoC6\pdl\rtos\FreeRTOS\10.0.1\Source/stream_buffer.c **** 	else
 558:Generated_Source\PSoC6\pdl\rtos\FreeRTOS\10.0.1\Source/stream_buffer.c **** 	{
 559:Generated_Source\PSoC6\pdl\rtos\FreeRTOS\10.0.1\Source/stream_buffer.c **** 		mtCOVERAGE_TEST_MARKER();
 560:Generated_Source\PSoC6\pdl\rtos\FreeRTOS\10.0.1\Source/stream_buffer.c **** 	}
 561:Generated_Source\PSoC6\pdl\rtos\FreeRTOS\10.0.1\Source/stream_buffer.c **** 
 562:Generated_Source\PSoC6\pdl\rtos\FreeRTOS\10.0.1\Source/stream_buffer.c **** 	xReturn = prvWriteMessageToBuffer( pxStreamBuffer, pvTxData, xDataLengthBytes, xSpace, xRequiredSp
 755              		.loc 1 562 0
 756 00f2 3B6B     		ldr	r3, [r7, #48]
 757 00f4 0093     		str	r3, [sp]
 758 00f6 7B6B     		ldr	r3, [r7, #52]
 759 00f8 7A68     		ldr	r2, [r7, #4]
 760 00fa B968     		ldr	r1, [r7, #8]
 761 00fc F86A     		ldr	r0, [r7, #44]
 762 00fe FFF7FEFF 		bl	prvWriteMessageToBuffer
 763 0102 B862     		str	r0, [r7, #40]
ARM GAS  C:\Users\stijn\AppData\Local\Temp\cccniDcZ.s 			page 27


 563:Generated_Source\PSoC6\pdl\rtos\FreeRTOS\10.0.1\Source/stream_buffer.c **** 
 564:Generated_Source\PSoC6\pdl\rtos\FreeRTOS\10.0.1\Source/stream_buffer.c **** 	if( xReturn > ( size_t ) 0 )
 764              		.loc 1 564 0
 765 0104 BB6A     		ldr	r3, [r7, #40]
 766 0106 002B     		cmp	r3, #0
 767 0108 19D0     		beq	.L52
 565:Generated_Source\PSoC6\pdl\rtos\FreeRTOS\10.0.1\Source/stream_buffer.c **** 	{
 566:Generated_Source\PSoC6\pdl\rtos\FreeRTOS\10.0.1\Source/stream_buffer.c **** 		traceSTREAM_BUFFER_SEND( xStreamBuffer, xReturn );
 567:Generated_Source\PSoC6\pdl\rtos\FreeRTOS\10.0.1\Source/stream_buffer.c **** 
 568:Generated_Source\PSoC6\pdl\rtos\FreeRTOS\10.0.1\Source/stream_buffer.c **** 		/* Was a task waiting for the data? */
 569:Generated_Source\PSoC6\pdl\rtos\FreeRTOS\10.0.1\Source/stream_buffer.c **** 		if( prvBytesInBuffer( pxStreamBuffer ) >= pxStreamBuffer->xTriggerLevelBytes )
 768              		.loc 1 569 0
 769 010a F86A     		ldr	r0, [r7, #44]
 770 010c FFF7FEFF 		bl	prvBytesInBuffer
 771 0110 0246     		mov	r2, r0
 772 0112 FB6A     		ldr	r3, [r7, #44]
 773 0114 DB68     		ldr	r3, [r3, #12]
 774 0116 9A42     		cmp	r2, r3
 775 0118 11D3     		bcc	.L52
 570:Generated_Source\PSoC6\pdl\rtos\FreeRTOS\10.0.1\Source/stream_buffer.c **** 		{
 571:Generated_Source\PSoC6\pdl\rtos\FreeRTOS\10.0.1\Source/stream_buffer.c **** 			sbSEND_COMPLETED( pxStreamBuffer );
 776              		.loc 1 571 0
 777 011a FFF7FEFF 		bl	vTaskSuspendAll
 778 011e FB6A     		ldr	r3, [r7, #44]
 779 0120 1B69     		ldr	r3, [r3, #16]
 780 0122 002B     		cmp	r3, #0
 781 0124 09D0     		beq	.L53
 782              		.loc 1 571 0 is_stmt 0 discriminator 1
 783 0126 FB6A     		ldr	r3, [r7, #44]
 784 0128 1869     		ldr	r0, [r3, #16]
 785 012a 0023     		movs	r3, #0
 786 012c 0022     		movs	r2, #0
 787 012e 0021     		movs	r1, #0
 788 0130 FFF7FEFF 		bl	xTaskGenericNotify
 789 0134 FB6A     		ldr	r3, [r7, #44]
 790 0136 0022     		movs	r2, #0
 791 0138 1A61     		str	r2, [r3, #16]
 792              	.L53:
 793              		.loc 1 571 0 discriminator 3
 794 013a FFF7FEFF 		bl	xTaskResumeAll
 795              	.L52:
 572:Generated_Source\PSoC6\pdl\rtos\FreeRTOS\10.0.1\Source/stream_buffer.c **** 		}
 573:Generated_Source\PSoC6\pdl\rtos\FreeRTOS\10.0.1\Source/stream_buffer.c **** 		else
 574:Generated_Source\PSoC6\pdl\rtos\FreeRTOS\10.0.1\Source/stream_buffer.c **** 		{
 575:Generated_Source\PSoC6\pdl\rtos\FreeRTOS\10.0.1\Source/stream_buffer.c **** 			mtCOVERAGE_TEST_MARKER();
 576:Generated_Source\PSoC6\pdl\rtos\FreeRTOS\10.0.1\Source/stream_buffer.c **** 		}
 577:Generated_Source\PSoC6\pdl\rtos\FreeRTOS\10.0.1\Source/stream_buffer.c **** 	}
 578:Generated_Source\PSoC6\pdl\rtos\FreeRTOS\10.0.1\Source/stream_buffer.c **** 	else
 579:Generated_Source\PSoC6\pdl\rtos\FreeRTOS\10.0.1\Source/stream_buffer.c **** 	{
 580:Generated_Source\PSoC6\pdl\rtos\FreeRTOS\10.0.1\Source/stream_buffer.c **** 		mtCOVERAGE_TEST_MARKER();
 581:Generated_Source\PSoC6\pdl\rtos\FreeRTOS\10.0.1\Source/stream_buffer.c **** 		traceSTREAM_BUFFER_SEND_FAILED( xStreamBuffer );
 582:Generated_Source\PSoC6\pdl\rtos\FreeRTOS\10.0.1\Source/stream_buffer.c **** 	}
 583:Generated_Source\PSoC6\pdl\rtos\FreeRTOS\10.0.1\Source/stream_buffer.c **** 
 584:Generated_Source\PSoC6\pdl\rtos\FreeRTOS\10.0.1\Source/stream_buffer.c **** 	return xReturn;
 796              		.loc 1 584 0 is_stmt 1
 797 013e BB6A     		ldr	r3, [r7, #40]
 585:Generated_Source\PSoC6\pdl\rtos\FreeRTOS\10.0.1\Source/stream_buffer.c **** }
ARM GAS  C:\Users\stijn\AppData\Local\Temp\cccniDcZ.s 			page 28


 798              		.loc 1 585 0
 799 0140 1846     		mov	r0, r3
 800 0142 3837     		adds	r7, r7, #56
 801              		.cfi_def_cfa_offset 8
 802 0144 BD46     		mov	sp, r7
 803              		.cfi_def_cfa_register 13
 804              		@ sp needed
 805 0146 80BD     		pop	{r7, pc}
 806              		.cfi_endproc
 807              	.LFE142:
 808              		.size	xStreamBufferSend, .-xStreamBufferSend
 809              		.section	.text.xStreamBufferSendFromISR,"ax",%progbits
 810              		.align	2
 811              		.global	xStreamBufferSendFromISR
 812              		.thumb
 813              		.thumb_func
 814              		.type	xStreamBufferSendFromISR, %function
 815              	xStreamBufferSendFromISR:
 816              	.LFB143:
 586:Generated_Source\PSoC6\pdl\rtos\FreeRTOS\10.0.1\Source/stream_buffer.c **** /*-----------------------------------------------------------*/
 587:Generated_Source\PSoC6\pdl\rtos\FreeRTOS\10.0.1\Source/stream_buffer.c **** 
 588:Generated_Source\PSoC6\pdl\rtos\FreeRTOS\10.0.1\Source/stream_buffer.c **** size_t xStreamBufferSendFromISR( StreamBufferHandle_t xStreamBuffer,
 589:Generated_Source\PSoC6\pdl\rtos\FreeRTOS\10.0.1\Source/stream_buffer.c **** 								 const void *pvTxData,
 590:Generated_Source\PSoC6\pdl\rtos\FreeRTOS\10.0.1\Source/stream_buffer.c **** 								 size_t xDataLengthBytes,
 591:Generated_Source\PSoC6\pdl\rtos\FreeRTOS\10.0.1\Source/stream_buffer.c **** 								 BaseType_t * const pxHigherPriorityTaskWoken )
 592:Generated_Source\PSoC6\pdl\rtos\FreeRTOS\10.0.1\Source/stream_buffer.c **** {
 817              		.loc 1 592 0
 818              		.cfi_startproc
 819              		@ args = 0, pretend = 0, frame = 56
 820              		@ frame_needed = 1, uses_anonymous_args = 0
 821 0000 80B5     		push	{r7, lr}
 822              		.cfi_def_cfa_offset 8
 823              		.cfi_offset 7, -8
 824              		.cfi_offset 14, -4
 825 0002 90B0     		sub	sp, sp, #64
 826              		.cfi_def_cfa_offset 72
 827 0004 02AF     		add	r7, sp, #8
 828              		.cfi_def_cfa 7, 64
 829 0006 F860     		str	r0, [r7, #12]
 830 0008 B960     		str	r1, [r7, #8]
 831 000a 7A60     		str	r2, [r7, #4]
 832 000c 3B60     		str	r3, [r7]
 593:Generated_Source\PSoC6\pdl\rtos\FreeRTOS\10.0.1\Source/stream_buffer.c **** StreamBuffer_t * const pxStreamBuffer = ( StreamBuffer_t * ) xStreamBuffer; /*lint !e9087 !e9079 Sa
 833              		.loc 1 593 0
 834 000e FB68     		ldr	r3, [r7, #12]
 835 0010 3B63     		str	r3, [r7, #48]
 594:Generated_Source\PSoC6\pdl\rtos\FreeRTOS\10.0.1\Source/stream_buffer.c **** size_t xReturn, xSpace;
 595:Generated_Source\PSoC6\pdl\rtos\FreeRTOS\10.0.1\Source/stream_buffer.c **** size_t xRequiredSpace = xDataLengthBytes;
 836              		.loc 1 595 0
 837 0012 7B68     		ldr	r3, [r7, #4]
 838 0014 7B63     		str	r3, [r7, #52]
 596:Generated_Source\PSoC6\pdl\rtos\FreeRTOS\10.0.1\Source/stream_buffer.c **** 
 597:Generated_Source\PSoC6\pdl\rtos\FreeRTOS\10.0.1\Source/stream_buffer.c **** 	configASSERT( pvTxData );
 839              		.loc 1 597 0
 840 0016 BB68     		ldr	r3, [r7, #8]
 841 0018 002B     		cmp	r3, #0
 842 001a 09D1     		bne	.L57
ARM GAS  C:\Users\stijn\AppData\Local\Temp\cccniDcZ.s 			page 29


 843              	.LBB97:
 844              	.LBB98:
 845              		.loc 2 156 0 discriminator 1
 846              		.syntax unified
 847              	@ 156 "Generated_Source\PSoC6\pdl\rtos/FreeRTOS/10.0.1/Source/portable/GCC/CM4F/portmacro.h" 1
 848 001c 4FF03F03 			mov r3, #63												
 849 0020 83F31188 		msr basepri, r3											
 850 0024 BFF36F8F 		isb														
 851 0028 BFF34F8F 		dsb														
 852              	
 853              	@ 0 "" 2
 854              		.thumb
 855              		.syntax unified
 856 002c 7B61     		str	r3, [r7, #20]
 857              	.L58:
 858              	.LBE98:
 859              	.LBE97:
 860              		.loc 1 597 0 discriminator 1
 861 002e FEE7     		b	.L58
 862              	.L57:
 598:Generated_Source\PSoC6\pdl\rtos\FreeRTOS\10.0.1\Source/stream_buffer.c **** 	configASSERT( pxStreamBuffer );
 863              		.loc 1 598 0
 864 0030 3B6B     		ldr	r3, [r7, #48]
 865 0032 002B     		cmp	r3, #0
 866 0034 09D1     		bne	.L59
 867              	.LBB99:
 868              	.LBB100:
 869              		.loc 2 156 0 discriminator 1
 870              		.syntax unified
 871              	@ 156 "Generated_Source\PSoC6\pdl\rtos/FreeRTOS/10.0.1/Source/portable/GCC/CM4F/portmacro.h" 1
 872 0036 4FF03F03 			mov r3, #63												
 873 003a 83F31188 		msr basepri, r3											
 874 003e BFF36F8F 		isb														
 875 0042 BFF34F8F 		dsb														
 876              	
 877              	@ 0 "" 2
 878              		.thumb
 879              		.syntax unified
 880 0046 BB61     		str	r3, [r7, #24]
 881              	.L60:
 882              	.LBE100:
 883              	.LBE99:
 884              		.loc 1 598 0 discriminator 2
 885 0048 FEE7     		b	.L60
 886              	.L59:
 599:Generated_Source\PSoC6\pdl\rtos\FreeRTOS\10.0.1\Source/stream_buffer.c **** 
 600:Generated_Source\PSoC6\pdl\rtos\FreeRTOS\10.0.1\Source/stream_buffer.c **** 	/* This send function is used to write to both message buffers and stream
 601:Generated_Source\PSoC6\pdl\rtos\FreeRTOS\10.0.1\Source/stream_buffer.c **** 	buffers.  If this is a message buffer then the space needed must be
 602:Generated_Source\PSoC6\pdl\rtos\FreeRTOS\10.0.1\Source/stream_buffer.c **** 	increased by the amount of bytes needed to store the length of the
 603:Generated_Source\PSoC6\pdl\rtos\FreeRTOS\10.0.1\Source/stream_buffer.c **** 	message. */
 604:Generated_Source\PSoC6\pdl\rtos\FreeRTOS\10.0.1\Source/stream_buffer.c **** 	if( ( pxStreamBuffer->ucFlags & sbFLAGS_IS_MESSAGE_BUFFER ) != ( uint8_t ) 0 )
 887              		.loc 1 604 0
 888 004a 3B6B     		ldr	r3, [r7, #48]
 889 004c 1B7F     		ldrb	r3, [r3, #28]	@ zero_extendqisi2
 890 004e 03F00103 		and	r3, r3, #1
 891 0052 002B     		cmp	r3, #0
 892 0054 02D0     		beq	.L61
ARM GAS  C:\Users\stijn\AppData\Local\Temp\cccniDcZ.s 			page 30


 605:Generated_Source\PSoC6\pdl\rtos\FreeRTOS\10.0.1\Source/stream_buffer.c **** 	{
 606:Generated_Source\PSoC6\pdl\rtos\FreeRTOS\10.0.1\Source/stream_buffer.c **** 		xRequiredSpace += sbBYTES_TO_STORE_MESSAGE_LENGTH;
 893              		.loc 1 606 0
 894 0056 7B6B     		ldr	r3, [r7, #52]
 895 0058 0433     		adds	r3, r3, #4
 896 005a 7B63     		str	r3, [r7, #52]
 897              	.L61:
 607:Generated_Source\PSoC6\pdl\rtos\FreeRTOS\10.0.1\Source/stream_buffer.c **** 	}
 608:Generated_Source\PSoC6\pdl\rtos\FreeRTOS\10.0.1\Source/stream_buffer.c **** 	else
 609:Generated_Source\PSoC6\pdl\rtos\FreeRTOS\10.0.1\Source/stream_buffer.c **** 	{
 610:Generated_Source\PSoC6\pdl\rtos\FreeRTOS\10.0.1\Source/stream_buffer.c **** 		mtCOVERAGE_TEST_MARKER();
 611:Generated_Source\PSoC6\pdl\rtos\FreeRTOS\10.0.1\Source/stream_buffer.c **** 	}
 612:Generated_Source\PSoC6\pdl\rtos\FreeRTOS\10.0.1\Source/stream_buffer.c **** 
 613:Generated_Source\PSoC6\pdl\rtos\FreeRTOS\10.0.1\Source/stream_buffer.c **** 	xSpace = xStreamBufferSpacesAvailable( pxStreamBuffer );
 898              		.loc 1 613 0
 899 005c 386B     		ldr	r0, [r7, #48]
 900 005e FFF7FEFF 		bl	xStreamBufferSpacesAvailable
 901 0062 F862     		str	r0, [r7, #44]
 614:Generated_Source\PSoC6\pdl\rtos\FreeRTOS\10.0.1\Source/stream_buffer.c **** 	xReturn = prvWriteMessageToBuffer( pxStreamBuffer, pvTxData, xDataLengthBytes, xSpace, xRequiredSp
 902              		.loc 1 614 0
 903 0064 7B6B     		ldr	r3, [r7, #52]
 904 0066 0093     		str	r3, [sp]
 905 0068 FB6A     		ldr	r3, [r7, #44]
 906 006a 7A68     		ldr	r2, [r7, #4]
 907 006c B968     		ldr	r1, [r7, #8]
 908 006e 386B     		ldr	r0, [r7, #48]
 909 0070 FFF7FEFF 		bl	prvWriteMessageToBuffer
 910 0074 B862     		str	r0, [r7, #40]
 615:Generated_Source\PSoC6\pdl\rtos\FreeRTOS\10.0.1\Source/stream_buffer.c **** 
 616:Generated_Source\PSoC6\pdl\rtos\FreeRTOS\10.0.1\Source/stream_buffer.c **** 	if( xReturn > ( size_t ) 0 )
 911              		.loc 1 616 0
 912 0076 BB6A     		ldr	r3, [r7, #40]
 913 0078 002B     		cmp	r3, #0
 914 007a 2AD0     		beq	.L62
 617:Generated_Source\PSoC6\pdl\rtos\FreeRTOS\10.0.1\Source/stream_buffer.c **** 	{
 618:Generated_Source\PSoC6\pdl\rtos\FreeRTOS\10.0.1\Source/stream_buffer.c **** 		/* Was a task waiting for the data? */
 619:Generated_Source\PSoC6\pdl\rtos\FreeRTOS\10.0.1\Source/stream_buffer.c **** 		if( prvBytesInBuffer( pxStreamBuffer ) >= pxStreamBuffer->xTriggerLevelBytes )
 915              		.loc 1 619 0
 916 007c 386B     		ldr	r0, [r7, #48]
 917 007e FFF7FEFF 		bl	prvBytesInBuffer
 918 0082 0246     		mov	r2, r0
 919 0084 3B6B     		ldr	r3, [r7, #48]
 920 0086 DB68     		ldr	r3, [r3, #12]
 921 0088 9A42     		cmp	r2, r3
 922 008a 22D3     		bcc	.L62
 923              	.LBB101:
 924              	.LBB102:
 925              	.LBB103:
 157:Generated_Source\PSoC6\pdl\rtos/FreeRTOS/10.0.1/Source/portable/GCC/CM4F/portmacro.h **** 	(
 158:Generated_Source\PSoC6\pdl\rtos/FreeRTOS/10.0.1/Source/portable/GCC/CM4F/portmacro.h **** 		"	mov %0, %1												\n"	\
 159:Generated_Source\PSoC6\pdl\rtos/FreeRTOS/10.0.1/Source/portable/GCC/CM4F/portmacro.h **** 		"	msr basepri, %0											\n" \
 160:Generated_Source\PSoC6\pdl\rtos/FreeRTOS/10.0.1/Source/portable/GCC/CM4F/portmacro.h **** 		"	isb														\n" \
 161:Generated_Source\PSoC6\pdl\rtos/FreeRTOS/10.0.1/Source/portable/GCC/CM4F/portmacro.h **** 		"	dsb														\n" \
 162:Generated_Source\PSoC6\pdl\rtos/FreeRTOS/10.0.1/Source/portable/GCC/CM4F/portmacro.h **** 		:"=r" (ulNewBASEPRI) : "i" ( configMAX_SYSCALL_INTERRUPT_PRIORITY ) : "memory"
 163:Generated_Source\PSoC6\pdl\rtos/FreeRTOS/10.0.1/Source/portable/GCC/CM4F/portmacro.h **** 	);
 164:Generated_Source\PSoC6\pdl\rtos/FreeRTOS/10.0.1/Source/portable/GCC/CM4F/portmacro.h **** }
 165:Generated_Source\PSoC6\pdl\rtos/FreeRTOS/10.0.1/Source/portable/GCC/CM4F/portmacro.h **** 
ARM GAS  C:\Users\stijn\AppData\Local\Temp\cccniDcZ.s 			page 31


 166:Generated_Source\PSoC6\pdl\rtos/FreeRTOS/10.0.1/Source/portable/GCC/CM4F/portmacro.h **** /*-----------------------------------------------------------*/
 167:Generated_Source\PSoC6\pdl\rtos/FreeRTOS/10.0.1/Source/portable/GCC/CM4F/portmacro.h **** 
 168:Generated_Source\PSoC6\pdl\rtos/FreeRTOS/10.0.1/Source/portable/GCC/CM4F/portmacro.h **** portFORCE_INLINE static uint32_t ulPortRaiseBASEPRI( void )
 169:Generated_Source\PSoC6\pdl\rtos/FreeRTOS/10.0.1/Source/portable/GCC/CM4F/portmacro.h **** {
 170:Generated_Source\PSoC6\pdl\rtos/FreeRTOS/10.0.1/Source/portable/GCC/CM4F/portmacro.h **** uint32_t ulOriginalBASEPRI, ulNewBASEPRI;
 171:Generated_Source\PSoC6\pdl\rtos/FreeRTOS/10.0.1/Source/portable/GCC/CM4F/portmacro.h **** 
 172:Generated_Source\PSoC6\pdl\rtos/FreeRTOS/10.0.1/Source/portable/GCC/CM4F/portmacro.h **** 	__asm volatile
 926              		.loc 2 172 0
 927              		.syntax unified
 928              	@ 172 "Generated_Source\PSoC6\pdl\rtos/FreeRTOS/10.0.1/Source/portable/GCC/CM4F/portmacro.h" 1
 929 008c EFF31182 			mrs r2, basepri											
 930 0090 4FF03F03 		mov r3, #63												
 931 0094 83F31188 		msr basepri, r3											
 932 0098 BFF36F8F 		isb														
 933 009c BFF34F8F 		dsb														
 934              	
 935              	@ 0 "" 2
 936              		.thumb
 937              		.syntax unified
 938 00a0 FA61     		str	r2, [r7, #28]
 939 00a2 3B61     		str	r3, [r7, #16]
 173:Generated_Source\PSoC6\pdl\rtos/FreeRTOS/10.0.1/Source/portable/GCC/CM4F/portmacro.h **** 	(
 174:Generated_Source\PSoC6\pdl\rtos/FreeRTOS/10.0.1/Source/portable/GCC/CM4F/portmacro.h **** 		"	mrs %0, basepri											\n" \
 175:Generated_Source\PSoC6\pdl\rtos/FreeRTOS/10.0.1/Source/portable/GCC/CM4F/portmacro.h **** 		"	mov %1, %2												\n"	\
 176:Generated_Source\PSoC6\pdl\rtos/FreeRTOS/10.0.1/Source/portable/GCC/CM4F/portmacro.h **** 		"	msr basepri, %1											\n" \
 177:Generated_Source\PSoC6\pdl\rtos/FreeRTOS/10.0.1/Source/portable/GCC/CM4F/portmacro.h **** 		"	isb														\n" \
 178:Generated_Source\PSoC6\pdl\rtos/FreeRTOS/10.0.1/Source/portable/GCC/CM4F/portmacro.h **** 		"	dsb														\n" \
 179:Generated_Source\PSoC6\pdl\rtos/FreeRTOS/10.0.1/Source/portable/GCC/CM4F/portmacro.h **** 		:"=r" (ulOriginalBASEPRI), "=r" (ulNewBASEPRI) : "i" ( configMAX_SYSCALL_INTERRUPT_PRIORITY ) : "
 180:Generated_Source\PSoC6\pdl\rtos/FreeRTOS/10.0.1/Source/portable/GCC/CM4F/portmacro.h **** 	);
 181:Generated_Source\PSoC6\pdl\rtos/FreeRTOS/10.0.1/Source/portable/GCC/CM4F/portmacro.h **** 
 182:Generated_Source\PSoC6\pdl\rtos/FreeRTOS/10.0.1/Source/portable/GCC/CM4F/portmacro.h **** 	/* This return will not be reached but is necessary to prevent compiler
 183:Generated_Source\PSoC6\pdl\rtos/FreeRTOS/10.0.1/Source/portable/GCC/CM4F/portmacro.h **** 	warnings. */
 184:Generated_Source\PSoC6\pdl\rtos/FreeRTOS/10.0.1/Source/portable/GCC/CM4F/portmacro.h **** 	return ulOriginalBASEPRI;
 940              		.loc 2 184 0
 941 00a4 FB69     		ldr	r3, [r7, #28]
 942              	.LBE103:
 943              	.LBE102:
 620:Generated_Source\PSoC6\pdl\rtos\FreeRTOS\10.0.1\Source/stream_buffer.c **** 		{
 621:Generated_Source\PSoC6\pdl\rtos\FreeRTOS\10.0.1\Source/stream_buffer.c **** 			sbSEND_COMPLETE_FROM_ISR( pxStreamBuffer, pxHigherPriorityTaskWoken );
 944              		.loc 1 621 0
 945 00a6 3B62     		str	r3, [r7, #32]
 946 00a8 3B6B     		ldr	r3, [r7, #48]
 947 00aa 1B69     		ldr	r3, [r3, #16]
 948 00ac 002B     		cmp	r3, #0
 949 00ae 0BD0     		beq	.L64
 950              		.loc 1 621 0 is_stmt 0 discriminator 1
 951 00b0 3B6B     		ldr	r3, [r7, #48]
 952 00b2 1869     		ldr	r0, [r3, #16]
 953 00b4 3B68     		ldr	r3, [r7]
 954 00b6 0093     		str	r3, [sp]
 955 00b8 0023     		movs	r3, #0
 956 00ba 0022     		movs	r2, #0
 957 00bc 0021     		movs	r1, #0
 958 00be FFF7FEFF 		bl	xTaskGenericNotifyFromISR
 959 00c2 3B6B     		ldr	r3, [r7, #48]
 960 00c4 0022     		movs	r2, #0
 961 00c6 1A61     		str	r2, [r3, #16]
ARM GAS  C:\Users\stijn\AppData\Local\Temp\cccniDcZ.s 			page 32


 962              	.L64:
 963 00c8 3B6A     		ldr	r3, [r7, #32]
 964 00ca 7B62     		str	r3, [r7, #36]
 965              	.LBB104:
 966              	.LBB105:
 185:Generated_Source\PSoC6\pdl\rtos/FreeRTOS/10.0.1/Source/portable/GCC/CM4F/portmacro.h **** }
 186:Generated_Source\PSoC6\pdl\rtos/FreeRTOS/10.0.1/Source/portable/GCC/CM4F/portmacro.h **** /*-----------------------------------------------------------*/
 187:Generated_Source\PSoC6\pdl\rtos/FreeRTOS/10.0.1/Source/portable/GCC/CM4F/portmacro.h **** 
 188:Generated_Source\PSoC6\pdl\rtos/FreeRTOS/10.0.1/Source/portable/GCC/CM4F/portmacro.h **** portFORCE_INLINE static void vPortSetBASEPRI( uint32_t ulNewMaskValue )
 189:Generated_Source\PSoC6\pdl\rtos/FreeRTOS/10.0.1/Source/portable/GCC/CM4F/portmacro.h **** {
 190:Generated_Source\PSoC6\pdl\rtos/FreeRTOS/10.0.1/Source/portable/GCC/CM4F/portmacro.h **** 	__asm volatile
 967              		.loc 2 190 0 is_stmt 1 discriminator 3
 968 00cc 7B6A     		ldr	r3, [r7, #36]
 969              		.syntax unified
 970              	@ 190 "Generated_Source\PSoC6\pdl\rtos/FreeRTOS/10.0.1/Source/portable/GCC/CM4F/portmacro.h" 1
 971 00ce 83F31188 			msr basepri, r3	
 972              	@ 0 "" 2
 973              		.thumb
 974              		.syntax unified
 975              	.L62:
 976              	.LBE105:
 977              	.LBE104:
 978              	.LBE101:
 622:Generated_Source\PSoC6\pdl\rtos\FreeRTOS\10.0.1\Source/stream_buffer.c **** 		}
 623:Generated_Source\PSoC6\pdl\rtos\FreeRTOS\10.0.1\Source/stream_buffer.c **** 		else
 624:Generated_Source\PSoC6\pdl\rtos\FreeRTOS\10.0.1\Source/stream_buffer.c **** 		{
 625:Generated_Source\PSoC6\pdl\rtos\FreeRTOS\10.0.1\Source/stream_buffer.c **** 			mtCOVERAGE_TEST_MARKER();
 626:Generated_Source\PSoC6\pdl\rtos\FreeRTOS\10.0.1\Source/stream_buffer.c **** 		}
 627:Generated_Source\PSoC6\pdl\rtos\FreeRTOS\10.0.1\Source/stream_buffer.c **** 	}
 628:Generated_Source\PSoC6\pdl\rtos\FreeRTOS\10.0.1\Source/stream_buffer.c **** 	else
 629:Generated_Source\PSoC6\pdl\rtos\FreeRTOS\10.0.1\Source/stream_buffer.c **** 	{
 630:Generated_Source\PSoC6\pdl\rtos\FreeRTOS\10.0.1\Source/stream_buffer.c **** 		mtCOVERAGE_TEST_MARKER();
 631:Generated_Source\PSoC6\pdl\rtos\FreeRTOS\10.0.1\Source/stream_buffer.c **** 	}
 632:Generated_Source\PSoC6\pdl\rtos\FreeRTOS\10.0.1\Source/stream_buffer.c **** 
 633:Generated_Source\PSoC6\pdl\rtos\FreeRTOS\10.0.1\Source/stream_buffer.c **** 	traceSTREAM_BUFFER_SEND_FROM_ISR( xStreamBuffer, xReturn );
 634:Generated_Source\PSoC6\pdl\rtos\FreeRTOS\10.0.1\Source/stream_buffer.c **** 
 635:Generated_Source\PSoC6\pdl\rtos\FreeRTOS\10.0.1\Source/stream_buffer.c **** 	return xReturn;
 979              		.loc 1 635 0
 980 00d2 BB6A     		ldr	r3, [r7, #40]
 636:Generated_Source\PSoC6\pdl\rtos\FreeRTOS\10.0.1\Source/stream_buffer.c **** }
 981              		.loc 1 636 0
 982 00d4 1846     		mov	r0, r3
 983 00d6 3837     		adds	r7, r7, #56
 984              		.cfi_def_cfa_offset 8
 985 00d8 BD46     		mov	sp, r7
 986              		.cfi_def_cfa_register 13
 987              		@ sp needed
 988 00da 80BD     		pop	{r7, pc}
 989              		.cfi_endproc
 990              	.LFE143:
 991              		.size	xStreamBufferSendFromISR, .-xStreamBufferSendFromISR
 992              		.section	.text.prvWriteMessageToBuffer,"ax",%progbits
 993              		.align	2
 994              		.thumb
 995              		.thumb_func
 996              		.type	prvWriteMessageToBuffer, %function
 997              	prvWriteMessageToBuffer:
ARM GAS  C:\Users\stijn\AppData\Local\Temp\cccniDcZ.s 			page 33


 998              	.LFB144:
 637:Generated_Source\PSoC6\pdl\rtos\FreeRTOS\10.0.1\Source/stream_buffer.c **** /*-----------------------------------------------------------*/
 638:Generated_Source\PSoC6\pdl\rtos\FreeRTOS\10.0.1\Source/stream_buffer.c **** 
 639:Generated_Source\PSoC6\pdl\rtos\FreeRTOS\10.0.1\Source/stream_buffer.c **** static size_t prvWriteMessageToBuffer( StreamBuffer_t * const pxStreamBuffer,
 640:Generated_Source\PSoC6\pdl\rtos\FreeRTOS\10.0.1\Source/stream_buffer.c **** 									   const void * pvTxData,
 641:Generated_Source\PSoC6\pdl\rtos\FreeRTOS\10.0.1\Source/stream_buffer.c **** 									   size_t xDataLengthBytes,
 642:Generated_Source\PSoC6\pdl\rtos\FreeRTOS\10.0.1\Source/stream_buffer.c **** 									   size_t xSpace,
 643:Generated_Source\PSoC6\pdl\rtos\FreeRTOS\10.0.1\Source/stream_buffer.c **** 									   size_t xRequiredSpace )
 644:Generated_Source\PSoC6\pdl\rtos\FreeRTOS\10.0.1\Source/stream_buffer.c **** {
 999              		.loc 1 644 0
 1000              		.cfi_startproc
 1001              		@ args = 4, pretend = 0, frame = 24
 1002              		@ frame_needed = 1, uses_anonymous_args = 0
 1003 0000 80B5     		push	{r7, lr}
 1004              		.cfi_def_cfa_offset 8
 1005              		.cfi_offset 7, -8
 1006              		.cfi_offset 14, -4
 1007 0002 86B0     		sub	sp, sp, #24
 1008              		.cfi_def_cfa_offset 32
 1009 0004 00AF     		add	r7, sp, #0
 1010              		.cfi_def_cfa_register 7
 1011 0006 F860     		str	r0, [r7, #12]
 1012 0008 B960     		str	r1, [r7, #8]
 1013 000a 7A60     		str	r2, [r7, #4]
 1014 000c 3B60     		str	r3, [r7]
 645:Generated_Source\PSoC6\pdl\rtos\FreeRTOS\10.0.1\Source/stream_buffer.c **** 	BaseType_t xShouldWrite;
 646:Generated_Source\PSoC6\pdl\rtos\FreeRTOS\10.0.1\Source/stream_buffer.c **** 	size_t xReturn;
 647:Generated_Source\PSoC6\pdl\rtos\FreeRTOS\10.0.1\Source/stream_buffer.c **** 
 648:Generated_Source\PSoC6\pdl\rtos\FreeRTOS\10.0.1\Source/stream_buffer.c **** 	if( xSpace == ( size_t ) 0 )
 1015              		.loc 1 648 0
 1016 000e 3B68     		ldr	r3, [r7]
 1017 0010 002B     		cmp	r3, #0
 1018 0012 02D1     		bne	.L67
 649:Generated_Source\PSoC6\pdl\rtos\FreeRTOS\10.0.1\Source/stream_buffer.c **** 	{
 650:Generated_Source\PSoC6\pdl\rtos\FreeRTOS\10.0.1\Source/stream_buffer.c **** 		/* Doesn't matter if this is a stream buffer or a message buffer, there
 651:Generated_Source\PSoC6\pdl\rtos\FreeRTOS\10.0.1\Source/stream_buffer.c **** 		is no space to write. */
 652:Generated_Source\PSoC6\pdl\rtos\FreeRTOS\10.0.1\Source/stream_buffer.c **** 		xShouldWrite = pdFALSE;
 1019              		.loc 1 652 0
 1020 0014 0023     		movs	r3, #0
 1021 0016 7B61     		str	r3, [r7, #20]
 1022 0018 1DE0     		b	.L68
 1023              	.L67:
 653:Generated_Source\PSoC6\pdl\rtos\FreeRTOS\10.0.1\Source/stream_buffer.c **** 	}
 654:Generated_Source\PSoC6\pdl\rtos\FreeRTOS\10.0.1\Source/stream_buffer.c **** 	else if( ( pxStreamBuffer->ucFlags & sbFLAGS_IS_MESSAGE_BUFFER ) == ( uint8_t ) 0 )
 1024              		.loc 1 654 0
 1025 001a FB68     		ldr	r3, [r7, #12]
 1026 001c 1B7F     		ldrb	r3, [r3, #28]	@ zero_extendqisi2
 1027 001e 03F00103 		and	r3, r3, #1
 1028 0022 002B     		cmp	r3, #0
 1029 0024 08D1     		bne	.L69
 655:Generated_Source\PSoC6\pdl\rtos\FreeRTOS\10.0.1\Source/stream_buffer.c **** 	{
 656:Generated_Source\PSoC6\pdl\rtos\FreeRTOS\10.0.1\Source/stream_buffer.c **** 		/* This is a stream buffer, as opposed to a message buffer, so writing a
 657:Generated_Source\PSoC6\pdl\rtos\FreeRTOS\10.0.1\Source/stream_buffer.c **** 		stream of bytes rather than discrete messages.  Write as many bytes as
 658:Generated_Source\PSoC6\pdl\rtos\FreeRTOS\10.0.1\Source/stream_buffer.c **** 		possible. */
 659:Generated_Source\PSoC6\pdl\rtos\FreeRTOS\10.0.1\Source/stream_buffer.c **** 		xShouldWrite = pdTRUE;
 1030              		.loc 1 659 0
 1031 0026 0123     		movs	r3, #1
ARM GAS  C:\Users\stijn\AppData\Local\Temp\cccniDcZ.s 			page 34


 1032 0028 7B61     		str	r3, [r7, #20]
 660:Generated_Source\PSoC6\pdl\rtos\FreeRTOS\10.0.1\Source/stream_buffer.c **** 		xDataLengthBytes = configMIN( xDataLengthBytes, xSpace ); /*lint !e9044 Function parameter modifi
 1033              		.loc 1 660 0
 1034 002a 7A68     		ldr	r2, [r7, #4]
 1035 002c 3B68     		ldr	r3, [r7]
 1036 002e 9342     		cmp	r3, r2
 1037 0030 28BF     		it	cs
 1038 0032 1346     		movcs	r3, r2
 1039 0034 7B60     		str	r3, [r7, #4]
 1040 0036 0EE0     		b	.L68
 1041              	.L69:
 661:Generated_Source\PSoC6\pdl\rtos\FreeRTOS\10.0.1\Source/stream_buffer.c **** 	}
 662:Generated_Source\PSoC6\pdl\rtos\FreeRTOS\10.0.1\Source/stream_buffer.c **** 	else if( xSpace >= xRequiredSpace )
 1042              		.loc 1 662 0
 1043 0038 3A68     		ldr	r2, [r7]
 1044 003a 3B6A     		ldr	r3, [r7, #32]
 1045 003c 9A42     		cmp	r2, r3
 1046 003e 08D3     		bcc	.L70
 663:Generated_Source\PSoC6\pdl\rtos\FreeRTOS\10.0.1\Source/stream_buffer.c **** 	{
 664:Generated_Source\PSoC6\pdl\rtos\FreeRTOS\10.0.1\Source/stream_buffer.c **** 		/* This is a message buffer, as opposed to a stream buffer, and there
 665:Generated_Source\PSoC6\pdl\rtos\FreeRTOS\10.0.1\Source/stream_buffer.c **** 		is enough space to write both the message length and the message itself
 666:Generated_Source\PSoC6\pdl\rtos\FreeRTOS\10.0.1\Source/stream_buffer.c **** 		into the buffer.  Start by writing the length of the data, the data
 667:Generated_Source\PSoC6\pdl\rtos\FreeRTOS\10.0.1\Source/stream_buffer.c **** 		itself will be written later in this function. */
 668:Generated_Source\PSoC6\pdl\rtos\FreeRTOS\10.0.1\Source/stream_buffer.c **** 		xShouldWrite = pdTRUE;
 1047              		.loc 1 668 0
 1048 0040 0123     		movs	r3, #1
 1049 0042 7B61     		str	r3, [r7, #20]
 669:Generated_Source\PSoC6\pdl\rtos\FreeRTOS\10.0.1\Source/stream_buffer.c **** 		( void ) prvWriteBytesToBuffer( pxStreamBuffer, ( const uint8_t * ) &( xDataLengthBytes ), sbBYTE
 1050              		.loc 1 669 0
 1051 0044 3B1D     		adds	r3, r7, #4
 1052 0046 0422     		movs	r2, #4
 1053 0048 1946     		mov	r1, r3
 1054 004a F868     		ldr	r0, [r7, #12]
 1055 004c FFF7FEFF 		bl	prvWriteBytesToBuffer
 1056 0050 01E0     		b	.L68
 1057              	.L70:
 670:Generated_Source\PSoC6\pdl\rtos\FreeRTOS\10.0.1\Source/stream_buffer.c **** 	}
 671:Generated_Source\PSoC6\pdl\rtos\FreeRTOS\10.0.1\Source/stream_buffer.c **** 	else
 672:Generated_Source\PSoC6\pdl\rtos\FreeRTOS\10.0.1\Source/stream_buffer.c **** 	{
 673:Generated_Source\PSoC6\pdl\rtos\FreeRTOS\10.0.1\Source/stream_buffer.c **** 		/* There is space available, but not enough space. */
 674:Generated_Source\PSoC6\pdl\rtos\FreeRTOS\10.0.1\Source/stream_buffer.c **** 		xShouldWrite = pdFALSE;
 1058              		.loc 1 674 0
 1059 0052 0023     		movs	r3, #0
 1060 0054 7B61     		str	r3, [r7, #20]
 1061              	.L68:
 675:Generated_Source\PSoC6\pdl\rtos\FreeRTOS\10.0.1\Source/stream_buffer.c **** 	}
 676:Generated_Source\PSoC6\pdl\rtos\FreeRTOS\10.0.1\Source/stream_buffer.c **** 
 677:Generated_Source\PSoC6\pdl\rtos\FreeRTOS\10.0.1\Source/stream_buffer.c **** 	if( xShouldWrite != pdFALSE )
 1062              		.loc 1 677 0
 1063 0056 7B69     		ldr	r3, [r7, #20]
 1064 0058 002B     		cmp	r3, #0
 1065 005a 07D0     		beq	.L71
 678:Generated_Source\PSoC6\pdl\rtos\FreeRTOS\10.0.1\Source/stream_buffer.c **** 	{
 679:Generated_Source\PSoC6\pdl\rtos\FreeRTOS\10.0.1\Source/stream_buffer.c **** 		/* Writes the data itself. */
 680:Generated_Source\PSoC6\pdl\rtos\FreeRTOS\10.0.1\Source/stream_buffer.c **** 		xReturn = prvWriteBytesToBuffer( pxStreamBuffer, ( const uint8_t * ) pvTxData, xDataLengthBytes )
 1066              		.loc 1 680 0
 1067 005c 7B68     		ldr	r3, [r7, #4]
ARM GAS  C:\Users\stijn\AppData\Local\Temp\cccniDcZ.s 			page 35


 1068 005e 1A46     		mov	r2, r3
 1069 0060 B968     		ldr	r1, [r7, #8]
 1070 0062 F868     		ldr	r0, [r7, #12]
 1071 0064 FFF7FEFF 		bl	prvWriteBytesToBuffer
 1072 0068 3861     		str	r0, [r7, #16]
 1073 006a 01E0     		b	.L72
 1074              	.L71:
 681:Generated_Source\PSoC6\pdl\rtos\FreeRTOS\10.0.1\Source/stream_buffer.c **** 	}
 682:Generated_Source\PSoC6\pdl\rtos\FreeRTOS\10.0.1\Source/stream_buffer.c **** 	else
 683:Generated_Source\PSoC6\pdl\rtos\FreeRTOS\10.0.1\Source/stream_buffer.c **** 	{
 684:Generated_Source\PSoC6\pdl\rtos\FreeRTOS\10.0.1\Source/stream_buffer.c **** 		xReturn = 0;
 1075              		.loc 1 684 0
 1076 006c 0023     		movs	r3, #0
 1077 006e 3B61     		str	r3, [r7, #16]
 1078              	.L72:
 685:Generated_Source\PSoC6\pdl\rtos\FreeRTOS\10.0.1\Source/stream_buffer.c **** 	}
 686:Generated_Source\PSoC6\pdl\rtos\FreeRTOS\10.0.1\Source/stream_buffer.c **** 
 687:Generated_Source\PSoC6\pdl\rtos\FreeRTOS\10.0.1\Source/stream_buffer.c **** 	return xReturn;
 1079              		.loc 1 687 0
 1080 0070 3B69     		ldr	r3, [r7, #16]
 688:Generated_Source\PSoC6\pdl\rtos\FreeRTOS\10.0.1\Source/stream_buffer.c **** }
 1081              		.loc 1 688 0
 1082 0072 1846     		mov	r0, r3
 1083 0074 1837     		adds	r7, r7, #24
 1084              		.cfi_def_cfa_offset 8
 1085 0076 BD46     		mov	sp, r7
 1086              		.cfi_def_cfa_register 13
 1087              		@ sp needed
 1088 0078 80BD     		pop	{r7, pc}
 1089              		.cfi_endproc
 1090              	.LFE144:
 1091              		.size	prvWriteMessageToBuffer, .-prvWriteMessageToBuffer
 1092 007a 00BF     		.section	.text.xStreamBufferReceive,"ax",%progbits
 1093              		.align	2
 1094              		.global	xStreamBufferReceive
 1095              		.thumb
 1096              		.thumb_func
 1097              		.type	xStreamBufferReceive, %function
 1098              	xStreamBufferReceive:
 1099              	.LFB145:
 689:Generated_Source\PSoC6\pdl\rtos\FreeRTOS\10.0.1\Source/stream_buffer.c **** /*-----------------------------------------------------------*/
 690:Generated_Source\PSoC6\pdl\rtos\FreeRTOS\10.0.1\Source/stream_buffer.c **** 
 691:Generated_Source\PSoC6\pdl\rtos\FreeRTOS\10.0.1\Source/stream_buffer.c **** size_t xStreamBufferReceive( StreamBufferHandle_t xStreamBuffer,
 692:Generated_Source\PSoC6\pdl\rtos\FreeRTOS\10.0.1\Source/stream_buffer.c **** 							 void *pvRxData,
 693:Generated_Source\PSoC6\pdl\rtos\FreeRTOS\10.0.1\Source/stream_buffer.c **** 							 size_t xBufferLengthBytes,
 694:Generated_Source\PSoC6\pdl\rtos\FreeRTOS\10.0.1\Source/stream_buffer.c **** 							 TickType_t xTicksToWait )
 695:Generated_Source\PSoC6\pdl\rtos\FreeRTOS\10.0.1\Source/stream_buffer.c **** {
 1100              		.loc 1 695 0
 1101              		.cfi_startproc
 1102              		@ args = 0, pretend = 0, frame = 48
 1103              		@ frame_needed = 1, uses_anonymous_args = 0
 1104 0000 80B5     		push	{r7, lr}
 1105              		.cfi_def_cfa_offset 8
 1106              		.cfi_offset 7, -8
 1107              		.cfi_offset 14, -4
 1108 0002 8EB0     		sub	sp, sp, #56
 1109              		.cfi_def_cfa_offset 64
ARM GAS  C:\Users\stijn\AppData\Local\Temp\cccniDcZ.s 			page 36


 1110 0004 02AF     		add	r7, sp, #8
 1111              		.cfi_def_cfa 7, 56
 1112 0006 F860     		str	r0, [r7, #12]
 1113 0008 B960     		str	r1, [r7, #8]
 1114 000a 7A60     		str	r2, [r7, #4]
 1115 000c 3B60     		str	r3, [r7]
 696:Generated_Source\PSoC6\pdl\rtos\FreeRTOS\10.0.1\Source/stream_buffer.c **** StreamBuffer_t * const pxStreamBuffer = ( StreamBuffer_t * ) xStreamBuffer; /*lint !e9087 !e9079 Sa
 1116              		.loc 1 696 0
 1117 000e FB68     		ldr	r3, [r7, #12]
 1118 0010 3B62     		str	r3, [r7, #32]
 697:Generated_Source\PSoC6\pdl\rtos\FreeRTOS\10.0.1\Source/stream_buffer.c **** size_t xReceivedLength = 0, xBytesAvailable, xBytesToStoreMessageLength;
 1119              		.loc 1 697 0
 1120 0012 0023     		movs	r3, #0
 1121 0014 FB62     		str	r3, [r7, #44]
 698:Generated_Source\PSoC6\pdl\rtos\FreeRTOS\10.0.1\Source/stream_buffer.c **** 
 699:Generated_Source\PSoC6\pdl\rtos\FreeRTOS\10.0.1\Source/stream_buffer.c **** 	configASSERT( pvRxData );
 1122              		.loc 1 699 0
 1123 0016 BB68     		ldr	r3, [r7, #8]
 1124 0018 002B     		cmp	r3, #0
 1125 001a 09D1     		bne	.L75
 1126              	.LBB106:
 1127              	.LBB107:
 156:Generated_Source\PSoC6\pdl\rtos/FreeRTOS/10.0.1/Source/portable/GCC/CM4F/portmacro.h **** 	(
 1128              		.loc 2 156 0 discriminator 1
 1129              		.syntax unified
 1130              	@ 156 "Generated_Source\PSoC6\pdl\rtos/FreeRTOS/10.0.1/Source/portable/GCC/CM4F/portmacro.h" 1
 1131 001c 4FF03F03 			mov r3, #63												
 1132 0020 83F31188 		msr basepri, r3											
 1133 0024 BFF36F8F 		isb														
 1134 0028 BFF34F8F 		dsb														
 1135              	
 1136              	@ 0 "" 2
 1137              		.thumb
 1138              		.syntax unified
 1139 002c 7B61     		str	r3, [r7, #20]
 1140              	.L76:
 1141              	.LBE107:
 1142              	.LBE106:
 1143              		.loc 1 699 0 discriminator 1
 1144 002e FEE7     		b	.L76
 1145              	.L75:
 700:Generated_Source\PSoC6\pdl\rtos\FreeRTOS\10.0.1\Source/stream_buffer.c **** 	configASSERT( pxStreamBuffer );
 1146              		.loc 1 700 0
 1147 0030 3B6A     		ldr	r3, [r7, #32]
 1148 0032 002B     		cmp	r3, #0
 1149 0034 09D1     		bne	.L77
 1150              	.LBB108:
 1151              	.LBB109:
 156:Generated_Source\PSoC6\pdl\rtos/FreeRTOS/10.0.1/Source/portable/GCC/CM4F/portmacro.h **** 	(
 1152              		.loc 2 156 0 discriminator 1
 1153              		.syntax unified
 1154              	@ 156 "Generated_Source\PSoC6\pdl\rtos/FreeRTOS/10.0.1/Source/portable/GCC/CM4F/portmacro.h" 1
 1155 0036 4FF03F03 			mov r3, #63												
 1156 003a 83F31188 		msr basepri, r3											
 1157 003e BFF36F8F 		isb														
 1158 0042 BFF34F8F 		dsb														
 1159              	
ARM GAS  C:\Users\stijn\AppData\Local\Temp\cccniDcZ.s 			page 37


 1160              	@ 0 "" 2
 1161              		.thumb
 1162              		.syntax unified
 1163 0046 BB61     		str	r3, [r7, #24]
 1164              	.L78:
 1165              	.LBE109:
 1166              	.LBE108:
 1167              		.loc 1 700 0 discriminator 2
 1168 0048 FEE7     		b	.L78
 1169              	.L77:
 701:Generated_Source\PSoC6\pdl\rtos\FreeRTOS\10.0.1\Source/stream_buffer.c **** 
 702:Generated_Source\PSoC6\pdl\rtos\FreeRTOS\10.0.1\Source/stream_buffer.c **** 	/* This receive function is used by both message buffers, which store
 703:Generated_Source\PSoC6\pdl\rtos\FreeRTOS\10.0.1\Source/stream_buffer.c **** 	discrete messages, and stream buffers, which store a continuous stream of
 704:Generated_Source\PSoC6\pdl\rtos\FreeRTOS\10.0.1\Source/stream_buffer.c **** 	bytes.  Discrete messages include an additional
 705:Generated_Source\PSoC6\pdl\rtos\FreeRTOS\10.0.1\Source/stream_buffer.c **** 	sbBYTES_TO_STORE_MESSAGE_LENGTH bytes that hold the length of the
 706:Generated_Source\PSoC6\pdl\rtos\FreeRTOS\10.0.1\Source/stream_buffer.c **** 	message. */
 707:Generated_Source\PSoC6\pdl\rtos\FreeRTOS\10.0.1\Source/stream_buffer.c **** 	if( ( pxStreamBuffer->ucFlags & sbFLAGS_IS_MESSAGE_BUFFER ) != ( uint8_t ) 0 )
 1170              		.loc 1 707 0
 1171 004a 3B6A     		ldr	r3, [r7, #32]
 1172 004c 1B7F     		ldrb	r3, [r3, #28]	@ zero_extendqisi2
 1173 004e 03F00103 		and	r3, r3, #1
 1174 0052 002B     		cmp	r3, #0
 1175 0054 02D0     		beq	.L79
 708:Generated_Source\PSoC6\pdl\rtos\FreeRTOS\10.0.1\Source/stream_buffer.c **** 	{
 709:Generated_Source\PSoC6\pdl\rtos\FreeRTOS\10.0.1\Source/stream_buffer.c **** 		xBytesToStoreMessageLength = sbBYTES_TO_STORE_MESSAGE_LENGTH;
 1176              		.loc 1 709 0
 1177 0056 0423     		movs	r3, #4
 1178 0058 7B62     		str	r3, [r7, #36]
 1179 005a 01E0     		b	.L80
 1180              	.L79:
 710:Generated_Source\PSoC6\pdl\rtos\FreeRTOS\10.0.1\Source/stream_buffer.c **** 	}
 711:Generated_Source\PSoC6\pdl\rtos\FreeRTOS\10.0.1\Source/stream_buffer.c **** 	else
 712:Generated_Source\PSoC6\pdl\rtos\FreeRTOS\10.0.1\Source/stream_buffer.c **** 	{
 713:Generated_Source\PSoC6\pdl\rtos\FreeRTOS\10.0.1\Source/stream_buffer.c **** 		xBytesToStoreMessageLength = 0;
 1181              		.loc 1 713 0
 1182 005c 0023     		movs	r3, #0
 1183 005e 7B62     		str	r3, [r7, #36]
 1184              	.L80:
 714:Generated_Source\PSoC6\pdl\rtos\FreeRTOS\10.0.1\Source/stream_buffer.c **** 	}
 715:Generated_Source\PSoC6\pdl\rtos\FreeRTOS\10.0.1\Source/stream_buffer.c **** 
 716:Generated_Source\PSoC6\pdl\rtos\FreeRTOS\10.0.1\Source/stream_buffer.c **** 	if( xTicksToWait != ( TickType_t ) 0 )
 1185              		.loc 1 716 0
 1186 0060 3B68     		ldr	r3, [r7]
 1187 0062 002B     		cmp	r3, #0
 1188 0064 34D0     		beq	.L81
 717:Generated_Source\PSoC6\pdl\rtos\FreeRTOS\10.0.1\Source/stream_buffer.c **** 	{
 718:Generated_Source\PSoC6\pdl\rtos\FreeRTOS\10.0.1\Source/stream_buffer.c **** 		/* Checking if there is data and clearing the notification state must be
 719:Generated_Source\PSoC6\pdl\rtos\FreeRTOS\10.0.1\Source/stream_buffer.c **** 		performed atomically. */
 720:Generated_Source\PSoC6\pdl\rtos\FreeRTOS\10.0.1\Source/stream_buffer.c **** 		taskENTER_CRITICAL();
 1189              		.loc 1 720 0
 1190 0066 FFF7FEFF 		bl	vPortEnterCritical
 721:Generated_Source\PSoC6\pdl\rtos\FreeRTOS\10.0.1\Source/stream_buffer.c **** 		{
 722:Generated_Source\PSoC6\pdl\rtos\FreeRTOS\10.0.1\Source/stream_buffer.c **** 			xBytesAvailable = prvBytesInBuffer( pxStreamBuffer );
 1191              		.loc 1 722 0
 1192 006a 386A     		ldr	r0, [r7, #32]
 1193 006c FFF7FEFF 		bl	prvBytesInBuffer
 1194 0070 B862     		str	r0, [r7, #40]
ARM GAS  C:\Users\stijn\AppData\Local\Temp\cccniDcZ.s 			page 38


 723:Generated_Source\PSoC6\pdl\rtos\FreeRTOS\10.0.1\Source/stream_buffer.c **** 
 724:Generated_Source\PSoC6\pdl\rtos\FreeRTOS\10.0.1\Source/stream_buffer.c **** 			/* If this function was invoked by a message buffer read then
 725:Generated_Source\PSoC6\pdl\rtos\FreeRTOS\10.0.1\Source/stream_buffer.c **** 			xBytesToStoreMessageLength holds the number of bytes used to hold
 726:Generated_Source\PSoC6\pdl\rtos\FreeRTOS\10.0.1\Source/stream_buffer.c **** 			the length of the next discrete message.  If this function was
 727:Generated_Source\PSoC6\pdl\rtos\FreeRTOS\10.0.1\Source/stream_buffer.c **** 			invoked by a stream buffer read then xBytesToStoreMessageLength will
 728:Generated_Source\PSoC6\pdl\rtos\FreeRTOS\10.0.1\Source/stream_buffer.c **** 			be 0. */
 729:Generated_Source\PSoC6\pdl\rtos\FreeRTOS\10.0.1\Source/stream_buffer.c **** 			if( xBytesAvailable <= xBytesToStoreMessageLength )
 1195              		.loc 1 729 0
 1196 0072 BA6A     		ldr	r2, [r7, #40]
 1197 0074 7B6A     		ldr	r3, [r7, #36]
 1198 0076 9A42     		cmp	r2, r3
 1199 0078 15D8     		bhi	.L82
 730:Generated_Source\PSoC6\pdl\rtos\FreeRTOS\10.0.1\Source/stream_buffer.c **** 			{
 731:Generated_Source\PSoC6\pdl\rtos\FreeRTOS\10.0.1\Source/stream_buffer.c **** 				/* Clear notification state as going to wait for data. */
 732:Generated_Source\PSoC6\pdl\rtos\FreeRTOS\10.0.1\Source/stream_buffer.c **** 				( void ) xTaskNotifyStateClear( NULL );
 1200              		.loc 1 732 0
 1201 007a 0020     		movs	r0, #0
 1202 007c FFF7FEFF 		bl	xTaskNotifyStateClear
 733:Generated_Source\PSoC6\pdl\rtos\FreeRTOS\10.0.1\Source/stream_buffer.c **** 
 734:Generated_Source\PSoC6\pdl\rtos\FreeRTOS\10.0.1\Source/stream_buffer.c **** 				/* Should only be one reader. */
 735:Generated_Source\PSoC6\pdl\rtos\FreeRTOS\10.0.1\Source/stream_buffer.c **** 				configASSERT( pxStreamBuffer->xTaskWaitingToReceive == NULL );
 1203              		.loc 1 735 0
 1204 0080 3B6A     		ldr	r3, [r7, #32]
 1205 0082 1B69     		ldr	r3, [r3, #16]
 1206 0084 002B     		cmp	r3, #0
 1207 0086 09D0     		beq	.L83
 1208              	.LBB110:
 1209              	.LBB111:
 156:Generated_Source\PSoC6\pdl\rtos/FreeRTOS/10.0.1/Source/portable/GCC/CM4F/portmacro.h **** 	(
 1210              		.loc 2 156 0 discriminator 1
 1211              		.syntax unified
 1212              	@ 156 "Generated_Source\PSoC6\pdl\rtos/FreeRTOS/10.0.1/Source/portable/GCC/CM4F/portmacro.h" 1
 1213 0088 4FF03F03 			mov r3, #63												
 1214 008c 83F31188 		msr basepri, r3											
 1215 0090 BFF36F8F 		isb														
 1216 0094 BFF34F8F 		dsb														
 1217              	
 1218              	@ 0 "" 2
 1219              		.thumb
 1220              		.syntax unified
 1221 0098 FB61     		str	r3, [r7, #28]
 1222              	.L84:
 1223              	.LBE111:
 1224              	.LBE110:
 1225              		.loc 1 735 0 discriminator 3
 1226 009a FEE7     		b	.L84
 1227              	.L83:
 736:Generated_Source\PSoC6\pdl\rtos\FreeRTOS\10.0.1\Source/stream_buffer.c **** 				pxStreamBuffer->xTaskWaitingToReceive = xTaskGetCurrentTaskHandle();
 1228              		.loc 1 736 0
 1229 009c FFF7FEFF 		bl	xTaskGetCurrentTaskHandle
 1230 00a0 0246     		mov	r2, r0
 1231 00a2 3B6A     		ldr	r3, [r7, #32]
 1232 00a4 1A61     		str	r2, [r3, #16]
 1233              	.L82:
 737:Generated_Source\PSoC6\pdl\rtos\FreeRTOS\10.0.1\Source/stream_buffer.c **** 			}
 738:Generated_Source\PSoC6\pdl\rtos\FreeRTOS\10.0.1\Source/stream_buffer.c **** 			else
 739:Generated_Source\PSoC6\pdl\rtos\FreeRTOS\10.0.1\Source/stream_buffer.c **** 			{
ARM GAS  C:\Users\stijn\AppData\Local\Temp\cccniDcZ.s 			page 39


 740:Generated_Source\PSoC6\pdl\rtos\FreeRTOS\10.0.1\Source/stream_buffer.c **** 				mtCOVERAGE_TEST_MARKER();
 741:Generated_Source\PSoC6\pdl\rtos\FreeRTOS\10.0.1\Source/stream_buffer.c **** 			}
 742:Generated_Source\PSoC6\pdl\rtos\FreeRTOS\10.0.1\Source/stream_buffer.c **** 		}
 743:Generated_Source\PSoC6\pdl\rtos\FreeRTOS\10.0.1\Source/stream_buffer.c **** 		taskEXIT_CRITICAL();
 1234              		.loc 1 743 0
 1235 00a6 FFF7FEFF 		bl	vPortExitCritical
 744:Generated_Source\PSoC6\pdl\rtos\FreeRTOS\10.0.1\Source/stream_buffer.c **** 
 745:Generated_Source\PSoC6\pdl\rtos\FreeRTOS\10.0.1\Source/stream_buffer.c **** 		if( xBytesAvailable <= xBytesToStoreMessageLength )
 1236              		.loc 1 745 0
 1237 00aa BA6A     		ldr	r2, [r7, #40]
 1238 00ac 7B6A     		ldr	r3, [r7, #36]
 1239 00ae 9A42     		cmp	r2, r3
 1240 00b0 12D8     		bhi	.L85
 746:Generated_Source\PSoC6\pdl\rtos\FreeRTOS\10.0.1\Source/stream_buffer.c **** 		{
 747:Generated_Source\PSoC6\pdl\rtos\FreeRTOS\10.0.1\Source/stream_buffer.c **** 			/* Wait for data to be available. */
 748:Generated_Source\PSoC6\pdl\rtos\FreeRTOS\10.0.1\Source/stream_buffer.c **** 			traceBLOCKING_ON_STREAM_BUFFER_RECEIVE( xStreamBuffer );
 749:Generated_Source\PSoC6\pdl\rtos\FreeRTOS\10.0.1\Source/stream_buffer.c **** 			( void ) xTaskNotifyWait( ( uint32_t ) 0, UINT32_MAX, NULL, xTicksToWait );
 1241              		.loc 1 749 0
 1242 00b2 3B68     		ldr	r3, [r7]
 1243 00b4 0022     		movs	r2, #0
 1244 00b6 4FF0FF31 		mov	r1, #-1
 1245 00ba 0020     		movs	r0, #0
 1246 00bc FFF7FEFF 		bl	xTaskNotifyWait
 750:Generated_Source\PSoC6\pdl\rtos\FreeRTOS\10.0.1\Source/stream_buffer.c **** 			pxStreamBuffer->xTaskWaitingToReceive = NULL;
 1247              		.loc 1 750 0
 1248 00c0 3B6A     		ldr	r3, [r7, #32]
 1249 00c2 0022     		movs	r2, #0
 1250 00c4 1A61     		str	r2, [r3, #16]
 751:Generated_Source\PSoC6\pdl\rtos\FreeRTOS\10.0.1\Source/stream_buffer.c **** 
 752:Generated_Source\PSoC6\pdl\rtos\FreeRTOS\10.0.1\Source/stream_buffer.c **** 			/* Recheck the data available after blocking. */
 753:Generated_Source\PSoC6\pdl\rtos\FreeRTOS\10.0.1\Source/stream_buffer.c **** 			xBytesAvailable = prvBytesInBuffer( pxStreamBuffer );
 1251              		.loc 1 753 0
 1252 00c6 386A     		ldr	r0, [r7, #32]
 1253 00c8 FFF7FEFF 		bl	prvBytesInBuffer
 1254 00cc B862     		str	r0, [r7, #40]
 1255 00ce 03E0     		b	.L85
 1256              	.L81:
 754:Generated_Source\PSoC6\pdl\rtos\FreeRTOS\10.0.1\Source/stream_buffer.c **** 		}
 755:Generated_Source\PSoC6\pdl\rtos\FreeRTOS\10.0.1\Source/stream_buffer.c **** 		else
 756:Generated_Source\PSoC6\pdl\rtos\FreeRTOS\10.0.1\Source/stream_buffer.c **** 		{
 757:Generated_Source\PSoC6\pdl\rtos\FreeRTOS\10.0.1\Source/stream_buffer.c **** 			mtCOVERAGE_TEST_MARKER();
 758:Generated_Source\PSoC6\pdl\rtos\FreeRTOS\10.0.1\Source/stream_buffer.c **** 		}
 759:Generated_Source\PSoC6\pdl\rtos\FreeRTOS\10.0.1\Source/stream_buffer.c **** 	}
 760:Generated_Source\PSoC6\pdl\rtos\FreeRTOS\10.0.1\Source/stream_buffer.c **** 	else
 761:Generated_Source\PSoC6\pdl\rtos\FreeRTOS\10.0.1\Source/stream_buffer.c **** 	{
 762:Generated_Source\PSoC6\pdl\rtos\FreeRTOS\10.0.1\Source/stream_buffer.c **** 		xBytesAvailable = prvBytesInBuffer( pxStreamBuffer );
 1257              		.loc 1 762 0
 1258 00d0 386A     		ldr	r0, [r7, #32]
 1259 00d2 FFF7FEFF 		bl	prvBytesInBuffer
 1260 00d6 B862     		str	r0, [r7, #40]
 1261              	.L85:
 763:Generated_Source\PSoC6\pdl\rtos\FreeRTOS\10.0.1\Source/stream_buffer.c **** 	}
 764:Generated_Source\PSoC6\pdl\rtos\FreeRTOS\10.0.1\Source/stream_buffer.c **** 
 765:Generated_Source\PSoC6\pdl\rtos\FreeRTOS\10.0.1\Source/stream_buffer.c **** 	/* Whether receiving a discrete message (where xBytesToStoreMessageLength
 766:Generated_Source\PSoC6\pdl\rtos\FreeRTOS\10.0.1\Source/stream_buffer.c **** 	holds the number of bytes used to store the message length) or a stream of
 767:Generated_Source\PSoC6\pdl\rtos\FreeRTOS\10.0.1\Source/stream_buffer.c **** 	bytes (where xBytesToStoreMessageLength is zero), the number of bytes
 768:Generated_Source\PSoC6\pdl\rtos\FreeRTOS\10.0.1\Source/stream_buffer.c **** 	available must be greater than xBytesToStoreMessageLength to be able to
ARM GAS  C:\Users\stijn\AppData\Local\Temp\cccniDcZ.s 			page 40


 769:Generated_Source\PSoC6\pdl\rtos\FreeRTOS\10.0.1\Source/stream_buffer.c **** 	read bytes from the buffer. */
 770:Generated_Source\PSoC6\pdl\rtos\FreeRTOS\10.0.1\Source/stream_buffer.c **** 	if( xBytesAvailable > xBytesToStoreMessageLength )
 1262              		.loc 1 770 0
 1263 00d8 BA6A     		ldr	r2, [r7, #40]
 1264 00da 7B6A     		ldr	r3, [r7, #36]
 1265 00dc 9A42     		cmp	r2, r3
 1266 00de 1DD9     		bls	.L86
 771:Generated_Source\PSoC6\pdl\rtos\FreeRTOS\10.0.1\Source/stream_buffer.c **** 	{
 772:Generated_Source\PSoC6\pdl\rtos\FreeRTOS\10.0.1\Source/stream_buffer.c **** 		xReceivedLength = prvReadMessageFromBuffer( pxStreamBuffer, pvRxData, xBufferLengthBytes, xBytesA
 1267              		.loc 1 772 0
 1268 00e0 7B6A     		ldr	r3, [r7, #36]
 1269 00e2 0093     		str	r3, [sp]
 1270 00e4 BB6A     		ldr	r3, [r7, #40]
 1271 00e6 7A68     		ldr	r2, [r7, #4]
 1272 00e8 B968     		ldr	r1, [r7, #8]
 1273 00ea 386A     		ldr	r0, [r7, #32]
 1274 00ec FFF7FEFF 		bl	prvReadMessageFromBuffer
 1275 00f0 F862     		str	r0, [r7, #44]
 773:Generated_Source\PSoC6\pdl\rtos\FreeRTOS\10.0.1\Source/stream_buffer.c **** 
 774:Generated_Source\PSoC6\pdl\rtos\FreeRTOS\10.0.1\Source/stream_buffer.c **** 		/* Was a task waiting for space in the buffer? */
 775:Generated_Source\PSoC6\pdl\rtos\FreeRTOS\10.0.1\Source/stream_buffer.c **** 		if( xReceivedLength != ( size_t ) 0 )
 1276              		.loc 1 775 0
 1277 00f2 FB6A     		ldr	r3, [r7, #44]
 1278 00f4 002B     		cmp	r3, #0
 1279 00f6 11D0     		beq	.L86
 776:Generated_Source\PSoC6\pdl\rtos\FreeRTOS\10.0.1\Source/stream_buffer.c **** 		{
 777:Generated_Source\PSoC6\pdl\rtos\FreeRTOS\10.0.1\Source/stream_buffer.c **** 			traceSTREAM_BUFFER_RECEIVE( xStreamBuffer, xReceivedLength );
 778:Generated_Source\PSoC6\pdl\rtos\FreeRTOS\10.0.1\Source/stream_buffer.c **** 			sbRECEIVE_COMPLETED( pxStreamBuffer );
 1280              		.loc 1 778 0
 1281 00f8 FFF7FEFF 		bl	vTaskSuspendAll
 1282 00fc 3B6A     		ldr	r3, [r7, #32]
 1283 00fe 5B69     		ldr	r3, [r3, #20]
 1284 0100 002B     		cmp	r3, #0
 1285 0102 09D0     		beq	.L87
 1286              		.loc 1 778 0 is_stmt 0 discriminator 1
 1287 0104 3B6A     		ldr	r3, [r7, #32]
 1288 0106 5869     		ldr	r0, [r3, #20]
 1289 0108 0023     		movs	r3, #0
 1290 010a 0022     		movs	r2, #0
 1291 010c 0021     		movs	r1, #0
 1292 010e FFF7FEFF 		bl	xTaskGenericNotify
 1293 0112 3B6A     		ldr	r3, [r7, #32]
 1294 0114 0022     		movs	r2, #0
 1295 0116 5A61     		str	r2, [r3, #20]
 1296              	.L87:
 1297              		.loc 1 778 0 discriminator 3
 1298 0118 FFF7FEFF 		bl	xTaskResumeAll
 1299              	.L86:
 779:Generated_Source\PSoC6\pdl\rtos\FreeRTOS\10.0.1\Source/stream_buffer.c **** 		}
 780:Generated_Source\PSoC6\pdl\rtos\FreeRTOS\10.0.1\Source/stream_buffer.c **** 		else
 781:Generated_Source\PSoC6\pdl\rtos\FreeRTOS\10.0.1\Source/stream_buffer.c **** 		{
 782:Generated_Source\PSoC6\pdl\rtos\FreeRTOS\10.0.1\Source/stream_buffer.c **** 			mtCOVERAGE_TEST_MARKER();
 783:Generated_Source\PSoC6\pdl\rtos\FreeRTOS\10.0.1\Source/stream_buffer.c **** 		}
 784:Generated_Source\PSoC6\pdl\rtos\FreeRTOS\10.0.1\Source/stream_buffer.c **** 	}
 785:Generated_Source\PSoC6\pdl\rtos\FreeRTOS\10.0.1\Source/stream_buffer.c **** 	else
 786:Generated_Source\PSoC6\pdl\rtos\FreeRTOS\10.0.1\Source/stream_buffer.c **** 	{
 787:Generated_Source\PSoC6\pdl\rtos\FreeRTOS\10.0.1\Source/stream_buffer.c **** 		traceSTREAM_BUFFER_RECEIVE_FAILED( xStreamBuffer );
ARM GAS  C:\Users\stijn\AppData\Local\Temp\cccniDcZ.s 			page 41


 788:Generated_Source\PSoC6\pdl\rtos\FreeRTOS\10.0.1\Source/stream_buffer.c **** 		mtCOVERAGE_TEST_MARKER();
 789:Generated_Source\PSoC6\pdl\rtos\FreeRTOS\10.0.1\Source/stream_buffer.c **** 	}
 790:Generated_Source\PSoC6\pdl\rtos\FreeRTOS\10.0.1\Source/stream_buffer.c **** 
 791:Generated_Source\PSoC6\pdl\rtos\FreeRTOS\10.0.1\Source/stream_buffer.c **** 	return xReceivedLength;
 1300              		.loc 1 791 0 is_stmt 1
 1301 011c FB6A     		ldr	r3, [r7, #44]
 792:Generated_Source\PSoC6\pdl\rtos\FreeRTOS\10.0.1\Source/stream_buffer.c **** }
 1302              		.loc 1 792 0
 1303 011e 1846     		mov	r0, r3
 1304 0120 3037     		adds	r7, r7, #48
 1305              		.cfi_def_cfa_offset 8
 1306 0122 BD46     		mov	sp, r7
 1307              		.cfi_def_cfa_register 13
 1308              		@ sp needed
 1309 0124 80BD     		pop	{r7, pc}
 1310              		.cfi_endproc
 1311              	.LFE145:
 1312              		.size	xStreamBufferReceive, .-xStreamBufferReceive
 1313 0126 00BF     		.section	.text.xStreamBufferReceiveFromISR,"ax",%progbits
 1314              		.align	2
 1315              		.global	xStreamBufferReceiveFromISR
 1316              		.thumb
 1317              		.thumb_func
 1318              		.type	xStreamBufferReceiveFromISR, %function
 1319              	xStreamBufferReceiveFromISR:
 1320              	.LFB146:
 793:Generated_Source\PSoC6\pdl\rtos\FreeRTOS\10.0.1\Source/stream_buffer.c **** /*-----------------------------------------------------------*/
 794:Generated_Source\PSoC6\pdl\rtos\FreeRTOS\10.0.1\Source/stream_buffer.c **** 
 795:Generated_Source\PSoC6\pdl\rtos\FreeRTOS\10.0.1\Source/stream_buffer.c **** size_t xStreamBufferReceiveFromISR( StreamBufferHandle_t xStreamBuffer,
 796:Generated_Source\PSoC6\pdl\rtos\FreeRTOS\10.0.1\Source/stream_buffer.c **** 									void *pvRxData,
 797:Generated_Source\PSoC6\pdl\rtos\FreeRTOS\10.0.1\Source/stream_buffer.c **** 									size_t xBufferLengthBytes,
 798:Generated_Source\PSoC6\pdl\rtos\FreeRTOS\10.0.1\Source/stream_buffer.c **** 									BaseType_t * const pxHigherPriorityTaskWoken )
 799:Generated_Source\PSoC6\pdl\rtos\FreeRTOS\10.0.1\Source/stream_buffer.c **** {
 1321              		.loc 1 799 0
 1322              		.cfi_startproc
 1323              		@ args = 0, pretend = 0, frame = 56
 1324              		@ frame_needed = 1, uses_anonymous_args = 0
 1325 0000 80B5     		push	{r7, lr}
 1326              		.cfi_def_cfa_offset 8
 1327              		.cfi_offset 7, -8
 1328              		.cfi_offset 14, -4
 1329 0002 90B0     		sub	sp, sp, #64
 1330              		.cfi_def_cfa_offset 72
 1331 0004 02AF     		add	r7, sp, #8
 1332              		.cfi_def_cfa 7, 64
 1333 0006 F860     		str	r0, [r7, #12]
 1334 0008 B960     		str	r1, [r7, #8]
 1335 000a 7A60     		str	r2, [r7, #4]
 1336 000c 3B60     		str	r3, [r7]
 800:Generated_Source\PSoC6\pdl\rtos\FreeRTOS\10.0.1\Source/stream_buffer.c **** StreamBuffer_t * const pxStreamBuffer = ( StreamBuffer_t * ) xStreamBuffer; /*lint !e9087 !e9079 Sa
 1337              		.loc 1 800 0
 1338 000e FB68     		ldr	r3, [r7, #12]
 1339 0010 FB62     		str	r3, [r7, #44]
 801:Generated_Source\PSoC6\pdl\rtos\FreeRTOS\10.0.1\Source/stream_buffer.c **** size_t xReceivedLength = 0, xBytesAvailable, xBytesToStoreMessageLength;
 1340              		.loc 1 801 0
 1341 0012 0023     		movs	r3, #0
 1342 0014 7B63     		str	r3, [r7, #52]
ARM GAS  C:\Users\stijn\AppData\Local\Temp\cccniDcZ.s 			page 42


 802:Generated_Source\PSoC6\pdl\rtos\FreeRTOS\10.0.1\Source/stream_buffer.c **** 
 803:Generated_Source\PSoC6\pdl\rtos\FreeRTOS\10.0.1\Source/stream_buffer.c **** 	configASSERT( pvRxData );
 1343              		.loc 1 803 0
 1344 0016 BB68     		ldr	r3, [r7, #8]
 1345 0018 002B     		cmp	r3, #0
 1346 001a 09D1     		bne	.L90
 1347              	.LBB112:
 1348              	.LBB113:
 156:Generated_Source\PSoC6\pdl\rtos/FreeRTOS/10.0.1/Source/portable/GCC/CM4F/portmacro.h **** 	(
 1349              		.loc 2 156 0 discriminator 1
 1350              		.syntax unified
 1351              	@ 156 "Generated_Source\PSoC6\pdl\rtos/FreeRTOS/10.0.1/Source/portable/GCC/CM4F/portmacro.h" 1
 1352 001c 4FF03F03 			mov r3, #63												
 1353 0020 83F31188 		msr basepri, r3											
 1354 0024 BFF36F8F 		isb														
 1355 0028 BFF34F8F 		dsb														
 1356              	
 1357              	@ 0 "" 2
 1358              		.thumb
 1359              		.syntax unified
 1360 002c 7B61     		str	r3, [r7, #20]
 1361              	.L91:
 1362              	.LBE113:
 1363              	.LBE112:
 1364              		.loc 1 803 0 discriminator 1
 1365 002e FEE7     		b	.L91
 1366              	.L90:
 804:Generated_Source\PSoC6\pdl\rtos\FreeRTOS\10.0.1\Source/stream_buffer.c **** 	configASSERT( pxStreamBuffer );
 1367              		.loc 1 804 0
 1368 0030 FB6A     		ldr	r3, [r7, #44]
 1369 0032 002B     		cmp	r3, #0
 1370 0034 09D1     		bne	.L92
 1371              	.LBB114:
 1372              	.LBB115:
 156:Generated_Source\PSoC6\pdl\rtos/FreeRTOS/10.0.1/Source/portable/GCC/CM4F/portmacro.h **** 	(
 1373              		.loc 2 156 0 discriminator 1
 1374              		.syntax unified
 1375              	@ 156 "Generated_Source\PSoC6\pdl\rtos/FreeRTOS/10.0.1/Source/portable/GCC/CM4F/portmacro.h" 1
 1376 0036 4FF03F03 			mov r3, #63												
 1377 003a 83F31188 		msr basepri, r3											
 1378 003e BFF36F8F 		isb														
 1379 0042 BFF34F8F 		dsb														
 1380              	
 1381              	@ 0 "" 2
 1382              		.thumb
 1383              		.syntax unified
 1384 0046 BB61     		str	r3, [r7, #24]
 1385              	.L93:
 1386              	.LBE115:
 1387              	.LBE114:
 1388              		.loc 1 804 0 discriminator 2
 1389 0048 FEE7     		b	.L93
 1390              	.L92:
 805:Generated_Source\PSoC6\pdl\rtos\FreeRTOS\10.0.1\Source/stream_buffer.c **** 
 806:Generated_Source\PSoC6\pdl\rtos\FreeRTOS\10.0.1\Source/stream_buffer.c **** 	/* This receive function is used by both message buffers, which store
 807:Generated_Source\PSoC6\pdl\rtos\FreeRTOS\10.0.1\Source/stream_buffer.c **** 	discrete messages, and stream buffers, which store a continuous stream of
 808:Generated_Source\PSoC6\pdl\rtos\FreeRTOS\10.0.1\Source/stream_buffer.c **** 	bytes.  Discrete messages include an additional
ARM GAS  C:\Users\stijn\AppData\Local\Temp\cccniDcZ.s 			page 43


 809:Generated_Source\PSoC6\pdl\rtos\FreeRTOS\10.0.1\Source/stream_buffer.c **** 	sbBYTES_TO_STORE_MESSAGE_LENGTH bytes that hold the length of the
 810:Generated_Source\PSoC6\pdl\rtos\FreeRTOS\10.0.1\Source/stream_buffer.c **** 	message. */
 811:Generated_Source\PSoC6\pdl\rtos\FreeRTOS\10.0.1\Source/stream_buffer.c **** 	if( ( pxStreamBuffer->ucFlags & sbFLAGS_IS_MESSAGE_BUFFER ) != ( uint8_t ) 0 )
 1391              		.loc 1 811 0
 1392 004a FB6A     		ldr	r3, [r7, #44]
 1393 004c 1B7F     		ldrb	r3, [r3, #28]	@ zero_extendqisi2
 1394 004e 03F00103 		and	r3, r3, #1
 1395 0052 002B     		cmp	r3, #0
 1396 0054 02D0     		beq	.L94
 812:Generated_Source\PSoC6\pdl\rtos\FreeRTOS\10.0.1\Source/stream_buffer.c **** 	{
 813:Generated_Source\PSoC6\pdl\rtos\FreeRTOS\10.0.1\Source/stream_buffer.c **** 		xBytesToStoreMessageLength = sbBYTES_TO_STORE_MESSAGE_LENGTH;
 1397              		.loc 1 813 0
 1398 0056 0423     		movs	r3, #4
 1399 0058 3B63     		str	r3, [r7, #48]
 1400 005a 01E0     		b	.L95
 1401              	.L94:
 814:Generated_Source\PSoC6\pdl\rtos\FreeRTOS\10.0.1\Source/stream_buffer.c **** 	}
 815:Generated_Source\PSoC6\pdl\rtos\FreeRTOS\10.0.1\Source/stream_buffer.c **** 	else
 816:Generated_Source\PSoC6\pdl\rtos\FreeRTOS\10.0.1\Source/stream_buffer.c **** 	{
 817:Generated_Source\PSoC6\pdl\rtos\FreeRTOS\10.0.1\Source/stream_buffer.c **** 		xBytesToStoreMessageLength = 0;
 1402              		.loc 1 817 0
 1403 005c 0023     		movs	r3, #0
 1404 005e 3B63     		str	r3, [r7, #48]
 1405              	.L95:
 818:Generated_Source\PSoC6\pdl\rtos\FreeRTOS\10.0.1\Source/stream_buffer.c **** 	}
 819:Generated_Source\PSoC6\pdl\rtos\FreeRTOS\10.0.1\Source/stream_buffer.c **** 
 820:Generated_Source\PSoC6\pdl\rtos\FreeRTOS\10.0.1\Source/stream_buffer.c **** 	xBytesAvailable = prvBytesInBuffer( pxStreamBuffer );
 1406              		.loc 1 820 0
 1407 0060 F86A     		ldr	r0, [r7, #44]
 1408 0062 FFF7FEFF 		bl	prvBytesInBuffer
 1409 0066 B862     		str	r0, [r7, #40]
 821:Generated_Source\PSoC6\pdl\rtos\FreeRTOS\10.0.1\Source/stream_buffer.c **** 
 822:Generated_Source\PSoC6\pdl\rtos\FreeRTOS\10.0.1\Source/stream_buffer.c **** 	/* Whether receiving a discrete message (where xBytesToStoreMessageLength
 823:Generated_Source\PSoC6\pdl\rtos\FreeRTOS\10.0.1\Source/stream_buffer.c **** 	holds the number of bytes used to store the message length) or a stream of
 824:Generated_Source\PSoC6\pdl\rtos\FreeRTOS\10.0.1\Source/stream_buffer.c **** 	bytes (where xBytesToStoreMessageLength is zero), the number of bytes
 825:Generated_Source\PSoC6\pdl\rtos\FreeRTOS\10.0.1\Source/stream_buffer.c **** 	available must be greater than xBytesToStoreMessageLength to be able to
 826:Generated_Source\PSoC6\pdl\rtos\FreeRTOS\10.0.1\Source/stream_buffer.c **** 	read bytes from the buffer. */
 827:Generated_Source\PSoC6\pdl\rtos\FreeRTOS\10.0.1\Source/stream_buffer.c **** 	if( xBytesAvailable > xBytesToStoreMessageLength )
 1410              		.loc 1 827 0
 1411 0068 BA6A     		ldr	r2, [r7, #40]
 1412 006a 3B6B     		ldr	r3, [r7, #48]
 1413 006c 9A42     		cmp	r2, r3
 1414 006e 2ED9     		bls	.L96
 828:Generated_Source\PSoC6\pdl\rtos\FreeRTOS\10.0.1\Source/stream_buffer.c **** 	{
 829:Generated_Source\PSoC6\pdl\rtos\FreeRTOS\10.0.1\Source/stream_buffer.c **** 		xReceivedLength = prvReadMessageFromBuffer( pxStreamBuffer, pvRxData, xBufferLengthBytes, xBytesA
 1415              		.loc 1 829 0
 1416 0070 3B6B     		ldr	r3, [r7, #48]
 1417 0072 0093     		str	r3, [sp]
 1418 0074 BB6A     		ldr	r3, [r7, #40]
 1419 0076 7A68     		ldr	r2, [r7, #4]
 1420 0078 B968     		ldr	r1, [r7, #8]
 1421 007a F86A     		ldr	r0, [r7, #44]
 1422 007c FFF7FEFF 		bl	prvReadMessageFromBuffer
 1423 0080 7863     		str	r0, [r7, #52]
 830:Generated_Source\PSoC6\pdl\rtos\FreeRTOS\10.0.1\Source/stream_buffer.c **** 
 831:Generated_Source\PSoC6\pdl\rtos\FreeRTOS\10.0.1\Source/stream_buffer.c **** 		/* Was a task waiting for space in the buffer? */
 832:Generated_Source\PSoC6\pdl\rtos\FreeRTOS\10.0.1\Source/stream_buffer.c **** 		if( xReceivedLength != ( size_t ) 0 )
ARM GAS  C:\Users\stijn\AppData\Local\Temp\cccniDcZ.s 			page 44


 1424              		.loc 1 832 0
 1425 0082 7B6B     		ldr	r3, [r7, #52]
 1426 0084 002B     		cmp	r3, #0
 1427 0086 22D0     		beq	.L96
 1428              	.LBB116:
 1429              	.LBB117:
 1430              	.LBB118:
 172:Generated_Source\PSoC6\pdl\rtos/FreeRTOS/10.0.1/Source/portable/GCC/CM4F/portmacro.h **** 	(
 1431              		.loc 2 172 0
 1432              		.syntax unified
 1433              	@ 172 "Generated_Source\PSoC6\pdl\rtos/FreeRTOS/10.0.1/Source/portable/GCC/CM4F/portmacro.h" 1
 1434 0088 EFF31182 			mrs r2, basepri											
 1435 008c 4FF03F03 		mov r3, #63												
 1436 0090 83F31188 		msr basepri, r3											
 1437 0094 BFF36F8F 		isb														
 1438 0098 BFF34F8F 		dsb														
 1439              	
 1440              	@ 0 "" 2
 1441              		.thumb
 1442              		.syntax unified
 1443 009c FA61     		str	r2, [r7, #28]
 1444 009e 3B61     		str	r3, [r7, #16]
 184:Generated_Source\PSoC6\pdl\rtos/FreeRTOS/10.0.1/Source/portable/GCC/CM4F/portmacro.h **** }
 1445              		.loc 2 184 0
 1446 00a0 FB69     		ldr	r3, [r7, #28]
 1447              	.LBE118:
 1448              	.LBE117:
 833:Generated_Source\PSoC6\pdl\rtos\FreeRTOS\10.0.1\Source/stream_buffer.c **** 		{
 834:Generated_Source\PSoC6\pdl\rtos\FreeRTOS\10.0.1\Source/stream_buffer.c **** 			sbRECEIVE_COMPLETED_FROM_ISR( pxStreamBuffer, pxHigherPriorityTaskWoken );
 1449              		.loc 1 834 0
 1450 00a2 3B62     		str	r3, [r7, #32]
 1451 00a4 FB6A     		ldr	r3, [r7, #44]
 1452 00a6 5B69     		ldr	r3, [r3, #20]
 1453 00a8 002B     		cmp	r3, #0
 1454 00aa 0BD0     		beq	.L98
 1455              		.loc 1 834 0 is_stmt 0 discriminator 1
 1456 00ac FB6A     		ldr	r3, [r7, #44]
 1457 00ae 5869     		ldr	r0, [r3, #20]
 1458 00b0 3B68     		ldr	r3, [r7]
 1459 00b2 0093     		str	r3, [sp]
 1460 00b4 0023     		movs	r3, #0
 1461 00b6 0022     		movs	r2, #0
 1462 00b8 0021     		movs	r1, #0
 1463 00ba FFF7FEFF 		bl	xTaskGenericNotifyFromISR
 1464 00be FB6A     		ldr	r3, [r7, #44]
 1465 00c0 0022     		movs	r2, #0
 1466 00c2 5A61     		str	r2, [r3, #20]
 1467              	.L98:
 1468 00c4 3B6A     		ldr	r3, [r7, #32]
 1469 00c6 7B62     		str	r3, [r7, #36]
 1470              	.LBB119:
 1471              	.LBB120:
 1472              		.loc 2 190 0 is_stmt 1 discriminator 3
 1473 00c8 7B6A     		ldr	r3, [r7, #36]
 1474              		.syntax unified
 1475              	@ 190 "Generated_Source\PSoC6\pdl\rtos/FreeRTOS/10.0.1/Source/portable/GCC/CM4F/portmacro.h" 1
 1476 00ca 83F31188 			msr basepri, r3	
ARM GAS  C:\Users\stijn\AppData\Local\Temp\cccniDcZ.s 			page 45


 1477              	@ 0 "" 2
 1478              		.thumb
 1479              		.syntax unified
 1480              	.L96:
 1481              	.LBE120:
 1482              	.LBE119:
 1483              	.LBE116:
 835:Generated_Source\PSoC6\pdl\rtos\FreeRTOS\10.0.1\Source/stream_buffer.c **** 		}
 836:Generated_Source\PSoC6\pdl\rtos\FreeRTOS\10.0.1\Source/stream_buffer.c **** 		else
 837:Generated_Source\PSoC6\pdl\rtos\FreeRTOS\10.0.1\Source/stream_buffer.c **** 		{
 838:Generated_Source\PSoC6\pdl\rtos\FreeRTOS\10.0.1\Source/stream_buffer.c **** 			mtCOVERAGE_TEST_MARKER();
 839:Generated_Source\PSoC6\pdl\rtos\FreeRTOS\10.0.1\Source/stream_buffer.c **** 		}
 840:Generated_Source\PSoC6\pdl\rtos\FreeRTOS\10.0.1\Source/stream_buffer.c **** 	}
 841:Generated_Source\PSoC6\pdl\rtos\FreeRTOS\10.0.1\Source/stream_buffer.c **** 	else
 842:Generated_Source\PSoC6\pdl\rtos\FreeRTOS\10.0.1\Source/stream_buffer.c **** 	{
 843:Generated_Source\PSoC6\pdl\rtos\FreeRTOS\10.0.1\Source/stream_buffer.c **** 		mtCOVERAGE_TEST_MARKER();
 844:Generated_Source\PSoC6\pdl\rtos\FreeRTOS\10.0.1\Source/stream_buffer.c **** 	}
 845:Generated_Source\PSoC6\pdl\rtos\FreeRTOS\10.0.1\Source/stream_buffer.c **** 
 846:Generated_Source\PSoC6\pdl\rtos\FreeRTOS\10.0.1\Source/stream_buffer.c **** 	traceSTREAM_BUFFER_RECEIVE_FROM_ISR( xStreamBuffer, xReceivedLength );
 847:Generated_Source\PSoC6\pdl\rtos\FreeRTOS\10.0.1\Source/stream_buffer.c **** 
 848:Generated_Source\PSoC6\pdl\rtos\FreeRTOS\10.0.1\Source/stream_buffer.c **** 	return xReceivedLength;
 1484              		.loc 1 848 0
 1485 00ce 7B6B     		ldr	r3, [r7, #52]
 849:Generated_Source\PSoC6\pdl\rtos\FreeRTOS\10.0.1\Source/stream_buffer.c **** }
 1486              		.loc 1 849 0
 1487 00d0 1846     		mov	r0, r3
 1488 00d2 3837     		adds	r7, r7, #56
 1489              		.cfi_def_cfa_offset 8
 1490 00d4 BD46     		mov	sp, r7
 1491              		.cfi_def_cfa_register 13
 1492              		@ sp needed
 1493 00d6 80BD     		pop	{r7, pc}
 1494              		.cfi_endproc
 1495              	.LFE146:
 1496              		.size	xStreamBufferReceiveFromISR, .-xStreamBufferReceiveFromISR
 1497              		.section	.text.prvReadMessageFromBuffer,"ax",%progbits
 1498              		.align	2
 1499              		.thumb
 1500              		.thumb_func
 1501              		.type	prvReadMessageFromBuffer, %function
 1502              	prvReadMessageFromBuffer:
 1503              	.LFB147:
 850:Generated_Source\PSoC6\pdl\rtos\FreeRTOS\10.0.1\Source/stream_buffer.c **** /*-----------------------------------------------------------*/
 851:Generated_Source\PSoC6\pdl\rtos\FreeRTOS\10.0.1\Source/stream_buffer.c **** 
 852:Generated_Source\PSoC6\pdl\rtos\FreeRTOS\10.0.1\Source/stream_buffer.c **** static size_t prvReadMessageFromBuffer( StreamBuffer_t *pxStreamBuffer,
 853:Generated_Source\PSoC6\pdl\rtos\FreeRTOS\10.0.1\Source/stream_buffer.c **** 										void *pvRxData,
 854:Generated_Source\PSoC6\pdl\rtos\FreeRTOS\10.0.1\Source/stream_buffer.c **** 										size_t xBufferLengthBytes,
 855:Generated_Source\PSoC6\pdl\rtos\FreeRTOS\10.0.1\Source/stream_buffer.c **** 										size_t xBytesAvailable,
 856:Generated_Source\PSoC6\pdl\rtos\FreeRTOS\10.0.1\Source/stream_buffer.c **** 										size_t xBytesToStoreMessageLength )
 857:Generated_Source\PSoC6\pdl\rtos\FreeRTOS\10.0.1\Source/stream_buffer.c **** {
 1504              		.loc 1 857 0
 1505              		.cfi_startproc
 1506              		@ args = 4, pretend = 0, frame = 32
 1507              		@ frame_needed = 1, uses_anonymous_args = 0
 1508 0000 80B5     		push	{r7, lr}
 1509              		.cfi_def_cfa_offset 8
 1510              		.cfi_offset 7, -8
ARM GAS  C:\Users\stijn\AppData\Local\Temp\cccniDcZ.s 			page 46


 1511              		.cfi_offset 14, -4
 1512 0002 88B0     		sub	sp, sp, #32
 1513              		.cfi_def_cfa_offset 40
 1514 0004 00AF     		add	r7, sp, #0
 1515              		.cfi_def_cfa_register 7
 1516 0006 F860     		str	r0, [r7, #12]
 1517 0008 B960     		str	r1, [r7, #8]
 1518 000a 7A60     		str	r2, [r7, #4]
 1519 000c 3B60     		str	r3, [r7]
 858:Generated_Source\PSoC6\pdl\rtos\FreeRTOS\10.0.1\Source/stream_buffer.c **** size_t xOriginalTail, xReceivedLength, xNextMessageLength;
 859:Generated_Source\PSoC6\pdl\rtos\FreeRTOS\10.0.1\Source/stream_buffer.c **** 
 860:Generated_Source\PSoC6\pdl\rtos\FreeRTOS\10.0.1\Source/stream_buffer.c **** 	if( xBytesToStoreMessageLength != ( size_t ) 0 )
 1520              		.loc 1 860 0
 1521 000e BB6A     		ldr	r3, [r7, #40]
 1522 0010 002B     		cmp	r3, #0
 1523 0012 17D0     		beq	.L101
 861:Generated_Source\PSoC6\pdl\rtos\FreeRTOS\10.0.1\Source/stream_buffer.c **** 	{
 862:Generated_Source\PSoC6\pdl\rtos\FreeRTOS\10.0.1\Source/stream_buffer.c **** 		/* A discrete message is being received.  First receive the length
 863:Generated_Source\PSoC6\pdl\rtos\FreeRTOS\10.0.1\Source/stream_buffer.c **** 		of the message.  A copy of the tail is stored so the buffer can be
 864:Generated_Source\PSoC6\pdl\rtos\FreeRTOS\10.0.1\Source/stream_buffer.c **** 		returned to its prior state if the length of the message is too
 865:Generated_Source\PSoC6\pdl\rtos\FreeRTOS\10.0.1\Source/stream_buffer.c **** 		large for the provided buffer. */
 866:Generated_Source\PSoC6\pdl\rtos\FreeRTOS\10.0.1\Source/stream_buffer.c **** 		xOriginalTail = pxStreamBuffer->xTail;
 1524              		.loc 1 866 0
 1525 0014 FB68     		ldr	r3, [r7, #12]
 1526 0016 1B68     		ldr	r3, [r3]
 1527 0018 FB61     		str	r3, [r7, #28]
 867:Generated_Source\PSoC6\pdl\rtos\FreeRTOS\10.0.1\Source/stream_buffer.c **** 		( void ) prvReadBytesFromBuffer( pxStreamBuffer, ( uint8_t * ) &xNextMessageLength, xBytesToStore
 1528              		.loc 1 867 0
 1529 001a 07F11401 		add	r1, r7, #20
 1530 001e 3B68     		ldr	r3, [r7]
 1531 0020 BA6A     		ldr	r2, [r7, #40]
 1532 0022 F868     		ldr	r0, [r7, #12]
 1533 0024 FFF7FEFF 		bl	prvReadBytesFromBuffer
 868:Generated_Source\PSoC6\pdl\rtos\FreeRTOS\10.0.1\Source/stream_buffer.c **** 
 869:Generated_Source\PSoC6\pdl\rtos\FreeRTOS\10.0.1\Source/stream_buffer.c **** 		/* Reduce the number of bytes available by the number of bytes just
 870:Generated_Source\PSoC6\pdl\rtos\FreeRTOS\10.0.1\Source/stream_buffer.c **** 		read out. */
 871:Generated_Source\PSoC6\pdl\rtos\FreeRTOS\10.0.1\Source/stream_buffer.c **** 		xBytesAvailable -= xBytesToStoreMessageLength;
 1534              		.loc 1 871 0
 1535 0028 3A68     		ldr	r2, [r7]
 1536 002a BB6A     		ldr	r3, [r7, #40]
 1537 002c D31A     		subs	r3, r2, r3
 1538 002e 3B60     		str	r3, [r7]
 872:Generated_Source\PSoC6\pdl\rtos\FreeRTOS\10.0.1\Source/stream_buffer.c **** 
 873:Generated_Source\PSoC6\pdl\rtos\FreeRTOS\10.0.1\Source/stream_buffer.c **** 		/* Check there is enough space in the buffer provided by the
 874:Generated_Source\PSoC6\pdl\rtos\FreeRTOS\10.0.1\Source/stream_buffer.c **** 		user. */
 875:Generated_Source\PSoC6\pdl\rtos\FreeRTOS\10.0.1\Source/stream_buffer.c **** 		if( xNextMessageLength > xBufferLengthBytes )
 1539              		.loc 1 875 0
 1540 0030 7A69     		ldr	r2, [r7, #20]
 1541 0032 7B68     		ldr	r3, [r7, #4]
 1542 0034 9A42     		cmp	r2, r3
 1543 0036 07D9     		bls	.L102
 876:Generated_Source\PSoC6\pdl\rtos\FreeRTOS\10.0.1\Source/stream_buffer.c **** 		{
 877:Generated_Source\PSoC6\pdl\rtos\FreeRTOS\10.0.1\Source/stream_buffer.c **** 			/* The user has provided insufficient space to read the message
 878:Generated_Source\PSoC6\pdl\rtos\FreeRTOS\10.0.1\Source/stream_buffer.c **** 			so return the buffer to its previous state (so the length of
 879:Generated_Source\PSoC6\pdl\rtos\FreeRTOS\10.0.1\Source/stream_buffer.c **** 			the message is in the buffer again). */
 880:Generated_Source\PSoC6\pdl\rtos\FreeRTOS\10.0.1\Source/stream_buffer.c **** 			pxStreamBuffer->xTail = xOriginalTail;
 1544              		.loc 1 880 0
ARM GAS  C:\Users\stijn\AppData\Local\Temp\cccniDcZ.s 			page 47


 1545 0038 FB68     		ldr	r3, [r7, #12]
 1546 003a FA69     		ldr	r2, [r7, #28]
 1547 003c 1A60     		str	r2, [r3]
 881:Generated_Source\PSoC6\pdl\rtos\FreeRTOS\10.0.1\Source/stream_buffer.c **** 			xNextMessageLength = 0;
 1548              		.loc 1 881 0
 1549 003e 0023     		movs	r3, #0
 1550 0040 7B61     		str	r3, [r7, #20]
 1551 0042 01E0     		b	.L102
 1552              	.L101:
 882:Generated_Source\PSoC6\pdl\rtos\FreeRTOS\10.0.1\Source/stream_buffer.c **** 		}
 883:Generated_Source\PSoC6\pdl\rtos\FreeRTOS\10.0.1\Source/stream_buffer.c **** 		else
 884:Generated_Source\PSoC6\pdl\rtos\FreeRTOS\10.0.1\Source/stream_buffer.c **** 		{
 885:Generated_Source\PSoC6\pdl\rtos\FreeRTOS\10.0.1\Source/stream_buffer.c **** 			mtCOVERAGE_TEST_MARKER();
 886:Generated_Source\PSoC6\pdl\rtos\FreeRTOS\10.0.1\Source/stream_buffer.c **** 		}
 887:Generated_Source\PSoC6\pdl\rtos\FreeRTOS\10.0.1\Source/stream_buffer.c **** 	}
 888:Generated_Source\PSoC6\pdl\rtos\FreeRTOS\10.0.1\Source/stream_buffer.c **** 	else
 889:Generated_Source\PSoC6\pdl\rtos\FreeRTOS\10.0.1\Source/stream_buffer.c **** 	{
 890:Generated_Source\PSoC6\pdl\rtos\FreeRTOS\10.0.1\Source/stream_buffer.c **** 		/* A stream of bytes is being received (as opposed to a discrete
 891:Generated_Source\PSoC6\pdl\rtos\FreeRTOS\10.0.1\Source/stream_buffer.c **** 		message), so read as many bytes as possible. */
 892:Generated_Source\PSoC6\pdl\rtos\FreeRTOS\10.0.1\Source/stream_buffer.c **** 		xNextMessageLength = xBufferLengthBytes;
 1553              		.loc 1 892 0
 1554 0044 7B68     		ldr	r3, [r7, #4]
 1555 0046 7B61     		str	r3, [r7, #20]
 1556              	.L102:
 893:Generated_Source\PSoC6\pdl\rtos\FreeRTOS\10.0.1\Source/stream_buffer.c **** 	}
 894:Generated_Source\PSoC6\pdl\rtos\FreeRTOS\10.0.1\Source/stream_buffer.c **** 
 895:Generated_Source\PSoC6\pdl\rtos\FreeRTOS\10.0.1\Source/stream_buffer.c **** 	/* Read the actual data. */
 896:Generated_Source\PSoC6\pdl\rtos\FreeRTOS\10.0.1\Source/stream_buffer.c **** 	xReceivedLength = prvReadBytesFromBuffer( pxStreamBuffer, ( uint8_t * ) pvRxData, xNextMessageLeng
 1557              		.loc 1 896 0
 1558 0048 7A69     		ldr	r2, [r7, #20]
 1559 004a 3B68     		ldr	r3, [r7]
 1560 004c B968     		ldr	r1, [r7, #8]
 1561 004e F868     		ldr	r0, [r7, #12]
 1562 0050 FFF7FEFF 		bl	prvReadBytesFromBuffer
 1563 0054 B861     		str	r0, [r7, #24]
 897:Generated_Source\PSoC6\pdl\rtos\FreeRTOS\10.0.1\Source/stream_buffer.c **** 
 898:Generated_Source\PSoC6\pdl\rtos\FreeRTOS\10.0.1\Source/stream_buffer.c **** 	return xReceivedLength;
 1564              		.loc 1 898 0
 1565 0056 BB69     		ldr	r3, [r7, #24]
 899:Generated_Source\PSoC6\pdl\rtos\FreeRTOS\10.0.1\Source/stream_buffer.c **** }
 1566              		.loc 1 899 0
 1567 0058 1846     		mov	r0, r3
 1568 005a 2037     		adds	r7, r7, #32
 1569              		.cfi_def_cfa_offset 8
 1570 005c BD46     		mov	sp, r7
 1571              		.cfi_def_cfa_register 13
 1572              		@ sp needed
 1573 005e 80BD     		pop	{r7, pc}
 1574              		.cfi_endproc
 1575              	.LFE147:
 1576              		.size	prvReadMessageFromBuffer, .-prvReadMessageFromBuffer
 1577              		.section	.text.xStreamBufferIsEmpty,"ax",%progbits
 1578              		.align	2
 1579              		.global	xStreamBufferIsEmpty
 1580              		.thumb
 1581              		.thumb_func
 1582              		.type	xStreamBufferIsEmpty, %function
ARM GAS  C:\Users\stijn\AppData\Local\Temp\cccniDcZ.s 			page 48


 1583              	xStreamBufferIsEmpty:
 1584              	.LFB148:
 900:Generated_Source\PSoC6\pdl\rtos\FreeRTOS\10.0.1\Source/stream_buffer.c **** /*-----------------------------------------------------------*/
 901:Generated_Source\PSoC6\pdl\rtos\FreeRTOS\10.0.1\Source/stream_buffer.c **** 
 902:Generated_Source\PSoC6\pdl\rtos\FreeRTOS\10.0.1\Source/stream_buffer.c **** BaseType_t xStreamBufferIsEmpty( StreamBufferHandle_t xStreamBuffer )
 903:Generated_Source\PSoC6\pdl\rtos\FreeRTOS\10.0.1\Source/stream_buffer.c **** {
 1585              		.loc 1 903 0
 1586              		.cfi_startproc
 1587              		@ args = 0, pretend = 0, frame = 24
 1588              		@ frame_needed = 1, uses_anonymous_args = 0
 1589              		@ link register save eliminated.
 1590 0000 80B4     		push	{r7}
 1591              		.cfi_def_cfa_offset 4
 1592              		.cfi_offset 7, -4
 1593 0002 87B0     		sub	sp, sp, #28
 1594              		.cfi_def_cfa_offset 32
 1595 0004 00AF     		add	r7, sp, #0
 1596              		.cfi_def_cfa_register 7
 1597 0006 7860     		str	r0, [r7, #4]
 904:Generated_Source\PSoC6\pdl\rtos\FreeRTOS\10.0.1\Source/stream_buffer.c **** const StreamBuffer_t * const pxStreamBuffer = ( StreamBuffer_t * ) xStreamBuffer; /*lint !e9087 !e9
 1598              		.loc 1 904 0
 1599 0008 7B68     		ldr	r3, [r7, #4]
 1600 000a 3B61     		str	r3, [r7, #16]
 905:Generated_Source\PSoC6\pdl\rtos\FreeRTOS\10.0.1\Source/stream_buffer.c **** BaseType_t xReturn;
 906:Generated_Source\PSoC6\pdl\rtos\FreeRTOS\10.0.1\Source/stream_buffer.c **** size_t xTail;
 907:Generated_Source\PSoC6\pdl\rtos\FreeRTOS\10.0.1\Source/stream_buffer.c **** 
 908:Generated_Source\PSoC6\pdl\rtos\FreeRTOS\10.0.1\Source/stream_buffer.c **** 	configASSERT( pxStreamBuffer );
 1601              		.loc 1 908 0
 1602 000c 3B69     		ldr	r3, [r7, #16]
 1603 000e 002B     		cmp	r3, #0
 1604 0010 09D1     		bne	.L105
 1605              	.LBB121:
 1606              	.LBB122:
 156:Generated_Source\PSoC6\pdl\rtos/FreeRTOS/10.0.1/Source/portable/GCC/CM4F/portmacro.h **** 	(
 1607              		.loc 2 156 0 discriminator 1
 1608              		.syntax unified
 1609              	@ 156 "Generated_Source\PSoC6\pdl\rtos/FreeRTOS/10.0.1/Source/portable/GCC/CM4F/portmacro.h" 1
 1610 0012 4FF03F03 			mov r3, #63												
 1611 0016 83F31188 		msr basepri, r3											
 1612 001a BFF36F8F 		isb														
 1613 001e BFF34F8F 		dsb														
 1614              	
 1615              	@ 0 "" 2
 1616              		.thumb
 1617              		.syntax unified
 1618 0022 BB60     		str	r3, [r7, #8]
 1619              	.L106:
 1620              	.LBE122:
 1621              	.LBE121:
 1622              		.loc 1 908 0 discriminator 1
 1623 0024 FEE7     		b	.L106
 1624              	.L105:
 909:Generated_Source\PSoC6\pdl\rtos\FreeRTOS\10.0.1\Source/stream_buffer.c **** 
 910:Generated_Source\PSoC6\pdl\rtos\FreeRTOS\10.0.1\Source/stream_buffer.c **** 	/* True if no bytes are available. */
 911:Generated_Source\PSoC6\pdl\rtos\FreeRTOS\10.0.1\Source/stream_buffer.c **** 	xTail = pxStreamBuffer->xTail;
 1625              		.loc 1 911 0
 1626 0026 3B69     		ldr	r3, [r7, #16]
ARM GAS  C:\Users\stijn\AppData\Local\Temp\cccniDcZ.s 			page 49


 1627 0028 1B68     		ldr	r3, [r3]
 1628 002a FB60     		str	r3, [r7, #12]
 912:Generated_Source\PSoC6\pdl\rtos\FreeRTOS\10.0.1\Source/stream_buffer.c **** 	if( pxStreamBuffer->xHead == xTail )
 1629              		.loc 1 912 0
 1630 002c 3B69     		ldr	r3, [r7, #16]
 1631 002e 5A68     		ldr	r2, [r3, #4]
 1632 0030 FB68     		ldr	r3, [r7, #12]
 1633 0032 9A42     		cmp	r2, r3
 1634 0034 02D1     		bne	.L107
 913:Generated_Source\PSoC6\pdl\rtos\FreeRTOS\10.0.1\Source/stream_buffer.c **** 	{
 914:Generated_Source\PSoC6\pdl\rtos\FreeRTOS\10.0.1\Source/stream_buffer.c **** 		xReturn = pdTRUE;
 1635              		.loc 1 914 0
 1636 0036 0123     		movs	r3, #1
 1637 0038 7B61     		str	r3, [r7, #20]
 1638 003a 01E0     		b	.L108
 1639              	.L107:
 915:Generated_Source\PSoC6\pdl\rtos\FreeRTOS\10.0.1\Source/stream_buffer.c **** 	}
 916:Generated_Source\PSoC6\pdl\rtos\FreeRTOS\10.0.1\Source/stream_buffer.c **** 	else
 917:Generated_Source\PSoC6\pdl\rtos\FreeRTOS\10.0.1\Source/stream_buffer.c **** 	{
 918:Generated_Source\PSoC6\pdl\rtos\FreeRTOS\10.0.1\Source/stream_buffer.c **** 		xReturn = pdFALSE;
 1640              		.loc 1 918 0
 1641 003c 0023     		movs	r3, #0
 1642 003e 7B61     		str	r3, [r7, #20]
 1643              	.L108:
 919:Generated_Source\PSoC6\pdl\rtos\FreeRTOS\10.0.1\Source/stream_buffer.c **** 	}
 920:Generated_Source\PSoC6\pdl\rtos\FreeRTOS\10.0.1\Source/stream_buffer.c **** 
 921:Generated_Source\PSoC6\pdl\rtos\FreeRTOS\10.0.1\Source/stream_buffer.c **** 	return xReturn;
 1644              		.loc 1 921 0
 1645 0040 7B69     		ldr	r3, [r7, #20]
 922:Generated_Source\PSoC6\pdl\rtos\FreeRTOS\10.0.1\Source/stream_buffer.c **** }
 1646              		.loc 1 922 0
 1647 0042 1846     		mov	r0, r3
 1648 0044 1C37     		adds	r7, r7, #28
 1649              		.cfi_def_cfa_offset 4
 1650 0046 BD46     		mov	sp, r7
 1651              		.cfi_def_cfa_register 13
 1652              		@ sp needed
 1653 0048 5DF8047B 		ldr	r7, [sp], #4
 1654              		.cfi_restore 7
 1655              		.cfi_def_cfa_offset 0
 1656 004c 7047     		bx	lr
 1657              		.cfi_endproc
 1658              	.LFE148:
 1659              		.size	xStreamBufferIsEmpty, .-xStreamBufferIsEmpty
 1660 004e 00BF     		.section	.text.xStreamBufferIsFull,"ax",%progbits
 1661              		.align	2
 1662              		.global	xStreamBufferIsFull
 1663              		.thumb
 1664              		.thumb_func
 1665              		.type	xStreamBufferIsFull, %function
 1666              	xStreamBufferIsFull:
 1667              	.LFB149:
 923:Generated_Source\PSoC6\pdl\rtos\FreeRTOS\10.0.1\Source/stream_buffer.c **** /*-----------------------------------------------------------*/
 924:Generated_Source\PSoC6\pdl\rtos\FreeRTOS\10.0.1\Source/stream_buffer.c **** 
 925:Generated_Source\PSoC6\pdl\rtos\FreeRTOS\10.0.1\Source/stream_buffer.c **** BaseType_t xStreamBufferIsFull( StreamBufferHandle_t xStreamBuffer )
 926:Generated_Source\PSoC6\pdl\rtos\FreeRTOS\10.0.1\Source/stream_buffer.c **** {
 1668              		.loc 1 926 0
ARM GAS  C:\Users\stijn\AppData\Local\Temp\cccniDcZ.s 			page 50


 1669              		.cfi_startproc
 1670              		@ args = 0, pretend = 0, frame = 24
 1671              		@ frame_needed = 1, uses_anonymous_args = 0
 1672 0000 80B5     		push	{r7, lr}
 1673              		.cfi_def_cfa_offset 8
 1674              		.cfi_offset 7, -8
 1675              		.cfi_offset 14, -4
 1676 0002 86B0     		sub	sp, sp, #24
 1677              		.cfi_def_cfa_offset 32
 1678 0004 00AF     		add	r7, sp, #0
 1679              		.cfi_def_cfa_register 7
 1680 0006 7860     		str	r0, [r7, #4]
 927:Generated_Source\PSoC6\pdl\rtos\FreeRTOS\10.0.1\Source/stream_buffer.c **** BaseType_t xReturn;
 928:Generated_Source\PSoC6\pdl\rtos\FreeRTOS\10.0.1\Source/stream_buffer.c **** size_t xBytesToStoreMessageLength;
 929:Generated_Source\PSoC6\pdl\rtos\FreeRTOS\10.0.1\Source/stream_buffer.c **** const StreamBuffer_t * const pxStreamBuffer = ( StreamBuffer_t * ) xStreamBuffer; /*lint !e9087 !e9
 1681              		.loc 1 929 0
 1682 0008 7B68     		ldr	r3, [r7, #4]
 1683 000a FB60     		str	r3, [r7, #12]
 930:Generated_Source\PSoC6\pdl\rtos\FreeRTOS\10.0.1\Source/stream_buffer.c **** 
 931:Generated_Source\PSoC6\pdl\rtos\FreeRTOS\10.0.1\Source/stream_buffer.c **** 	configASSERT( pxStreamBuffer );
 1684              		.loc 1 931 0
 1685 000c FB68     		ldr	r3, [r7, #12]
 1686 000e 002B     		cmp	r3, #0
 1687 0010 09D1     		bne	.L111
 1688              	.LBB123:
 1689              	.LBB124:
 156:Generated_Source\PSoC6\pdl\rtos/FreeRTOS/10.0.1/Source/portable/GCC/CM4F/portmacro.h **** 	(
 1690              		.loc 2 156 0 discriminator 1
 1691              		.syntax unified
 1692              	@ 156 "Generated_Source\PSoC6\pdl\rtos/FreeRTOS/10.0.1/Source/portable/GCC/CM4F/portmacro.h" 1
 1693 0012 4FF03F03 			mov r3, #63												
 1694 0016 83F31188 		msr basepri, r3											
 1695 001a BFF36F8F 		isb														
 1696 001e BFF34F8F 		dsb														
 1697              	
 1698              	@ 0 "" 2
 1699              		.thumb
 1700              		.syntax unified
 1701 0022 BB60     		str	r3, [r7, #8]
 1702              	.L112:
 1703              	.LBE124:
 1704              	.LBE123:
 1705              		.loc 1 931 0 discriminator 1
 1706 0024 FEE7     		b	.L112
 1707              	.L111:
 932:Generated_Source\PSoC6\pdl\rtos\FreeRTOS\10.0.1\Source/stream_buffer.c **** 
 933:Generated_Source\PSoC6\pdl\rtos\FreeRTOS\10.0.1\Source/stream_buffer.c **** 	/* This generic version of the receive function is used by both message
 934:Generated_Source\PSoC6\pdl\rtos\FreeRTOS\10.0.1\Source/stream_buffer.c **** 	buffers, which store discrete messages, and stream buffers, which store a
 935:Generated_Source\PSoC6\pdl\rtos\FreeRTOS\10.0.1\Source/stream_buffer.c **** 	continuous stream of bytes.  Discrete messages include an additional
 936:Generated_Source\PSoC6\pdl\rtos\FreeRTOS\10.0.1\Source/stream_buffer.c **** 	sbBYTES_TO_STORE_MESSAGE_LENGTH bytes that hold the length of the message. */
 937:Generated_Source\PSoC6\pdl\rtos\FreeRTOS\10.0.1\Source/stream_buffer.c **** 	if( ( pxStreamBuffer->ucFlags & sbFLAGS_IS_MESSAGE_BUFFER ) != ( uint8_t ) 0 )
 1708              		.loc 1 937 0
 1709 0026 FB68     		ldr	r3, [r7, #12]
 1710 0028 1B7F     		ldrb	r3, [r3, #28]	@ zero_extendqisi2
 1711 002a 03F00103 		and	r3, r3, #1
 1712 002e 002B     		cmp	r3, #0
 1713 0030 02D0     		beq	.L113
ARM GAS  C:\Users\stijn\AppData\Local\Temp\cccniDcZ.s 			page 51


 938:Generated_Source\PSoC6\pdl\rtos\FreeRTOS\10.0.1\Source/stream_buffer.c **** 	{
 939:Generated_Source\PSoC6\pdl\rtos\FreeRTOS\10.0.1\Source/stream_buffer.c **** 		xBytesToStoreMessageLength = sbBYTES_TO_STORE_MESSAGE_LENGTH;
 1714              		.loc 1 939 0
 1715 0032 0423     		movs	r3, #4
 1716 0034 3B61     		str	r3, [r7, #16]
 1717 0036 01E0     		b	.L114
 1718              	.L113:
 940:Generated_Source\PSoC6\pdl\rtos\FreeRTOS\10.0.1\Source/stream_buffer.c **** 	}
 941:Generated_Source\PSoC6\pdl\rtos\FreeRTOS\10.0.1\Source/stream_buffer.c **** 	else
 942:Generated_Source\PSoC6\pdl\rtos\FreeRTOS\10.0.1\Source/stream_buffer.c **** 	{
 943:Generated_Source\PSoC6\pdl\rtos\FreeRTOS\10.0.1\Source/stream_buffer.c **** 		xBytesToStoreMessageLength = 0;
 1719              		.loc 1 943 0
 1720 0038 0023     		movs	r3, #0
 1721 003a 3B61     		str	r3, [r7, #16]
 1722              	.L114:
 944:Generated_Source\PSoC6\pdl\rtos\FreeRTOS\10.0.1\Source/stream_buffer.c **** 	}
 945:Generated_Source\PSoC6\pdl\rtos\FreeRTOS\10.0.1\Source/stream_buffer.c **** 
 946:Generated_Source\PSoC6\pdl\rtos\FreeRTOS\10.0.1\Source/stream_buffer.c **** 	/* True if the available space equals zero. */
 947:Generated_Source\PSoC6\pdl\rtos\FreeRTOS\10.0.1\Source/stream_buffer.c **** 	if( xStreamBufferSpacesAvailable( xStreamBuffer ) <= xBytesToStoreMessageLength )
 1723              		.loc 1 947 0
 1724 003c 7868     		ldr	r0, [r7, #4]
 1725 003e FFF7FEFF 		bl	xStreamBufferSpacesAvailable
 1726 0042 0246     		mov	r2, r0
 1727 0044 3B69     		ldr	r3, [r7, #16]
 1728 0046 9A42     		cmp	r2, r3
 1729 0048 02D8     		bhi	.L115
 948:Generated_Source\PSoC6\pdl\rtos\FreeRTOS\10.0.1\Source/stream_buffer.c **** 	{
 949:Generated_Source\PSoC6\pdl\rtos\FreeRTOS\10.0.1\Source/stream_buffer.c **** 		xReturn = pdTRUE;
 1730              		.loc 1 949 0
 1731 004a 0123     		movs	r3, #1
 1732 004c 7B61     		str	r3, [r7, #20]
 1733 004e 01E0     		b	.L116
 1734              	.L115:
 950:Generated_Source\PSoC6\pdl\rtos\FreeRTOS\10.0.1\Source/stream_buffer.c **** 	}
 951:Generated_Source\PSoC6\pdl\rtos\FreeRTOS\10.0.1\Source/stream_buffer.c **** 	else
 952:Generated_Source\PSoC6\pdl\rtos\FreeRTOS\10.0.1\Source/stream_buffer.c **** 	{
 953:Generated_Source\PSoC6\pdl\rtos\FreeRTOS\10.0.1\Source/stream_buffer.c **** 		xReturn = pdFALSE;
 1735              		.loc 1 953 0
 1736 0050 0023     		movs	r3, #0
 1737 0052 7B61     		str	r3, [r7, #20]
 1738              	.L116:
 954:Generated_Source\PSoC6\pdl\rtos\FreeRTOS\10.0.1\Source/stream_buffer.c **** 	}
 955:Generated_Source\PSoC6\pdl\rtos\FreeRTOS\10.0.1\Source/stream_buffer.c **** 
 956:Generated_Source\PSoC6\pdl\rtos\FreeRTOS\10.0.1\Source/stream_buffer.c **** 	return xReturn;
 1739              		.loc 1 956 0
 1740 0054 7B69     		ldr	r3, [r7, #20]
 957:Generated_Source\PSoC6\pdl\rtos\FreeRTOS\10.0.1\Source/stream_buffer.c **** }
 1741              		.loc 1 957 0
 1742 0056 1846     		mov	r0, r3
 1743 0058 1837     		adds	r7, r7, #24
 1744              		.cfi_def_cfa_offset 8
 1745 005a BD46     		mov	sp, r7
 1746              		.cfi_def_cfa_register 13
 1747              		@ sp needed
 1748 005c 80BD     		pop	{r7, pc}
 1749              		.cfi_endproc
 1750              	.LFE149:
ARM GAS  C:\Users\stijn\AppData\Local\Temp\cccniDcZ.s 			page 52


 1751              		.size	xStreamBufferIsFull, .-xStreamBufferIsFull
 1752 005e 00BF     		.section	.text.xStreamBufferSendCompletedFromISR,"ax",%progbits
 1753              		.align	2
 1754              		.global	xStreamBufferSendCompletedFromISR
 1755              		.thumb
 1756              		.thumb_func
 1757              		.type	xStreamBufferSendCompletedFromISR, %function
 1758              	xStreamBufferSendCompletedFromISR:
 1759              	.LFB150:
 958:Generated_Source\PSoC6\pdl\rtos\FreeRTOS\10.0.1\Source/stream_buffer.c **** /*-----------------------------------------------------------*/
 959:Generated_Source\PSoC6\pdl\rtos\FreeRTOS\10.0.1\Source/stream_buffer.c **** 
 960:Generated_Source\PSoC6\pdl\rtos\FreeRTOS\10.0.1\Source/stream_buffer.c **** BaseType_t xStreamBufferSendCompletedFromISR( StreamBufferHandle_t xStreamBuffer, BaseType_t *pxHig
 961:Generated_Source\PSoC6\pdl\rtos\FreeRTOS\10.0.1\Source/stream_buffer.c **** {
 1760              		.loc 1 961 0
 1761              		.cfi_startproc
 1762              		@ args = 0, pretend = 0, frame = 40
 1763              		@ frame_needed = 1, uses_anonymous_args = 0
 1764 0000 80B5     		push	{r7, lr}
 1765              		.cfi_def_cfa_offset 8
 1766              		.cfi_offset 7, -8
 1767              		.cfi_offset 14, -4
 1768 0002 8CB0     		sub	sp, sp, #48
 1769              		.cfi_def_cfa_offset 56
 1770 0004 02AF     		add	r7, sp, #8
 1771              		.cfi_def_cfa 7, 48
 1772 0006 7860     		str	r0, [r7, #4]
 1773 0008 3960     		str	r1, [r7]
 962:Generated_Source\PSoC6\pdl\rtos\FreeRTOS\10.0.1\Source/stream_buffer.c **** StreamBuffer_t * const pxStreamBuffer = ( StreamBuffer_t * ) xStreamBuffer; /*lint !e9087 !e9079 Sa
 1774              		.loc 1 962 0
 1775 000a 7B68     		ldr	r3, [r7, #4]
 1776 000c 3B62     		str	r3, [r7, #32]
 963:Generated_Source\PSoC6\pdl\rtos\FreeRTOS\10.0.1\Source/stream_buffer.c **** BaseType_t xReturn;
 964:Generated_Source\PSoC6\pdl\rtos\FreeRTOS\10.0.1\Source/stream_buffer.c **** UBaseType_t uxSavedInterruptStatus;
 965:Generated_Source\PSoC6\pdl\rtos\FreeRTOS\10.0.1\Source/stream_buffer.c **** 
 966:Generated_Source\PSoC6\pdl\rtos\FreeRTOS\10.0.1\Source/stream_buffer.c **** 	configASSERT( pxStreamBuffer );
 1777              		.loc 1 966 0
 1778 000e 3B6A     		ldr	r3, [r7, #32]
 1779 0010 002B     		cmp	r3, #0
 1780 0012 09D1     		bne	.L119
 1781              	.LBB125:
 1782              	.LBB126:
 156:Generated_Source\PSoC6\pdl\rtos/FreeRTOS/10.0.1/Source/portable/GCC/CM4F/portmacro.h **** 	(
 1783              		.loc 2 156 0 discriminator 1
 1784              		.syntax unified
 1785              	@ 156 "Generated_Source\PSoC6\pdl\rtos/FreeRTOS/10.0.1/Source/portable/GCC/CM4F/portmacro.h" 1
 1786 0014 4FF03F03 			mov r3, #63												
 1787 0018 83F31188 		msr basepri, r3											
 1788 001c BFF36F8F 		isb														
 1789 0020 BFF34F8F 		dsb														
 1790              	
 1791              	@ 0 "" 2
 1792              		.thumb
 1793              		.syntax unified
 1794 0024 3B61     		str	r3, [r7, #16]
 1795              	.L120:
 1796              	.LBE126:
 1797              	.LBE125:
ARM GAS  C:\Users\stijn\AppData\Local\Temp\cccniDcZ.s 			page 53


 1798              		.loc 1 966 0 discriminator 1
 1799 0026 FEE7     		b	.L120
 1800              	.L119:
 1801              	.LBB127:
 1802              	.LBB128:
 172:Generated_Source\PSoC6\pdl\rtos/FreeRTOS/10.0.1/Source/portable/GCC/CM4F/portmacro.h **** 	(
 1803              		.loc 2 172 0
 1804              		.syntax unified
 1805              	@ 172 "Generated_Source\PSoC6\pdl\rtos/FreeRTOS/10.0.1/Source/portable/GCC/CM4F/portmacro.h" 1
 1806 0028 EFF31182 			mrs r2, basepri											
 1807 002c 4FF03F03 		mov r3, #63												
 1808 0030 83F31188 		msr basepri, r3											
 1809 0034 BFF36F8F 		isb														
 1810 0038 BFF34F8F 		dsb														
 1811              	
 1812              	@ 0 "" 2
 1813              		.thumb
 1814              		.syntax unified
 1815 003c 7A61     		str	r2, [r7, #20]
 1816 003e FB60     		str	r3, [r7, #12]
 184:Generated_Source\PSoC6\pdl\rtos/FreeRTOS/10.0.1/Source/portable/GCC/CM4F/portmacro.h **** }
 1817              		.loc 2 184 0
 1818 0040 7B69     		ldr	r3, [r7, #20]
 1819              	.LBE128:
 1820              	.LBE127:
 967:Generated_Source\PSoC6\pdl\rtos\FreeRTOS\10.0.1\Source/stream_buffer.c **** 
 968:Generated_Source\PSoC6\pdl\rtos\FreeRTOS\10.0.1\Source/stream_buffer.c **** 	uxSavedInterruptStatus = ( UBaseType_t ) portSET_INTERRUPT_MASK_FROM_ISR();
 1821              		.loc 1 968 0
 1822 0042 BB61     		str	r3, [r7, #24]
 969:Generated_Source\PSoC6\pdl\rtos\FreeRTOS\10.0.1\Source/stream_buffer.c **** 	{
 970:Generated_Source\PSoC6\pdl\rtos\FreeRTOS\10.0.1\Source/stream_buffer.c **** 		if( ( pxStreamBuffer )->xTaskWaitingToReceive != NULL )
 1823              		.loc 1 970 0
 1824 0044 3B6A     		ldr	r3, [r7, #32]
 1825 0046 1B69     		ldr	r3, [r3, #16]
 1826 0048 002B     		cmp	r3, #0
 1827 004a 0ED0     		beq	.L122
 971:Generated_Source\PSoC6\pdl\rtos\FreeRTOS\10.0.1\Source/stream_buffer.c **** 		{
 972:Generated_Source\PSoC6\pdl\rtos\FreeRTOS\10.0.1\Source/stream_buffer.c **** 			( void ) xTaskNotifyFromISR( ( pxStreamBuffer )->xTaskWaitingToReceive,
 1828              		.loc 1 972 0
 1829 004c 3B6A     		ldr	r3, [r7, #32]
 1830 004e 1869     		ldr	r0, [r3, #16]
 1831 0050 3B68     		ldr	r3, [r7]
 1832 0052 0093     		str	r3, [sp]
 1833 0054 0023     		movs	r3, #0
 1834 0056 0022     		movs	r2, #0
 1835 0058 0021     		movs	r1, #0
 1836 005a FFF7FEFF 		bl	xTaskGenericNotifyFromISR
 973:Generated_Source\PSoC6\pdl\rtos\FreeRTOS\10.0.1\Source/stream_buffer.c **** 										 ( uint32_t ) 0,
 974:Generated_Source\PSoC6\pdl\rtos\FreeRTOS\10.0.1\Source/stream_buffer.c **** 										 eNoAction,
 975:Generated_Source\PSoC6\pdl\rtos\FreeRTOS\10.0.1\Source/stream_buffer.c **** 										 pxHigherPriorityTaskWoken );
 976:Generated_Source\PSoC6\pdl\rtos\FreeRTOS\10.0.1\Source/stream_buffer.c **** 			( pxStreamBuffer )->xTaskWaitingToReceive = NULL;
 1837              		.loc 1 976 0
 1838 005e 3B6A     		ldr	r3, [r7, #32]
 1839 0060 0022     		movs	r2, #0
 1840 0062 1A61     		str	r2, [r3, #16]
 977:Generated_Source\PSoC6\pdl\rtos\FreeRTOS\10.0.1\Source/stream_buffer.c **** 			xReturn = pdTRUE;
 1841              		.loc 1 977 0
ARM GAS  C:\Users\stijn\AppData\Local\Temp\cccniDcZ.s 			page 54


 1842 0064 0123     		movs	r3, #1
 1843 0066 7B62     		str	r3, [r7, #36]
 1844 0068 01E0     		b	.L123
 1845              	.L122:
 978:Generated_Source\PSoC6\pdl\rtos\FreeRTOS\10.0.1\Source/stream_buffer.c **** 		}
 979:Generated_Source\PSoC6\pdl\rtos\FreeRTOS\10.0.1\Source/stream_buffer.c **** 		else
 980:Generated_Source\PSoC6\pdl\rtos\FreeRTOS\10.0.1\Source/stream_buffer.c **** 		{
 981:Generated_Source\PSoC6\pdl\rtos\FreeRTOS\10.0.1\Source/stream_buffer.c **** 			xReturn = pdFALSE;
 1846              		.loc 1 981 0
 1847 006a 0023     		movs	r3, #0
 1848 006c 7B62     		str	r3, [r7, #36]
 1849              	.L123:
 1850 006e BB69     		ldr	r3, [r7, #24]
 1851 0070 FB61     		str	r3, [r7, #28]
 1852              	.LBB129:
 1853              	.LBB130:
 1854              		.loc 2 190 0
 1855 0072 FB69     		ldr	r3, [r7, #28]
 1856              		.syntax unified
 1857              	@ 190 "Generated_Source\PSoC6\pdl\rtos/FreeRTOS/10.0.1/Source/portable/GCC/CM4F/portmacro.h" 1
 1858 0074 83F31188 			msr basepri, r3	
 1859              	@ 0 "" 2
 1860              		.thumb
 1861              		.syntax unified
 1862              	.LBE130:
 1863              	.LBE129:
 982:Generated_Source\PSoC6\pdl\rtos\FreeRTOS\10.0.1\Source/stream_buffer.c **** 		}
 983:Generated_Source\PSoC6\pdl\rtos\FreeRTOS\10.0.1\Source/stream_buffer.c **** 	}
 984:Generated_Source\PSoC6\pdl\rtos\FreeRTOS\10.0.1\Source/stream_buffer.c **** 	portCLEAR_INTERRUPT_MASK_FROM_ISR( uxSavedInterruptStatus );
 985:Generated_Source\PSoC6\pdl\rtos\FreeRTOS\10.0.1\Source/stream_buffer.c **** 
 986:Generated_Source\PSoC6\pdl\rtos\FreeRTOS\10.0.1\Source/stream_buffer.c **** 	return xReturn;
 1864              		.loc 1 986 0
 1865 0078 7B6A     		ldr	r3, [r7, #36]
 987:Generated_Source\PSoC6\pdl\rtos\FreeRTOS\10.0.1\Source/stream_buffer.c **** }
 1866              		.loc 1 987 0
 1867 007a 1846     		mov	r0, r3
 1868 007c 2837     		adds	r7, r7, #40
 1869              		.cfi_def_cfa_offset 8
 1870 007e BD46     		mov	sp, r7
 1871              		.cfi_def_cfa_register 13
 1872              		@ sp needed
 1873 0080 80BD     		pop	{r7, pc}
 1874              		.cfi_endproc
 1875              	.LFE150:
 1876              		.size	xStreamBufferSendCompletedFromISR, .-xStreamBufferSendCompletedFromISR
 1877 0082 00BF     		.section	.text.xStreamBufferReceiveCompletedFromISR,"ax",%progbits
 1878              		.align	2
 1879              		.global	xStreamBufferReceiveCompletedFromISR
 1880              		.thumb
 1881              		.thumb_func
 1882              		.type	xStreamBufferReceiveCompletedFromISR, %function
 1883              	xStreamBufferReceiveCompletedFromISR:
 1884              	.LFB151:
 988:Generated_Source\PSoC6\pdl\rtos\FreeRTOS\10.0.1\Source/stream_buffer.c **** /*-----------------------------------------------------------*/
 989:Generated_Source\PSoC6\pdl\rtos\FreeRTOS\10.0.1\Source/stream_buffer.c **** 
 990:Generated_Source\PSoC6\pdl\rtos\FreeRTOS\10.0.1\Source/stream_buffer.c **** BaseType_t xStreamBufferReceiveCompletedFromISR( StreamBufferHandle_t xStreamBuffer, BaseType_t *px
 991:Generated_Source\PSoC6\pdl\rtos\FreeRTOS\10.0.1\Source/stream_buffer.c **** {
ARM GAS  C:\Users\stijn\AppData\Local\Temp\cccniDcZ.s 			page 55


 1885              		.loc 1 991 0
 1886              		.cfi_startproc
 1887              		@ args = 0, pretend = 0, frame = 40
 1888              		@ frame_needed = 1, uses_anonymous_args = 0
 1889 0000 80B5     		push	{r7, lr}
 1890              		.cfi_def_cfa_offset 8
 1891              		.cfi_offset 7, -8
 1892              		.cfi_offset 14, -4
 1893 0002 8CB0     		sub	sp, sp, #48
 1894              		.cfi_def_cfa_offset 56
 1895 0004 02AF     		add	r7, sp, #8
 1896              		.cfi_def_cfa 7, 48
 1897 0006 7860     		str	r0, [r7, #4]
 1898 0008 3960     		str	r1, [r7]
 992:Generated_Source\PSoC6\pdl\rtos\FreeRTOS\10.0.1\Source/stream_buffer.c **** StreamBuffer_t * const pxStreamBuffer = ( StreamBuffer_t * ) xStreamBuffer; /*lint !e9087 !e9079 Sa
 1899              		.loc 1 992 0
 1900 000a 7B68     		ldr	r3, [r7, #4]
 1901 000c 3B62     		str	r3, [r7, #32]
 993:Generated_Source\PSoC6\pdl\rtos\FreeRTOS\10.0.1\Source/stream_buffer.c **** BaseType_t xReturn;
 994:Generated_Source\PSoC6\pdl\rtos\FreeRTOS\10.0.1\Source/stream_buffer.c **** UBaseType_t uxSavedInterruptStatus;
 995:Generated_Source\PSoC6\pdl\rtos\FreeRTOS\10.0.1\Source/stream_buffer.c **** 
 996:Generated_Source\PSoC6\pdl\rtos\FreeRTOS\10.0.1\Source/stream_buffer.c **** 	configASSERT( pxStreamBuffer );
 1902              		.loc 1 996 0
 1903 000e 3B6A     		ldr	r3, [r7, #32]
 1904 0010 002B     		cmp	r3, #0
 1905 0012 09D1     		bne	.L126
 1906              	.LBB131:
 1907              	.LBB132:
 156:Generated_Source\PSoC6\pdl\rtos/FreeRTOS/10.0.1/Source/portable/GCC/CM4F/portmacro.h **** 	(
 1908              		.loc 2 156 0 discriminator 1
 1909              		.syntax unified
 1910              	@ 156 "Generated_Source\PSoC6\pdl\rtos/FreeRTOS/10.0.1/Source/portable/GCC/CM4F/portmacro.h" 1
 1911 0014 4FF03F03 			mov r3, #63												
 1912 0018 83F31188 		msr basepri, r3											
 1913 001c BFF36F8F 		isb														
 1914 0020 BFF34F8F 		dsb														
 1915              	
 1916              	@ 0 "" 2
 1917              		.thumb
 1918              		.syntax unified
 1919 0024 3B61     		str	r3, [r7, #16]
 1920              	.L127:
 1921              	.LBE132:
 1922              	.LBE131:
 1923              		.loc 1 996 0 discriminator 1
 1924 0026 FEE7     		b	.L127
 1925              	.L126:
 1926              	.LBB133:
 1927              	.LBB134:
 172:Generated_Source\PSoC6\pdl\rtos/FreeRTOS/10.0.1/Source/portable/GCC/CM4F/portmacro.h **** 	(
 1928              		.loc 2 172 0
 1929              		.syntax unified
 1930              	@ 172 "Generated_Source\PSoC6\pdl\rtos/FreeRTOS/10.0.1/Source/portable/GCC/CM4F/portmacro.h" 1
 1931 0028 EFF31182 			mrs r2, basepri											
 1932 002c 4FF03F03 		mov r3, #63												
 1933 0030 83F31188 		msr basepri, r3											
 1934 0034 BFF36F8F 		isb														
ARM GAS  C:\Users\stijn\AppData\Local\Temp\cccniDcZ.s 			page 56


 1935 0038 BFF34F8F 		dsb														
 1936              	
 1937              	@ 0 "" 2
 1938              		.thumb
 1939              		.syntax unified
 1940 003c 7A61     		str	r2, [r7, #20]
 1941 003e FB60     		str	r3, [r7, #12]
 184:Generated_Source\PSoC6\pdl\rtos/FreeRTOS/10.0.1/Source/portable/GCC/CM4F/portmacro.h **** }
 1942              		.loc 2 184 0
 1943 0040 7B69     		ldr	r3, [r7, #20]
 1944              	.LBE134:
 1945              	.LBE133:
 997:Generated_Source\PSoC6\pdl\rtos\FreeRTOS\10.0.1\Source/stream_buffer.c **** 
 998:Generated_Source\PSoC6\pdl\rtos\FreeRTOS\10.0.1\Source/stream_buffer.c **** 	uxSavedInterruptStatus = ( UBaseType_t ) portSET_INTERRUPT_MASK_FROM_ISR();
 1946              		.loc 1 998 0
 1947 0042 BB61     		str	r3, [r7, #24]
 999:Generated_Source\PSoC6\pdl\rtos\FreeRTOS\10.0.1\Source/stream_buffer.c **** 	{
1000:Generated_Source\PSoC6\pdl\rtos\FreeRTOS\10.0.1\Source/stream_buffer.c **** 		if( ( pxStreamBuffer )->xTaskWaitingToSend != NULL )
 1948              		.loc 1 1000 0
 1949 0044 3B6A     		ldr	r3, [r7, #32]
 1950 0046 5B69     		ldr	r3, [r3, #20]
 1951 0048 002B     		cmp	r3, #0
 1952 004a 0ED0     		beq	.L129
1001:Generated_Source\PSoC6\pdl\rtos\FreeRTOS\10.0.1\Source/stream_buffer.c **** 		{
1002:Generated_Source\PSoC6\pdl\rtos\FreeRTOS\10.0.1\Source/stream_buffer.c **** 			( void ) xTaskNotifyFromISR( ( pxStreamBuffer )->xTaskWaitingToSend,
 1953              		.loc 1 1002 0
 1954 004c 3B6A     		ldr	r3, [r7, #32]
 1955 004e 5869     		ldr	r0, [r3, #20]
 1956 0050 3B68     		ldr	r3, [r7]
 1957 0052 0093     		str	r3, [sp]
 1958 0054 0023     		movs	r3, #0
 1959 0056 0022     		movs	r2, #0
 1960 0058 0021     		movs	r1, #0
 1961 005a FFF7FEFF 		bl	xTaskGenericNotifyFromISR
1003:Generated_Source\PSoC6\pdl\rtos\FreeRTOS\10.0.1\Source/stream_buffer.c **** 										 ( uint32_t ) 0,
1004:Generated_Source\PSoC6\pdl\rtos\FreeRTOS\10.0.1\Source/stream_buffer.c **** 										 eNoAction,
1005:Generated_Source\PSoC6\pdl\rtos\FreeRTOS\10.0.1\Source/stream_buffer.c **** 										 pxHigherPriorityTaskWoken );
1006:Generated_Source\PSoC6\pdl\rtos\FreeRTOS\10.0.1\Source/stream_buffer.c **** 			( pxStreamBuffer )->xTaskWaitingToSend = NULL;
 1962              		.loc 1 1006 0
 1963 005e 3B6A     		ldr	r3, [r7, #32]
 1964 0060 0022     		movs	r2, #0
 1965 0062 5A61     		str	r2, [r3, #20]
1007:Generated_Source\PSoC6\pdl\rtos\FreeRTOS\10.0.1\Source/stream_buffer.c **** 			xReturn = pdTRUE;
 1966              		.loc 1 1007 0
 1967 0064 0123     		movs	r3, #1
 1968 0066 7B62     		str	r3, [r7, #36]
 1969 0068 01E0     		b	.L130
 1970              	.L129:
1008:Generated_Source\PSoC6\pdl\rtos\FreeRTOS\10.0.1\Source/stream_buffer.c **** 		}
1009:Generated_Source\PSoC6\pdl\rtos\FreeRTOS\10.0.1\Source/stream_buffer.c **** 		else
1010:Generated_Source\PSoC6\pdl\rtos\FreeRTOS\10.0.1\Source/stream_buffer.c **** 		{
1011:Generated_Source\PSoC6\pdl\rtos\FreeRTOS\10.0.1\Source/stream_buffer.c **** 			xReturn = pdFALSE;
 1971              		.loc 1 1011 0
 1972 006a 0023     		movs	r3, #0
 1973 006c 7B62     		str	r3, [r7, #36]
 1974              	.L130:
 1975 006e BB69     		ldr	r3, [r7, #24]
ARM GAS  C:\Users\stijn\AppData\Local\Temp\cccniDcZ.s 			page 57


 1976 0070 FB61     		str	r3, [r7, #28]
 1977              	.LBB135:
 1978              	.LBB136:
 1979              		.loc 2 190 0
 1980 0072 FB69     		ldr	r3, [r7, #28]
 1981              		.syntax unified
 1982              	@ 190 "Generated_Source\PSoC6\pdl\rtos/FreeRTOS/10.0.1/Source/portable/GCC/CM4F/portmacro.h" 1
 1983 0074 83F31188 			msr basepri, r3	
 1984              	@ 0 "" 2
 1985              		.thumb
 1986              		.syntax unified
 1987              	.LBE136:
 1988              	.LBE135:
1012:Generated_Source\PSoC6\pdl\rtos\FreeRTOS\10.0.1\Source/stream_buffer.c **** 		}
1013:Generated_Source\PSoC6\pdl\rtos\FreeRTOS\10.0.1\Source/stream_buffer.c **** 	}
1014:Generated_Source\PSoC6\pdl\rtos\FreeRTOS\10.0.1\Source/stream_buffer.c **** 	portCLEAR_INTERRUPT_MASK_FROM_ISR( uxSavedInterruptStatus );
1015:Generated_Source\PSoC6\pdl\rtos\FreeRTOS\10.0.1\Source/stream_buffer.c **** 
1016:Generated_Source\PSoC6\pdl\rtos\FreeRTOS\10.0.1\Source/stream_buffer.c **** 	return xReturn;
 1989              		.loc 1 1016 0
 1990 0078 7B6A     		ldr	r3, [r7, #36]
1017:Generated_Source\PSoC6\pdl\rtos\FreeRTOS\10.0.1\Source/stream_buffer.c **** }
 1991              		.loc 1 1017 0
 1992 007a 1846     		mov	r0, r3
 1993 007c 2837     		adds	r7, r7, #40
 1994              		.cfi_def_cfa_offset 8
 1995 007e BD46     		mov	sp, r7
 1996              		.cfi_def_cfa_register 13
 1997              		@ sp needed
 1998 0080 80BD     		pop	{r7, pc}
 1999              		.cfi_endproc
 2000              	.LFE151:
 2001              		.size	xStreamBufferReceiveCompletedFromISR, .-xStreamBufferReceiveCompletedFromISR
 2002 0082 00BF     		.section	.text.prvWriteBytesToBuffer,"ax",%progbits
 2003              		.align	2
 2004              		.thumb
 2005              		.thumb_func
 2006              		.type	prvWriteBytesToBuffer, %function
 2007              	prvWriteBytesToBuffer:
 2008              	.LFB152:
1018:Generated_Source\PSoC6\pdl\rtos\FreeRTOS\10.0.1\Source/stream_buffer.c **** /*-----------------------------------------------------------*/
1019:Generated_Source\PSoC6\pdl\rtos\FreeRTOS\10.0.1\Source/stream_buffer.c **** 
1020:Generated_Source\PSoC6\pdl\rtos\FreeRTOS\10.0.1\Source/stream_buffer.c **** static size_t prvWriteBytesToBuffer( StreamBuffer_t * const pxStreamBuffer, const uint8_t *pucData,
1021:Generated_Source\PSoC6\pdl\rtos\FreeRTOS\10.0.1\Source/stream_buffer.c **** {
 2009              		.loc 1 1021 0
 2010              		.cfi_startproc
 2011              		@ args = 0, pretend = 0, frame = 40
 2012              		@ frame_needed = 1, uses_anonymous_args = 0
 2013 0000 80B5     		push	{r7, lr}
 2014              		.cfi_def_cfa_offset 8
 2015              		.cfi_offset 7, -8
 2016              		.cfi_offset 14, -4
 2017 0002 8AB0     		sub	sp, sp, #40
 2018              		.cfi_def_cfa_offset 48
 2019 0004 00AF     		add	r7, sp, #0
 2020              		.cfi_def_cfa_register 7
 2021 0006 F860     		str	r0, [r7, #12]
 2022 0008 B960     		str	r1, [r7, #8]
ARM GAS  C:\Users\stijn\AppData\Local\Temp\cccniDcZ.s 			page 58


 2023 000a 7A60     		str	r2, [r7, #4]
1022:Generated_Source\PSoC6\pdl\rtos\FreeRTOS\10.0.1\Source/stream_buffer.c **** size_t xNextHead, xFirstLength;
1023:Generated_Source\PSoC6\pdl\rtos\FreeRTOS\10.0.1\Source/stream_buffer.c **** 
1024:Generated_Source\PSoC6\pdl\rtos\FreeRTOS\10.0.1\Source/stream_buffer.c **** 	configASSERT( xCount > ( size_t ) 0 );
 2024              		.loc 1 1024 0
 2025 000c 7B68     		ldr	r3, [r7, #4]
 2026 000e 002B     		cmp	r3, #0
 2027 0010 09D1     		bne	.L133
 2028              	.LBB137:
 2029              	.LBB138:
 156:Generated_Source\PSoC6\pdl\rtos/FreeRTOS/10.0.1/Source/portable/GCC/CM4F/portmacro.h **** 	(
 2030              		.loc 2 156 0 discriminator 1
 2031              		.syntax unified
 2032              	@ 156 "Generated_Source\PSoC6\pdl\rtos/FreeRTOS/10.0.1/Source/portable/GCC/CM4F/portmacro.h" 1
 2033 0012 4FF03F03 			mov r3, #63												
 2034 0016 83F31188 		msr basepri, r3											
 2035 001a BFF36F8F 		isb														
 2036 001e BFF34F8F 		dsb														
 2037              	
 2038              	@ 0 "" 2
 2039              		.thumb
 2040              		.syntax unified
 2041 0022 7B61     		str	r3, [r7, #20]
 2042              	.L134:
 2043              	.LBE138:
 2044              	.LBE137:
 2045              		.loc 1 1024 0 discriminator 1
 2046 0024 FEE7     		b	.L134
 2047              	.L133:
1025:Generated_Source\PSoC6\pdl\rtos\FreeRTOS\10.0.1\Source/stream_buffer.c **** 
1026:Generated_Source\PSoC6\pdl\rtos\FreeRTOS\10.0.1\Source/stream_buffer.c **** 	xNextHead = pxStreamBuffer->xHead;
 2048              		.loc 1 1026 0
 2049 0026 FB68     		ldr	r3, [r7, #12]
 2050 0028 5B68     		ldr	r3, [r3, #4]
 2051 002a 7B62     		str	r3, [r7, #36]
1027:Generated_Source\PSoC6\pdl\rtos\FreeRTOS\10.0.1\Source/stream_buffer.c **** 
1028:Generated_Source\PSoC6\pdl\rtos\FreeRTOS\10.0.1\Source/stream_buffer.c **** 	/* Calculate the number of bytes that can be added in the first write -
1029:Generated_Source\PSoC6\pdl\rtos\FreeRTOS\10.0.1\Source/stream_buffer.c **** 	which may be less than the total number of bytes that need to be added if
1030:Generated_Source\PSoC6\pdl\rtos\FreeRTOS\10.0.1\Source/stream_buffer.c **** 	the buffer will wrap back to the beginning. */
1031:Generated_Source\PSoC6\pdl\rtos\FreeRTOS\10.0.1\Source/stream_buffer.c **** 	xFirstLength = configMIN( pxStreamBuffer->xLength - xNextHead, xCount );
 2052              		.loc 1 1031 0
 2053 002c FB68     		ldr	r3, [r7, #12]
 2054 002e 9A68     		ldr	r2, [r3, #8]
 2055 0030 7B6A     		ldr	r3, [r7, #36]
 2056 0032 D21A     		subs	r2, r2, r3
 2057 0034 7B68     		ldr	r3, [r7, #4]
 2058 0036 9342     		cmp	r3, r2
 2059 0038 28BF     		it	cs
 2060 003a 1346     		movcs	r3, r2
 2061 003c 3B62     		str	r3, [r7, #32]
1032:Generated_Source\PSoC6\pdl\rtos\FreeRTOS\10.0.1\Source/stream_buffer.c **** 
1033:Generated_Source\PSoC6\pdl\rtos\FreeRTOS\10.0.1\Source/stream_buffer.c **** 	/* Write as many bytes as can be written in the first write. */
1034:Generated_Source\PSoC6\pdl\rtos\FreeRTOS\10.0.1\Source/stream_buffer.c **** 	configASSERT( ( xNextHead + xFirstLength ) <= pxStreamBuffer->xLength );
 2062              		.loc 1 1034 0
 2063 003e 7A6A     		ldr	r2, [r7, #36]
 2064 0040 3B6A     		ldr	r3, [r7, #32]
 2065 0042 1A44     		add	r2, r2, r3
ARM GAS  C:\Users\stijn\AppData\Local\Temp\cccniDcZ.s 			page 59


 2066 0044 FB68     		ldr	r3, [r7, #12]
 2067 0046 9B68     		ldr	r3, [r3, #8]
 2068 0048 9A42     		cmp	r2, r3
 2069 004a 09D9     		bls	.L135
 2070              	.LBB139:
 2071              	.LBB140:
 156:Generated_Source\PSoC6\pdl\rtos/FreeRTOS/10.0.1/Source/portable/GCC/CM4F/portmacro.h **** 	(
 2072              		.loc 2 156 0 discriminator 1
 2073              		.syntax unified
 2074              	@ 156 "Generated_Source\PSoC6\pdl\rtos/FreeRTOS/10.0.1/Source/portable/GCC/CM4F/portmacro.h" 1
 2075 004c 4FF03F03 			mov r3, #63												
 2076 0050 83F31188 		msr basepri, r3											
 2077 0054 BFF36F8F 		isb														
 2078 0058 BFF34F8F 		dsb														
 2079              	
 2080              	@ 0 "" 2
 2081              		.thumb
 2082              		.syntax unified
 2083 005c BB61     		str	r3, [r7, #24]
 2084              	.L136:
 2085              	.LBE140:
 2086              	.LBE139:
 2087              		.loc 1 1034 0 discriminator 2
 2088 005e FEE7     		b	.L136
 2089              	.L135:
1035:Generated_Source\PSoC6\pdl\rtos\FreeRTOS\10.0.1\Source/stream_buffer.c **** 	memcpy( ( void* ) ( &( pxStreamBuffer->pucBuffer[ xNextHead ] ) ), ( const void * ) pucData, xFirs
 2090              		.loc 1 1035 0
 2091 0060 FB68     		ldr	r3, [r7, #12]
 2092 0062 9A69     		ldr	r2, [r3, #24]
 2093 0064 7B6A     		ldr	r3, [r7, #36]
 2094 0066 1344     		add	r3, r3, r2
 2095 0068 3A6A     		ldr	r2, [r7, #32]
 2096 006a B968     		ldr	r1, [r7, #8]
 2097 006c 1846     		mov	r0, r3
 2098 006e FFF7FEFF 		bl	memcpy
1036:Generated_Source\PSoC6\pdl\rtos\FreeRTOS\10.0.1\Source/stream_buffer.c **** 
1037:Generated_Source\PSoC6\pdl\rtos\FreeRTOS\10.0.1\Source/stream_buffer.c **** 	/* If the number of bytes written was less than the number that could be
1038:Generated_Source\PSoC6\pdl\rtos\FreeRTOS\10.0.1\Source/stream_buffer.c **** 	written in the first write... */
1039:Generated_Source\PSoC6\pdl\rtos\FreeRTOS\10.0.1\Source/stream_buffer.c **** 	if( xCount > xFirstLength )
 2099              		.loc 1 1039 0
 2100 0072 7A68     		ldr	r2, [r7, #4]
 2101 0074 3B6A     		ldr	r3, [r7, #32]
 2102 0076 9A42     		cmp	r2, r3
 2103 0078 1BD9     		bls	.L137
1040:Generated_Source\PSoC6\pdl\rtos\FreeRTOS\10.0.1\Source/stream_buffer.c **** 	{
1041:Generated_Source\PSoC6\pdl\rtos\FreeRTOS\10.0.1\Source/stream_buffer.c **** 		/* ...then write the remaining bytes to the start of the buffer. */
1042:Generated_Source\PSoC6\pdl\rtos\FreeRTOS\10.0.1\Source/stream_buffer.c **** 		configASSERT( ( xCount - xFirstLength ) <= pxStreamBuffer->xLength );
 2104              		.loc 1 1042 0
 2105 007a 7A68     		ldr	r2, [r7, #4]
 2106 007c 3B6A     		ldr	r3, [r7, #32]
 2107 007e D21A     		subs	r2, r2, r3
 2108 0080 FB68     		ldr	r3, [r7, #12]
 2109 0082 9B68     		ldr	r3, [r3, #8]
 2110 0084 9A42     		cmp	r2, r3
 2111 0086 09D9     		bls	.L138
 2112              	.LBB141:
 2113              	.LBB142:
ARM GAS  C:\Users\stijn\AppData\Local\Temp\cccniDcZ.s 			page 60


 156:Generated_Source\PSoC6\pdl\rtos/FreeRTOS/10.0.1/Source/portable/GCC/CM4F/portmacro.h **** 	(
 2114              		.loc 2 156 0 discriminator 1
 2115              		.syntax unified
 2116              	@ 156 "Generated_Source\PSoC6\pdl\rtos/FreeRTOS/10.0.1/Source/portable/GCC/CM4F/portmacro.h" 1
 2117 0088 4FF03F03 			mov r3, #63												
 2118 008c 83F31188 		msr basepri, r3											
 2119 0090 BFF36F8F 		isb														
 2120 0094 BFF34F8F 		dsb														
 2121              	
 2122              	@ 0 "" 2
 2123              		.thumb
 2124              		.syntax unified
 2125 0098 FB61     		str	r3, [r7, #28]
 2126              	.L139:
 2127              	.LBE142:
 2128              	.LBE141:
 2129              		.loc 1 1042 0 discriminator 3
 2130 009a FEE7     		b	.L139
 2131              	.L138:
1043:Generated_Source\PSoC6\pdl\rtos\FreeRTOS\10.0.1\Source/stream_buffer.c **** 		memcpy( ( void * ) pxStreamBuffer->pucBuffer, ( const void * ) &( pucData[ xFirstLength ] ), xCou
 2132              		.loc 1 1043 0
 2133 009c FB68     		ldr	r3, [r7, #12]
 2134 009e 9869     		ldr	r0, [r3, #24]
 2135 00a0 BA68     		ldr	r2, [r7, #8]
 2136 00a2 3B6A     		ldr	r3, [r7, #32]
 2137 00a4 D118     		adds	r1, r2, r3
 2138 00a6 7A68     		ldr	r2, [r7, #4]
 2139 00a8 3B6A     		ldr	r3, [r7, #32]
 2140 00aa D31A     		subs	r3, r2, r3
 2141 00ac 1A46     		mov	r2, r3
 2142 00ae FFF7FEFF 		bl	memcpy
 2143              	.L137:
1044:Generated_Source\PSoC6\pdl\rtos\FreeRTOS\10.0.1\Source/stream_buffer.c **** 	}
1045:Generated_Source\PSoC6\pdl\rtos\FreeRTOS\10.0.1\Source/stream_buffer.c **** 	else
1046:Generated_Source\PSoC6\pdl\rtos\FreeRTOS\10.0.1\Source/stream_buffer.c **** 	{
1047:Generated_Source\PSoC6\pdl\rtos\FreeRTOS\10.0.1\Source/stream_buffer.c **** 		mtCOVERAGE_TEST_MARKER();
1048:Generated_Source\PSoC6\pdl\rtos\FreeRTOS\10.0.1\Source/stream_buffer.c **** 	}
1049:Generated_Source\PSoC6\pdl\rtos\FreeRTOS\10.0.1\Source/stream_buffer.c **** 
1050:Generated_Source\PSoC6\pdl\rtos\FreeRTOS\10.0.1\Source/stream_buffer.c **** 	xNextHead += xCount;
 2144              		.loc 1 1050 0
 2145 00b2 7A6A     		ldr	r2, [r7, #36]
 2146 00b4 7B68     		ldr	r3, [r7, #4]
 2147 00b6 1344     		add	r3, r3, r2
 2148 00b8 7B62     		str	r3, [r7, #36]
1051:Generated_Source\PSoC6\pdl\rtos\FreeRTOS\10.0.1\Source/stream_buffer.c **** 	if( xNextHead >= pxStreamBuffer->xLength )
 2149              		.loc 1 1051 0
 2150 00ba FB68     		ldr	r3, [r7, #12]
 2151 00bc 9A68     		ldr	r2, [r3, #8]
 2152 00be 7B6A     		ldr	r3, [r7, #36]
 2153 00c0 9A42     		cmp	r2, r3
 2154 00c2 04D8     		bhi	.L140
1052:Generated_Source\PSoC6\pdl\rtos\FreeRTOS\10.0.1\Source/stream_buffer.c **** 	{
1053:Generated_Source\PSoC6\pdl\rtos\FreeRTOS\10.0.1\Source/stream_buffer.c **** 		xNextHead -= pxStreamBuffer->xLength;
 2155              		.loc 1 1053 0
 2156 00c4 FB68     		ldr	r3, [r7, #12]
 2157 00c6 9B68     		ldr	r3, [r3, #8]
 2158 00c8 7A6A     		ldr	r2, [r7, #36]
ARM GAS  C:\Users\stijn\AppData\Local\Temp\cccniDcZ.s 			page 61


 2159 00ca D31A     		subs	r3, r2, r3
 2160 00cc 7B62     		str	r3, [r7, #36]
 2161              	.L140:
1054:Generated_Source\PSoC6\pdl\rtos\FreeRTOS\10.0.1\Source/stream_buffer.c **** 	}
1055:Generated_Source\PSoC6\pdl\rtos\FreeRTOS\10.0.1\Source/stream_buffer.c **** 	else
1056:Generated_Source\PSoC6\pdl\rtos\FreeRTOS\10.0.1\Source/stream_buffer.c **** 	{
1057:Generated_Source\PSoC6\pdl\rtos\FreeRTOS\10.0.1\Source/stream_buffer.c **** 		mtCOVERAGE_TEST_MARKER();
1058:Generated_Source\PSoC6\pdl\rtos\FreeRTOS\10.0.1\Source/stream_buffer.c **** 	}
1059:Generated_Source\PSoC6\pdl\rtos\FreeRTOS\10.0.1\Source/stream_buffer.c **** 
1060:Generated_Source\PSoC6\pdl\rtos\FreeRTOS\10.0.1\Source/stream_buffer.c **** 	pxStreamBuffer->xHead = xNextHead;
 2162              		.loc 1 1060 0
 2163 00ce FB68     		ldr	r3, [r7, #12]
 2164 00d0 7A6A     		ldr	r2, [r7, #36]
 2165 00d2 5A60     		str	r2, [r3, #4]
1061:Generated_Source\PSoC6\pdl\rtos\FreeRTOS\10.0.1\Source/stream_buffer.c **** 
1062:Generated_Source\PSoC6\pdl\rtos\FreeRTOS\10.0.1\Source/stream_buffer.c **** 	return xCount;
 2166              		.loc 1 1062 0
 2167 00d4 7B68     		ldr	r3, [r7, #4]
1063:Generated_Source\PSoC6\pdl\rtos\FreeRTOS\10.0.1\Source/stream_buffer.c **** }
 2168              		.loc 1 1063 0
 2169 00d6 1846     		mov	r0, r3
 2170 00d8 2837     		adds	r7, r7, #40
 2171              		.cfi_def_cfa_offset 8
 2172 00da BD46     		mov	sp, r7
 2173              		.cfi_def_cfa_register 13
 2174              		@ sp needed
 2175 00dc 80BD     		pop	{r7, pc}
 2176              		.cfi_endproc
 2177              	.LFE152:
 2178              		.size	prvWriteBytesToBuffer, .-prvWriteBytesToBuffer
 2179 00de 00BF     		.section	.text.prvReadBytesFromBuffer,"ax",%progbits
 2180              		.align	2
 2181              		.thumb
 2182              		.thumb_func
 2183              		.type	prvReadBytesFromBuffer, %function
 2184              	prvReadBytesFromBuffer:
 2185              	.LFB153:
1064:Generated_Source\PSoC6\pdl\rtos\FreeRTOS\10.0.1\Source/stream_buffer.c **** /*-----------------------------------------------------------*/
1065:Generated_Source\PSoC6\pdl\rtos\FreeRTOS\10.0.1\Source/stream_buffer.c **** 
1066:Generated_Source\PSoC6\pdl\rtos\FreeRTOS\10.0.1\Source/stream_buffer.c **** static size_t prvReadBytesFromBuffer( StreamBuffer_t *pxStreamBuffer, uint8_t *pucData, size_t xMax
1067:Generated_Source\PSoC6\pdl\rtos\FreeRTOS\10.0.1\Source/stream_buffer.c **** {
 2186              		.loc 1 1067 0
 2187              		.cfi_startproc
 2188              		@ args = 0, pretend = 0, frame = 40
 2189              		@ frame_needed = 1, uses_anonymous_args = 0
 2190 0000 80B5     		push	{r7, lr}
 2191              		.cfi_def_cfa_offset 8
 2192              		.cfi_offset 7, -8
 2193              		.cfi_offset 14, -4
 2194 0002 8AB0     		sub	sp, sp, #40
 2195              		.cfi_def_cfa_offset 48
 2196 0004 00AF     		add	r7, sp, #0
 2197              		.cfi_def_cfa_register 7
 2198 0006 F860     		str	r0, [r7, #12]
 2199 0008 B960     		str	r1, [r7, #8]
 2200 000a 7A60     		str	r2, [r7, #4]
 2201 000c 3B60     		str	r3, [r7]
ARM GAS  C:\Users\stijn\AppData\Local\Temp\cccniDcZ.s 			page 62


1068:Generated_Source\PSoC6\pdl\rtos\FreeRTOS\10.0.1\Source/stream_buffer.c **** size_t xCount, xFirstLength, xNextTail;
1069:Generated_Source\PSoC6\pdl\rtos\FreeRTOS\10.0.1\Source/stream_buffer.c **** 
1070:Generated_Source\PSoC6\pdl\rtos\FreeRTOS\10.0.1\Source/stream_buffer.c **** 	/* Use the minimum of the wanted bytes and the available bytes. */
1071:Generated_Source\PSoC6\pdl\rtos\FreeRTOS\10.0.1\Source/stream_buffer.c **** 	xCount = configMIN( xBytesAvailable, xMaxCount );
 2202              		.loc 1 1071 0
 2203 000e 7A68     		ldr	r2, [r7, #4]
 2204 0010 3B68     		ldr	r3, [r7]
 2205 0012 9342     		cmp	r3, r2
 2206 0014 28BF     		it	cs
 2207 0016 1346     		movcs	r3, r2
 2208 0018 3B62     		str	r3, [r7, #32]
1072:Generated_Source\PSoC6\pdl\rtos\FreeRTOS\10.0.1\Source/stream_buffer.c **** 
1073:Generated_Source\PSoC6\pdl\rtos\FreeRTOS\10.0.1\Source/stream_buffer.c **** 	if( xCount > ( size_t ) 0 )
 2209              		.loc 1 1073 0
 2210 001a 3B6A     		ldr	r3, [r7, #32]
 2211 001c 002B     		cmp	r3, #0
 2212 001e 61D0     		beq	.L143
1074:Generated_Source\PSoC6\pdl\rtos\FreeRTOS\10.0.1\Source/stream_buffer.c **** 	{
1075:Generated_Source\PSoC6\pdl\rtos\FreeRTOS\10.0.1\Source/stream_buffer.c **** 		xNextTail = pxStreamBuffer->xTail;
 2213              		.loc 1 1075 0
 2214 0020 FB68     		ldr	r3, [r7, #12]
 2215 0022 1B68     		ldr	r3, [r3]
 2216 0024 7B62     		str	r3, [r7, #36]
1076:Generated_Source\PSoC6\pdl\rtos\FreeRTOS\10.0.1\Source/stream_buffer.c **** 
1077:Generated_Source\PSoC6\pdl\rtos\FreeRTOS\10.0.1\Source/stream_buffer.c **** 		/* Calculate the number of bytes that can be read - which may be
1078:Generated_Source\PSoC6\pdl\rtos\FreeRTOS\10.0.1\Source/stream_buffer.c **** 		less than the number wanted if the data wraps around to the start of
1079:Generated_Source\PSoC6\pdl\rtos\FreeRTOS\10.0.1\Source/stream_buffer.c **** 		the buffer. */
1080:Generated_Source\PSoC6\pdl\rtos\FreeRTOS\10.0.1\Source/stream_buffer.c **** 		xFirstLength = configMIN( pxStreamBuffer->xLength - xNextTail, xCount );
 2217              		.loc 1 1080 0
 2218 0026 FB68     		ldr	r3, [r7, #12]
 2219 0028 9A68     		ldr	r2, [r3, #8]
 2220 002a 7B6A     		ldr	r3, [r7, #36]
 2221 002c D21A     		subs	r2, r2, r3
 2222 002e 3B6A     		ldr	r3, [r7, #32]
 2223 0030 9342     		cmp	r3, r2
 2224 0032 28BF     		it	cs
 2225 0034 1346     		movcs	r3, r2
 2226 0036 FB61     		str	r3, [r7, #28]
1081:Generated_Source\PSoC6\pdl\rtos\FreeRTOS\10.0.1\Source/stream_buffer.c **** 
1082:Generated_Source\PSoC6\pdl\rtos\FreeRTOS\10.0.1\Source/stream_buffer.c **** 		/* Obtain the number of bytes it is possible to obtain in the first
1083:Generated_Source\PSoC6\pdl\rtos\FreeRTOS\10.0.1\Source/stream_buffer.c **** 		read.  Asserts check bounds of read and write. */
1084:Generated_Source\PSoC6\pdl\rtos\FreeRTOS\10.0.1\Source/stream_buffer.c **** 		configASSERT( xFirstLength <= xMaxCount );
 2227              		.loc 1 1084 0
 2228 0038 FA69     		ldr	r2, [r7, #28]
 2229 003a 7B68     		ldr	r3, [r7, #4]
 2230 003c 9A42     		cmp	r2, r3
 2231 003e 09D9     		bls	.L144
 2232              	.LBB143:
 2233              	.LBB144:
 156:Generated_Source\PSoC6\pdl\rtos/FreeRTOS/10.0.1/Source/portable/GCC/CM4F/portmacro.h **** 	(
 2234              		.loc 2 156 0 discriminator 1
 2235              		.syntax unified
 2236              	@ 156 "Generated_Source\PSoC6\pdl\rtos/FreeRTOS/10.0.1/Source/portable/GCC/CM4F/portmacro.h" 1
 2237 0040 4FF03F03 			mov r3, #63												
 2238 0044 83F31188 		msr basepri, r3											
 2239 0048 BFF36F8F 		isb														
 2240 004c BFF34F8F 		dsb														
ARM GAS  C:\Users\stijn\AppData\Local\Temp\cccniDcZ.s 			page 63


 2241              	
 2242              	@ 0 "" 2
 2243              		.thumb
 2244              		.syntax unified
 2245 0050 3B61     		str	r3, [r7, #16]
 2246              	.L145:
 2247              	.LBE144:
 2248              	.LBE143:
 2249              		.loc 1 1084 0 discriminator 1
 2250 0052 FEE7     		b	.L145
 2251              	.L144:
1085:Generated_Source\PSoC6\pdl\rtos\FreeRTOS\10.0.1\Source/stream_buffer.c **** 		configASSERT( ( xNextTail + xFirstLength ) <= pxStreamBuffer->xLength );
 2252              		.loc 1 1085 0
 2253 0054 7A6A     		ldr	r2, [r7, #36]
 2254 0056 FB69     		ldr	r3, [r7, #28]
 2255 0058 1A44     		add	r2, r2, r3
 2256 005a FB68     		ldr	r3, [r7, #12]
 2257 005c 9B68     		ldr	r3, [r3, #8]
 2258 005e 9A42     		cmp	r2, r3
 2259 0060 09D9     		bls	.L146
 2260              	.LBB145:
 2261              	.LBB146:
 156:Generated_Source\PSoC6\pdl\rtos/FreeRTOS/10.0.1/Source/portable/GCC/CM4F/portmacro.h **** 	(
 2262              		.loc 2 156 0 discriminator 1
 2263              		.syntax unified
 2264              	@ 156 "Generated_Source\PSoC6\pdl\rtos/FreeRTOS/10.0.1/Source/portable/GCC/CM4F/portmacro.h" 1
 2265 0062 4FF03F03 			mov r3, #63												
 2266 0066 83F31188 		msr basepri, r3											
 2267 006a BFF36F8F 		isb														
 2268 006e BFF34F8F 		dsb														
 2269              	
 2270              	@ 0 "" 2
 2271              		.thumb
 2272              		.syntax unified
 2273 0072 7B61     		str	r3, [r7, #20]
 2274              	.L147:
 2275              	.LBE146:
 2276              	.LBE145:
 2277              		.loc 1 1085 0 discriminator 2
 2278 0074 FEE7     		b	.L147
 2279              	.L146:
1086:Generated_Source\PSoC6\pdl\rtos\FreeRTOS\10.0.1\Source/stream_buffer.c **** 		memcpy( ( void * ) pucData, ( const void * ) &( pxStreamBuffer->pucBuffer[ xNextTail ] ), xFirstL
 2280              		.loc 1 1086 0
 2281 0076 FB68     		ldr	r3, [r7, #12]
 2282 0078 9A69     		ldr	r2, [r3, #24]
 2283 007a 7B6A     		ldr	r3, [r7, #36]
 2284 007c 1344     		add	r3, r3, r2
 2285 007e FA69     		ldr	r2, [r7, #28]
 2286 0080 1946     		mov	r1, r3
 2287 0082 B868     		ldr	r0, [r7, #8]
 2288 0084 FFF7FEFF 		bl	memcpy
1087:Generated_Source\PSoC6\pdl\rtos\FreeRTOS\10.0.1\Source/stream_buffer.c **** 
1088:Generated_Source\PSoC6\pdl\rtos\FreeRTOS\10.0.1\Source/stream_buffer.c **** 		/* If the total number of wanted bytes is greater than the number
1089:Generated_Source\PSoC6\pdl\rtos\FreeRTOS\10.0.1\Source/stream_buffer.c **** 		that could be read in the first read... */
1090:Generated_Source\PSoC6\pdl\rtos\FreeRTOS\10.0.1\Source/stream_buffer.c **** 		if( xCount > xFirstLength )
 2289              		.loc 1 1090 0
 2290 0088 3A6A     		ldr	r2, [r7, #32]
ARM GAS  C:\Users\stijn\AppData\Local\Temp\cccniDcZ.s 			page 64


 2291 008a FB69     		ldr	r3, [r7, #28]
 2292 008c 9A42     		cmp	r2, r3
 2293 008e 18D9     		bls	.L148
1091:Generated_Source\PSoC6\pdl\rtos\FreeRTOS\10.0.1\Source/stream_buffer.c **** 		{
1092:Generated_Source\PSoC6\pdl\rtos\FreeRTOS\10.0.1\Source/stream_buffer.c **** 			/*...then read the remaining bytes from the start of the buffer. */
1093:Generated_Source\PSoC6\pdl\rtos\FreeRTOS\10.0.1\Source/stream_buffer.c **** 			configASSERT( xCount <= xMaxCount );
 2294              		.loc 1 1093 0
 2295 0090 3A6A     		ldr	r2, [r7, #32]
 2296 0092 7B68     		ldr	r3, [r7, #4]
 2297 0094 9A42     		cmp	r2, r3
 2298 0096 09D9     		bls	.L149
 2299              	.LBB147:
 2300              	.LBB148:
 156:Generated_Source\PSoC6\pdl\rtos/FreeRTOS/10.0.1/Source/portable/GCC/CM4F/portmacro.h **** 	(
 2301              		.loc 2 156 0 discriminator 1
 2302              		.syntax unified
 2303              	@ 156 "Generated_Source\PSoC6\pdl\rtos/FreeRTOS/10.0.1/Source/portable/GCC/CM4F/portmacro.h" 1
 2304 0098 4FF03F03 			mov r3, #63												
 2305 009c 83F31188 		msr basepri, r3											
 2306 00a0 BFF36F8F 		isb														
 2307 00a4 BFF34F8F 		dsb														
 2308              	
 2309              	@ 0 "" 2
 2310              		.thumb
 2311              		.syntax unified
 2312 00a8 BB61     		str	r3, [r7, #24]
 2313              	.L150:
 2314              	.LBE148:
 2315              	.LBE147:
 2316              		.loc 1 1093 0 discriminator 3
 2317 00aa FEE7     		b	.L150
 2318              	.L149:
1094:Generated_Source\PSoC6\pdl\rtos\FreeRTOS\10.0.1\Source/stream_buffer.c **** 			memcpy( ( void * ) &( pucData[ xFirstLength ] ), ( void * ) ( pxStreamBuffer->pucBuffer ), xCoun
 2319              		.loc 1 1094 0
 2320 00ac BA68     		ldr	r2, [r7, #8]
 2321 00ae FB69     		ldr	r3, [r7, #28]
 2322 00b0 D018     		adds	r0, r2, r3
 2323 00b2 FB68     		ldr	r3, [r7, #12]
 2324 00b4 9969     		ldr	r1, [r3, #24]
 2325 00b6 3A6A     		ldr	r2, [r7, #32]
 2326 00b8 FB69     		ldr	r3, [r7, #28]
 2327 00ba D31A     		subs	r3, r2, r3
 2328 00bc 1A46     		mov	r2, r3
 2329 00be FFF7FEFF 		bl	memcpy
 2330              	.L148:
1095:Generated_Source\PSoC6\pdl\rtos\FreeRTOS\10.0.1\Source/stream_buffer.c **** 		}
1096:Generated_Source\PSoC6\pdl\rtos\FreeRTOS\10.0.1\Source/stream_buffer.c **** 		else
1097:Generated_Source\PSoC6\pdl\rtos\FreeRTOS\10.0.1\Source/stream_buffer.c **** 		{
1098:Generated_Source\PSoC6\pdl\rtos\FreeRTOS\10.0.1\Source/stream_buffer.c **** 			mtCOVERAGE_TEST_MARKER();
1099:Generated_Source\PSoC6\pdl\rtos\FreeRTOS\10.0.1\Source/stream_buffer.c **** 		}
1100:Generated_Source\PSoC6\pdl\rtos\FreeRTOS\10.0.1\Source/stream_buffer.c **** 
1101:Generated_Source\PSoC6\pdl\rtos\FreeRTOS\10.0.1\Source/stream_buffer.c **** 		/* Move the tail pointer to effectively remove the data read from
1102:Generated_Source\PSoC6\pdl\rtos\FreeRTOS\10.0.1\Source/stream_buffer.c **** 		the buffer. */
1103:Generated_Source\PSoC6\pdl\rtos\FreeRTOS\10.0.1\Source/stream_buffer.c **** 		xNextTail += xCount;
 2331              		.loc 1 1103 0
 2332 00c2 7A6A     		ldr	r2, [r7, #36]
 2333 00c4 3B6A     		ldr	r3, [r7, #32]
ARM GAS  C:\Users\stijn\AppData\Local\Temp\cccniDcZ.s 			page 65


 2334 00c6 1344     		add	r3, r3, r2
 2335 00c8 7B62     		str	r3, [r7, #36]
1104:Generated_Source\PSoC6\pdl\rtos\FreeRTOS\10.0.1\Source/stream_buffer.c **** 
1105:Generated_Source\PSoC6\pdl\rtos\FreeRTOS\10.0.1\Source/stream_buffer.c **** 		if( xNextTail >= pxStreamBuffer->xLength )
 2336              		.loc 1 1105 0
 2337 00ca FB68     		ldr	r3, [r7, #12]
 2338 00cc 9A68     		ldr	r2, [r3, #8]
 2339 00ce 7B6A     		ldr	r3, [r7, #36]
 2340 00d0 9A42     		cmp	r2, r3
 2341 00d2 04D8     		bhi	.L151
1106:Generated_Source\PSoC6\pdl\rtos\FreeRTOS\10.0.1\Source/stream_buffer.c **** 		{
1107:Generated_Source\PSoC6\pdl\rtos\FreeRTOS\10.0.1\Source/stream_buffer.c **** 			xNextTail -= pxStreamBuffer->xLength;
 2342              		.loc 1 1107 0
 2343 00d4 FB68     		ldr	r3, [r7, #12]
 2344 00d6 9B68     		ldr	r3, [r3, #8]
 2345 00d8 7A6A     		ldr	r2, [r7, #36]
 2346 00da D31A     		subs	r3, r2, r3
 2347 00dc 7B62     		str	r3, [r7, #36]
 2348              	.L151:
1108:Generated_Source\PSoC6\pdl\rtos\FreeRTOS\10.0.1\Source/stream_buffer.c **** 		}
1109:Generated_Source\PSoC6\pdl\rtos\FreeRTOS\10.0.1\Source/stream_buffer.c **** 
1110:Generated_Source\PSoC6\pdl\rtos\FreeRTOS\10.0.1\Source/stream_buffer.c **** 		pxStreamBuffer->xTail = xNextTail;
 2349              		.loc 1 1110 0
 2350 00de FB68     		ldr	r3, [r7, #12]
 2351 00e0 7A6A     		ldr	r2, [r7, #36]
 2352 00e2 1A60     		str	r2, [r3]
 2353              	.L143:
1111:Generated_Source\PSoC6\pdl\rtos\FreeRTOS\10.0.1\Source/stream_buffer.c **** 	}
1112:Generated_Source\PSoC6\pdl\rtos\FreeRTOS\10.0.1\Source/stream_buffer.c **** 	else
1113:Generated_Source\PSoC6\pdl\rtos\FreeRTOS\10.0.1\Source/stream_buffer.c **** 	{
1114:Generated_Source\PSoC6\pdl\rtos\FreeRTOS\10.0.1\Source/stream_buffer.c **** 		mtCOVERAGE_TEST_MARKER();
1115:Generated_Source\PSoC6\pdl\rtos\FreeRTOS\10.0.1\Source/stream_buffer.c **** 	}
1116:Generated_Source\PSoC6\pdl\rtos\FreeRTOS\10.0.1\Source/stream_buffer.c **** 
1117:Generated_Source\PSoC6\pdl\rtos\FreeRTOS\10.0.1\Source/stream_buffer.c **** 	return xCount;
 2354              		.loc 1 1117 0
 2355 00e4 3B6A     		ldr	r3, [r7, #32]
1118:Generated_Source\PSoC6\pdl\rtos\FreeRTOS\10.0.1\Source/stream_buffer.c **** }
 2356              		.loc 1 1118 0
 2357 00e6 1846     		mov	r0, r3
 2358 00e8 2837     		adds	r7, r7, #40
 2359              		.cfi_def_cfa_offset 8
 2360 00ea BD46     		mov	sp, r7
 2361              		.cfi_def_cfa_register 13
 2362              		@ sp needed
 2363 00ec 80BD     		pop	{r7, pc}
 2364              		.cfi_endproc
 2365              	.LFE153:
 2366              		.size	prvReadBytesFromBuffer, .-prvReadBytesFromBuffer
 2367 00ee 00BF     		.section	.text.prvBytesInBuffer,"ax",%progbits
 2368              		.align	2
 2369              		.thumb
 2370              		.thumb_func
 2371              		.type	prvBytesInBuffer, %function
 2372              	prvBytesInBuffer:
 2373              	.LFB154:
1119:Generated_Source\PSoC6\pdl\rtos\FreeRTOS\10.0.1\Source/stream_buffer.c **** /*-----------------------------------------------------------*/
1120:Generated_Source\PSoC6\pdl\rtos\FreeRTOS\10.0.1\Source/stream_buffer.c **** 
ARM GAS  C:\Users\stijn\AppData\Local\Temp\cccniDcZ.s 			page 66


1121:Generated_Source\PSoC6\pdl\rtos\FreeRTOS\10.0.1\Source/stream_buffer.c **** static size_t prvBytesInBuffer( const StreamBuffer_t * const pxStreamBuffer )
1122:Generated_Source\PSoC6\pdl\rtos\FreeRTOS\10.0.1\Source/stream_buffer.c **** {
 2374              		.loc 1 1122 0
 2375              		.cfi_startproc
 2376              		@ args = 0, pretend = 0, frame = 16
 2377              		@ frame_needed = 1, uses_anonymous_args = 0
 2378              		@ link register save eliminated.
 2379 0000 80B4     		push	{r7}
 2380              		.cfi_def_cfa_offset 4
 2381              		.cfi_offset 7, -4
 2382 0002 85B0     		sub	sp, sp, #20
 2383              		.cfi_def_cfa_offset 24
 2384 0004 00AF     		add	r7, sp, #0
