ARM GAS  C:\Users\stijn\AppData\Local\Temp\cccniDcZ.s 			page 1


   1              		.syntax unified
   2              		.cpu cortex-m4
   3              		.eabi_attribute 27, 1
   4              		.fpu fpv4-sp-d16
   5              		.eabi_attribute 20, 1
   6              		.eabi_attribute 21, 1
   7              		.eabi_attribute 23, 3
   8              		.eabi_attribute 24, 1
   9              		.eabi_attribute 25, 1
  10              		.eabi_attribute 26, 1
  11              		.eabi_attribute 30, 6
  12              		.eabi_attribute 34, 1
  13              		.eabi_attribute 18, 4
  14              		.thumb
  15              		.syntax unified
  16              		.file	"stream_buffer.c"
  17              		.text
  18              	.Ltext0:
  19              		.cfi_sections	.debug_frame
  20              		.section	.text.xStreamBufferGenericCreate,"ax",%progbits
  21              		.align	2
  22              		.global	xStreamBufferGenericCreate
  23              		.thumb
  24              		.thumb_func
  25              		.type	xStreamBufferGenericCreate, %function
  26              	xStreamBufferGenericCreate:
  27              	.LFB136:
  28              		.file 1 "Generated_Source\\PSoC6\\pdl\\rtos\\FreeRTOS\\10.0.1\\Source\\stream_buffer.c"
   1:Generated_Source\PSoC6\pdl\rtos\FreeRTOS\10.0.1\Source/stream_buffer.c **** /*
   2:Generated_Source\PSoC6\pdl\rtos\FreeRTOS\10.0.1\Source/stream_buffer.c ****  * FreeRTOS Kernel V10.0.1
   3:Generated_Source\PSoC6\pdl\rtos\FreeRTOS\10.0.1\Source/stream_buffer.c ****  * Copyright (C) 2017 Amazon.com, Inc. or its affiliates.  All Rights Reserved.
   4:Generated_Source\PSoC6\pdl\rtos\FreeRTOS\10.0.1\Source/stream_buffer.c ****  *
   5:Generated_Source\PSoC6\pdl\rtos\FreeRTOS\10.0.1\Source/stream_buffer.c ****  * Permission is hereby granted, free of charge, to any person obtaining a copy of
   6:Generated_Source\PSoC6\pdl\rtos\FreeRTOS\10.0.1\Source/stream_buffer.c ****  * this software and associated documentation files (the "Software"), to deal in
   7:Generated_Source\PSoC6\pdl\rtos\FreeRTOS\10.0.1\Source/stream_buffer.c ****  * the Software without restriction, including without limitation the rights to
   8:Generated_Source\PSoC6\pdl\rtos\FreeRTOS\10.0.1\Source/stream_buffer.c ****  * use, copy, modify, merge, publish, distribute, sublicense, and/or sell copies of
   9:Generated_Source\PSoC6\pdl\rtos\FreeRTOS\10.0.1\Source/stream_buffer.c ****  * the Software, and to permit persons to whom the Software is furnished to do so,
  10:Generated_Source\PSoC6\pdl\rtos\FreeRTOS\10.0.1\Source/stream_buffer.c ****  * subject to the following conditions:
  11:Generated_Source\PSoC6\pdl\rtos\FreeRTOS\10.0.1\Source/stream_buffer.c ****  *
  12:Generated_Source\PSoC6\pdl\rtos\FreeRTOS\10.0.1\Source/stream_buffer.c ****  * The above copyright notice and this permission notice shall be included in all
  13:Generated_Source\PSoC6\pdl\rtos\FreeRTOS\10.0.1\Source/stream_buffer.c ****  * copies or substantial portions of the Software.
  14:Generated_Source\PSoC6\pdl\rtos\FreeRTOS\10.0.1\Source/stream_buffer.c ****  *
  15:Generated_Source\PSoC6\pdl\rtos\FreeRTOS\10.0.1\Source/stream_buffer.c ****  * THE SOFTWARE IS PROVIDED "AS IS", WITHOUT WARRANTY OF ANY KIND, EXPRESS OR
  16:Generated_Source\PSoC6\pdl\rtos\FreeRTOS\10.0.1\Source/stream_buffer.c ****  * IMPLIED, INCLUDING BUT NOT LIMITED TO THE WARRANTIES OF MERCHANTABILITY, FITNESS
  17:Generated_Source\PSoC6\pdl\rtos\FreeRTOS\10.0.1\Source/stream_buffer.c ****  * FOR A PARTICULAR PURPOSE AND NONINFRINGEMENT. IN NO EVENT SHALL THE AUTHORS OR
  18:Generated_Source\PSoC6\pdl\rtos\FreeRTOS\10.0.1\Source/stream_buffer.c ****  * COPYRIGHT HOLDERS BE LIABLE FOR ANY CLAIM, DAMAGES OR OTHER LIABILITY, WHETHER
  19:Generated_Source\PSoC6\pdl\rtos\FreeRTOS\10.0.1\Source/stream_buffer.c ****  * IN AN ACTION OF CONTRACT, TORT OR OTHERWISE, ARISING FROM, OUT OF OR IN
  20:Generated_Source\PSoC6\pdl\rtos\FreeRTOS\10.0.1\Source/stream_buffer.c ****  * CONNECTION WITH THE SOFTWARE OR THE USE OR OTHER DEALINGS IN THE SOFTWARE.
  21:Generated_Source\PSoC6\pdl\rtos\FreeRTOS\10.0.1\Source/stream_buffer.c ****  *
  22:Generated_Source\PSoC6\pdl\rtos\FreeRTOS\10.0.1\Source/stream_buffer.c ****  * http://www.FreeRTOS.org
  23:Generated_Source\PSoC6\pdl\rtos\FreeRTOS\10.0.1\Source/stream_buffer.c ****  * http://aws.amazon.com/freertos
  24:Generated_Source\PSoC6\pdl\rtos\FreeRTOS\10.0.1\Source/stream_buffer.c ****  *
  25:Generated_Source\PSoC6\pdl\rtos\FreeRTOS\10.0.1\Source/stream_buffer.c ****  * 1 tab == 4 spaces!
  26:Generated_Source\PSoC6\pdl\rtos\FreeRTOS\10.0.1\Source/stream_buffer.c ****  */
  27:Generated_Source\PSoC6\pdl\rtos\FreeRTOS\10.0.1\Source/stream_buffer.c **** 
  28:Generated_Source\PSoC6\pdl\rtos\FreeRTOS\10.0.1\Source/stream_buffer.c **** /* Standard includes. */
  29:Generated_Source\PSoC6\pdl\rtos\FreeRTOS\10.0.1\Source/stream_buffer.c **** #include <stdint.h>
ARM GAS  C:\Users\stijn\AppData\Local\Temp\cccniDcZ.s 			page 2


  30:Generated_Source\PSoC6\pdl\rtos\FreeRTOS\10.0.1\Source/stream_buffer.c **** #include <string.h>
  31:Generated_Source\PSoC6\pdl\rtos\FreeRTOS\10.0.1\Source/stream_buffer.c **** 
  32:Generated_Source\PSoC6\pdl\rtos\FreeRTOS\10.0.1\Source/stream_buffer.c **** /* Defining MPU_WRAPPERS_INCLUDED_FROM_API_FILE prevents task.h from redefining
  33:Generated_Source\PSoC6\pdl\rtos\FreeRTOS\10.0.1\Source/stream_buffer.c **** all the API functions to use the MPU wrappers.  That should only be done when
  34:Generated_Source\PSoC6\pdl\rtos\FreeRTOS\10.0.1\Source/stream_buffer.c **** task.h is included from an application file. */
  35:Generated_Source\PSoC6\pdl\rtos\FreeRTOS\10.0.1\Source/stream_buffer.c **** #define MPU_WRAPPERS_INCLUDED_FROM_API_FILE
  36:Generated_Source\PSoC6\pdl\rtos\FreeRTOS\10.0.1\Source/stream_buffer.c **** 
  37:Generated_Source\PSoC6\pdl\rtos\FreeRTOS\10.0.1\Source/stream_buffer.c **** /* FreeRTOS includes. */
  38:Generated_Source\PSoC6\pdl\rtos\FreeRTOS\10.0.1\Source/stream_buffer.c **** #include "FreeRTOS.h"
  39:Generated_Source\PSoC6\pdl\rtos\FreeRTOS\10.0.1\Source/stream_buffer.c **** #include "task.h"
  40:Generated_Source\PSoC6\pdl\rtos\FreeRTOS\10.0.1\Source/stream_buffer.c **** #include "stream_buffer.h"
  41:Generated_Source\PSoC6\pdl\rtos\FreeRTOS\10.0.1\Source/stream_buffer.c **** 
  42:Generated_Source\PSoC6\pdl\rtos\FreeRTOS\10.0.1\Source/stream_buffer.c **** #if( configUSE_TASK_NOTIFICATIONS != 1 )
  43:Generated_Source\PSoC6\pdl\rtos\FreeRTOS\10.0.1\Source/stream_buffer.c **** 	#error configUSE_TASK_NOTIFICATIONS must be set to 1 to build stream_buffer.c
  44:Generated_Source\PSoC6\pdl\rtos\FreeRTOS\10.0.1\Source/stream_buffer.c **** #endif
  45:Generated_Source\PSoC6\pdl\rtos\FreeRTOS\10.0.1\Source/stream_buffer.c **** 
  46:Generated_Source\PSoC6\pdl\rtos\FreeRTOS\10.0.1\Source/stream_buffer.c **** /* Lint e961 and e750 are suppressed as a MISRA exception justified because the
  47:Generated_Source\PSoC6\pdl\rtos\FreeRTOS\10.0.1\Source/stream_buffer.c **** MPU ports require MPU_WRAPPERS_INCLUDED_FROM_API_FILE to be defined for the
  48:Generated_Source\PSoC6\pdl\rtos\FreeRTOS\10.0.1\Source/stream_buffer.c **** header files above, but not in this file, in order to generate the correct
  49:Generated_Source\PSoC6\pdl\rtos\FreeRTOS\10.0.1\Source/stream_buffer.c **** privileged Vs unprivileged linkage and placement. */
  50:Generated_Source\PSoC6\pdl\rtos\FreeRTOS\10.0.1\Source/stream_buffer.c **** #undef MPU_WRAPPERS_INCLUDED_FROM_API_FILE /*lint !e961 !e750. */
  51:Generated_Source\PSoC6\pdl\rtos\FreeRTOS\10.0.1\Source/stream_buffer.c **** 
  52:Generated_Source\PSoC6\pdl\rtos\FreeRTOS\10.0.1\Source/stream_buffer.c **** /* If the user has not provided application specific Rx notification macros,
  53:Generated_Source\PSoC6\pdl\rtos\FreeRTOS\10.0.1\Source/stream_buffer.c **** or #defined the notification macros away, them provide default implementations
  54:Generated_Source\PSoC6\pdl\rtos\FreeRTOS\10.0.1\Source/stream_buffer.c **** that uses task notifications. */
  55:Generated_Source\PSoC6\pdl\rtos\FreeRTOS\10.0.1\Source/stream_buffer.c **** /*lint -save -e9026 Function like macros allowed and needed here so they can be overidden. */
  56:Generated_Source\PSoC6\pdl\rtos\FreeRTOS\10.0.1\Source/stream_buffer.c **** #ifndef sbRECEIVE_COMPLETED
  57:Generated_Source\PSoC6\pdl\rtos\FreeRTOS\10.0.1\Source/stream_buffer.c **** 	#define sbRECEIVE_COMPLETED( pxStreamBuffer )										\
  58:Generated_Source\PSoC6\pdl\rtos\FreeRTOS\10.0.1\Source/stream_buffer.c **** 		vTaskSuspendAll();																\
  59:Generated_Source\PSoC6\pdl\rtos\FreeRTOS\10.0.1\Source/stream_buffer.c **** 		{																				\
  60:Generated_Source\PSoC6\pdl\rtos\FreeRTOS\10.0.1\Source/stream_buffer.c **** 			if( ( pxStreamBuffer )->xTaskWaitingToSend != NULL )						\
  61:Generated_Source\PSoC6\pdl\rtos\FreeRTOS\10.0.1\Source/stream_buffer.c **** 			{																			\
  62:Generated_Source\PSoC6\pdl\rtos\FreeRTOS\10.0.1\Source/stream_buffer.c **** 				( void ) xTaskNotify( ( pxStreamBuffer )->xTaskWaitingToSend,			\
  63:Generated_Source\PSoC6\pdl\rtos\FreeRTOS\10.0.1\Source/stream_buffer.c **** 									  ( uint32_t ) 0,									\
  64:Generated_Source\PSoC6\pdl\rtos\FreeRTOS\10.0.1\Source/stream_buffer.c **** 									  eNoAction );										\
  65:Generated_Source\PSoC6\pdl\rtos\FreeRTOS\10.0.1\Source/stream_buffer.c **** 				( pxStreamBuffer )->xTaskWaitingToSend = NULL;							\
  66:Generated_Source\PSoC6\pdl\rtos\FreeRTOS\10.0.1\Source/stream_buffer.c **** 			}																			\
  67:Generated_Source\PSoC6\pdl\rtos\FreeRTOS\10.0.1\Source/stream_buffer.c **** 		}																				\
  68:Generated_Source\PSoC6\pdl\rtos\FreeRTOS\10.0.1\Source/stream_buffer.c **** 		( void ) xTaskResumeAll();
  69:Generated_Source\PSoC6\pdl\rtos\FreeRTOS\10.0.1\Source/stream_buffer.c **** #endif /* sbRECEIVE_COMPLETED */
  70:Generated_Source\PSoC6\pdl\rtos\FreeRTOS\10.0.1\Source/stream_buffer.c **** 
  71:Generated_Source\PSoC6\pdl\rtos\FreeRTOS\10.0.1\Source/stream_buffer.c **** #ifndef sbRECEIVE_COMPLETED_FROM_ISR
  72:Generated_Source\PSoC6\pdl\rtos\FreeRTOS\10.0.1\Source/stream_buffer.c **** 	#define sbRECEIVE_COMPLETED_FROM_ISR( pxStreamBuffer,								\
  73:Generated_Source\PSoC6\pdl\rtos\FreeRTOS\10.0.1\Source/stream_buffer.c **** 										  pxHigherPriorityTaskWoken )					\
  74:Generated_Source\PSoC6\pdl\rtos\FreeRTOS\10.0.1\Source/stream_buffer.c **** 	{																					\
  75:Generated_Source\PSoC6\pdl\rtos\FreeRTOS\10.0.1\Source/stream_buffer.c **** 	UBaseType_t uxSavedInterruptStatus;													\
  76:Generated_Source\PSoC6\pdl\rtos\FreeRTOS\10.0.1\Source/stream_buffer.c **** 																						\
  77:Generated_Source\PSoC6\pdl\rtos\FreeRTOS\10.0.1\Source/stream_buffer.c **** 		uxSavedInterruptStatus = ( UBaseType_t ) portSET_INTERRUPT_MASK_FROM_ISR();		\
  78:Generated_Source\PSoC6\pdl\rtos\FreeRTOS\10.0.1\Source/stream_buffer.c **** 		{																				\
  79:Generated_Source\PSoC6\pdl\rtos\FreeRTOS\10.0.1\Source/stream_buffer.c **** 			if( ( pxStreamBuffer )->xTaskWaitingToSend != NULL )						\
  80:Generated_Source\PSoC6\pdl\rtos\FreeRTOS\10.0.1\Source/stream_buffer.c **** 			{																			\
  81:Generated_Source\PSoC6\pdl\rtos\FreeRTOS\10.0.1\Source/stream_buffer.c **** 				( void ) xTaskNotifyFromISR( ( pxStreamBuffer )->xTaskWaitingToSend,	\
  82:Generated_Source\PSoC6\pdl\rtos\FreeRTOS\10.0.1\Source/stream_buffer.c **** 											 ( uint32_t ) 0,							\
  83:Generated_Source\PSoC6\pdl\rtos\FreeRTOS\10.0.1\Source/stream_buffer.c **** 											 eNoAction,									\
  84:Generated_Source\PSoC6\pdl\rtos\FreeRTOS\10.0.1\Source/stream_buffer.c **** 											 pxHigherPriorityTaskWoken );				\
  85:Generated_Source\PSoC6\pdl\rtos\FreeRTOS\10.0.1\Source/stream_buffer.c **** 				( pxStreamBuffer )->xTaskWaitingToSend = NULL;							\
  86:Generated_Source\PSoC6\pdl\rtos\FreeRTOS\10.0.1\Source/stream_buffer.c **** 			}																			\
ARM GAS  C:\Users\stijn\AppData\Local\Temp\cccniDcZ.s 			page 3


  87:Generated_Source\PSoC6\pdl\rtos\FreeRTOS\10.0.1\Source/stream_buffer.c **** 		}																				\
  88:Generated_Source\PSoC6\pdl\rtos\FreeRTOS\10.0.1\Source/stream_buffer.c **** 		portCLEAR_INTERRUPT_MASK_FROM_ISR( uxSavedInterruptStatus );					\
  89:Generated_Source\PSoC6\pdl\rtos\FreeRTOS\10.0.1\Source/stream_buffer.c **** 	}
  90:Generated_Source\PSoC6\pdl\rtos\FreeRTOS\10.0.1\Source/stream_buffer.c **** #endif /* sbRECEIVE_COMPLETED_FROM_ISR */
  91:Generated_Source\PSoC6\pdl\rtos\FreeRTOS\10.0.1\Source/stream_buffer.c **** 
  92:Generated_Source\PSoC6\pdl\rtos\FreeRTOS\10.0.1\Source/stream_buffer.c **** /* If the user has not provided an application specific Tx notification macro,
  93:Generated_Source\PSoC6\pdl\rtos\FreeRTOS\10.0.1\Source/stream_buffer.c **** or #defined the notification macro away, them provide a default implementation
  94:Generated_Source\PSoC6\pdl\rtos\FreeRTOS\10.0.1\Source/stream_buffer.c **** that uses task notifications. */
  95:Generated_Source\PSoC6\pdl\rtos\FreeRTOS\10.0.1\Source/stream_buffer.c **** #ifndef sbSEND_COMPLETED
  96:Generated_Source\PSoC6\pdl\rtos\FreeRTOS\10.0.1\Source/stream_buffer.c **** 	#define sbSEND_COMPLETED( pxStreamBuffer )											\
  97:Generated_Source\PSoC6\pdl\rtos\FreeRTOS\10.0.1\Source/stream_buffer.c **** 		vTaskSuspendAll();																\
  98:Generated_Source\PSoC6\pdl\rtos\FreeRTOS\10.0.1\Source/stream_buffer.c **** 		{																				\
  99:Generated_Source\PSoC6\pdl\rtos\FreeRTOS\10.0.1\Source/stream_buffer.c **** 			if( ( pxStreamBuffer )->xTaskWaitingToReceive != NULL )						\
 100:Generated_Source\PSoC6\pdl\rtos\FreeRTOS\10.0.1\Source/stream_buffer.c **** 			{																			\
 101:Generated_Source\PSoC6\pdl\rtos\FreeRTOS\10.0.1\Source/stream_buffer.c **** 				( void ) xTaskNotify( ( pxStreamBuffer )->xTaskWaitingToReceive,		\
 102:Generated_Source\PSoC6\pdl\rtos\FreeRTOS\10.0.1\Source/stream_buffer.c **** 									  ( uint32_t ) 0,									\
 103:Generated_Source\PSoC6\pdl\rtos\FreeRTOS\10.0.1\Source/stream_buffer.c **** 									  eNoAction );										\
 104:Generated_Source\PSoC6\pdl\rtos\FreeRTOS\10.0.1\Source/stream_buffer.c **** 				( pxStreamBuffer )->xTaskWaitingToReceive = NULL;						\
 105:Generated_Source\PSoC6\pdl\rtos\FreeRTOS\10.0.1\Source/stream_buffer.c **** 			}																			\
 106:Generated_Source\PSoC6\pdl\rtos\FreeRTOS\10.0.1\Source/stream_buffer.c **** 		}																				\
 107:Generated_Source\PSoC6\pdl\rtos\FreeRTOS\10.0.1\Source/stream_buffer.c **** 		( void ) xTaskResumeAll();
 108:Generated_Source\PSoC6\pdl\rtos\FreeRTOS\10.0.1\Source/stream_buffer.c **** #endif /* sbSEND_COMPLETED */
 109:Generated_Source\PSoC6\pdl\rtos\FreeRTOS\10.0.1\Source/stream_buffer.c **** 
 110:Generated_Source\PSoC6\pdl\rtos\FreeRTOS\10.0.1\Source/stream_buffer.c **** #ifndef sbSEND_COMPLETE_FROM_ISR
 111:Generated_Source\PSoC6\pdl\rtos\FreeRTOS\10.0.1\Source/stream_buffer.c **** 	#define sbSEND_COMPLETE_FROM_ISR( pxStreamBuffer, pxHigherPriorityTaskWoken )		\
 112:Generated_Source\PSoC6\pdl\rtos\FreeRTOS\10.0.1\Source/stream_buffer.c **** 	{																					\
 113:Generated_Source\PSoC6\pdl\rtos\FreeRTOS\10.0.1\Source/stream_buffer.c **** 	UBaseType_t uxSavedInterruptStatus;													\
 114:Generated_Source\PSoC6\pdl\rtos\FreeRTOS\10.0.1\Source/stream_buffer.c **** 																						\
 115:Generated_Source\PSoC6\pdl\rtos\FreeRTOS\10.0.1\Source/stream_buffer.c **** 		uxSavedInterruptStatus = ( UBaseType_t ) portSET_INTERRUPT_MASK_FROM_ISR();		\
 116:Generated_Source\PSoC6\pdl\rtos\FreeRTOS\10.0.1\Source/stream_buffer.c **** 		{																				\
 117:Generated_Source\PSoC6\pdl\rtos\FreeRTOS\10.0.1\Source/stream_buffer.c **** 			if( ( pxStreamBuffer )->xTaskWaitingToReceive != NULL )						\
 118:Generated_Source\PSoC6\pdl\rtos\FreeRTOS\10.0.1\Source/stream_buffer.c **** 			{																			\
 119:Generated_Source\PSoC6\pdl\rtos\FreeRTOS\10.0.1\Source/stream_buffer.c **** 				( void ) xTaskNotifyFromISR( ( pxStreamBuffer )->xTaskWaitingToReceive,	\
 120:Generated_Source\PSoC6\pdl\rtos\FreeRTOS\10.0.1\Source/stream_buffer.c **** 											 ( uint32_t ) 0,							\
 121:Generated_Source\PSoC6\pdl\rtos\FreeRTOS\10.0.1\Source/stream_buffer.c **** 											 eNoAction,									\
 122:Generated_Source\PSoC6\pdl\rtos\FreeRTOS\10.0.1\Source/stream_buffer.c **** 											 pxHigherPriorityTaskWoken );				\
 123:Generated_Source\PSoC6\pdl\rtos\FreeRTOS\10.0.1\Source/stream_buffer.c **** 				( pxStreamBuffer )->xTaskWaitingToReceive = NULL;						\
 124:Generated_Source\PSoC6\pdl\rtos\FreeRTOS\10.0.1\Source/stream_buffer.c **** 			}																			\
 125:Generated_Source\PSoC6\pdl\rtos\FreeRTOS\10.0.1\Source/stream_buffer.c **** 		}																				\
 126:Generated_Source\PSoC6\pdl\rtos\FreeRTOS\10.0.1\Source/stream_buffer.c **** 		portCLEAR_INTERRUPT_MASK_FROM_ISR( uxSavedInterruptStatus );					\
 127:Generated_Source\PSoC6\pdl\rtos\FreeRTOS\10.0.1\Source/stream_buffer.c **** 	}
 128:Generated_Source\PSoC6\pdl\rtos\FreeRTOS\10.0.1\Source/stream_buffer.c **** #endif /* sbSEND_COMPLETE_FROM_ISR */
 129:Generated_Source\PSoC6\pdl\rtos\FreeRTOS\10.0.1\Source/stream_buffer.c **** /*lint -restore (9026) */
 130:Generated_Source\PSoC6\pdl\rtos\FreeRTOS\10.0.1\Source/stream_buffer.c **** 
 131:Generated_Source\PSoC6\pdl\rtos\FreeRTOS\10.0.1\Source/stream_buffer.c **** /* The number of bytes used to hold the length of a message in the buffer. */
 132:Generated_Source\PSoC6\pdl\rtos\FreeRTOS\10.0.1\Source/stream_buffer.c **** #define sbBYTES_TO_STORE_MESSAGE_LENGTH ( sizeof( size_t ) )
 133:Generated_Source\PSoC6\pdl\rtos\FreeRTOS\10.0.1\Source/stream_buffer.c **** 
 134:Generated_Source\PSoC6\pdl\rtos\FreeRTOS\10.0.1\Source/stream_buffer.c **** /* Bits stored in the ucFlags field of the stream buffer. */
 135:Generated_Source\PSoC6\pdl\rtos\FreeRTOS\10.0.1\Source/stream_buffer.c **** #define sbFLAGS_IS_MESSAGE_BUFFER		( ( uint8_t ) 1 ) /* Set if the stream buffer was created as a m
 136:Generated_Source\PSoC6\pdl\rtos\FreeRTOS\10.0.1\Source/stream_buffer.c **** #define sbFLAGS_IS_STATICALLY_ALLOCATED ( ( uint8_t ) 2 ) /* Set if the stream buffer was created u
 137:Generated_Source\PSoC6\pdl\rtos\FreeRTOS\10.0.1\Source/stream_buffer.c **** 
 138:Generated_Source\PSoC6\pdl\rtos\FreeRTOS\10.0.1\Source/stream_buffer.c **** /*-----------------------------------------------------------*/
 139:Generated_Source\PSoC6\pdl\rtos\FreeRTOS\10.0.1\Source/stream_buffer.c **** 
 140:Generated_Source\PSoC6\pdl\rtos\FreeRTOS\10.0.1\Source/stream_buffer.c **** /* Structure that hold state information on the buffer. */
 141:Generated_Source\PSoC6\pdl\rtos\FreeRTOS\10.0.1\Source/stream_buffer.c **** typedef struct xSTREAM_BUFFER /*lint !e9058 Style convention uses tag. */
 142:Generated_Source\PSoC6\pdl\rtos\FreeRTOS\10.0.1\Source/stream_buffer.c **** {
 143:Generated_Source\PSoC6\pdl\rtos\FreeRTOS\10.0.1\Source/stream_buffer.c **** 	volatile size_t xTail;				/* Index to the next item to read within the buffer. */
ARM GAS  C:\Users\stijn\AppData\Local\Temp\cccniDcZ.s 			page 4


 144:Generated_Source\PSoC6\pdl\rtos\FreeRTOS\10.0.1\Source/stream_buffer.c **** 	volatile size_t xHead;				/* Index to the next item to write within the buffer. */
 145:Generated_Source\PSoC6\pdl\rtos\FreeRTOS\10.0.1\Source/stream_buffer.c **** 	size_t xLength;						/* The length of the buffer pointed to by pucBuffer. */
 146:Generated_Source\PSoC6\pdl\rtos\FreeRTOS\10.0.1\Source/stream_buffer.c **** 	size_t xTriggerLevelBytes;			/* The number of bytes that must be in the stream buffer before a tas
 147:Generated_Source\PSoC6\pdl\rtos\FreeRTOS\10.0.1\Source/stream_buffer.c **** 	volatile TaskHandle_t xTaskWaitingToReceive; /* Holds the handle of a task waiting for data, or NU
 148:Generated_Source\PSoC6\pdl\rtos\FreeRTOS\10.0.1\Source/stream_buffer.c **** 	volatile TaskHandle_t xTaskWaitingToSend;	/* Holds the handle of a task waiting to send data to a 
 149:Generated_Source\PSoC6\pdl\rtos\FreeRTOS\10.0.1\Source/stream_buffer.c **** 	uint8_t *pucBuffer;					/* Points to the buffer itself - that is - the RAM that stores the data pa
 150:Generated_Source\PSoC6\pdl\rtos\FreeRTOS\10.0.1\Source/stream_buffer.c **** 	uint8_t ucFlags;
 151:Generated_Source\PSoC6\pdl\rtos\FreeRTOS\10.0.1\Source/stream_buffer.c **** 
 152:Generated_Source\PSoC6\pdl\rtos\FreeRTOS\10.0.1\Source/stream_buffer.c **** 	#if ( configUSE_TRACE_FACILITY == 1 )
 153:Generated_Source\PSoC6\pdl\rtos\FreeRTOS\10.0.1\Source/stream_buffer.c **** 		UBaseType_t uxStreamBufferNumber;		/* Used for tracing purposes. */
 154:Generated_Source\PSoC6\pdl\rtos\FreeRTOS\10.0.1\Source/stream_buffer.c **** 	#endif
 155:Generated_Source\PSoC6\pdl\rtos\FreeRTOS\10.0.1\Source/stream_buffer.c **** } StreamBuffer_t;
 156:Generated_Source\PSoC6\pdl\rtos\FreeRTOS\10.0.1\Source/stream_buffer.c **** 
 157:Generated_Source\PSoC6\pdl\rtos\FreeRTOS\10.0.1\Source/stream_buffer.c **** /*
 158:Generated_Source\PSoC6\pdl\rtos\FreeRTOS\10.0.1\Source/stream_buffer.c ****  * The number of bytes available to be read from the buffer.
 159:Generated_Source\PSoC6\pdl\rtos\FreeRTOS\10.0.1\Source/stream_buffer.c ****  */
 160:Generated_Source\PSoC6\pdl\rtos\FreeRTOS\10.0.1\Source/stream_buffer.c **** static size_t prvBytesInBuffer( const StreamBuffer_t * const pxStreamBuffer ) PRIVILEGED_FUNCTION;
 161:Generated_Source\PSoC6\pdl\rtos\FreeRTOS\10.0.1\Source/stream_buffer.c **** 
 162:Generated_Source\PSoC6\pdl\rtos\FreeRTOS\10.0.1\Source/stream_buffer.c **** /*
 163:Generated_Source\PSoC6\pdl\rtos\FreeRTOS\10.0.1\Source/stream_buffer.c ****  * Add xCount bytes from pucData into the pxStreamBuffer message buffer.
 164:Generated_Source\PSoC6\pdl\rtos\FreeRTOS\10.0.1\Source/stream_buffer.c ****  * Returns the number of bytes written, which will either equal xCount in the
 165:Generated_Source\PSoC6\pdl\rtos\FreeRTOS\10.0.1\Source/stream_buffer.c ****  * success case, or 0 if there was not enough space in the buffer (in which case
 166:Generated_Source\PSoC6\pdl\rtos\FreeRTOS\10.0.1\Source/stream_buffer.c ****  * no data is written into the buffer).
 167:Generated_Source\PSoC6\pdl\rtos\FreeRTOS\10.0.1\Source/stream_buffer.c ****  */
 168:Generated_Source\PSoC6\pdl\rtos\FreeRTOS\10.0.1\Source/stream_buffer.c **** static size_t prvWriteBytesToBuffer( StreamBuffer_t * const pxStreamBuffer, const uint8_t *pucData,
 169:Generated_Source\PSoC6\pdl\rtos\FreeRTOS\10.0.1\Source/stream_buffer.c **** 
 170:Generated_Source\PSoC6\pdl\rtos\FreeRTOS\10.0.1\Source/stream_buffer.c **** /*
 171:Generated_Source\PSoC6\pdl\rtos\FreeRTOS\10.0.1\Source/stream_buffer.c ****  * If the stream buffer is being used as a message buffer, then reads an entire
 172:Generated_Source\PSoC6\pdl\rtos\FreeRTOS\10.0.1\Source/stream_buffer.c ****  * message out of the buffer.  If the stream buffer is being used as a stream
 173:Generated_Source\PSoC6\pdl\rtos\FreeRTOS\10.0.1\Source/stream_buffer.c ****  * buffer then read as many bytes as possible from the buffer.
 174:Generated_Source\PSoC6\pdl\rtos\FreeRTOS\10.0.1\Source/stream_buffer.c ****  * prvReadBytesFromBuffer() is called to actually extract the bytes from the
 175:Generated_Source\PSoC6\pdl\rtos\FreeRTOS\10.0.1\Source/stream_buffer.c ****  * buffer's data storage area.
 176:Generated_Source\PSoC6\pdl\rtos\FreeRTOS\10.0.1\Source/stream_buffer.c ****  */
 177:Generated_Source\PSoC6\pdl\rtos\FreeRTOS\10.0.1\Source/stream_buffer.c **** static size_t prvReadMessageFromBuffer( StreamBuffer_t *pxStreamBuffer,
 178:Generated_Source\PSoC6\pdl\rtos\FreeRTOS\10.0.1\Source/stream_buffer.c **** 										void *pvRxData,
 179:Generated_Source\PSoC6\pdl\rtos\FreeRTOS\10.0.1\Source/stream_buffer.c **** 										size_t xBufferLengthBytes,
 180:Generated_Source\PSoC6\pdl\rtos\FreeRTOS\10.0.1\Source/stream_buffer.c **** 										size_t xBytesAvailable,
 181:Generated_Source\PSoC6\pdl\rtos\FreeRTOS\10.0.1\Source/stream_buffer.c **** 										size_t xBytesToStoreMessageLength ) PRIVILEGED_FUNCTION;
 182:Generated_Source\PSoC6\pdl\rtos\FreeRTOS\10.0.1\Source/stream_buffer.c **** 
 183:Generated_Source\PSoC6\pdl\rtos\FreeRTOS\10.0.1\Source/stream_buffer.c **** /*
 184:Generated_Source\PSoC6\pdl\rtos\FreeRTOS\10.0.1\Source/stream_buffer.c ****  * If the stream buffer is being used as a message buffer, then writes an entire
 185:Generated_Source\PSoC6\pdl\rtos\FreeRTOS\10.0.1\Source/stream_buffer.c ****  * message to the buffer.  If the stream buffer is being used as a stream
 186:Generated_Source\PSoC6\pdl\rtos\FreeRTOS\10.0.1\Source/stream_buffer.c ****  * buffer then write as many bytes as possible to the buffer.
 187:Generated_Source\PSoC6\pdl\rtos\FreeRTOS\10.0.1\Source/stream_buffer.c ****  * prvWriteBytestoBuffer() is called to actually send the bytes to the buffer's
 188:Generated_Source\PSoC6\pdl\rtos\FreeRTOS\10.0.1\Source/stream_buffer.c ****  * data storage area.
 189:Generated_Source\PSoC6\pdl\rtos\FreeRTOS\10.0.1\Source/stream_buffer.c ****  */
 190:Generated_Source\PSoC6\pdl\rtos\FreeRTOS\10.0.1\Source/stream_buffer.c **** static size_t prvWriteMessageToBuffer(  StreamBuffer_t * const pxStreamBuffer,
 191:Generated_Source\PSoC6\pdl\rtos\FreeRTOS\10.0.1\Source/stream_buffer.c **** 										const void * pvTxData,
 192:Generated_Source\PSoC6\pdl\rtos\FreeRTOS\10.0.1\Source/stream_buffer.c **** 										size_t xDataLengthBytes,
 193:Generated_Source\PSoC6\pdl\rtos\FreeRTOS\10.0.1\Source/stream_buffer.c **** 										size_t xSpace,
 194:Generated_Source\PSoC6\pdl\rtos\FreeRTOS\10.0.1\Source/stream_buffer.c **** 										size_t xRequiredSpace ) PRIVILEGED_FUNCTION;
 195:Generated_Source\PSoC6\pdl\rtos\FreeRTOS\10.0.1\Source/stream_buffer.c **** 
 196:Generated_Source\PSoC6\pdl\rtos\FreeRTOS\10.0.1\Source/stream_buffer.c **** /*
 197:Generated_Source\PSoC6\pdl\rtos\FreeRTOS\10.0.1\Source/stream_buffer.c ****  * Read xMaxCount bytes from the pxStreamBuffer message buffer and write them
 198:Generated_Source\PSoC6\pdl\rtos\FreeRTOS\10.0.1\Source/stream_buffer.c ****  * to pucData.
 199:Generated_Source\PSoC6\pdl\rtos\FreeRTOS\10.0.1\Source/stream_buffer.c ****  */
 200:Generated_Source\PSoC6\pdl\rtos\FreeRTOS\10.0.1\Source/stream_buffer.c **** static size_t prvReadBytesFromBuffer( StreamBuffer_t *pxStreamBuffer,
ARM GAS  C:\Users\stijn\AppData\Local\Temp\cccniDcZ.s 			page 5


 201:Generated_Source\PSoC6\pdl\rtos\FreeRTOS\10.0.1\Source/stream_buffer.c **** 									  uint8_t *pucData,
 202:Generated_Source\PSoC6\pdl\rtos\FreeRTOS\10.0.1\Source/stream_buffer.c **** 									  size_t xMaxCount,
 203:Generated_Source\PSoC6\pdl\rtos\FreeRTOS\10.0.1\Source/stream_buffer.c **** 									  size_t xBytesAvailable ); PRIVILEGED_FUNCTION
 204:Generated_Source\PSoC6\pdl\rtos\FreeRTOS\10.0.1\Source/stream_buffer.c **** 
 205:Generated_Source\PSoC6\pdl\rtos\FreeRTOS\10.0.1\Source/stream_buffer.c **** /*
 206:Generated_Source\PSoC6\pdl\rtos\FreeRTOS\10.0.1\Source/stream_buffer.c ****  * Called by both pxStreamBufferCreate() and pxStreamBufferCreateStatic() to
 207:Generated_Source\PSoC6\pdl\rtos\FreeRTOS\10.0.1\Source/stream_buffer.c ****  * initialise the members of the newly created stream buffer structure.
 208:Generated_Source\PSoC6\pdl\rtos\FreeRTOS\10.0.1\Source/stream_buffer.c ****  */
 209:Generated_Source\PSoC6\pdl\rtos\FreeRTOS\10.0.1\Source/stream_buffer.c **** static void prvInitialiseNewStreamBuffer( StreamBuffer_t * const pxStreamBuffer,
 210:Generated_Source\PSoC6\pdl\rtos\FreeRTOS\10.0.1\Source/stream_buffer.c **** 										  uint8_t * const pucBuffer,
 211:Generated_Source\PSoC6\pdl\rtos\FreeRTOS\10.0.1\Source/stream_buffer.c **** 										  size_t xBufferSizeBytes,
 212:Generated_Source\PSoC6\pdl\rtos\FreeRTOS\10.0.1\Source/stream_buffer.c **** 										  size_t xTriggerLevelBytes,
 213:Generated_Source\PSoC6\pdl\rtos\FreeRTOS\10.0.1\Source/stream_buffer.c **** 										  BaseType_t xIsMessageBuffer ) PRIVILEGED_FUNCTION;
 214:Generated_Source\PSoC6\pdl\rtos\FreeRTOS\10.0.1\Source/stream_buffer.c **** 
 215:Generated_Source\PSoC6\pdl\rtos\FreeRTOS\10.0.1\Source/stream_buffer.c **** /*-----------------------------------------------------------*/
 216:Generated_Source\PSoC6\pdl\rtos\FreeRTOS\10.0.1\Source/stream_buffer.c **** 
 217:Generated_Source\PSoC6\pdl\rtos\FreeRTOS\10.0.1\Source/stream_buffer.c **** #if( configSUPPORT_DYNAMIC_ALLOCATION == 1 )
 218:Generated_Source\PSoC6\pdl\rtos\FreeRTOS\10.0.1\Source/stream_buffer.c **** 
 219:Generated_Source\PSoC6\pdl\rtos\FreeRTOS\10.0.1\Source/stream_buffer.c **** 	StreamBufferHandle_t xStreamBufferGenericCreate( size_t xBufferSizeBytes, size_t xTriggerLevelByte
 220:Generated_Source\PSoC6\pdl\rtos\FreeRTOS\10.0.1\Source/stream_buffer.c **** 	{
  29              		.loc 1 220 0
  30              		.cfi_startproc
  31              		@ args = 0, pretend = 0, frame = 32
  32              		@ frame_needed = 1, uses_anonymous_args = 0
  33 0000 80B5     		push	{r7, lr}
  34              		.cfi_def_cfa_offset 8
  35              		.cfi_offset 7, -8
  36              		.cfi_offset 14, -4
  37 0002 8AB0     		sub	sp, sp, #40
  38              		.cfi_def_cfa_offset 48
  39 0004 02AF     		add	r7, sp, #8
  40              		.cfi_def_cfa 7, 40
  41 0006 F860     		str	r0, [r7, #12]
  42 0008 B960     		str	r1, [r7, #8]
  43 000a 7A60     		str	r2, [r7, #4]
 221:Generated_Source\PSoC6\pdl\rtos\FreeRTOS\10.0.1\Source/stream_buffer.c **** 	uint8_t *pucAllocatedMemory;
 222:Generated_Source\PSoC6\pdl\rtos\FreeRTOS\10.0.1\Source/stream_buffer.c **** 
 223:Generated_Source\PSoC6\pdl\rtos\FreeRTOS\10.0.1\Source/stream_buffer.c **** 		/* In case the stream buffer is going to be used as a message buffer
 224:Generated_Source\PSoC6\pdl\rtos\FreeRTOS\10.0.1\Source/stream_buffer.c **** 		(that is, it will hold discrete messages with a little meta data that
 225:Generated_Source\PSoC6\pdl\rtos\FreeRTOS\10.0.1\Source/stream_buffer.c **** 		says how big the next message is) check the buffer will be large enough
 226:Generated_Source\PSoC6\pdl\rtos\FreeRTOS\10.0.1\Source/stream_buffer.c **** 		to hold at least one message. */
 227:Generated_Source\PSoC6\pdl\rtos\FreeRTOS\10.0.1\Source/stream_buffer.c **** 		configASSERT( xBufferSizeBytes > sbBYTES_TO_STORE_MESSAGE_LENGTH );
  44              		.loc 1 227 0
  45 000c FB68     		ldr	r3, [r7, #12]
  46 000e 042B     		cmp	r3, #4
  47 0010 09D8     		bhi	.L2
  48              	.LBB77:
  49              	.LBB78:
  50              		.file 2 "Generated_Source\\PSoC6\\pdl\\rtos/FreeRTOS/10.0.1/Source/portable/GCC/CM4F/portmacro.h"
   1:Generated_Source\PSoC6\pdl\rtos/FreeRTOS/10.0.1/Source/portable/GCC/CM4F/portmacro.h **** /*
   2:Generated_Source\PSoC6\pdl\rtos/FreeRTOS/10.0.1/Source/portable/GCC/CM4F/portmacro.h ****  * FreeRTOS Kernel V10.0.1
   3:Generated_Source\PSoC6\pdl\rtos/FreeRTOS/10.0.1/Source/portable/GCC/CM4F/portmacro.h ****  * Copyright (C) 2017 Amazon.com, Inc. or its affiliates.  All Rights Reserved.
   4:Generated_Source\PSoC6\pdl\rtos/FreeRTOS/10.0.1/Source/portable/GCC/CM4F/portmacro.h ****  *
   5:Generated_Source\PSoC6\pdl\rtos/FreeRTOS/10.0.1/Source/portable/GCC/CM4F/portmacro.h ****  * Permission is hereby granted, free of charge, to any person obtaining a copy of
   6:Generated_Source\PSoC6\pdl\rtos/FreeRTOS/10.0.1/Source/portable/GCC/CM4F/portmacro.h ****  * this software and associated documentation files (the "Software"), to deal in
   7:Generated_Source\PSoC6\pdl\rtos/FreeRTOS/10.0.1/Source/portable/GCC/CM4F/portmacro.h ****  * the Software without restriction, including without limitation the rights to
   8:Generated_Source\PSoC6\pdl\rtos/FreeRTOS/10.0.1/Source/portable/GCC/CM4F/portmacro.h ****  * use, copy, modify, merge, publish, distribute, sublicense, and/or sell copies of
ARM GAS  C:\Users\stijn\AppData\Local\Temp\cccniDcZ.s 			page 6


   9:Generated_Source\PSoC6\pdl\rtos/FreeRTOS/10.0.1/Source/portable/GCC/CM4F/portmacro.h ****  * the Software, and to permit persons to whom the Software is furnished to do so,
  10:Generated_Source\PSoC6\pdl\rtos/FreeRTOS/10.0.1/Source/portable/GCC/CM4F/portmacro.h ****  * subject to the following conditions:
  11:Generated_Source\PSoC6\pdl\rtos/FreeRTOS/10.0.1/Source/portable/GCC/CM4F/portmacro.h ****  *
  12:Generated_Source\PSoC6\pdl\rtos/FreeRTOS/10.0.1/Source/portable/GCC/CM4F/portmacro.h ****  * The above copyright notice and this permission notice shall be included in all
  13:Generated_Source\PSoC6\pdl\rtos/FreeRTOS/10.0.1/Source/portable/GCC/CM4F/portmacro.h ****  * copies or substantial portions of the Software.
  14:Generated_Source\PSoC6\pdl\rtos/FreeRTOS/10.0.1/Source/portable/GCC/CM4F/portmacro.h ****  *
  15:Generated_Source\PSoC6\pdl\rtos/FreeRTOS/10.0.1/Source/portable/GCC/CM4F/portmacro.h ****  * THE SOFTWARE IS PROVIDED "AS IS", WITHOUT WARRANTY OF ANY KIND, EXPRESS OR
  16:Generated_Source\PSoC6\pdl\rtos/FreeRTOS/10.0.1/Source/portable/GCC/CM4F/portmacro.h ****  * IMPLIED, INCLUDING BUT NOT LIMITED TO THE WARRANTIES OF MERCHANTABILITY, FITNESS
  17:Generated_Source\PSoC6\pdl\rtos/FreeRTOS/10.0.1/Source/portable/GCC/CM4F/portmacro.h ****  * FOR A PARTICULAR PURPOSE AND NONINFRINGEMENT. IN NO EVENT SHALL THE AUTHORS OR
  18:Generated_Source\PSoC6\pdl\rtos/FreeRTOS/10.0.1/Source/portable/GCC/CM4F/portmacro.h ****  * COPYRIGHT HOLDERS BE LIABLE FOR ANY CLAIM, DAMAGES OR OTHER LIABILITY, WHETHER
  19:Generated_Source\PSoC6\pdl\rtos/FreeRTOS/10.0.1/Source/portable/GCC/CM4F/portmacro.h ****  * IN AN ACTION OF CONTRACT, TORT OR OTHERWISE, ARISING FROM, OUT OF OR IN
  20:Generated_Source\PSoC6\pdl\rtos/FreeRTOS/10.0.1/Source/portable/GCC/CM4F/portmacro.h ****  * CONNECTION WITH THE SOFTWARE OR THE USE OR OTHER DEALINGS IN THE SOFTWARE.
  21:Generated_Source\PSoC6\pdl\rtos/FreeRTOS/10.0.1/Source/portable/GCC/CM4F/portmacro.h ****  *
  22:Generated_Source\PSoC6\pdl\rtos/FreeRTOS/10.0.1/Source/portable/GCC/CM4F/portmacro.h ****  * http://www.FreeRTOS.org
  23:Generated_Source\PSoC6\pdl\rtos/FreeRTOS/10.0.1/Source/portable/GCC/CM4F/portmacro.h ****  * http://aws.amazon.com/freertos
  24:Generated_Source\PSoC6\pdl\rtos/FreeRTOS/10.0.1/Source/portable/GCC/CM4F/portmacro.h ****  *
  25:Generated_Source\PSoC6\pdl\rtos/FreeRTOS/10.0.1/Source/portable/GCC/CM4F/portmacro.h ****  * 1 tab == 4 spaces!
  26:Generated_Source\PSoC6\pdl\rtos/FreeRTOS/10.0.1/Source/portable/GCC/CM4F/portmacro.h ****  */
  27:Generated_Source\PSoC6\pdl\rtos/FreeRTOS/10.0.1/Source/portable/GCC/CM4F/portmacro.h **** 
  28:Generated_Source\PSoC6\pdl\rtos/FreeRTOS/10.0.1/Source/portable/GCC/CM4F/portmacro.h **** 
  29:Generated_Source\PSoC6\pdl\rtos/FreeRTOS/10.0.1/Source/portable/GCC/CM4F/portmacro.h **** #ifndef PORTMACRO_H
  30:Generated_Source\PSoC6\pdl\rtos/FreeRTOS/10.0.1/Source/portable/GCC/CM4F/portmacro.h **** #define PORTMACRO_H
  31:Generated_Source\PSoC6\pdl\rtos/FreeRTOS/10.0.1/Source/portable/GCC/CM4F/portmacro.h **** 
  32:Generated_Source\PSoC6\pdl\rtos/FreeRTOS/10.0.1/Source/portable/GCC/CM4F/portmacro.h **** #ifdef __cplusplus
  33:Generated_Source\PSoC6\pdl\rtos/FreeRTOS/10.0.1/Source/portable/GCC/CM4F/portmacro.h **** extern "C" {
  34:Generated_Source\PSoC6\pdl\rtos/FreeRTOS/10.0.1/Source/portable/GCC/CM4F/portmacro.h **** #endif
  35:Generated_Source\PSoC6\pdl\rtos/FreeRTOS/10.0.1/Source/portable/GCC/CM4F/portmacro.h **** 
  36:Generated_Source\PSoC6\pdl\rtos/FreeRTOS/10.0.1/Source/portable/GCC/CM4F/portmacro.h **** /*-----------------------------------------------------------
  37:Generated_Source\PSoC6\pdl\rtos/FreeRTOS/10.0.1/Source/portable/GCC/CM4F/portmacro.h ****  * Port specific definitions.
  38:Generated_Source\PSoC6\pdl\rtos/FreeRTOS/10.0.1/Source/portable/GCC/CM4F/portmacro.h ****  *
  39:Generated_Source\PSoC6\pdl\rtos/FreeRTOS/10.0.1/Source/portable/GCC/CM4F/portmacro.h ****  * The settings in this file configure FreeRTOS correctly for the
  40:Generated_Source\PSoC6\pdl\rtos/FreeRTOS/10.0.1/Source/portable/GCC/CM4F/portmacro.h ****  * given hardware and compiler.
  41:Generated_Source\PSoC6\pdl\rtos/FreeRTOS/10.0.1/Source/portable/GCC/CM4F/portmacro.h ****  *
  42:Generated_Source\PSoC6\pdl\rtos/FreeRTOS/10.0.1/Source/portable/GCC/CM4F/portmacro.h ****  * These settings should not be altered.
  43:Generated_Source\PSoC6\pdl\rtos/FreeRTOS/10.0.1/Source/portable/GCC/CM4F/portmacro.h ****  *-----------------------------------------------------------
  44:Generated_Source\PSoC6\pdl\rtos/FreeRTOS/10.0.1/Source/portable/GCC/CM4F/portmacro.h ****  */
  45:Generated_Source\PSoC6\pdl\rtos/FreeRTOS/10.0.1/Source/portable/GCC/CM4F/portmacro.h **** 
  46:Generated_Source\PSoC6\pdl\rtos/FreeRTOS/10.0.1/Source/portable/GCC/CM4F/portmacro.h **** /* Type definitions. */
  47:Generated_Source\PSoC6\pdl\rtos/FreeRTOS/10.0.1/Source/portable/GCC/CM4F/portmacro.h **** #define portCHAR		char
  48:Generated_Source\PSoC6\pdl\rtos/FreeRTOS/10.0.1/Source/portable/GCC/CM4F/portmacro.h **** #define portFLOAT		float
  49:Generated_Source\PSoC6\pdl\rtos/FreeRTOS/10.0.1/Source/portable/GCC/CM4F/portmacro.h **** #define portDOUBLE		double
  50:Generated_Source\PSoC6\pdl\rtos/FreeRTOS/10.0.1/Source/portable/GCC/CM4F/portmacro.h **** #define portLONG		long
  51:Generated_Source\PSoC6\pdl\rtos/FreeRTOS/10.0.1/Source/portable/GCC/CM4F/portmacro.h **** #define portSHORT		short
  52:Generated_Source\PSoC6\pdl\rtos/FreeRTOS/10.0.1/Source/portable/GCC/CM4F/portmacro.h **** #define portSTACK_TYPE	uint32_t
  53:Generated_Source\PSoC6\pdl\rtos/FreeRTOS/10.0.1/Source/portable/GCC/CM4F/portmacro.h **** #define portBASE_TYPE	long
  54:Generated_Source\PSoC6\pdl\rtos/FreeRTOS/10.0.1/Source/portable/GCC/CM4F/portmacro.h **** 
  55:Generated_Source\PSoC6\pdl\rtos/FreeRTOS/10.0.1/Source/portable/GCC/CM4F/portmacro.h **** typedef portSTACK_TYPE StackType_t;
  56:Generated_Source\PSoC6\pdl\rtos/FreeRTOS/10.0.1/Source/portable/GCC/CM4F/portmacro.h **** typedef long BaseType_t;
  57:Generated_Source\PSoC6\pdl\rtos/FreeRTOS/10.0.1/Source/portable/GCC/CM4F/portmacro.h **** typedef unsigned long UBaseType_t;
  58:Generated_Source\PSoC6\pdl\rtos/FreeRTOS/10.0.1/Source/portable/GCC/CM4F/portmacro.h **** 
  59:Generated_Source\PSoC6\pdl\rtos/FreeRTOS/10.0.1/Source/portable/GCC/CM4F/portmacro.h **** #if( configUSE_16_BIT_TICKS == 1 )
  60:Generated_Source\PSoC6\pdl\rtos/FreeRTOS/10.0.1/Source/portable/GCC/CM4F/portmacro.h **** 	typedef uint16_t TickType_t;
  61:Generated_Source\PSoC6\pdl\rtos/FreeRTOS/10.0.1/Source/portable/GCC/CM4F/portmacro.h **** 	#define portMAX_DELAY ( TickType_t ) 0xffff
  62:Generated_Source\PSoC6\pdl\rtos/FreeRTOS/10.0.1/Source/portable/GCC/CM4F/portmacro.h **** #else
  63:Generated_Source\PSoC6\pdl\rtos/FreeRTOS/10.0.1/Source/portable/GCC/CM4F/portmacro.h **** 	typedef uint32_t TickType_t;
  64:Generated_Source\PSoC6\pdl\rtos/FreeRTOS/10.0.1/Source/portable/GCC/CM4F/portmacro.h **** 	#define portMAX_DELAY ( TickType_t ) 0xffffffffUL
  65:Generated_Source\PSoC6\pdl\rtos/FreeRTOS/10.0.1/Source/portable/GCC/CM4F/portmacro.h **** 
ARM GAS  C:\Users\stijn\AppData\Local\Temp\cccniDcZ.s 			page 7


  66:Generated_Source\PSoC6\pdl\rtos/FreeRTOS/10.0.1/Source/portable/GCC/CM4F/portmacro.h **** 	/* 32-bit tick type on a 32-bit architecture, so reads of the tick count do
  67:Generated_Source\PSoC6\pdl\rtos/FreeRTOS/10.0.1/Source/portable/GCC/CM4F/portmacro.h **** 	not need to be guarded with a critical section. */
  68:Generated_Source\PSoC6\pdl\rtos/FreeRTOS/10.0.1/Source/portable/GCC/CM4F/portmacro.h **** 	#define portTICK_TYPE_IS_ATOMIC 1
  69:Generated_Source\PSoC6\pdl\rtos/FreeRTOS/10.0.1/Source/portable/GCC/CM4F/portmacro.h **** #endif
  70:Generated_Source\PSoC6\pdl\rtos/FreeRTOS/10.0.1/Source/portable/GCC/CM4F/portmacro.h **** /*-----------------------------------------------------------*/
  71:Generated_Source\PSoC6\pdl\rtos/FreeRTOS/10.0.1/Source/portable/GCC/CM4F/portmacro.h **** 
  72:Generated_Source\PSoC6\pdl\rtos/FreeRTOS/10.0.1/Source/portable/GCC/CM4F/portmacro.h **** /* Architecture specifics. */
  73:Generated_Source\PSoC6\pdl\rtos/FreeRTOS/10.0.1/Source/portable/GCC/CM4F/portmacro.h **** #define portSTACK_GROWTH			( -1 )
  74:Generated_Source\PSoC6\pdl\rtos/FreeRTOS/10.0.1/Source/portable/GCC/CM4F/portmacro.h **** #define portTICK_PERIOD_MS			( ( TickType_t ) 1000 / configTICK_RATE_HZ )
  75:Generated_Source\PSoC6\pdl\rtos/FreeRTOS/10.0.1/Source/portable/GCC/CM4F/portmacro.h **** #define portBYTE_ALIGNMENT			8
  76:Generated_Source\PSoC6\pdl\rtos/FreeRTOS/10.0.1/Source/portable/GCC/CM4F/portmacro.h **** /*-----------------------------------------------------------*/
  77:Generated_Source\PSoC6\pdl\rtos/FreeRTOS/10.0.1/Source/portable/GCC/CM4F/portmacro.h **** 
  78:Generated_Source\PSoC6\pdl\rtos/FreeRTOS/10.0.1/Source/portable/GCC/CM4F/portmacro.h **** /* Scheduler utilities. */
  79:Generated_Source\PSoC6\pdl\rtos/FreeRTOS/10.0.1/Source/portable/GCC/CM4F/portmacro.h **** #define portYIELD() 															\
  80:Generated_Source\PSoC6\pdl\rtos/FreeRTOS/10.0.1/Source/portable/GCC/CM4F/portmacro.h **** {																				\
  81:Generated_Source\PSoC6\pdl\rtos/FreeRTOS/10.0.1/Source/portable/GCC/CM4F/portmacro.h **** 	/* Set a PendSV to request a context switch. */								\
  82:Generated_Source\PSoC6\pdl\rtos/FreeRTOS/10.0.1/Source/portable/GCC/CM4F/portmacro.h **** 	portNVIC_INT_CTRL_REG = portNVIC_PENDSVSET_BIT;								\
  83:Generated_Source\PSoC6\pdl\rtos/FreeRTOS/10.0.1/Source/portable/GCC/CM4F/portmacro.h **** 																				\
  84:Generated_Source\PSoC6\pdl\rtos/FreeRTOS/10.0.1/Source/portable/GCC/CM4F/portmacro.h **** 	/* Barriers are normally not required but do ensure the code is completely	\
  85:Generated_Source\PSoC6\pdl\rtos/FreeRTOS/10.0.1/Source/portable/GCC/CM4F/portmacro.h **** 	within the specified behaviour for the architecture. */						\
  86:Generated_Source\PSoC6\pdl\rtos/FreeRTOS/10.0.1/Source/portable/GCC/CM4F/portmacro.h **** 	__asm volatile( "dsb" ::: "memory" );										\
  87:Generated_Source\PSoC6\pdl\rtos/FreeRTOS/10.0.1/Source/portable/GCC/CM4F/portmacro.h **** 	__asm volatile( "isb" );													\
  88:Generated_Source\PSoC6\pdl\rtos/FreeRTOS/10.0.1/Source/portable/GCC/CM4F/portmacro.h **** }
  89:Generated_Source\PSoC6\pdl\rtos/FreeRTOS/10.0.1/Source/portable/GCC/CM4F/portmacro.h **** 
  90:Generated_Source\PSoC6\pdl\rtos/FreeRTOS/10.0.1/Source/portable/GCC/CM4F/portmacro.h **** #define portNVIC_INT_CTRL_REG		( * ( ( volatile uint32_t * ) 0xe000ed04 ) )
  91:Generated_Source\PSoC6\pdl\rtos/FreeRTOS/10.0.1/Source/portable/GCC/CM4F/portmacro.h **** #define portNVIC_PENDSVSET_BIT		( 1UL << 28UL )
  92:Generated_Source\PSoC6\pdl\rtos/FreeRTOS/10.0.1/Source/portable/GCC/CM4F/portmacro.h **** #define portEND_SWITCHING_ISR( xSwitchRequired ) if( xSwitchRequired != pdFALSE ) portYIELD()
  93:Generated_Source\PSoC6\pdl\rtos/FreeRTOS/10.0.1/Source/portable/GCC/CM4F/portmacro.h **** #define portYIELD_FROM_ISR( x ) portEND_SWITCHING_ISR( x )
  94:Generated_Source\PSoC6\pdl\rtos/FreeRTOS/10.0.1/Source/portable/GCC/CM4F/portmacro.h **** /*-----------------------------------------------------------*/
  95:Generated_Source\PSoC6\pdl\rtos/FreeRTOS/10.0.1/Source/portable/GCC/CM4F/portmacro.h **** 
  96:Generated_Source\PSoC6\pdl\rtos/FreeRTOS/10.0.1/Source/portable/GCC/CM4F/portmacro.h **** /* Critical section management. */
  97:Generated_Source\PSoC6\pdl\rtos/FreeRTOS/10.0.1/Source/portable/GCC/CM4F/portmacro.h **** extern void vPortEnterCritical( void );
  98:Generated_Source\PSoC6\pdl\rtos/FreeRTOS/10.0.1/Source/portable/GCC/CM4F/portmacro.h **** extern void vPortExitCritical( void );
  99:Generated_Source\PSoC6\pdl\rtos/FreeRTOS/10.0.1/Source/portable/GCC/CM4F/portmacro.h **** #define portSET_INTERRUPT_MASK_FROM_ISR()		ulPortRaiseBASEPRI()
 100:Generated_Source\PSoC6\pdl\rtos/FreeRTOS/10.0.1/Source/portable/GCC/CM4F/portmacro.h **** #define portCLEAR_INTERRUPT_MASK_FROM_ISR(x)	vPortSetBASEPRI(x)
 101:Generated_Source\PSoC6\pdl\rtos/FreeRTOS/10.0.1/Source/portable/GCC/CM4F/portmacro.h **** #define portDISABLE_INTERRUPTS()				vPortRaiseBASEPRI()
 102:Generated_Source\PSoC6\pdl\rtos/FreeRTOS/10.0.1/Source/portable/GCC/CM4F/portmacro.h **** #define portENABLE_INTERRUPTS()					vPortSetBASEPRI(0)
 103:Generated_Source\PSoC6\pdl\rtos/FreeRTOS/10.0.1/Source/portable/GCC/CM4F/portmacro.h **** #define portENTER_CRITICAL()					vPortEnterCritical()
 104:Generated_Source\PSoC6\pdl\rtos/FreeRTOS/10.0.1/Source/portable/GCC/CM4F/portmacro.h **** #define portEXIT_CRITICAL()						vPortExitCritical()
 105:Generated_Source\PSoC6\pdl\rtos/FreeRTOS/10.0.1/Source/portable/GCC/CM4F/portmacro.h **** 
 106:Generated_Source\PSoC6\pdl\rtos/FreeRTOS/10.0.1/Source/portable/GCC/CM4F/portmacro.h **** /*-----------------------------------------------------------*/
 107:Generated_Source\PSoC6\pdl\rtos/FreeRTOS/10.0.1/Source/portable/GCC/CM4F/portmacro.h **** 
 108:Generated_Source\PSoC6\pdl\rtos/FreeRTOS/10.0.1/Source/portable/GCC/CM4F/portmacro.h **** /* Task function macros as described on the FreeRTOS.org WEB site.  These are
 109:Generated_Source\PSoC6\pdl\rtos/FreeRTOS/10.0.1/Source/portable/GCC/CM4F/portmacro.h **** not necessary for to use this port.  They are defined so the common demo files
 110:Generated_Source\PSoC6\pdl\rtos/FreeRTOS/10.0.1/Source/portable/GCC/CM4F/portmacro.h **** (which build with all the ports) will build. */
 111:Generated_Source\PSoC6\pdl\rtos/FreeRTOS/10.0.1/Source/portable/GCC/CM4F/portmacro.h **** #define portTASK_FUNCTION_PROTO( vFunction, pvParameters ) void vFunction( void *pvParameters )
 112:Generated_Source\PSoC6\pdl\rtos/FreeRTOS/10.0.1/Source/portable/GCC/CM4F/portmacro.h **** #define portTASK_FUNCTION( vFunction, pvParameters ) void vFunction( void *pvParameters )
 113:Generated_Source\PSoC6\pdl\rtos/FreeRTOS/10.0.1/Source/portable/GCC/CM4F/portmacro.h **** 
 114:Generated_Source\PSoC6\pdl\rtos/FreeRTOS/10.0.1/Source/portable/GCC/CM4F/portmacro.h **** /*-----------------------------------------------------------*/
 115:Generated_Source\PSoC6\pdl\rtos/FreeRTOS/10.0.1/Source/portable/GCC/CM4F/portmacro.h **** 
 116:Generated_Source\PSoC6\pdl\rtos/FreeRTOS/10.0.1/Source/portable/GCC/CM4F/portmacro.h **** #ifdef configASSERT
 117:Generated_Source\PSoC6\pdl\rtos/FreeRTOS/10.0.1/Source/portable/GCC/CM4F/portmacro.h **** 	void vPortValidateInterruptPriority( void );
 118:Generated_Source\PSoC6\pdl\rtos/FreeRTOS/10.0.1/Source/portable/GCC/CM4F/portmacro.h **** 	#define portASSERT_IF_INTERRUPT_PRIORITY_INVALID() 	vPortValidateInterruptPriority()
 119:Generated_Source\PSoC6\pdl\rtos/FreeRTOS/10.0.1/Source/portable/GCC/CM4F/portmacro.h **** #endif
 120:Generated_Source\PSoC6\pdl\rtos/FreeRTOS/10.0.1/Source/portable/GCC/CM4F/portmacro.h **** 
 121:Generated_Source\PSoC6\pdl\rtos/FreeRTOS/10.0.1/Source/portable/GCC/CM4F/portmacro.h **** /* portNOP() is not required by this port. */
 122:Generated_Source\PSoC6\pdl\rtos/FreeRTOS/10.0.1/Source/portable/GCC/CM4F/portmacro.h **** #define portNOP()
ARM GAS  C:\Users\stijn\AppData\Local\Temp\cccniDcZ.s 			page 8


 123:Generated_Source\PSoC6\pdl\rtos/FreeRTOS/10.0.1/Source/portable/GCC/CM4F/portmacro.h **** 
 124:Generated_Source\PSoC6\pdl\rtos/FreeRTOS/10.0.1/Source/portable/GCC/CM4F/portmacro.h **** #define portINLINE	__inline
 125:Generated_Source\PSoC6\pdl\rtos/FreeRTOS/10.0.1/Source/portable/GCC/CM4F/portmacro.h **** 
 126:Generated_Source\PSoC6\pdl\rtos/FreeRTOS/10.0.1/Source/portable/GCC/CM4F/portmacro.h **** #ifndef portFORCE_INLINE
 127:Generated_Source\PSoC6\pdl\rtos/FreeRTOS/10.0.1/Source/portable/GCC/CM4F/portmacro.h **** 	#define portFORCE_INLINE inline __attribute__(( always_inline))
 128:Generated_Source\PSoC6\pdl\rtos/FreeRTOS/10.0.1/Source/portable/GCC/CM4F/portmacro.h **** #endif
 129:Generated_Source\PSoC6\pdl\rtos/FreeRTOS/10.0.1/Source/portable/GCC/CM4F/portmacro.h **** 
 130:Generated_Source\PSoC6\pdl\rtos/FreeRTOS/10.0.1/Source/portable/GCC/CM4F/portmacro.h **** portFORCE_INLINE static BaseType_t xPortIsInsideInterrupt( void )
 131:Generated_Source\PSoC6\pdl\rtos/FreeRTOS/10.0.1/Source/portable/GCC/CM4F/portmacro.h **** {
 132:Generated_Source\PSoC6\pdl\rtos/FreeRTOS/10.0.1/Source/portable/GCC/CM4F/portmacro.h **** uint32_t ulCurrentInterrupt;
 133:Generated_Source\PSoC6\pdl\rtos/FreeRTOS/10.0.1/Source/portable/GCC/CM4F/portmacro.h **** BaseType_t xReturn;
 134:Generated_Source\PSoC6\pdl\rtos/FreeRTOS/10.0.1/Source/portable/GCC/CM4F/portmacro.h **** 
 135:Generated_Source\PSoC6\pdl\rtos/FreeRTOS/10.0.1/Source/portable/GCC/CM4F/portmacro.h **** 	/* Obtain the number of the currently executing interrupt. */
 136:Generated_Source\PSoC6\pdl\rtos/FreeRTOS/10.0.1/Source/portable/GCC/CM4F/portmacro.h **** 	__asm volatile( "mrs %0, ipsr" : "=r"( ulCurrentInterrupt ) :: "memory" );
 137:Generated_Source\PSoC6\pdl\rtos/FreeRTOS/10.0.1/Source/portable/GCC/CM4F/portmacro.h **** 
 138:Generated_Source\PSoC6\pdl\rtos/FreeRTOS/10.0.1/Source/portable/GCC/CM4F/portmacro.h **** 	if( ulCurrentInterrupt == 0 )
 139:Generated_Source\PSoC6\pdl\rtos/FreeRTOS/10.0.1/Source/portable/GCC/CM4F/portmacro.h **** 	{
 140:Generated_Source\PSoC6\pdl\rtos/FreeRTOS/10.0.1/Source/portable/GCC/CM4F/portmacro.h **** 		xReturn = pdFALSE;
 141:Generated_Source\PSoC6\pdl\rtos/FreeRTOS/10.0.1/Source/portable/GCC/CM4F/portmacro.h **** 	}
 142:Generated_Source\PSoC6\pdl\rtos/FreeRTOS/10.0.1/Source/portable/GCC/CM4F/portmacro.h **** 	else
 143:Generated_Source\PSoC6\pdl\rtos/FreeRTOS/10.0.1/Source/portable/GCC/CM4F/portmacro.h **** 	{
 144:Generated_Source\PSoC6\pdl\rtos/FreeRTOS/10.0.1/Source/portable/GCC/CM4F/portmacro.h **** 		xReturn = pdTRUE;
 145:Generated_Source\PSoC6\pdl\rtos/FreeRTOS/10.0.1/Source/portable/GCC/CM4F/portmacro.h **** 	}
 146:Generated_Source\PSoC6\pdl\rtos/FreeRTOS/10.0.1/Source/portable/GCC/CM4F/portmacro.h **** 
 147:Generated_Source\PSoC6\pdl\rtos/FreeRTOS/10.0.1/Source/portable/GCC/CM4F/portmacro.h **** 	return xReturn;
 148:Generated_Source\PSoC6\pdl\rtos/FreeRTOS/10.0.1/Source/portable/GCC/CM4F/portmacro.h **** }
 149:Generated_Source\PSoC6\pdl\rtos/FreeRTOS/10.0.1/Source/portable/GCC/CM4F/portmacro.h **** 
 150:Generated_Source\PSoC6\pdl\rtos/FreeRTOS/10.0.1/Source/portable/GCC/CM4F/portmacro.h **** /*-----------------------------------------------------------*/
 151:Generated_Source\PSoC6\pdl\rtos/FreeRTOS/10.0.1/Source/portable/GCC/CM4F/portmacro.h **** 
 152:Generated_Source\PSoC6\pdl\rtos/FreeRTOS/10.0.1/Source/portable/GCC/CM4F/portmacro.h **** portFORCE_INLINE static void vPortRaiseBASEPRI( void )
 153:Generated_Source\PSoC6\pdl\rtos/FreeRTOS/10.0.1/Source/portable/GCC/CM4F/portmacro.h **** {
 154:Generated_Source\PSoC6\pdl\rtos/FreeRTOS/10.0.1/Source/portable/GCC/CM4F/portmacro.h **** uint32_t ulNewBASEPRI;
 155:Generated_Source\PSoC6\pdl\rtos/FreeRTOS/10.0.1/Source/portable/GCC/CM4F/portmacro.h **** 
 156:Generated_Source\PSoC6\pdl\rtos/FreeRTOS/10.0.1/Source/portable/GCC/CM4F/portmacro.h **** 	__asm volatile
  51              		.loc 2 156 0 discriminator 1
  52              		.syntax unified
  53              	@ 156 "Generated_Source\PSoC6\pdl\rtos/FreeRTOS/10.0.1/Source/portable/GCC/CM4F/portmacro.h" 1
  54 0012 4FF03F03 			mov r3, #63												
  55 0016 83F31188 		msr basepri, r3											
  56 001a BFF36F8F 		isb														
  57 001e BFF34F8F 		dsb														
  58              	
  59              	@ 0 "" 2
  60              		.thumb
  61              		.syntax unified
  62 0022 7B61     		str	r3, [r7, #20]
  63              	.L3:
  64              	.LBE78:
  65              	.LBE77:
  66              		.loc 1 227 0 discriminator 1
  67 0024 FEE7     		b	.L3
  68              	.L2:
 228:Generated_Source\PSoC6\pdl\rtos\FreeRTOS\10.0.1\Source/stream_buffer.c **** 		configASSERT( xTriggerLevelBytes <= xBufferSizeBytes );
  69              		.loc 1 228 0
  70 0026 BA68     		ldr	r2, [r7, #8]
  71 0028 FB68     		ldr	r3, [r7, #12]
  72 002a 9A42     		cmp	r2, r3
ARM GAS  C:\Users\stijn\AppData\Local\Temp\cccniDcZ.s 			page 9


  73 002c 09D9     		bls	.L4
  74              	.LBB79:
  75              	.LBB80:
  76              		.loc 2 156 0 discriminator 1
  77              		.syntax unified
  78              	@ 156 "Generated_Source\PSoC6\pdl\rtos/FreeRTOS/10.0.1/Source/portable/GCC/CM4F/portmacro.h" 1
  79 002e 4FF03F03 			mov r3, #63												
  80 0032 83F31188 		msr basepri, r3											
  81 0036 BFF36F8F 		isb														
  82 003a BFF34F8F 		dsb														
  83              	
  84              	@ 0 "" 2
  85              		.thumb
  86              		.syntax unified
  87 003e BB61     		str	r3, [r7, #24]
  88              	.L5:
  89              	.LBE80:
  90              	.LBE79:
  91              		.loc 1 228 0 discriminator 2
  92 0040 FEE7     		b	.L5
  93              	.L4:
 229:Generated_Source\PSoC6\pdl\rtos\FreeRTOS\10.0.1\Source/stream_buffer.c **** 
 230:Generated_Source\PSoC6\pdl\rtos\FreeRTOS\10.0.1\Source/stream_buffer.c **** 		/* A trigger level of 0 would cause a waiting task to unblock even when
 231:Generated_Source\PSoC6\pdl\rtos\FreeRTOS\10.0.1\Source/stream_buffer.c **** 		the buffer was empty. */
 232:Generated_Source\PSoC6\pdl\rtos\FreeRTOS\10.0.1\Source/stream_buffer.c **** 		if( xTriggerLevelBytes == ( size_t ) 0 )
  94              		.loc 1 232 0
  95 0042 BB68     		ldr	r3, [r7, #8]
  96 0044 002B     		cmp	r3, #0
  97 0046 01D1     		bne	.L6
 233:Generated_Source\PSoC6\pdl\rtos\FreeRTOS\10.0.1\Source/stream_buffer.c **** 		{
 234:Generated_Source\PSoC6\pdl\rtos\FreeRTOS\10.0.1\Source/stream_buffer.c **** 			xTriggerLevelBytes = ( size_t ) 1; /*lint !e9044 Parameter modified to ensure it doesn't have a 
  98              		.loc 1 234 0
  99 0048 0123     		movs	r3, #1
 100 004a BB60     		str	r3, [r7, #8]
 101              	.L6:
 235:Generated_Source\PSoC6\pdl\rtos\FreeRTOS\10.0.1\Source/stream_buffer.c **** 		}
 236:Generated_Source\PSoC6\pdl\rtos\FreeRTOS\10.0.1\Source/stream_buffer.c **** 
 237:Generated_Source\PSoC6\pdl\rtos\FreeRTOS\10.0.1\Source/stream_buffer.c **** 		/* A stream buffer requires a StreamBuffer_t structure and a buffer.
 238:Generated_Source\PSoC6\pdl\rtos\FreeRTOS\10.0.1\Source/stream_buffer.c **** 		Both are allocated in a single call to pvPortMalloc().  The
 239:Generated_Source\PSoC6\pdl\rtos\FreeRTOS\10.0.1\Source/stream_buffer.c **** 		StreamBuffer_t structure is placed at the start of the allocated memory
 240:Generated_Source\PSoC6\pdl\rtos\FreeRTOS\10.0.1\Source/stream_buffer.c **** 		and the buffer follows immediately after.  The requested size is
 241:Generated_Source\PSoC6\pdl\rtos\FreeRTOS\10.0.1\Source/stream_buffer.c **** 		incremented so the free space is returned as the user would expect -
 242:Generated_Source\PSoC6\pdl\rtos\FreeRTOS\10.0.1\Source/stream_buffer.c **** 		this is a quirk of the implementation that means otherwise the free
 243:Generated_Source\PSoC6\pdl\rtos\FreeRTOS\10.0.1\Source/stream_buffer.c **** 		space would be reported as one byte smaller than would be logically
 244:Generated_Source\PSoC6\pdl\rtos\FreeRTOS\10.0.1\Source/stream_buffer.c **** 		expected. */
 245:Generated_Source\PSoC6\pdl\rtos\FreeRTOS\10.0.1\Source/stream_buffer.c **** 		xBufferSizeBytes++;
 102              		.loc 1 245 0
 103 004c FB68     		ldr	r3, [r7, #12]
 104 004e 0133     		adds	r3, r3, #1
 105 0050 FB60     		str	r3, [r7, #12]
 246:Generated_Source\PSoC6\pdl\rtos\FreeRTOS\10.0.1\Source/stream_buffer.c **** 		pucAllocatedMemory = ( uint8_t * ) pvPortMalloc( xBufferSizeBytes + sizeof( StreamBuffer_t ) ); /
 106              		.loc 1 246 0
 107 0052 FB68     		ldr	r3, [r7, #12]
 108 0054 2033     		adds	r3, r3, #32
 109 0056 1846     		mov	r0, r3
 110 0058 FFF7FEFF 		bl	pvPortMalloc
 111 005c F861     		str	r0, [r7, #28]
ARM GAS  C:\Users\stijn\AppData\Local\Temp\cccniDcZ.s 			page 10


 247:Generated_Source\PSoC6\pdl\rtos\FreeRTOS\10.0.1\Source/stream_buffer.c **** 
 248:Generated_Source\PSoC6\pdl\rtos\FreeRTOS\10.0.1\Source/stream_buffer.c **** 		if( pucAllocatedMemory != NULL )
 112              		.loc 1 248 0
 113 005e FB69     		ldr	r3, [r7, #28]
 114 0060 002B     		cmp	r3, #0
 115 0062 09D0     		beq	.L7
 249:Generated_Source\PSoC6\pdl\rtos\FreeRTOS\10.0.1\Source/stream_buffer.c **** 		{
 250:Generated_Source\PSoC6\pdl\rtos\FreeRTOS\10.0.1\Source/stream_buffer.c **** 			prvInitialiseNewStreamBuffer( ( StreamBuffer_t * ) pucAllocatedMemory, /* Structure at the start
 116              		.loc 1 250 0
 117 0064 FB69     		ldr	r3, [r7, #28]
 118 0066 03F12001 		add	r1, r3, #32
 119 006a 7B68     		ldr	r3, [r7, #4]
 120 006c 0093     		str	r3, [sp]
 121 006e BB68     		ldr	r3, [r7, #8]
 122 0070 FA68     		ldr	r2, [r7, #12]
 123 0072 F869     		ldr	r0, [r7, #28]
 124 0074 FFF7FEFF 		bl	prvInitialiseNewStreamBuffer
 125              	.L7:
 251:Generated_Source\PSoC6\pdl\rtos\FreeRTOS\10.0.1\Source/stream_buffer.c **** 										   pucAllocatedMemory + sizeof( StreamBuffer_t ),  /* Storage area follows. */ /*lint !e9
 252:Generated_Source\PSoC6\pdl\rtos\FreeRTOS\10.0.1\Source/stream_buffer.c **** 										   xBufferSizeBytes,
 253:Generated_Source\PSoC6\pdl\rtos\FreeRTOS\10.0.1\Source/stream_buffer.c **** 										   xTriggerLevelBytes,
 254:Generated_Source\PSoC6\pdl\rtos\FreeRTOS\10.0.1\Source/stream_buffer.c **** 										   xIsMessageBuffer );
 255:Generated_Source\PSoC6\pdl\rtos\FreeRTOS\10.0.1\Source/stream_buffer.c **** 
 256:Generated_Source\PSoC6\pdl\rtos\FreeRTOS\10.0.1\Source/stream_buffer.c **** 			traceSTREAM_BUFFER_CREATE( ( ( StreamBuffer_t * ) pucAllocatedMemory ), xIsMessageBuffer );
 257:Generated_Source\PSoC6\pdl\rtos\FreeRTOS\10.0.1\Source/stream_buffer.c **** 		}
 258:Generated_Source\PSoC6\pdl\rtos\FreeRTOS\10.0.1\Source/stream_buffer.c **** 		else
 259:Generated_Source\PSoC6\pdl\rtos\FreeRTOS\10.0.1\Source/stream_buffer.c **** 		{
 260:Generated_Source\PSoC6\pdl\rtos\FreeRTOS\10.0.1\Source/stream_buffer.c **** 			traceSTREAM_BUFFER_CREATE_FAILED( xIsMessageBuffer );
 261:Generated_Source\PSoC6\pdl\rtos\FreeRTOS\10.0.1\Source/stream_buffer.c **** 		}
 262:Generated_Source\PSoC6\pdl\rtos\FreeRTOS\10.0.1\Source/stream_buffer.c **** 
 263:Generated_Source\PSoC6\pdl\rtos\FreeRTOS\10.0.1\Source/stream_buffer.c **** 		return ( StreamBufferHandle_t * ) pucAllocatedMemory; /*lint !e9087 !e826 Safe cast as allocated 
 126              		.loc 1 263 0
 127 0078 FB69     		ldr	r3, [r7, #28]
 264:Generated_Source\PSoC6\pdl\rtos\FreeRTOS\10.0.1\Source/stream_buffer.c **** 	}
 128              		.loc 1 264 0
 129 007a 1846     		mov	r0, r3
 130 007c 2037     		adds	r7, r7, #32
 131              		.cfi_def_cfa_offset 8
 132 007e BD46     		mov	sp, r7
 133              		.cfi_def_cfa_register 13
 134              		@ sp needed
 135 0080 80BD     		pop	{r7, pc}
 136              		.cfi_endproc
 137              	.LFE136:
 138              		.size	xStreamBufferGenericCreate, .-xStreamBufferGenericCreate
 139 0082 00BF     		.section	.text.vStreamBufferDelete,"ax",%progbits
 140              		.align	2
 141              		.global	vStreamBufferDelete
 142              		.thumb
 143              		.thumb_func
 144              		.type	vStreamBufferDelete, %function
 145              	vStreamBufferDelete:
 146              	.LFB137:
 265:Generated_Source\PSoC6\pdl\rtos\FreeRTOS\10.0.1\Source/stream_buffer.c **** 
 266:Generated_Source\PSoC6\pdl\rtos\FreeRTOS\10.0.1\Source/stream_buffer.c **** #endif /* configSUPPORT_DYNAMIC_ALLOCATION */
 267:Generated_Source\PSoC6\pdl\rtos\FreeRTOS\10.0.1\Source/stream_buffer.c **** /*-----------------------------------------------------------*/
 268:Generated_Source\PSoC6\pdl\rtos\FreeRTOS\10.0.1\Source/stream_buffer.c **** 
ARM GAS  C:\Users\stijn\AppData\Local\Temp\cccniDcZ.s 			page 11


 269:Generated_Source\PSoC6\pdl\rtos\FreeRTOS\10.0.1\Source/stream_buffer.c **** #if( configSUPPORT_STATIC_ALLOCATION == 1 )
 270:Generated_Source\PSoC6\pdl\rtos\FreeRTOS\10.0.1\Source/stream_buffer.c **** 
 271:Generated_Source\PSoC6\pdl\rtos\FreeRTOS\10.0.1\Source/stream_buffer.c **** 	StreamBufferHandle_t xStreamBufferGenericCreateStatic( size_t xBufferSizeBytes,
 272:Generated_Source\PSoC6\pdl\rtos\FreeRTOS\10.0.1\Source/stream_buffer.c **** 														   size_t xTriggerLevelBytes,
 273:Generated_Source\PSoC6\pdl\rtos\FreeRTOS\10.0.1\Source/stream_buffer.c **** 														   BaseType_t xIsMessageBuffer,
 274:Generated_Source\PSoC6\pdl\rtos\FreeRTOS\10.0.1\Source/stream_buffer.c **** 														   uint8_t * const pucStreamBufferStorageArea,
 275:Generated_Source\PSoC6\pdl\rtos\FreeRTOS\10.0.1\Source/stream_buffer.c **** 														   StaticStreamBuffer_t * const pxStaticStreamBuffer )
 276:Generated_Source\PSoC6\pdl\rtos\FreeRTOS\10.0.1\Source/stream_buffer.c **** 	{
 277:Generated_Source\PSoC6\pdl\rtos\FreeRTOS\10.0.1\Source/stream_buffer.c **** 	StreamBuffer_t * const pxStreamBuffer = ( StreamBuffer_t * ) pxStaticStreamBuffer; /*lint !e740 !e
 278:Generated_Source\PSoC6\pdl\rtos\FreeRTOS\10.0.1\Source/stream_buffer.c **** 	StreamBufferHandle_t xReturn;
 279:Generated_Source\PSoC6\pdl\rtos\FreeRTOS\10.0.1\Source/stream_buffer.c **** 
 280:Generated_Source\PSoC6\pdl\rtos\FreeRTOS\10.0.1\Source/stream_buffer.c **** 		configASSERT( pucStreamBufferStorageArea );
 281:Generated_Source\PSoC6\pdl\rtos\FreeRTOS\10.0.1\Source/stream_buffer.c **** 		configASSERT( pxStaticStreamBuffer );
 282:Generated_Source\PSoC6\pdl\rtos\FreeRTOS\10.0.1\Source/stream_buffer.c **** 		configASSERT( xTriggerLevelBytes <= xBufferSizeBytes );
 283:Generated_Source\PSoC6\pdl\rtos\FreeRTOS\10.0.1\Source/stream_buffer.c **** 
 284:Generated_Source\PSoC6\pdl\rtos\FreeRTOS\10.0.1\Source/stream_buffer.c **** 		/* A trigger level of 0 would cause a waiting task to unblock even when
 285:Generated_Source\PSoC6\pdl\rtos\FreeRTOS\10.0.1\Source/stream_buffer.c **** 		the buffer was empty. */
 286:Generated_Source\PSoC6\pdl\rtos\FreeRTOS\10.0.1\Source/stream_buffer.c **** 		if( xTriggerLevelBytes == ( size_t ) 0 )
 287:Generated_Source\PSoC6\pdl\rtos\FreeRTOS\10.0.1\Source/stream_buffer.c **** 		{
 288:Generated_Source\PSoC6\pdl\rtos\FreeRTOS\10.0.1\Source/stream_buffer.c **** 			xTriggerLevelBytes = ( size_t ) 1; /*lint !e9044 Function parameter deliberately modified to ens
 289:Generated_Source\PSoC6\pdl\rtos\FreeRTOS\10.0.1\Source/stream_buffer.c **** 		}
 290:Generated_Source\PSoC6\pdl\rtos\FreeRTOS\10.0.1\Source/stream_buffer.c **** 
 291:Generated_Source\PSoC6\pdl\rtos\FreeRTOS\10.0.1\Source/stream_buffer.c **** 		/* In case the stream buffer is going to be used as a message buffer
 292:Generated_Source\PSoC6\pdl\rtos\FreeRTOS\10.0.1\Source/stream_buffer.c **** 		(that is, it will hold discrete messages with a little meta data that
 293:Generated_Source\PSoC6\pdl\rtos\FreeRTOS\10.0.1\Source/stream_buffer.c **** 		says how big the next message is) check the buffer will be large enough
 294:Generated_Source\PSoC6\pdl\rtos\FreeRTOS\10.0.1\Source/stream_buffer.c **** 		to hold at least one message. */
 295:Generated_Source\PSoC6\pdl\rtos\FreeRTOS\10.0.1\Source/stream_buffer.c **** 		configASSERT( xBufferSizeBytes > sbBYTES_TO_STORE_MESSAGE_LENGTH );
 296:Generated_Source\PSoC6\pdl\rtos\FreeRTOS\10.0.1\Source/stream_buffer.c **** 
 297:Generated_Source\PSoC6\pdl\rtos\FreeRTOS\10.0.1\Source/stream_buffer.c **** 		#if( configASSERT_DEFINED == 1 )
 298:Generated_Source\PSoC6\pdl\rtos\FreeRTOS\10.0.1\Source/stream_buffer.c **** 		{
 299:Generated_Source\PSoC6\pdl\rtos\FreeRTOS\10.0.1\Source/stream_buffer.c **** 			/* Sanity check that the size of the structure used to declare a
 300:Generated_Source\PSoC6\pdl\rtos\FreeRTOS\10.0.1\Source/stream_buffer.c **** 			variable of type StaticStreamBuffer_t equals the size of the real
 301:Generated_Source\PSoC6\pdl\rtos\FreeRTOS\10.0.1\Source/stream_buffer.c **** 			message buffer structure. */
 302:Generated_Source\PSoC6\pdl\rtos\FreeRTOS\10.0.1\Source/stream_buffer.c **** 			volatile size_t xSize = sizeof( StaticStreamBuffer_t );
 303:Generated_Source\PSoC6\pdl\rtos\FreeRTOS\10.0.1\Source/stream_buffer.c **** 			configASSERT( xSize == sizeof( StreamBuffer_t ) );
 304:Generated_Source\PSoC6\pdl\rtos\FreeRTOS\10.0.1\Source/stream_buffer.c **** 		}
 305:Generated_Source\PSoC6\pdl\rtos\FreeRTOS\10.0.1\Source/stream_buffer.c **** 		#endif /* configASSERT_DEFINED */
 306:Generated_Source\PSoC6\pdl\rtos\FreeRTOS\10.0.1\Source/stream_buffer.c **** 
 307:Generated_Source\PSoC6\pdl\rtos\FreeRTOS\10.0.1\Source/stream_buffer.c **** 		if( ( pucStreamBufferStorageArea != NULL ) && ( pxStaticStreamBuffer != NULL ) )
 308:Generated_Source\PSoC6\pdl\rtos\FreeRTOS\10.0.1\Source/stream_buffer.c **** 		{
 309:Generated_Source\PSoC6\pdl\rtos\FreeRTOS\10.0.1\Source/stream_buffer.c **** 			prvInitialiseNewStreamBuffer( pxStreamBuffer,
 310:Generated_Source\PSoC6\pdl\rtos\FreeRTOS\10.0.1\Source/stream_buffer.c **** 										  pucStreamBufferStorageArea,
 311:Generated_Source\PSoC6\pdl\rtos\FreeRTOS\10.0.1\Source/stream_buffer.c **** 										  xBufferSizeBytes,
 312:Generated_Source\PSoC6\pdl\rtos\FreeRTOS\10.0.1\Source/stream_buffer.c **** 										  xTriggerLevelBytes,
 313:Generated_Source\PSoC6\pdl\rtos\FreeRTOS\10.0.1\Source/stream_buffer.c **** 										  xIsMessageBuffer );
 314:Generated_Source\PSoC6\pdl\rtos\FreeRTOS\10.0.1\Source/stream_buffer.c **** 
 315:Generated_Source\PSoC6\pdl\rtos\FreeRTOS\10.0.1\Source/stream_buffer.c **** 			/* Remember this was statically allocated in case it is ever deleted
 316:Generated_Source\PSoC6\pdl\rtos\FreeRTOS\10.0.1\Source/stream_buffer.c **** 			again. */
 317:Generated_Source\PSoC6\pdl\rtos\FreeRTOS\10.0.1\Source/stream_buffer.c **** 			pxStreamBuffer->ucFlags |= sbFLAGS_IS_STATICALLY_ALLOCATED;
 318:Generated_Source\PSoC6\pdl\rtos\FreeRTOS\10.0.1\Source/stream_buffer.c **** 
 319:Generated_Source\PSoC6\pdl\rtos\FreeRTOS\10.0.1\Source/stream_buffer.c **** 			traceSTREAM_BUFFER_CREATE( pxStreamBuffer, xIsMessageBuffer );
 320:Generated_Source\PSoC6\pdl\rtos\FreeRTOS\10.0.1\Source/stream_buffer.c **** 
 321:Generated_Source\PSoC6\pdl\rtos\FreeRTOS\10.0.1\Source/stream_buffer.c **** 			xReturn = ( StreamBufferHandle_t ) pxStaticStreamBuffer; /*lint !e9087 Data hiding requires cast
 322:Generated_Source\PSoC6\pdl\rtos\FreeRTOS\10.0.1\Source/stream_buffer.c **** 		}
 323:Generated_Source\PSoC6\pdl\rtos\FreeRTOS\10.0.1\Source/stream_buffer.c **** 		else
 324:Generated_Source\PSoC6\pdl\rtos\FreeRTOS\10.0.1\Source/stream_buffer.c **** 		{
 325:Generated_Source\PSoC6\pdl\rtos\FreeRTOS\10.0.1\Source/stream_buffer.c **** 			xReturn = NULL;
ARM GAS  C:\Users\stijn\AppData\Local\Temp\cccniDcZ.s 			page 12


 326:Generated_Source\PSoC6\pdl\rtos\FreeRTOS\10.0.1\Source/stream_buffer.c **** 			traceSTREAM_BUFFER_CREATE_STATIC_FAILED( xReturn, xIsMessageBuffer );
 327:Generated_Source\PSoC6\pdl\rtos\FreeRTOS\10.0.1\Source/stream_buffer.c **** 		}
 328:Generated_Source\PSoC6\pdl\rtos\FreeRTOS\10.0.1\Source/stream_buffer.c **** 
 329:Generated_Source\PSoC6\pdl\rtos\FreeRTOS\10.0.1\Source/stream_buffer.c **** 		return xReturn;
 330:Generated_Source\PSoC6\pdl\rtos\FreeRTOS\10.0.1\Source/stream_buffer.c **** 	}
 331:Generated_Source\PSoC6\pdl\rtos\FreeRTOS\10.0.1\Source/stream_buffer.c **** 
 332:Generated_Source\PSoC6\pdl\rtos\FreeRTOS\10.0.1\Source/stream_buffer.c **** #endif /* ( configSUPPORT_STATIC_ALLOCATION == 1 ) */
 333:Generated_Source\PSoC6\pdl\rtos\FreeRTOS\10.0.1\Source/stream_buffer.c **** /*-----------------------------------------------------------*/
 334:Generated_Source\PSoC6\pdl\rtos\FreeRTOS\10.0.1\Source/stream_buffer.c **** 
 335:Generated_Source\PSoC6\pdl\rtos\FreeRTOS\10.0.1\Source/stream_buffer.c **** void vStreamBufferDelete( StreamBufferHandle_t xStreamBuffer )
 336:Generated_Source\PSoC6\pdl\rtos\FreeRTOS\10.0.1\Source/stream_buffer.c **** {
 147              		.loc 1 336 0
 148              		.cfi_startproc
 149              		@ args = 0, pretend = 0, frame = 16
 150              		@ frame_needed = 1, uses_anonymous_args = 0
 151 0000 80B5     		push	{r7, lr}
 152              		.cfi_def_cfa_offset 8
 153              		.cfi_offset 7, -8
 154              		.cfi_offset 14, -4
 155 0002 84B0     		sub	sp, sp, #16
 156              		.cfi_def_cfa_offset 24
 157 0004 00AF     		add	r7, sp, #0
 158              		.cfi_def_cfa_register 7
 159 0006 7860     		str	r0, [r7, #4]
 337:Generated_Source\PSoC6\pdl\rtos\FreeRTOS\10.0.1\Source/stream_buffer.c **** StreamBuffer_t * pxStreamBuffer = ( StreamBuffer_t * ) xStreamBuffer; /*lint !e9087 !e9079 Safe cas
 160              		.loc 1 337 0
 161 0008 7B68     		ldr	r3, [r7, #4]
 162 000a FB60     		str	r3, [r7, #12]
 338:Generated_Source\PSoC6\pdl\rtos\FreeRTOS\10.0.1\Source/stream_buffer.c **** 
 339:Generated_Source\PSoC6\pdl\rtos\FreeRTOS\10.0.1\Source/stream_buffer.c **** 	configASSERT( pxStreamBuffer );
 163              		.loc 1 339 0
 164 000c FB68     		ldr	r3, [r7, #12]
 165 000e 002B     		cmp	r3, #0
 166 0010 09D1     		bne	.L10
 167              	.LBB81:
 168              	.LBB82:
 169              		.loc 2 156 0 discriminator 1
 170              		.syntax unified
 171              	@ 156 "Generated_Source\PSoC6\pdl\rtos/FreeRTOS/10.0.1/Source/portable/GCC/CM4F/portmacro.h" 1
 172 0012 4FF03F03 			mov r3, #63												
 173 0016 83F31188 		msr basepri, r3											
 174 001a BFF36F8F 		isb														
 175 001e BFF34F8F 		dsb														
 176              	
 177              	@ 0 "" 2
 178              		.thumb
 179              		.syntax unified
 180 0022 BB60     		str	r3, [r7, #8]
 181              	.L11:
 182              	.LBE82:
 183              	.LBE81:
 184              		.loc 1 339 0 discriminator 1
 185 0024 FEE7     		b	.L11
 186              	.L10:
 340:Generated_Source\PSoC6\pdl\rtos\FreeRTOS\10.0.1\Source/stream_buffer.c **** 
 341:Generated_Source\PSoC6\pdl\rtos\FreeRTOS\10.0.1\Source/stream_buffer.c **** 	traceSTREAM_BUFFER_DELETE( xStreamBuffer );
 342:Generated_Source\PSoC6\pdl\rtos\FreeRTOS\10.0.1\Source/stream_buffer.c **** 
ARM GAS  C:\Users\stijn\AppData\Local\Temp\cccniDcZ.s 			page 13


 343:Generated_Source\PSoC6\pdl\rtos\FreeRTOS\10.0.1\Source/stream_buffer.c **** 	if( ( pxStreamBuffer->ucFlags & sbFLAGS_IS_STATICALLY_ALLOCATED ) == ( uint8_t ) pdFALSE )
 187              		.loc 1 343 0
 188 0026 FB68     		ldr	r3, [r7, #12]
 189 0028 1B7F     		ldrb	r3, [r3, #28]	@ zero_extendqisi2
 190 002a 03F00203 		and	r3, r3, #2
 191 002e 002B     		cmp	r3, #0
 192 0030 03D1     		bne	.L12
 344:Generated_Source\PSoC6\pdl\rtos\FreeRTOS\10.0.1\Source/stream_buffer.c **** 	{
 345:Generated_Source\PSoC6\pdl\rtos\FreeRTOS\10.0.1\Source/stream_buffer.c **** 		#if( configSUPPORT_DYNAMIC_ALLOCATION == 1 )
 346:Generated_Source\PSoC6\pdl\rtos\FreeRTOS\10.0.1\Source/stream_buffer.c **** 		{
 347:Generated_Source\PSoC6\pdl\rtos\FreeRTOS\10.0.1\Source/stream_buffer.c **** 			/* Both the structure and the buffer were allocated using a single call
 348:Generated_Source\PSoC6\pdl\rtos\FreeRTOS\10.0.1\Source/stream_buffer.c **** 			to pvPortMalloc(), hence only one call to vPortFree() is required. */
 349:Generated_Source\PSoC6\pdl\rtos\FreeRTOS\10.0.1\Source/stream_buffer.c **** 			vPortFree( ( void * ) pxStreamBuffer ); /*lint !e9087 Standard free() semantics require void *, 
 193              		.loc 1 349 0
 194 0032 F868     		ldr	r0, [r7, #12]
 195 0034 FFF7FEFF 		bl	vPortFree
 350:Generated_Source\PSoC6\pdl\rtos\FreeRTOS\10.0.1\Source/stream_buffer.c **** 		}
 351:Generated_Source\PSoC6\pdl\rtos\FreeRTOS\10.0.1\Source/stream_buffer.c **** 		#else
 352:Generated_Source\PSoC6\pdl\rtos\FreeRTOS\10.0.1\Source/stream_buffer.c **** 		{
 353:Generated_Source\PSoC6\pdl\rtos\FreeRTOS\10.0.1\Source/stream_buffer.c **** 			/* Should not be possible to get here, ucFlags must be corrupt.
 354:Generated_Source\PSoC6\pdl\rtos\FreeRTOS\10.0.1\Source/stream_buffer.c **** 			Force an assert. */
 355:Generated_Source\PSoC6\pdl\rtos\FreeRTOS\10.0.1\Source/stream_buffer.c **** 			configASSERT( xStreamBuffer == ( StreamBufferHandle_t ) ~0 );
 356:Generated_Source\PSoC6\pdl\rtos\FreeRTOS\10.0.1\Source/stream_buffer.c **** 		}
 357:Generated_Source\PSoC6\pdl\rtos\FreeRTOS\10.0.1\Source/stream_buffer.c **** 		#endif
 358:Generated_Source\PSoC6\pdl\rtos\FreeRTOS\10.0.1\Source/stream_buffer.c **** 	}
 359:Generated_Source\PSoC6\pdl\rtos\FreeRTOS\10.0.1\Source/stream_buffer.c **** 	else
 360:Generated_Source\PSoC6\pdl\rtos\FreeRTOS\10.0.1\Source/stream_buffer.c **** 	{
 361:Generated_Source\PSoC6\pdl\rtos\FreeRTOS\10.0.1\Source/stream_buffer.c **** 		/* The structure and buffer were not allocated dynamically and cannot be
 362:Generated_Source\PSoC6\pdl\rtos\FreeRTOS\10.0.1\Source/stream_buffer.c **** 		freed - just scrub the structure so future use will assert. */
 363:Generated_Source\PSoC6\pdl\rtos\FreeRTOS\10.0.1\Source/stream_buffer.c **** 		memset( pxStreamBuffer, 0x00, sizeof( StreamBuffer_t ) );
 364:Generated_Source\PSoC6\pdl\rtos\FreeRTOS\10.0.1\Source/stream_buffer.c **** 	}
 365:Generated_Source\PSoC6\pdl\rtos\FreeRTOS\10.0.1\Source/stream_buffer.c **** }
 196              		.loc 1 365 0
 197 0038 04E0     		b	.L14
 198              	.L12:
 363:Generated_Source\PSoC6\pdl\rtos\FreeRTOS\10.0.1\Source/stream_buffer.c **** 	}
 199              		.loc 1 363 0
 200 003a 2022     		movs	r2, #32
 201 003c 0021     		movs	r1, #0
 202 003e F868     		ldr	r0, [r7, #12]
 203 0040 FFF7FEFF 		bl	memset
 204              	.L14:
 205              		.loc 1 365 0
 206 0044 00BF     		nop
 207 0046 1037     		adds	r7, r7, #16
 208              		.cfi_def_cfa_offset 8
 209 0048 BD46     		mov	sp, r7
 210              		.cfi_def_cfa_register 13
 211              		@ sp needed
 212 004a 80BD     		pop	{r7, pc}
 213              		.cfi_endproc
 214              	.LFE137:
 215              		.size	vStreamBufferDelete, .-vStreamBufferDelete
 216              		.section	.text.xStreamBufferReset,"ax",%progbits
 217              		.align	2
 218              		.global	xStreamBufferReset
 219              		.thumb
ARM GAS  C:\Users\stijn\AppData\Local\Temp\cccniDcZ.s 			page 14


 220              		.thumb_func
 221              		.type	xStreamBufferReset, %function
 222              	xStreamBufferReset:
 223              	.LFB138:
 366:Generated_Source\PSoC6\pdl\rtos\FreeRTOS\10.0.1\Source/stream_buffer.c **** /*-----------------------------------------------------------*/
 367:Generated_Source\PSoC6\pdl\rtos\FreeRTOS\10.0.1\Source/stream_buffer.c **** 
 368:Generated_Source\PSoC6\pdl\rtos\FreeRTOS\10.0.1\Source/stream_buffer.c **** BaseType_t xStreamBufferReset( StreamBufferHandle_t xStreamBuffer )
 369:Generated_Source\PSoC6\pdl\rtos\FreeRTOS\10.0.1\Source/stream_buffer.c **** {
 224              		.loc 1 369 0
 225              		.cfi_startproc
 226              		@ args = 0, pretend = 0, frame = 24
 227              		@ frame_needed = 1, uses_anonymous_args = 0
 228 0000 80B5     		push	{r7, lr}
 229              		.cfi_def_cfa_offset 8
 230              		.cfi_offset 7, -8
 231              		.cfi_offset 14, -4
 232 0002 88B0     		sub	sp, sp, #32
 233              		.cfi_def_cfa_offset 40
 234 0004 02AF     		add	r7, sp, #8
 235              		.cfi_def_cfa 7, 32
 236 0006 7860     		str	r0, [r7, #4]
 370:Generated_Source\PSoC6\pdl\rtos\FreeRTOS\10.0.1\Source/stream_buffer.c **** StreamBuffer_t * const pxStreamBuffer = ( StreamBuffer_t * ) xStreamBuffer; /*lint !e9087 !e9079 Sa
 237              		.loc 1 370 0
 238 0008 7B68     		ldr	r3, [r7, #4]
 239 000a FB60     		str	r3, [r7, #12]
 371:Generated_Source\PSoC6\pdl\rtos\FreeRTOS\10.0.1\Source/stream_buffer.c **** BaseType_t xReturn = pdFAIL, xIsMessageBuffer;
 240              		.loc 1 371 0
 241 000c 0023     		movs	r3, #0
 242 000e 7B61     		str	r3, [r7, #20]
 372:Generated_Source\PSoC6\pdl\rtos\FreeRTOS\10.0.1\Source/stream_buffer.c **** 
 373:Generated_Source\PSoC6\pdl\rtos\FreeRTOS\10.0.1\Source/stream_buffer.c **** #if( configUSE_TRACE_FACILITY == 1 )
 374:Generated_Source\PSoC6\pdl\rtos\FreeRTOS\10.0.1\Source/stream_buffer.c **** 	UBaseType_t uxStreamBufferNumber;
 375:Generated_Source\PSoC6\pdl\rtos\FreeRTOS\10.0.1\Source/stream_buffer.c **** #endif
 376:Generated_Source\PSoC6\pdl\rtos\FreeRTOS\10.0.1\Source/stream_buffer.c **** 
 377:Generated_Source\PSoC6\pdl\rtos\FreeRTOS\10.0.1\Source/stream_buffer.c **** 	configASSERT( pxStreamBuffer );
 243              		.loc 1 377 0
 244 0010 FB68     		ldr	r3, [r7, #12]
 245 0012 002B     		cmp	r3, #0
 246 0014 09D1     		bne	.L16
 247              	.LBB83:
 248              	.LBB84:
 249              		.loc 2 156 0 discriminator 1
 250              		.syntax unified
 251              	@ 156 "Generated_Source\PSoC6\pdl\rtos/FreeRTOS/10.0.1/Source/portable/GCC/CM4F/portmacro.h" 1
 252 0016 4FF03F03 			mov r3, #63												
 253 001a 83F31188 		msr basepri, r3											
 254 001e BFF36F8F 		isb														
 255 0022 BFF34F8F 		dsb														
 256              	
 257              	@ 0 "" 2
 258              		.thumb
 259              		.syntax unified
 260 0026 BB60     		str	r3, [r7, #8]
 261              	.L17:
 262              	.LBE84:
 263              	.LBE83:
 264              		.loc 1 377 0 discriminator 1
ARM GAS  C:\Users\stijn\AppData\Local\Temp\cccniDcZ.s 			page 15


 265 0028 FEE7     		b	.L17
 266              	.L16:
 378:Generated_Source\PSoC6\pdl\rtos\FreeRTOS\10.0.1\Source/stream_buffer.c **** 
 379:Generated_Source\PSoC6\pdl\rtos\FreeRTOS\10.0.1\Source/stream_buffer.c **** 	#if( configUSE_TRACE_FACILITY == 1 )
 380:Generated_Source\PSoC6\pdl\rtos\FreeRTOS\10.0.1\Source/stream_buffer.c **** 	{
 381:Generated_Source\PSoC6\pdl\rtos\FreeRTOS\10.0.1\Source/stream_buffer.c **** 		/* Store the stream buffer number so it can be restored after the
 382:Generated_Source\PSoC6\pdl\rtos\FreeRTOS\10.0.1\Source/stream_buffer.c **** 		reset. */
 383:Generated_Source\PSoC6\pdl\rtos\FreeRTOS\10.0.1\Source/stream_buffer.c **** 		uxStreamBufferNumber = pxStreamBuffer->uxStreamBufferNumber;
 384:Generated_Source\PSoC6\pdl\rtos\FreeRTOS\10.0.1\Source/stream_buffer.c **** 	}
 385:Generated_Source\PSoC6\pdl\rtos\FreeRTOS\10.0.1\Source/stream_buffer.c **** 	#endif
 386:Generated_Source\PSoC6\pdl\rtos\FreeRTOS\10.0.1\Source/stream_buffer.c **** 
 387:Generated_Source\PSoC6\pdl\rtos\FreeRTOS\10.0.1\Source/stream_buffer.c **** 	/* Can only reset a message buffer if there are no tasks blocked on it. */
 388:Generated_Source\PSoC6\pdl\rtos\FreeRTOS\10.0.1\Source/stream_buffer.c **** 	if( pxStreamBuffer->xTaskWaitingToReceive == NULL )
 267              		.loc 1 388 0
 268 002a FB68     		ldr	r3, [r7, #12]
 269 002c 1B69     		ldr	r3, [r3, #16]
 270 002e 002B     		cmp	r3, #0
 271 0030 1CD1     		bne	.L18
 389:Generated_Source\PSoC6\pdl\rtos\FreeRTOS\10.0.1\Source/stream_buffer.c **** 	{
 390:Generated_Source\PSoC6\pdl\rtos\FreeRTOS\10.0.1\Source/stream_buffer.c **** 		if( pxStreamBuffer->xTaskWaitingToSend == NULL )
 272              		.loc 1 390 0
 273 0032 FB68     		ldr	r3, [r7, #12]
 274 0034 5B69     		ldr	r3, [r3, #20]
 275 0036 002B     		cmp	r3, #0
 276 0038 18D1     		bne	.L18
 391:Generated_Source\PSoC6\pdl\rtos\FreeRTOS\10.0.1\Source/stream_buffer.c **** 		{
 392:Generated_Source\PSoC6\pdl\rtos\FreeRTOS\10.0.1\Source/stream_buffer.c **** 			if( ( pxStreamBuffer->ucFlags & sbFLAGS_IS_MESSAGE_BUFFER ) != ( uint8_t ) 0 )
 277              		.loc 1 392 0
 278 003a FB68     		ldr	r3, [r7, #12]
 279 003c 1B7F     		ldrb	r3, [r3, #28]	@ zero_extendqisi2
 280 003e 03F00103 		and	r3, r3, #1
 281 0042 002B     		cmp	r3, #0
 282 0044 02D0     		beq	.L19
 393:Generated_Source\PSoC6\pdl\rtos\FreeRTOS\10.0.1\Source/stream_buffer.c **** 			{
 394:Generated_Source\PSoC6\pdl\rtos\FreeRTOS\10.0.1\Source/stream_buffer.c **** 				xIsMessageBuffer = pdTRUE;
 283              		.loc 1 394 0
 284 0046 0123     		movs	r3, #1
 285 0048 3B61     		str	r3, [r7, #16]
 286 004a 01E0     		b	.L20
 287              	.L19:
 395:Generated_Source\PSoC6\pdl\rtos\FreeRTOS\10.0.1\Source/stream_buffer.c **** 			}
 396:Generated_Source\PSoC6\pdl\rtos\FreeRTOS\10.0.1\Source/stream_buffer.c **** 			else
 397:Generated_Source\PSoC6\pdl\rtos\FreeRTOS\10.0.1\Source/stream_buffer.c **** 			{
 398:Generated_Source\PSoC6\pdl\rtos\FreeRTOS\10.0.1\Source/stream_buffer.c **** 				xIsMessageBuffer = pdFALSE;
 288              		.loc 1 398 0
 289 004c 0023     		movs	r3, #0
 290 004e 3B61     		str	r3, [r7, #16]
 291              	.L20:
 399:Generated_Source\PSoC6\pdl\rtos\FreeRTOS\10.0.1\Source/stream_buffer.c **** 			}
 400:Generated_Source\PSoC6\pdl\rtos\FreeRTOS\10.0.1\Source/stream_buffer.c **** 
 401:Generated_Source\PSoC6\pdl\rtos\FreeRTOS\10.0.1\Source/stream_buffer.c **** 			prvInitialiseNewStreamBuffer( pxStreamBuffer,
 292              		.loc 1 401 0
 293 0050 FB68     		ldr	r3, [r7, #12]
 294 0052 9969     		ldr	r1, [r3, #24]
 295 0054 FB68     		ldr	r3, [r7, #12]
 296 0056 9A68     		ldr	r2, [r3, #8]
 297 0058 FB68     		ldr	r3, [r7, #12]
ARM GAS  C:\Users\stijn\AppData\Local\Temp\cccniDcZ.s 			page 16


 298 005a D868     		ldr	r0, [r3, #12]
 299 005c 3B69     		ldr	r3, [r7, #16]
 300 005e 0093     		str	r3, [sp]
 301 0060 0346     		mov	r3, r0
 302 0062 F868     		ldr	r0, [r7, #12]
 303 0064 FFF7FEFF 		bl	prvInitialiseNewStreamBuffer
 402:Generated_Source\PSoC6\pdl\rtos\FreeRTOS\10.0.1\Source/stream_buffer.c **** 										  pxStreamBuffer->pucBuffer,
 403:Generated_Source\PSoC6\pdl\rtos\FreeRTOS\10.0.1\Source/stream_buffer.c **** 										  pxStreamBuffer->xLength,
 404:Generated_Source\PSoC6\pdl\rtos\FreeRTOS\10.0.1\Source/stream_buffer.c **** 										  pxStreamBuffer->xTriggerLevelBytes,
 405:Generated_Source\PSoC6\pdl\rtos\FreeRTOS\10.0.1\Source/stream_buffer.c **** 										  xIsMessageBuffer );
 406:Generated_Source\PSoC6\pdl\rtos\FreeRTOS\10.0.1\Source/stream_buffer.c **** 			xReturn = pdPASS;
 304              		.loc 1 406 0
 305 0068 0123     		movs	r3, #1
 306 006a 7B61     		str	r3, [r7, #20]
 307              	.L18:
 407:Generated_Source\PSoC6\pdl\rtos\FreeRTOS\10.0.1\Source/stream_buffer.c **** 
 408:Generated_Source\PSoC6\pdl\rtos\FreeRTOS\10.0.1\Source/stream_buffer.c **** 			#if( configUSE_TRACE_FACILITY == 1 )
 409:Generated_Source\PSoC6\pdl\rtos\FreeRTOS\10.0.1\Source/stream_buffer.c **** 			{
 410:Generated_Source\PSoC6\pdl\rtos\FreeRTOS\10.0.1\Source/stream_buffer.c **** 				pxStreamBuffer->uxStreamBufferNumber = uxStreamBufferNumber;
 411:Generated_Source\PSoC6\pdl\rtos\FreeRTOS\10.0.1\Source/stream_buffer.c **** 			}
 412:Generated_Source\PSoC6\pdl\rtos\FreeRTOS\10.0.1\Source/stream_buffer.c **** 			#endif
 413:Generated_Source\PSoC6\pdl\rtos\FreeRTOS\10.0.1\Source/stream_buffer.c **** 
 414:Generated_Source\PSoC6\pdl\rtos\FreeRTOS\10.0.1\Source/stream_buffer.c **** 			traceSTREAM_BUFFER_RESET( xStreamBuffer );
 415:Generated_Source\PSoC6\pdl\rtos\FreeRTOS\10.0.1\Source/stream_buffer.c **** 		}
 416:Generated_Source\PSoC6\pdl\rtos\FreeRTOS\10.0.1\Source/stream_buffer.c **** 	}
 417:Generated_Source\PSoC6\pdl\rtos\FreeRTOS\10.0.1\Source/stream_buffer.c **** 
 418:Generated_Source\PSoC6\pdl\rtos\FreeRTOS\10.0.1\Source/stream_buffer.c **** 	return xReturn;
 308              		.loc 1 418 0
 309 006c 7B69     		ldr	r3, [r7, #20]
 419:Generated_Source\PSoC6\pdl\rtos\FreeRTOS\10.0.1\Source/stream_buffer.c **** }
 310              		.loc 1 419 0
 311 006e 1846     		mov	r0, r3
 312 0070 1837     		adds	r7, r7, #24
 313              		.cfi_def_cfa_offset 8
 314 0072 BD46     		mov	sp, r7
 315              		.cfi_def_cfa_register 13
 316              		@ sp needed
 317 0074 80BD     		pop	{r7, pc}
 318              		.cfi_endproc
 319              	.LFE138:
 320              		.size	xStreamBufferReset, .-xStreamBufferReset
 321 0076 00BF     		.section	.text.xStreamBufferSetTriggerLevel,"ax",%progbits
 322              		.align	2
 323              		.global	xStreamBufferSetTriggerLevel
 324              		.thumb
 325              		.thumb_func
 326              		.type	xStreamBufferSetTriggerLevel, %function
 327              	xStreamBufferSetTriggerLevel:
 328              	.LFB139:
 420:Generated_Source\PSoC6\pdl\rtos\FreeRTOS\10.0.1\Source/stream_buffer.c **** /*-----------------------------------------------------------*/
 421:Generated_Source\PSoC6\pdl\rtos\FreeRTOS\10.0.1\Source/stream_buffer.c **** 
 422:Generated_Source\PSoC6\pdl\rtos\FreeRTOS\10.0.1\Source/stream_buffer.c **** BaseType_t xStreamBufferSetTriggerLevel( StreamBufferHandle_t xStreamBuffer, size_t xTriggerLevel )
 423:Generated_Source\PSoC6\pdl\rtos\FreeRTOS\10.0.1\Source/stream_buffer.c **** {
 329              		.loc 1 423 0
 330              		.cfi_startproc
 331              		@ args = 0, pretend = 0, frame = 24
 332              		@ frame_needed = 1, uses_anonymous_args = 0
ARM GAS  C:\Users\stijn\AppData\Local\Temp\cccniDcZ.s 			page 17


 333              		@ link register save eliminated.
 334 0000 80B4     		push	{r7}
 335              		.cfi_def_cfa_offset 4
 336              		.cfi_offset 7, -4
 337 0002 87B0     		sub	sp, sp, #28
 338              		.cfi_def_cfa_offset 32
 339 0004 00AF     		add	r7, sp, #0
 340              		.cfi_def_cfa_register 7
 341 0006 7860     		str	r0, [r7, #4]
 342 0008 3960     		str	r1, [r7]
 424:Generated_Source\PSoC6\pdl\rtos\FreeRTOS\10.0.1\Source/stream_buffer.c **** StreamBuffer_t * const pxStreamBuffer = ( StreamBuffer_t * ) xStreamBuffer; /*lint !e9087 !e9079 Sa
 343              		.loc 1 424 0
 344 000a 7B68     		ldr	r3, [r7, #4]
 345 000c 3B61     		str	r3, [r7, #16]
 425:Generated_Source\PSoC6\pdl\rtos\FreeRTOS\10.0.1\Source/stream_buffer.c **** BaseType_t xReturn;
 426:Generated_Source\PSoC6\pdl\rtos\FreeRTOS\10.0.1\Source/stream_buffer.c **** 
 427:Generated_Source\PSoC6\pdl\rtos\FreeRTOS\10.0.1\Source/stream_buffer.c **** 	configASSERT( pxStreamBuffer );
 346              		.loc 1 427 0
 347 000e 3B69     		ldr	r3, [r7, #16]
 348 0010 002B     		cmp	r3, #0
 349 0012 09D1     		bne	.L23
 350              	.LBB85:
 351              	.LBB86:
 352              		.loc 2 156 0 discriminator 1
 353              		.syntax unified
 354              	@ 156 "Generated_Source\PSoC6\pdl\rtos/FreeRTOS/10.0.1/Source/portable/GCC/CM4F/portmacro.h" 1
 355 0014 4FF03F03 			mov r3, #63												
 356 0018 83F31188 		msr basepri, r3											
 357 001c BFF36F8F 		isb														
 358 0020 BFF34F8F 		dsb														
 359              	
 360              	@ 0 "" 2
 361              		.thumb
 362              		.syntax unified
 363 0024 FB60     		str	r3, [r7, #12]
 364              	.L24:
 365              	.LBE86:
 366              	.LBE85:
 367              		.loc 1 427 0 discriminator 1
 368 0026 FEE7     		b	.L24
 369              	.L23:
 428:Generated_Source\PSoC6\pdl\rtos\FreeRTOS\10.0.1\Source/stream_buffer.c **** 
 429:Generated_Source\PSoC6\pdl\rtos\FreeRTOS\10.0.1\Source/stream_buffer.c **** 	/* It is not valid for the trigger level to be 0. */
 430:Generated_Source\PSoC6\pdl\rtos\FreeRTOS\10.0.1\Source/stream_buffer.c **** 	if( xTriggerLevel == ( size_t ) 0 )
 370              		.loc 1 430 0
 371 0028 3B68     		ldr	r3, [r7]
 372 002a 002B     		cmp	r3, #0
 373 002c 01D1     		bne	.L25
 431:Generated_Source\PSoC6\pdl\rtos\FreeRTOS\10.0.1\Source/stream_buffer.c **** 	{
 432:Generated_Source\PSoC6\pdl\rtos\FreeRTOS\10.0.1\Source/stream_buffer.c **** 		xTriggerLevel = ( size_t ) 1; /*lint !e9044 Parameter modified to ensure it doesn't have a danger
 374              		.loc 1 432 0
 375 002e 0123     		movs	r3, #1
 376 0030 3B60     		str	r3, [r7]
 377              	.L25:
 433:Generated_Source\PSoC6\pdl\rtos\FreeRTOS\10.0.1\Source/stream_buffer.c **** 	}
 434:Generated_Source\PSoC6\pdl\rtos\FreeRTOS\10.0.1\Source/stream_buffer.c **** 
 435:Generated_Source\PSoC6\pdl\rtos\FreeRTOS\10.0.1\Source/stream_buffer.c **** 	/* The trigger level is the number of bytes that must be in the stream
ARM GAS  C:\Users\stijn\AppData\Local\Temp\cccniDcZ.s 			page 18


 436:Generated_Source\PSoC6\pdl\rtos\FreeRTOS\10.0.1\Source/stream_buffer.c **** 	buffer before a task that is waiting for data is unblocked. */
 437:Generated_Source\PSoC6\pdl\rtos\FreeRTOS\10.0.1\Source/stream_buffer.c **** 	if( xTriggerLevel <= pxStreamBuffer->xLength )
 378              		.loc 1 437 0
 379 0032 3B69     		ldr	r3, [r7, #16]
 380 0034 9A68     		ldr	r2, [r3, #8]
 381 0036 3B68     		ldr	r3, [r7]
 382 0038 9A42     		cmp	r2, r3
 383 003a 05D3     		bcc	.L26
 438:Generated_Source\PSoC6\pdl\rtos\FreeRTOS\10.0.1\Source/stream_buffer.c **** 	{
 439:Generated_Source\PSoC6\pdl\rtos\FreeRTOS\10.0.1\Source/stream_buffer.c **** 		pxStreamBuffer->xTriggerLevelBytes = xTriggerLevel;
 384              		.loc 1 439 0
 385 003c 3B69     		ldr	r3, [r7, #16]
 386 003e 3A68     		ldr	r2, [r7]
 387 0040 DA60     		str	r2, [r3, #12]
 440:Generated_Source\PSoC6\pdl\rtos\FreeRTOS\10.0.1\Source/stream_buffer.c **** 		xReturn = pdPASS;
 388              		.loc 1 440 0
 389 0042 0123     		movs	r3, #1
 390 0044 7B61     		str	r3, [r7, #20]
 391 0046 01E0     		b	.L27
 392              	.L26:
 441:Generated_Source\PSoC6\pdl\rtos\FreeRTOS\10.0.1\Source/stream_buffer.c **** 	}
 442:Generated_Source\PSoC6\pdl\rtos\FreeRTOS\10.0.1\Source/stream_buffer.c **** 	else
 443:Generated_Source\PSoC6\pdl\rtos\FreeRTOS\10.0.1\Source/stream_buffer.c **** 	{
 444:Generated_Source\PSoC6\pdl\rtos\FreeRTOS\10.0.1\Source/stream_buffer.c **** 		xReturn = pdFALSE;
 393              		.loc 1 444 0
 394 0048 0023     		movs	r3, #0
 395 004a 7B61     		str	r3, [r7, #20]
 396              	.L27:
 445:Generated_Source\PSoC6\pdl\rtos\FreeRTOS\10.0.1\Source/stream_buffer.c **** 	}
 446:Generated_Source\PSoC6\pdl\rtos\FreeRTOS\10.0.1\Source/stream_buffer.c **** 
 447:Generated_Source\PSoC6\pdl\rtos\FreeRTOS\10.0.1\Source/stream_buffer.c **** 	return xReturn;
 397              		.loc 1 447 0
 398 004c 7B69     		ldr	r3, [r7, #20]
 448:Generated_Source\PSoC6\pdl\rtos\FreeRTOS\10.0.1\Source/stream_buffer.c **** }
 399              		.loc 1 448 0
 400 004e 1846     		mov	r0, r3
 401 0050 1C37     		adds	r7, r7, #28
 402              		.cfi_def_cfa_offset 4
 403 0052 BD46     		mov	sp, r7
 404              		.cfi_def_cfa_register 13
 405              		@ sp needed
 406 0054 5DF8047B 		ldr	r7, [sp], #4
 407              		.cfi_restore 7
 408              		.cfi_def_cfa_offset 0
 409 0058 7047     		bx	lr
 410              		.cfi_endproc
 411              	.LFE139:
 412              		.size	xStreamBufferSetTriggerLevel, .-xStreamBufferSetTriggerLevel
 413 005a 00BF     		.section	.text.xStreamBufferSpacesAvailable,"ax",%progbits
 414              		.align	2
 415              		.global	xStreamBufferSpacesAvailable
 416              		.thumb
 417              		.thumb_func
 418              		.type	xStreamBufferSpacesAvailable, %function
 419              	xStreamBufferSpacesAvailable:
 420              	.LFB140:
 449:Generated_Source\PSoC6\pdl\rtos\FreeRTOS\10.0.1\Source/stream_buffer.c **** /*-----------------------------------------------------------*/
ARM GAS  C:\Users\stijn\AppData\Local\Temp\cccniDcZ.s 			page 19


 450:Generated_Source\PSoC6\pdl\rtos\FreeRTOS\10.0.1\Source/stream_buffer.c **** 
 451:Generated_Source\PSoC6\pdl\rtos\FreeRTOS\10.0.1\Source/stream_buffer.c **** size_t xStreamBufferSpacesAvailable( StreamBufferHandle_t xStreamBuffer )
 452:Generated_Source\PSoC6\pdl\rtos\FreeRTOS\10.0.1\Source/stream_buffer.c **** {
 421              		.loc 1 452 0
 422              		.cfi_startproc
 423              		@ args = 0, pretend = 0, frame = 24
 424              		@ frame_needed = 1, uses_anonymous_args = 0
 425              		@ link register save eliminated.
 426 0000 80B4     		push	{r7}
 427              		.cfi_def_cfa_offset 4
 428              		.cfi_offset 7, -4
 429 0002 87B0     		sub	sp, sp, #28
 430              		.cfi_def_cfa_offset 32
 431 0004 00AF     		add	r7, sp, #0
 432              		.cfi_def_cfa_register 7
 433 0006 7860     		str	r0, [r7, #4]
 453:Generated_Source\PSoC6\pdl\rtos\FreeRTOS\10.0.1\Source/stream_buffer.c **** const StreamBuffer_t * const pxStreamBuffer = ( StreamBuffer_t * ) xStreamBuffer; /*lint !e9087 !e9
 434              		.loc 1 453 0
 435 0008 7B68     		ldr	r3, [r7, #4]
 436 000a 3B61     		str	r3, [r7, #16]
 454:Generated_Source\PSoC6\pdl\rtos\FreeRTOS\10.0.1\Source/stream_buffer.c **** size_t xSpace;
 455:Generated_Source\PSoC6\pdl\rtos\FreeRTOS\10.0.1\Source/stream_buffer.c **** 
 456:Generated_Source\PSoC6\pdl\rtos\FreeRTOS\10.0.1\Source/stream_buffer.c **** 	configASSERT( pxStreamBuffer );
 437              		.loc 1 456 0
 438 000c 3B69     		ldr	r3, [r7, #16]
 439 000e 002B     		cmp	r3, #0
 440 0010 09D1     		bne	.L30
 441              	.LBB87:
 442              	.LBB88:
 443              		.loc 2 156 0 discriminator 1
 444              		.syntax unified
 445              	@ 156 "Generated_Source\PSoC6\pdl\rtos/FreeRTOS/10.0.1/Source/portable/GCC/CM4F/portmacro.h" 1
 446 0012 4FF03F03 			mov r3, #63												
 447 0016 83F31188 		msr basepri, r3											
 448 001a BFF36F8F 		isb														
 449 001e BFF34F8F 		dsb														
 450              	
 451              	@ 0 "" 2
 452              		.thumb
 453              		.syntax unified
 454 0022 FB60     		str	r3, [r7, #12]
 455              	.L31:
 456              	.LBE88:
 457              	.LBE87:
 458              		.loc 1 456 0 discriminator 1
 459 0024 FEE7     		b	.L31
 460              	.L30:
 457:Generated_Source\PSoC6\pdl\rtos\FreeRTOS\10.0.1\Source/stream_buffer.c **** 
 458:Generated_Source\PSoC6\pdl\rtos\FreeRTOS\10.0.1\Source/stream_buffer.c **** 	xSpace = pxStreamBuffer->xLength + pxStreamBuffer->xTail;
 461              		.loc 1 458 0
 462 0026 3B69     		ldr	r3, [r7, #16]
 463 0028 9A68     		ldr	r2, [r3, #8]
 464 002a 3B69     		ldr	r3, [r7, #16]
 465 002c 1B68     		ldr	r3, [r3]
 466 002e 1344     		add	r3, r3, r2
 467 0030 7B61     		str	r3, [r7, #20]
 459:Generated_Source\PSoC6\pdl\rtos\FreeRTOS\10.0.1\Source/stream_buffer.c **** 	xSpace -= pxStreamBuffer->xHead;
ARM GAS  C:\Users\stijn\AppData\Local\Temp\cccniDcZ.s 			page 20


 468              		.loc 1 459 0
 469 0032 3B69     		ldr	r3, [r7, #16]
 470 0034 5B68     		ldr	r3, [r3, #4]
 471 0036 7A69     		ldr	r2, [r7, #20]
 472 0038 D31A     		subs	r3, r2, r3
 473 003a 7B61     		str	r3, [r7, #20]
 460:Generated_Source\PSoC6\pdl\rtos\FreeRTOS\10.0.1\Source/stream_buffer.c **** 	xSpace -= ( size_t ) 1;
 474              		.loc 1 460 0
 475 003c 7B69     		ldr	r3, [r7, #20]
 476 003e 013B     		subs	r3, r3, #1
 477 0040 7B61     		str	r3, [r7, #20]
 461:Generated_Source\PSoC6\pdl\rtos\FreeRTOS\10.0.1\Source/stream_buffer.c **** 
 462:Generated_Source\PSoC6\pdl\rtos\FreeRTOS\10.0.1\Source/stream_buffer.c **** 	if( xSpace >= pxStreamBuffer->xLength )
 478              		.loc 1 462 0
 479 0042 3B69     		ldr	r3, [r7, #16]
 480 0044 9A68     		ldr	r2, [r3, #8]
 481 0046 7B69     		ldr	r3, [r7, #20]
 482 0048 9A42     		cmp	r2, r3
 483 004a 04D8     		bhi	.L32
 463:Generated_Source\PSoC6\pdl\rtos\FreeRTOS\10.0.1\Source/stream_buffer.c **** 	{
 464:Generated_Source\PSoC6\pdl\rtos\FreeRTOS\10.0.1\Source/stream_buffer.c **** 		xSpace -= pxStreamBuffer->xLength;
 484              		.loc 1 464 0
 485 004c 3B69     		ldr	r3, [r7, #16]
 486 004e 9B68     		ldr	r3, [r3, #8]
 487 0050 7A69     		ldr	r2, [r7, #20]
 488 0052 D31A     		subs	r3, r2, r3
 489 0054 7B61     		str	r3, [r7, #20]
 490              	.L32:
 465:Generated_Source\PSoC6\pdl\rtos\FreeRTOS\10.0.1\Source/stream_buffer.c **** 	}
 466:Generated_Source\PSoC6\pdl\rtos\FreeRTOS\10.0.1\Source/stream_buffer.c **** 	else
 467:Generated_Source\PSoC6\pdl\rtos\FreeRTOS\10.0.1\Source/stream_buffer.c **** 	{
 468:Generated_Source\PSoC6\pdl\rtos\FreeRTOS\10.0.1\Source/stream_buffer.c **** 		mtCOVERAGE_TEST_MARKER();
 469:Generated_Source\PSoC6\pdl\rtos\FreeRTOS\10.0.1\Source/stream_buffer.c **** 	}
 470:Generated_Source\PSoC6\pdl\rtos\FreeRTOS\10.0.1\Source/stream_buffer.c **** 
 471:Generated_Source\PSoC6\pdl\rtos\FreeRTOS\10.0.1\Source/stream_buffer.c **** 	return xSpace;
 491              		.loc 1 471 0
 492 0056 7B69     		ldr	r3, [r7, #20]
 472:Generated_Source\PSoC6\pdl\rtos\FreeRTOS\10.0.1\Source/stream_buffer.c **** }
 493              		.loc 1 472 0
 494 0058 1846     		mov	r0, r3
 495 005a 1C37     		adds	r7, r7, #28
 496              		.cfi_def_cfa_offset 4
 497 005c BD46     		mov	sp, r7
 498              		.cfi_def_cfa_register 13
 499              		@ sp needed
 500 005e 5DF8047B 		ldr	r7, [sp], #4
 501              		.cfi_restore 7
 502              		.cfi_def_cfa_offset 0
 503 0062 7047     		bx	lr
 504              		.cfi_endproc
 505              	.LFE140:
 506              		.size	xStreamBufferSpacesAvailable, .-xStreamBufferSpacesAvailable
 507              		.section	.text.xStreamBufferBytesAvailable,"ax",%progbits
 508              		.align	2
 509              		.global	xStreamBufferBytesAvailable
 510              		.thumb
 511              		.thumb_func
ARM GAS  C:\Users\stijn\AppData\Local\Temp\cccniDcZ.s 			page 21


 512              		.type	xStreamBufferBytesAvailable, %function
 513              	xStreamBufferBytesAvailable:
 514              	.LFB141:
 473:Generated_Source\PSoC6\pdl\rtos\FreeRTOS\10.0.1\Source/stream_buffer.c **** /*-----------------------------------------------------------*/
 474:Generated_Source\PSoC6\pdl\rtos\FreeRTOS\10.0.1\Source/stream_buffer.c **** 
 475:Generated_Source\PSoC6\pdl\rtos\FreeRTOS\10.0.1\Source/stream_buffer.c **** size_t xStreamBufferBytesAvailable( StreamBufferHandle_t xStreamBuffer )
 476:Generated_Source\PSoC6\pdl\rtos\FreeRTOS\10.0.1\Source/stream_buffer.c **** {
 515              		.loc 1 476 0
 516              		.cfi_startproc
 517              		@ args = 0, pretend = 0, frame = 24
 518              		@ frame_needed = 1, uses_anonymous_args = 0
 519 0000 80B5     		push	{r7, lr}
 520              		.cfi_def_cfa_offset 8
 521              		.cfi_offset 7, -8
 522              		.cfi_offset 14, -4
 523 0002 86B0     		sub	sp, sp, #24
 524              		.cfi_def_cfa_offset 32
 525 0004 00AF     		add	r7, sp, #0
 526              		.cfi_def_cfa_register 7
 527 0006 7860     		str	r0, [r7, #4]
 477:Generated_Source\PSoC6\pdl\rtos\FreeRTOS\10.0.1\Source/stream_buffer.c **** const StreamBuffer_t * const pxStreamBuffer = ( StreamBuffer_t * ) xStreamBuffer; /*lint !e9087 !e9
 528              		.loc 1 477 0
 529 0008 7B68     		ldr	r3, [r7, #4]
 530 000a 7B61     		str	r3, [r7, #20]
 478:Generated_Source\PSoC6\pdl\rtos\FreeRTOS\10.0.1\Source/stream_buffer.c **** size_t xReturn;
 479:Generated_Source\PSoC6\pdl\rtos\FreeRTOS\10.0.1\Source/stream_buffer.c **** 
 480:Generated_Source\PSoC6\pdl\rtos\FreeRTOS\10.0.1\Source/stream_buffer.c **** 	configASSERT( pxStreamBuffer );
 531              		.loc 1 480 0
 532 000c 7B69     		ldr	r3, [r7, #20]
 533 000e 002B     		cmp	r3, #0
 534 0010 09D1     		bne	.L35
 535              	.LBB89:
 536              	.LBB90:
 537              		.loc 2 156 0 discriminator 1
 538              		.syntax unified
 539              	@ 156 "Generated_Source\PSoC6\pdl\rtos/FreeRTOS/10.0.1/Source/portable/GCC/CM4F/portmacro.h" 1
 540 0012 4FF03F03 			mov r3, #63												
 541 0016 83F31188 		msr basepri, r3											
 542 001a BFF36F8F 		isb														
 543 001e BFF34F8F 		dsb														
 544              	
 545              	@ 0 "" 2
 546              		.thumb
 547              		.syntax unified
 548 0022 FB60     		str	r3, [r7, #12]
 549              	.L36:
 550              	.LBE90:
 551              	.LBE89:
 552              		.loc 1 480 0 discriminator 1
 553 0024 FEE7     		b	.L36
 554              	.L35:
 481:Generated_Source\PSoC6\pdl\rtos\FreeRTOS\10.0.1\Source/stream_buffer.c **** 
 482:Generated_Source\PSoC6\pdl\rtos\FreeRTOS\10.0.1\Source/stream_buffer.c **** 	xReturn = prvBytesInBuffer( pxStreamBuffer );
 555              		.loc 1 482 0
 556 0026 7869     		ldr	r0, [r7, #20]
 557 0028 FFF7FEFF 		bl	prvBytesInBuffer
 558 002c 3861     		str	r0, [r7, #16]
ARM GAS  C:\Users\stijn\AppData\Local\Temp\cccniDcZ.s 			page 22


 483:Generated_Source\PSoC6\pdl\rtos\FreeRTOS\10.0.1\Source/stream_buffer.c **** 	return xReturn;
 559              		.loc 1 483 0
 560 002e 3B69     		ldr	r3, [r7, #16]
 484:Generated_Source\PSoC6\pdl\rtos\FreeRTOS\10.0.1\Source/stream_buffer.c **** }
 561              		.loc 1 484 0
 562 0030 1846     		mov	r0, r3
 563 0032 1837     		adds	r7, r7, #24
 564              		.cfi_def_cfa_offset 8
 565 0034 BD46     		mov	sp, r7
 566              		.cfi_def_cfa_register 13
 567              		@ sp needed
 568 0036 80BD     		pop	{r7, pc}
 569              		.cfi_endproc
 570              	.LFE141:
 571              		.size	xStreamBufferBytesAvailable, .-xStreamBufferBytesAvailable
 572              		.section	.text.xStreamBufferSend,"ax",%progbits
 573              		.align	2
 574              		.global	xStreamBufferSend
 575              		.thumb
 576              		.thumb_func
 577              		.type	xStreamBufferSend, %function
 578              	xStreamBufferSend:
 579              	.LFB142:
 485:Generated_Source\PSoC6\pdl\rtos\FreeRTOS\10.0.1\Source/stream_buffer.c **** /*-----------------------------------------------------------*/
 486:Generated_Source\PSoC6\pdl\rtos\FreeRTOS\10.0.1\Source/stream_buffer.c **** 
 487:Generated_Source\PSoC6\pdl\rtos\FreeRTOS\10.0.1\Source/stream_buffer.c **** size_t xStreamBufferSend( StreamBufferHandle_t xStreamBuffer,
 488:Generated_Source\PSoC6\pdl\rtos\FreeRTOS\10.0.1\Source/stream_buffer.c **** 						  const void *pvTxData,
 489:Generated_Source\PSoC6\pdl\rtos\FreeRTOS\10.0.1\Source/stream_buffer.c **** 						  size_t xDataLengthBytes,
 490:Generated_Source\PSoC6\pdl\rtos\FreeRTOS\10.0.1\Source/stream_buffer.c **** 						  TickType_t xTicksToWait )
 491:Generated_Source\PSoC6\pdl\rtos\FreeRTOS\10.0.1\Source/stream_buffer.c **** {
 580              		.loc 1 491 0
 581              		.cfi_startproc
 582              		@ args = 0, pretend = 0, frame = 56
 583              		@ frame_needed = 1, uses_anonymous_args = 0
 584 0000 80B5     		push	{r7, lr}
 585              		.cfi_def_cfa_offset 8
 586              		.cfi_offset 7, -8
 587              		.cfi_offset 14, -4
 588 0002 90B0     		sub	sp, sp, #64
 589              		.cfi_def_cfa_offset 72
 590 0004 02AF     		add	r7, sp, #8
 591              		.cfi_def_cfa 7, 64
 592 0006 F860     		str	r0, [r7, #12]
 593 0008 B960     		str	r1, [r7, #8]
 594 000a 7A60     		str	r2, [r7, #4]
 595 000c 3B60     		str	r3, [r7]
 492:Generated_Source\PSoC6\pdl\rtos\FreeRTOS\10.0.1\Source/stream_buffer.c **** StreamBuffer_t * const pxStreamBuffer = ( StreamBuffer_t * ) xStreamBuffer; /*lint !e9087 !e9079 Sa
 596              		.loc 1 492 0
 597 000e FB68     		ldr	r3, [r7, #12]
 598 0010 FB62     		str	r3, [r7, #44]
 493:Generated_Source\PSoC6\pdl\rtos\FreeRTOS\10.0.1\Source/stream_buffer.c **** size_t xReturn, xSpace = 0;
 599              		.loc 1 493 0
 600 0012 0023     		movs	r3, #0
 601 0014 7B63     		str	r3, [r7, #52]
 494:Generated_Source\PSoC6\pdl\rtos\FreeRTOS\10.0.1\Source/stream_buffer.c **** size_t xRequiredSpace = xDataLengthBytes;
 602              		.loc 1 494 0
 603 0016 7B68     		ldr	r3, [r7, #4]
ARM GAS  C:\Users\stijn\AppData\Local\Temp\cccniDcZ.s 			page 23


 604 0018 3B63     		str	r3, [r7, #48]
 495:Generated_Source\PSoC6\pdl\rtos\FreeRTOS\10.0.1\Source/stream_buffer.c **** TimeOut_t xTimeOut;
 496:Generated_Source\PSoC6\pdl\rtos\FreeRTOS\10.0.1\Source/stream_buffer.c **** 
 497:Generated_Source\PSoC6\pdl\rtos\FreeRTOS\10.0.1\Source/stream_buffer.c **** 	configASSERT( pvTxData );
 605              		.loc 1 497 0
 606 001a BB68     		ldr	r3, [r7, #8]
 607 001c 002B     		cmp	r3, #0
 608 001e 09D1     		bne	.L39
 609              	.LBB91:
 610              	.LBB92:
 611              		.loc 2 156 0 discriminator 1
 612              		.syntax unified
 613              	@ 156 "Generated_Source\PSoC6\pdl\rtos/FreeRTOS/10.0.1/Source/portable/GCC/CM4F/portmacro.h" 1
 614 0020 4FF03F03 			mov r3, #63												
 615 0024 83F31188 		msr basepri, r3											
 616 0028 BFF36F8F 		isb														
 617 002c BFF34F8F 		dsb														
 618              	
 619              	@ 0 "" 2
 620              		.thumb
 621              		.syntax unified
 622 0030 FB61     		str	r3, [r7, #28]
 623              	.L40:
 624              	.LBE92:
 625              	.LBE91:
 626              		.loc 1 497 0 discriminator 1
 627 0032 FEE7     		b	.L40
 628              	.L39:
 498:Generated_Source\PSoC6\pdl\rtos\FreeRTOS\10.0.1\Source/stream_buffer.c **** 	configASSERT( pxStreamBuffer );
 629              		.loc 1 498 0
 630 0034 FB6A     		ldr	r3, [r7, #44]
 631 0036 002B     		cmp	r3, #0
 632 0038 09D1     		bne	.L41
 633              	.LBB93:
 634              	.LBB94:
 635              		.loc 2 156 0 discriminator 1
 636              		.syntax unified
 637              	@ 156 "Generated_Source\PSoC6\pdl\rtos/FreeRTOS/10.0.1/Source/portable/GCC/CM4F/portmacro.h" 1
 638 003a 4FF03F03 			mov r3, #63												
 639 003e 83F31188 		msr basepri, r3											
 640 0042 BFF36F8F 		isb														
 641 0046 BFF34F8F 		dsb														
 642              	
 643              	@ 0 "" 2
 644              		.thumb
 645              		.syntax unified
 646 004a 3B62     		str	r3, [r7, #32]
 647              	.L42:
 648              	.LBE94:
 649              	.LBE93:
 650              		.loc 1 498 0 discriminator 2
 651 004c FEE7     		b	.L42
 652              	.L41:
 499:Generated_Source\PSoC6\pdl\rtos\FreeRTOS\10.0.1\Source/stream_buffer.c **** 
 500:Generated_Source\PSoC6\pdl\rtos\FreeRTOS\10.0.1\Source/stream_buffer.c **** 	/* This send function is used to write to both message buffers and stream
 501:Generated_Source\PSoC6\pdl\rtos\FreeRTOS\10.0.1\Source/stream_buffer.c **** 	buffers.  If this is a message buffer then the space needed must be
 502:Generated_Source\PSoC6\pdl\rtos\FreeRTOS\10.0.1\Source/stream_buffer.c **** 	increased by the amount of bytes needed to store the length of the
ARM GAS  C:\Users\stijn\AppData\Local\Temp\cccniDcZ.s 			page 24


 503:Generated_Source\PSoC6\pdl\rtos\FreeRTOS\10.0.1\Source/stream_buffer.c **** 	message. */
 504:Generated_Source\PSoC6\pdl\rtos\FreeRTOS\10.0.1\Source/stream_buffer.c **** 	if( ( pxStreamBuffer->ucFlags & sbFLAGS_IS_MESSAGE_BUFFER ) != ( uint8_t ) 0 )
 653              		.loc 1 504 0
 654 004e FB6A     		ldr	r3, [r7, #44]
 655 0050 1B7F     		ldrb	r3, [r3, #28]	@ zero_extendqisi2
 656 0052 03F00103 		and	r3, r3, #1
 657 0056 002B     		cmp	r3, #0
 658 0058 02D0     		beq	.L43
 505:Generated_Source\PSoC6\pdl\rtos\FreeRTOS\10.0.1\Source/stream_buffer.c **** 	{
 506:Generated_Source\PSoC6\pdl\rtos\FreeRTOS\10.0.1\Source/stream_buffer.c **** 		xRequiredSpace += sbBYTES_TO_STORE_MESSAGE_LENGTH;
 659              		.loc 1 506 0
 660 005a 3B6B     		ldr	r3, [r7, #48]
 661 005c 0433     		adds	r3, r3, #4
 662 005e 3B63     		str	r3, [r7, #48]
 663              	.L43:
 507:Generated_Source\PSoC6\pdl\rtos\FreeRTOS\10.0.1\Source/stream_buffer.c **** 	}
 508:Generated_Source\PSoC6\pdl\rtos\FreeRTOS\10.0.1\Source/stream_buffer.c **** 	else
 509:Generated_Source\PSoC6\pdl\rtos\FreeRTOS\10.0.1\Source/stream_buffer.c **** 	{
 510:Generated_Source\PSoC6\pdl\rtos\FreeRTOS\10.0.1\Source/stream_buffer.c **** 		mtCOVERAGE_TEST_MARKER();
 511:Generated_Source\PSoC6\pdl\rtos\FreeRTOS\10.0.1\Source/stream_buffer.c **** 	}
 512:Generated_Source\PSoC6\pdl\rtos\FreeRTOS\10.0.1\Source/stream_buffer.c **** 
 513:Generated_Source\PSoC6\pdl\rtos\FreeRTOS\10.0.1\Source/stream_buffer.c **** 	if( xTicksToWait != ( TickType_t ) 0 )
 664              		.loc 1 513 0
 665 0060 3B68     		ldr	r3, [r7]
 666 0062 002B     		cmp	r3, #0
 667 0064 3ED0     		beq	.L44
 514:Generated_Source\PSoC6\pdl\rtos\FreeRTOS\10.0.1\Source/stream_buffer.c **** 	{
 515:Generated_Source\PSoC6\pdl\rtos\FreeRTOS\10.0.1\Source/stream_buffer.c **** 		vTaskSetTimeOutState( &xTimeOut );
 668              		.loc 1 515 0
 669 0066 07F11403 		add	r3, r7, #20
 670 006a 1846     		mov	r0, r3
 671 006c FFF7FEFF 		bl	vTaskSetTimeOutState
 672              	.L50:
 516:Generated_Source\PSoC6\pdl\rtos\FreeRTOS\10.0.1\Source/stream_buffer.c **** 
 517:Generated_Source\PSoC6\pdl\rtos\FreeRTOS\10.0.1\Source/stream_buffer.c **** 		do
 518:Generated_Source\PSoC6\pdl\rtos\FreeRTOS\10.0.1\Source/stream_buffer.c **** 		{
 519:Generated_Source\PSoC6\pdl\rtos\FreeRTOS\10.0.1\Source/stream_buffer.c **** 			/* Wait until the required number of bytes are free in the message
 520:Generated_Source\PSoC6\pdl\rtos\FreeRTOS\10.0.1\Source/stream_buffer.c **** 			buffer. */
 521:Generated_Source\PSoC6\pdl\rtos\FreeRTOS\10.0.1\Source/stream_buffer.c **** 			taskENTER_CRITICAL();
 673              		.loc 1 521 0
 674 0070 FFF7FEFF 		bl	vPortEnterCritical
 522:Generated_Source\PSoC6\pdl\rtos\FreeRTOS\10.0.1\Source/stream_buffer.c **** 			{
 523:Generated_Source\PSoC6\pdl\rtos\FreeRTOS\10.0.1\Source/stream_buffer.c **** 				xSpace = xStreamBufferSpacesAvailable( pxStreamBuffer );
 675              		.loc 1 523 0
 676 0074 F86A     		ldr	r0, [r7, #44]
 677 0076 FFF7FEFF 		bl	xStreamBufferSpacesAvailable
 678 007a 7863     		str	r0, [r7, #52]
 524:Generated_Source\PSoC6\pdl\rtos\FreeRTOS\10.0.1\Source/stream_buffer.c **** 
 525:Generated_Source\PSoC6\pdl\rtos\FreeRTOS\10.0.1\Source/stream_buffer.c **** 				if( xSpace < xRequiredSpace )
 679              		.loc 1 525 0
 680 007c 7A6B     		ldr	r2, [r7, #52]
 681 007e 3B6B     		ldr	r3, [r7, #48]
 682 0080 9A42     		cmp	r2, r3
 683 0082 16D2     		bcs	.L45
 526:Generated_Source\PSoC6\pdl\rtos\FreeRTOS\10.0.1\Source/stream_buffer.c **** 				{
 527:Generated_Source\PSoC6\pdl\rtos\FreeRTOS\10.0.1\Source/stream_buffer.c **** 					/* Clear notification state as going to wait for space. */
 528:Generated_Source\PSoC6\pdl\rtos\FreeRTOS\10.0.1\Source/stream_buffer.c **** 					( void ) xTaskNotifyStateClear( NULL );
ARM GAS  C:\Users\stijn\AppData\Local\Temp\cccniDcZ.s 			page 25


 684              		.loc 1 528 0
 685 0084 0020     		movs	r0, #0
 686 0086 FFF7FEFF 		bl	xTaskNotifyStateClear
 529:Generated_Source\PSoC6\pdl\rtos\FreeRTOS\10.0.1\Source/stream_buffer.c **** 
 530:Generated_Source\PSoC6\pdl\rtos\FreeRTOS\10.0.1\Source/stream_buffer.c **** 					/* Should only be one writer. */
 531:Generated_Source\PSoC6\pdl\rtos\FreeRTOS\10.0.1\Source/stream_buffer.c **** 					configASSERT( pxStreamBuffer->xTaskWaitingToSend == NULL );
 687              		.loc 1 531 0
 688 008a FB6A     		ldr	r3, [r7, #44]
 689 008c 5B69     		ldr	r3, [r3, #20]
 690 008e 002B     		cmp	r3, #0
 691 0090 09D0     		beq	.L46
 692              	.LBB95:
 693              	.LBB96:
 694              		.loc 2 156 0 discriminator 1
 695              		.syntax unified
 696              	@ 156 "Generated_Source\PSoC6\pdl\rtos/FreeRTOS/10.0.1/Source/portable/GCC/CM4F/portmacro.h" 1
 697 0092 4FF03F03 			mov r3, #63												
 698 0096 83F31188 		msr basepri, r3											
 699 009a BFF36F8F 		isb														
 700 009e BFF34F8F 		dsb														
 701              	
 702              	@ 0 "" 2
 703              		.thumb
 704              		.syntax unified
 705 00a2 7B62     		str	r3, [r7, #36]
 706              	.L47:
 707              	.LBE96:
 708              	.LBE95:
 709              		.loc 1 531 0 discriminator 3
 710 00a4 FEE7     		b	.L47
 711              	.L46:
 532:Generated_Source\PSoC6\pdl\rtos\FreeRTOS\10.0.1\Source/stream_buffer.c **** 					pxStreamBuffer->xTaskWaitingToSend = xTaskGetCurrentTaskHandle();
 712              		.loc 1 532 0
 713 00a6 FFF7FEFF 		bl	xTaskGetCurrentTaskHandle
 714 00aa 0246     		mov	r2, r0
 715 00ac FB6A     		ldr	r3, [r7, #44]
 716 00ae 5A61     		str	r2, [r3, #20]
 717 00b0 02E0     		b	.L55
 718              	.L45:
 533:Generated_Source\PSoC6\pdl\rtos\FreeRTOS\10.0.1\Source/stream_buffer.c **** 				}
 534:Generated_Source\PSoC6\pdl\rtos\FreeRTOS\10.0.1\Source/stream_buffer.c **** 				else
 535:Generated_Source\PSoC6\pdl\rtos\FreeRTOS\10.0.1\Source/stream_buffer.c **** 				{
 536:Generated_Source\PSoC6\pdl\rtos\FreeRTOS\10.0.1\Source/stream_buffer.c **** 					taskEXIT_CRITICAL();
 719              		.loc 1 536 0
 720 00b2 FFF7FEFF 		bl	vPortExitCritical
 537:Generated_Source\PSoC6\pdl\rtos\FreeRTOS\10.0.1\Source/stream_buffer.c **** 					break;
 721              		.loc 1 537 0
 722 00b6 15E0     		b	.L44
 723              	.L55:
 538:Generated_Source\PSoC6\pdl\rtos\FreeRTOS\10.0.1\Source/stream_buffer.c **** 				}
 539:Generated_Source\PSoC6\pdl\rtos\FreeRTOS\10.0.1\Source/stream_buffer.c **** 			}
 540:Generated_Source\PSoC6\pdl\rtos\FreeRTOS\10.0.1\Source/stream_buffer.c **** 			taskEXIT_CRITICAL();
 724              		.loc 1 540 0
 725 00b8 FFF7FEFF 		bl	vPortExitCritical
 541:Generated_Source\PSoC6\pdl\rtos\FreeRTOS\10.0.1\Source/stream_buffer.c **** 
 542:Generated_Source\PSoC6\pdl\rtos\FreeRTOS\10.0.1\Source/stream_buffer.c **** 			traceBLOCKING_ON_STREAM_BUFFER_SEND( xStreamBuffer );
 543:Generated_Source\PSoC6\pdl\rtos\FreeRTOS\10.0.1\Source/stream_buffer.c **** 			( void ) xTaskNotifyWait( ( uint32_t ) 0, UINT32_MAX, NULL, xTicksToWait );
ARM GAS  C:\Users\stijn\AppData\Local\Temp\cccniDcZ.s 			page 26


 726              		.loc 1 543 0
 727 00bc 3B68     		ldr	r3, [r7]
 728 00be 0022     		movs	r2, #0
 729 00c0 4FF0FF31 		mov	r1, #-1
 730 00c4 0020     		movs	r0, #0
 731 00c6 FFF7FEFF 		bl	xTaskNotifyWait
 544:Generated_Source\PSoC6\pdl\rtos\FreeRTOS\10.0.1\Source/stream_buffer.c **** 			pxStreamBuffer->xTaskWaitingToSend = NULL;
 732              		.loc 1 544 0
 733 00ca FB6A     		ldr	r3, [r7, #44]
 734 00cc 0022     		movs	r2, #0
 735 00ce 5A61     		str	r2, [r3, #20]
 545:Generated_Source\PSoC6\pdl\rtos\FreeRTOS\10.0.1\Source/stream_buffer.c **** 
 546:Generated_Source\PSoC6\pdl\rtos\FreeRTOS\10.0.1\Source/stream_buffer.c **** 		} while( xTaskCheckForTimeOut( &xTimeOut, &xTicksToWait ) == pdFALSE );
 736              		.loc 1 546 0
 737 00d0 3A46     		mov	r2, r7
 738 00d2 07F11403 		add	r3, r7, #20
 739 00d6 1146     		mov	r1, r2
 740 00d8 1846     		mov	r0, r3
 741 00da FFF7FEFF 		bl	xTaskCheckForTimeOut
 742 00de 0346     		mov	r3, r0
 743 00e0 002B     		cmp	r3, #0
 744 00e2 C5D0     		beq	.L50
 745              	.L44:
 547:Generated_Source\PSoC6\pdl\rtos\FreeRTOS\10.0.1\Source/stream_buffer.c **** 	}
 548:Generated_Source\PSoC6\pdl\rtos\FreeRTOS\10.0.1\Source/stream_buffer.c **** 	else
 549:Generated_Source\PSoC6\pdl\rtos\FreeRTOS\10.0.1\Source/stream_buffer.c **** 	{
 550:Generated_Source\PSoC6\pdl\rtos\FreeRTOS\10.0.1\Source/stream_buffer.c **** 		mtCOVERAGE_TEST_MARKER();
 551:Generated_Source\PSoC6\pdl\rtos\FreeRTOS\10.0.1\Source/stream_buffer.c **** 	}
 552:Generated_Source\PSoC6\pdl\rtos\FreeRTOS\10.0.1\Source/stream_buffer.c **** 
 553:Generated_Source\PSoC6\pdl\rtos\FreeRTOS\10.0.1\Source/stream_buffer.c **** 	if( xSpace == ( size_t ) 0 )
 746              		.loc 1 553 0
 747 00e4 7B6B     		ldr	r3, [r7, #52]
 748 00e6 002B     		cmp	r3, #0
 749 00e8 03D1     		bne	.L51
 554:Generated_Source\PSoC6\pdl\rtos\FreeRTOS\10.0.1\Source/stream_buffer.c **** 	{
 555:Generated_Source\PSoC6\pdl\rtos\FreeRTOS\10.0.1\Source/stream_buffer.c **** 		xSpace = xStreamBufferSpacesAvailable( pxStreamBuffer );
 750              		.loc 1 555 0
 751 00ea F86A     		ldr	r0, [r7, #44]
 752 00ec FFF7FEFF 		bl	xStreamBufferSpacesAvailable
 753 00f0 7863     		str	r0, [r7, #52]
 754              	.L51:
 556:Generated_Source\PSoC6\pdl\rtos\FreeRTOS\10.0.1\Source/stream_buffer.c **** 	}
 557:Generated_Source\PSoC6\pdl\rtos\FreeRTOS\10.0.1\Source/stream_buffer.c **** 	else
 558:Generated_Source\PSoC6\pdl\rtos\FreeRTOS\10.0.1\Source/stream_buffer.c **** 	{
 559:Generated_Source\PSoC6\pdl\rtos\FreeRTOS\10.0.1\Source/stream_buffer.c **** 		mtCOVERAGE_TEST_MARKER();
 560:Generated_Source\PSoC6\pdl\rtos\FreeRTOS\10.0.1\Source/stream_buffer.c **** 	}
 561:Generated_Source\PSoC6\pdl\rtos\FreeRTOS\10.0.1\Source/stream_buffer.c **** 
 562:Generated_Source\PSoC6\pdl\rtos\FreeRTOS\10.0.1\Source/stream_buffer.c **** 	xReturn = prvWriteMessageToBuffer( pxStreamBuffer, pvTxData, xDataLengthBytes, xSpace, xRequiredSp
 755              		.loc 1 562 0
 756 00f2 3B6B     		ldr	r3, [r7, #48]
 757 00f4 0093     		str	r3, [sp]
 758 00f6 7B6B     		ldr	r3, [r7, #52]
 759 00f8 7A68     		ldr	r2, [r7, #4]
 760 00fa B968     		ldr	r1, [r7, #8]
 761 00fc F86A     		ldr	r0, [r7, #44]
 762 00fe FFF7FEFF 		bl	prvWriteMessageToBuffer
 763 0102 B862     		str	r0, [r7, #40]
ARM GAS  C:\Users\stijn\AppData\Local\Temp\cccniDcZ.s 			page 27


 563:Generated_Source\PSoC6\pdl\rtos\FreeRTOS\10.0.1\Source/stream_buffer.c **** 
 564:Generated_Source\PSoC6\pdl\rtos\FreeRTOS\10.0.1\Source/stream_buffer.c **** 	if( xReturn > ( size_t ) 0 )
 764              		.loc 1 564 0
 765 0104 BB6A     		ldr	r3, [r7, #40]
 766 0106 002B     		cmp	r3, #0
 767 0108 19D0     		beq	.L52
 565:Generated_Source\PSoC6\pdl\rtos\FreeRTOS\10.0.1\Source/stream_buffer.c **** 	{
 566:Generated_Source\PSoC6\pdl\rtos\FreeRTOS\10.0.1\Source/stream_buffer.c **** 		traceSTREAM_BUFFER_SEND( xStreamBuffer, xReturn );
 567:Generated_Source\PSoC6\pdl\rtos\FreeRTOS\10.0.1\Source/stream_buffer.c **** 
 568:Generated_Source\PSoC6\pdl\rtos\FreeRTOS\10.0.1\Source/stream_buffer.c **** 		/* Was a task waiting for the data? */
 569:Generated_Source\PSoC6\pdl\rtos\FreeRTOS\10.0.1\Source/stream_buffer.c **** 		if( prvBytesInBuffer( pxStreamBuffer ) >= pxStreamBuffer->xTriggerLevelBytes )
 768              		.loc 1 569 0
 769 010a F86A     		ldr	r0, [r7, #44]
 770 010c FFF7FEFF 		bl	prvBytesInBuffer
 771 0110 0246     		mov	r2, r0
 772 0112 FB6A     		ldr	r3, [r7, #44]
 773 0114 DB68     		ldr	r3, [r3, #12]
 774 0116 9A42     		cmp	r2, r3
 775 0118 11D3     		bcc	.L52
 570:Generated_Source\PSoC6\pdl\rtos\FreeRTOS\10.0.1\Source/stream_buffer.c **** 		{
 571:Generated_Source\PSoC6\pdl\rtos\FreeRTOS\10.0.1\Source/stream_buffer.c **** 			sbSEND_COMPLETED( pxStreamBuffer );
 776              		.loc 1 571 0
 777 011a FFF7FEFF 		bl	vTaskSuspendAll
 778 011e FB6A     		ldr	r3, [r7, #44]
 779 0120 1B69     		ldr	r3, [r3, #16]
 780 0122 002B     		cmp	r3, #0
 781 0124 09D0     		beq	.L53
 782              		.loc 1 571 0 is_stmt 0 discriminator 1
 783 0126 FB6A     		ldr	r3, [r7, #44]
 784 0128 1869     		ldr	r0, [r3, #16]
 785 012a 0023     		movs	r3, #0
 786 012c 0022     		movs	r2, #0
 787 012e 0021     		movs	r1, #0
 788 0130 FFF7FEFF 		bl	xTaskGenericNotify
 789 0134 FB6A     		ldr	r3, [r7, #44]
 790 0136 0022     		movs	r2, #0
 791 0138 1A61     		str	r2, [r3, #16]
 792              	.L53:
 793              		.loc 1 571 0 discriminator 3
 794 013a FFF7FEFF 		bl	xTaskResumeAll
 795              	.L52:
 572:Generated_Source\PSoC6\pdl\rtos\FreeRTOS\10.0.1\Source/stream_buffer.c **** 		}
 573:Generated_Source\PSoC6\pdl\rtos\FreeRTOS\10.0.1\Source/stream_buffer.c **** 		else
 574:Generated_Source\PSoC6\pdl\rtos\FreeRTOS\10.0.1\Source/stream_buffer.c **** 		{
 575:Generated_Source\PSoC6\pdl\rtos\FreeRTOS\10.0.1\Source/stream_buffer.c **** 			mtCOVERAGE_TEST_MARKER();
 576:Generated_Source\PSoC6\pdl\rtos\FreeRTOS\10.0.1\Source/stream_buffer.c **** 		}
 577:Generated_Source\PSoC6\pdl\rtos\FreeRTOS\10.0.1\Source/stream_buffer.c **** 	}
 578:Generated_Source\PSoC6\pdl\rtos\FreeRTOS\10.0.1\Source/stream_buffer.c **** 	else
 579:Generated_Source\PSoC6\pdl\rtos\FreeRTOS\10.0.1\Source/stream_buffer.c **** 	{
 580:Generated_Source\PSoC6\pdl\rtos\FreeRTOS\10.0.1\Source/stream_buffer.c **** 		mtCOVERAGE_TEST_MARKER();
 581:Generated_Source\PSoC6\pdl\rtos\FreeRTOS\10.0.1\Source/stream_buffer.c **** 		traceSTREAM_BUFFER_SEND_FAILED( xStreamBuffer );
 582:Generated_Source\PSoC6\pdl\rtos\FreeRTOS\10.0.1\Source/stream_buffer.c **** 	}
 583:Generated_Source\PSoC6\pdl\rtos\FreeRTOS\10.0.1\Source/stream_buffer.c **** 
 584:Generated_Source\PSoC6\pdl\rtos\FreeRTOS\10.0.1\Source/stream_buffer.c **** 	return xReturn;
 796              		.loc 1 584 0 is_stmt 1
 797 013e BB6A     		ldr	r3, [r7, #40]
 585:Generated_Source\PSoC6\pdl\rtos\FreeRTOS\10.0.1\Source/stream_buffer.c **** }
ARM GAS  C:\Users\stijn\AppData\Local\Temp\cccniDcZ.s 			page 28


 798              		.loc 1 585 0
 799 0140 1846     		mov	r0, r3
 800 0142 3837     		adds	r7, r7, #56
 801              		.cfi_def_cfa_offset 8
 802 0144 BD46     		mov	sp, r7
 803              		.cfi_def_cfa_register 13
 804              		@ sp needed
 805 0146 80BD     		pop	{r7, pc}
 806              		.cfi_endproc
 807              	.LFE142:
 808              		.size	xStreamBufferSend, .-xStreamBufferSend
 809              		.section	.text.xStreamBufferSendFromISR,"ax",%progbits
 810              		.align	2
 811              		.global	xStreamBufferSendFromISR
 812              		.thumb
 813              		.thumb_func
 814              		.type	xStreamBufferSendFromISR, %function
 815              	xStreamBufferSendFromISR:
 816              	.LFB143:
 586:Generated_Source\PSoC6\pdl\rtos\FreeRTOS\10.0.1\Source/stream_buffer.c **** /*-----------------------------------------------------------*/
 587:Generated_Source\PSoC6\pdl\rtos\FreeRTOS\10.0.1\Source/stream_buffer.c **** 
 588:Generated_Source\PSoC6\pdl\rtos\FreeRTOS\10.0.1\Source/stream_buffer.c **** size_t xStreamBufferSendFromISR( StreamBufferHandle_t xStreamBuffer,
 589:Generated_Source\PSoC6\pdl\rtos\FreeRTOS\10.0.1\Source/stream_buffer.c **** 								 const void *pvTxData,
 590:Generated_Source\PSoC6\pdl\rtos\FreeRTOS\10.0.1\Source/stream_buffer.c **** 								 size_t xDataLengthBytes,
 591:Generated_Source\PSoC6\pdl\rtos\FreeRTOS\10.0.1\Source/stream_buffer.c **** 								 BaseType_t * const pxHigherPriorityTaskWoken )
 592:Generated_Source\PSoC6\pdl\rtos\FreeRTOS\10.0.1\Source/stream_buffer.c **** {
 817              		.loc 1 592 0
 818              		.cfi_startproc
 819              		@ args = 0, pretend = 0, frame = 56
 820              		@ frame_needed = 1, uses_anonymous_args = 0
 821 0000 80B5     		push	{r7, lr}
 822              		.cfi_def_cfa_offset 8
 823              		.cfi_offset 7, -8
 824              		.cfi_offset 14, -4
 825 0002 90B0     		sub	sp, sp, #64
 826              		.cfi_def_cfa_offset 72
 827 0004 02AF     		add	r7, sp, #8
 828              		.cfi_def_cfa 7, 64
 829 0006 F860     		str	r0, [r7, #12]
 830 0008 B960     		str	r1, [r7, #8]
 831 000a 7A60     		str	r2, [r7, #4]
 832 000c 3B60     		str	r3, [r7]
 593:Generated_Source\PSoC6\pdl\rtos\FreeRTOS\10.0.1\Source/stream_buffer.c **** StreamBuffer_t * const pxStreamBuffer = ( StreamBuffer_t * ) xStreamBuffer; /*lint !e9087 !e9079 Sa
 833              		.loc 1 593 0
 834 000e FB68     		ldr	r3, [r7, #12]
 835 0010 3B63     		str	r3, [r7, #48]
 594:Generated_Source\PSoC6\pdl\rtos\FreeRTOS\10.0.1\Source/stream_buffer.c **** size_t xReturn, xSpace;
 595:Generated_Source\PSoC6\pdl\rtos\FreeRTOS\10.0.1\Source/stream_buffer.c **** size_t xRequiredSpace = xDataLengthBytes;
 836              		.loc 1 595 0
 837 0012 7B68     		ldr	r3, [r7, #4]
 838 0014 7B63     		str	r3, [r7, #52]
 596:Generated_Source\PSoC6\pdl\rtos\FreeRTOS\10.0.1\Source/stream_buffer.c **** 
 597:Generated_Source\PSoC6\pdl\rtos\FreeRTOS\10.0.1\Source/stream_buffer.c **** 	configASSERT( pvTxData );
 839              		.loc 1 597 0
 840 0016 BB68     		ldr	r3, [r7, #8]
 841 0018 002B     		cmp	r3, #0
 842 001a 09D1     		bne	.L57
ARM GAS  C:\Users\stijn\AppData\Local\Temp\cccniDcZ.s 			page 29


 843              	.LBB97:
 844              	.LBB98:
 845              		.loc 2 156 0 discriminator 1
 846              		.syntax unified
 847              	@ 156 "Generated_Source\PSoC6\pdl\rtos/FreeRTOS/10.0.1/Source/portable/GCC/CM4F/portmacro.h" 1
 848 001c 4FF03F03 			mov r3, #63												
 849 0020 83F31188 		msr basepri, r3											
 850 0024 BFF36F8F 		isb														
 851 0028 BFF34F8F 		dsb														
 852              	
 853              	@ 0 "" 2
 854              		.thumb
 855              		.syntax unified
 856 002c 7B61     		str	r3, [r7, #20]
 857              	.L58:
 858              	.LBE98:
 859              	.LBE97:
 860              		.loc 1 597 0 discriminator 1
 861 002e FEE7     		b	.L58
 862              	.L57:
 598:Generated_Source\PSoC6\pdl\rtos\FreeRTOS\10.0.1\Source/stream_buffer.c **** 	configASSERT( pxStreamBuffer );
 863              		.loc 1 598 0
 864 0030 3B6B     		ldr	r3, [r7, #48]
 865 0032 002B     		cmp	r3, #0
 866 0034 09D1     		bne	.L59
 867              	.LBB99:
 868              	.LBB100:
 869              		.loc 2 156 0 discriminator 1
 870              		.syntax unified
 871              	@ 156 "Generated_Source\PSoC6\pdl\rtos/FreeRTOS/10.0.1/Source/portable/GCC/CM4F/portmacro.h" 1
 872 0036 4FF03F03 			mov r3, #63												
 873 003a 83F31188 		msr basepri, r3											
 874 003e BFF36F8F 		isb														
 875 0042 BFF34F8F 		dsb														
 876              	
 877              	@ 0 "" 2
 878              		.thumb
 879              		.syntax unified
 880 0046 BB61     		str	r3, [r7, #24]
 881              	.L60:
 882              	.LBE100:
 883              	.LBE99:
 884              		.loc 1 598 0 discriminator 2
 885 0048 FEE7     		b	.L60
 886              	.L59:
 599:Generated_Source\PSoC6\pdl\rtos\FreeRTOS\10.0.1\Source/stream_buffer.c **** 
 600:Generated_Source\PSoC6\pdl\rtos\FreeRTOS\10.0.1\Source/stream_buffer.c **** 	/* This send function is used to write to both message buffers and stream
 601:Generated_Source\PSoC6\pdl\rtos\FreeRTOS\10.0.1\Source/stream_buffer.c **** 	buffers.  If this is a message buffer then the space needed must be
 602:Generated_Source\PSoC6\pdl\rtos\FreeRTOS\10.0.1\Source/stream_buffer.c **** 	increased by the amount of bytes needed to store the length of the
 603:Generated_Source\PSoC6\pdl\rtos\FreeRTOS\10.0.1\Source/stream_buffer.c **** 	message. */
 604:Generated_Source\PSoC6\pdl\rtos\FreeRTOS\10.0.1\Source/stream_buffer.c **** 	if( ( pxStreamBuffer->ucFlags & sbFLAGS_IS_MESSAGE_BUFFER ) != ( uint8_t ) 0 )
 887              		.loc 1 604 0
 888 004a 3B6B     		ldr	r3, [r7, #48]
 889 004c 1B7F     		ldrb	r3, [r3, #28]	@ zero_extendqisi2
 890 004e 03F00103 		and	r3, r3, #1
 891 0052 002B     		cmp	r3, #0
 892 0054 02D0     		beq	.L61
ARM GAS  C:\Users\stijn\AppData\Local\Temp\cccniDcZ.s 			page 30


 605:Generated_Source\PSoC6\pdl\rtos\FreeRTOS\10.0.1\Source/stream_buffer.c **** 	{
 606:Generated_Source\PSoC6\pdl\rtos\FreeRTOS\10.0.1\Source/stream_buffer.c **** 		xRequiredSpace += sbBYTES_TO_STORE_MESSAGE_LENGTH;
 893              		.loc 1 606 0
 894 0056 7B6B     		ldr	r3, [r7, #52]
 895 0058 0433     		adds	r3, r3, #4
 896 005a 7B63     		str	r3, [r7, #52]
 897              	.L61:
 607:Generated_Source\PSoC6\pdl\rtos\FreeRTOS\10.0.1\Source/stream_buffer.c **** 	}
 608:Generated_Source\PSoC6\pdl\rtos\FreeRTOS\10.0.1\Source/stream_buffer.c **** 	else
 609:Generated_Source\PSoC6\pdl\rtos\FreeRTOS\10.0.1\Source/stream_buffer.c **** 	{
 610:Generated_Source\PSoC6\pdl\rtos\FreeRTOS\10.0.1\Source/stream_buffer.c **** 		mtCOVERAGE_TEST_MARKER();
 611:Generated_Source\PSoC6\pdl\rtos\FreeRTOS\10.0.1\Source/stream_buffer.c **** 	}
 612:Generated_Source\PSoC6\pdl\rtos\FreeRTOS\10.0.1\Source/stream_buffer.c **** 
 613:Generated_Source\PSoC6\pdl\rtos\FreeRTOS\10.0.1\Source/stream_buffer.c **** 	xSpace = xStreamBufferSpacesAvailable( pxStreamBuffer );
 898              		.loc 1 613 0
 899 005c 386B     		ldr	r0, [r7, #48]
 900 005e FFF7FEFF 		bl	xStreamBufferSpacesAvailable
 901 0062 F862     		str	r0, [r7, #44]
 614:Generated_Source\PSoC6\pdl\rtos\FreeRTOS\10.0.1\Source/stream_buffer.c **** 	xReturn = prvWriteMessageToBuffer( pxStreamBuffer, pvTxData, xDataLengthBytes, xSpace, xRequiredSp
 902              		.loc 1 614 0
 903 0064 7B6B     		ldr	r3, [r7, #52]
 904 0066 0093     		str	r3, [sp]
 905 0068 FB6A     		ldr	r3, [r7, #44]
 906 006a 7A68     		ldr	r2, [r7, #4]
 907 006c B968     		ldr	r1, [r7, #8]
 908 006e 386B     		ldr	r0, [r7, #48]
 909 0070 FFF7FEFF 		bl	prvWriteMessageToBuffer
 910 0074 B862     		str	r0, [r7, #40]
 615:Generated_Source\PSoC6\pdl\rtos\FreeRTOS\10.0.1\Source/stream_buffer.c **** 
 616:Generated_Source\PSoC6\pdl\rtos\FreeRTOS\10.0.1\Source/stream_buffer.c **** 	if( xReturn > ( size_t ) 0 )
 911              		.loc 1 616 0
 912 0076 BB6A     		ldr	r3, [r7, #40]
 913 0078 002B     		cmp	r3, #0
 914 007a 2AD0     		beq	.L62
 617:Generated_Source\PSoC6\pdl\rtos\FreeRTOS\10.0.1\Source/stream_buffer.c **** 	{
 618:Generated_Source\PSoC6\pdl\rtos\FreeRTOS\10.0.1\Source/stream_buffer.c **** 		/* Was a task waiting for the data? */
 619:Generated_Source\PSoC6\pdl\rtos\FreeRTOS\10.0.1\Source/stream_buffer.c **** 		if( prvBytesInBuffer( pxStreamBuffer ) >= pxStreamBuffer->xTriggerLevelBytes )
 915              		.loc 1 619 0
 916 007c 386B     		ldr	r0, [r7, #48]
 917 007e FFF7FEFF 		bl	prvBytesInBuffer
 918 0082 0246     		mov	r2, r0
 919 0084 3B6B     		ldr	r3, [r7, #48]
 920 0086 DB68     		ldr	r3, [r3, #12]
 921 0088 9A42     		cmp	r2, r3
 922 008a 22D3     		bcc	.L62
 923              	.LBB101:
 924              	.LBB102:
 925              	.LBB103:
 157:Generated_Source\PSoC6\pdl\rtos/FreeRTOS/10.0.1/Source/portable/GCC/CM4F/portmacro.h **** 	(
 158:Generated_Source\PSoC6\pdl\rtos/FreeRTOS/10.0.1/Source/portable/GCC/CM4F/portmacro.h **** 		"	mov %0, %1												\n"	\
 159:Generated_Source\PSoC6\pdl\rtos/FreeRTOS/10.0.1/Source/portable/GCC/CM4F/portmacro.h **** 		"	msr basepri, %0											\n" \
 160:Generated_Source\PSoC6\pdl\rtos/FreeRTOS/10.0.1/Source/portable/GCC/CM4F/portmacro.h **** 		"	isb														\n" \
 161:Generated_Source\PSoC6\pdl\rtos/FreeRTOS/10.0.1/Source/portable/GCC/CM4F/portmacro.h **** 		"	dsb														\n" \
 162:Generated_Source\PSoC6\pdl\rtos/FreeRTOS/10.0.1/Source/portable/GCC/CM4F/portmacro.h **** 		:"=r" (ulNewBASEPRI) : "i" ( configMAX_SYSCALL_INTERRUPT_PRIORITY ) : "memory"
 163:Generated_Source\PSoC6\pdl\rtos/FreeRTOS/10.0.1/Source/portable/GCC/CM4F/portmacro.h **** 	);
 164:Generated_Source\PSoC6\pdl\rtos/FreeRTOS/10.0.1/Source/portable/GCC/CM4F/portmacro.h **** }
 165:Generated_Source\PSoC6\pdl\rtos/FreeRTOS/10.0.1/Source/portable/GCC/CM4F/portmacro.h **** 
ARM GAS  C:\Users\stijn\AppData\Local\Temp\cccniDcZ.s 			page 31


 166:Generated_Source\PSoC6\pdl\rtos/FreeRTOS/10.0.1/Source/portable/GCC/CM4F/portmacro.h **** /*-----------------------------------------------------------*/
 167:Generated_Source\PSoC6\pdl\rtos/FreeRTOS/10.0.1/Source/portable/GCC/CM4F/portmacro.h **** 
 168:Generated_Source\PSoC6\pdl\rtos/FreeRTOS/10.0.1/Source/portable/GCC/CM4F/portmacro.h **** portFORCE_INLINE static uint32_t ulPortRaiseBASEPRI( void )
 169:Generated_Source\PSoC6\pdl\rtos/FreeRTOS/10.0.1/Source/portable/GCC/CM4F/portmacro.h **** {
 170:Generated_Source\PSoC6\pdl\rtos/FreeRTOS/10.0.1/Source/portable/GCC/CM4F/portmacro.h **** uint32_t ulOriginalBASEPRI, ulNewBASEPRI;
 171:Generated_Source\PSoC6\pdl\rtos/FreeRTOS/10.0.1/Source/portable/GCC/CM4F/portmacro.h **** 
 172:Generated_Source\PSoC6\pdl\rtos/FreeRTOS/10.0.1/Source/portable/GCC/CM4F/portmacro.h **** 	__asm volatile
 926              		.loc 2 172 0
 927              		.syntax unified
 928              	@ 172 "Generated_Source\PSoC6\pdl\rtos/FreeRTOS/10.0.1/Source/portable/GCC/CM4F/portmacro.h" 1
 929 008c EFF31182 			mrs r2, basepri											
 930 0090 4FF03F03 		mov r3, #63												
 931 0094 83F31188 		msr basepri, r3											
 932 0098 BFF36F8F 		isb														
 933 009c BFF34F8F 		dsb														
 934              	
 935              	@ 0 "" 2
 936              		.thumb
 937              		.syntax unified
 938 00a0 FA61     		str	r2, [r7, #28]
 939 00a2 3B61     		str	r3, [r7, #16]
 173:Generated_Source\PSoC6\pdl\rtos/FreeRTOS/10.0.1/Source/portable/GCC/CM4F/portmacro.h **** 	(
 174:Generated_Source\PSoC6\pdl\rtos/FreeRTOS/10.0.1/Source/portable/GCC/CM4F/portmacro.h **** 		"	mrs %0, basepri											\n" \
 175:Generated_Source\PSoC6\pdl\rtos/FreeRTOS/10.0.1/Source/portable/GCC/CM4F/portmacro.h **** 		"	mov %1, %2												\n"	\
 176:Generated_Source\PSoC6\pdl\rtos/FreeRTOS/10.0.1/Source/portable/GCC/CM4F/portmacro.h **** 		"	msr basepri, %1											\n" \
 177:Generated_Source\PSoC6\pdl\rtos/FreeRTOS/10.0.1/Source/portable/GCC/CM4F/portmacro.h **** 		"	isb														\n" \
 178:Generated_Source\PSoC6\pdl\rtos/FreeRTOS/10.0.1/Source/portable/GCC/CM4F/portmacro.h **** 		"	dsb														\n" \
 179:Generated_Source\PSoC6\pdl\rtos/FreeRTOS/10.0.1/Source/portable/GCC/CM4F/portmacro.h **** 		:"=r" (ulOriginalBASEPRI), "=r" (ulNewBASEPRI) : "i" ( configMAX_SYSCALL_INTERRUPT_PRIORITY ) : "
 180:Generated_Source\PSoC6\pdl\rtos/FreeRTOS/10.0.1/Source/portable/GCC/CM4F/portmacro.h **** 	);
 181:Generated_Source\PSoC6\pdl\rtos/FreeRTOS/10.0.1/Source/portable/GCC/CM4F/portmacro.h **** 
 182:Generated_Source\PSoC6\pdl\rtos/FreeRTOS/10.0.1/Source/portable/GCC/CM4F/portmacro.h **** 	/* This return will not be reached but is necessary to prevent compiler
 183:Generated_Source\PSoC6\pdl\rtos/FreeRTOS/10.0.1/Source/portable/GCC/CM4F/portmacro.h **** 	warnings. */
 184:Generated_Source\PSoC6\pdl\rtos/FreeRTOS/10.0.1/Source/portable/GCC/CM4F/portmacro.h **** 	return ulOriginalBASEPRI;
 940              		.loc 2 184 0
 941 00a4 FB69     		ldr	r3, [r7, #28]
 942              	.LBE103:
 943              	.LBE102:
 620:Generated_Source\PSoC6\pdl\rtos\FreeRTOS\10.0.1\Source/stream_buffer.c **** 		{
 621:Generated_Source\PSoC6\pdl\rtos\FreeRTOS\10.0.1\Source/stream_buffer.c **** 			sbSEND_COMPLETE_FROM_ISR( pxStreamBuffer, pxHigherPriorityTaskWoken );
 944              		.loc 1 621 0
 945 00a6 3B62     		str	r3, [r7, #32]
 946 00a8 3B6B     		ldr	r3, [r7, #48]
 947 00aa 1B69     		ldr	r3, [r3, #16]
 948 00ac 002B     		cmp	r3, #0
 949 00ae 0BD0     		beq	.L64
 950              		.loc 1 621 0 is_stmt 0 discriminator 1
 951 00b0 3B6B     		ldr	r3, [r7, #48]
 952 00b2 1869     		ldr	r0, [r3, #16]
 953 00b4 3B68     		ldr	r3, [r7]
 954 00b6 0093     		str	r3, [sp]
 955 00b8 0023     		movs	r3, #0
 956 00ba 0022     		movs	r2, #0
 957 00bc 0021     		movs	r1, #0
 958 00be FFF7FEFF 		bl	xTaskGenericNotifyFromISR
 959 00c2 3B6B     		ldr	r3, [r7, #48]
 960 00c4 0022     		movs	r2, #0
 961 00c6 1A61     		str	r2, [r3, #16]
ARM GAS  C:\Users\stijn\AppData\Local\Temp\cccniDcZ.s 			page 32


 962              	.L64:
 963 00c8 3B6A     		ldr	r3, [r7, #32]
 964 00ca 7B62     		str	r3, [r7, #36]
 965              	.LBB104:
 966              	.LBB105:
 185:Generated_Source\PSoC6\pdl\rtos/FreeRTOS/10.0.1/Source/portable/GCC/CM4F/portmacro.h **** }
 186:Generated_Source\PSoC6\pdl\rtos/FreeRTOS/10.0.1/Source/portable/GCC/CM4F/portmacro.h **** /*-----------------------------------------------------------*/
 187:Generated_Source\PSoC6\pdl\rtos/FreeRTOS/10.0.1/Source/portable/GCC/CM4F/portmacro.h **** 
 188:Generated_Source\PSoC6\pdl\rtos/FreeRTOS/10.0.1/Source/portable/GCC/CM4F/portmacro.h **** portFORCE_INLINE static void vPortSetBASEPRI( uint32_t ulNewMaskValue )
 189:Generated_Source\PSoC6\pdl\rtos/FreeRTOS/10.0.1/Source/portable/GCC/CM4F/portmacro.h **** {
 190:Generated_Source\PSoC6\pdl\rtos/FreeRTOS/10.0.1/Source/portable/GCC/CM4F/portmacro.h **** 	__asm volatile
 967              		.loc 2 190 0 is_stmt 1 discriminator 3
 968 00cc 7B6A     		ldr	r3, [r7, #36]
 969              		.syntax unified
 970              	@ 190 "Generated_Source\PSoC6\pdl\rtos/FreeRTOS/10.0.1/Source/portable/GCC/CM4F/portmacro.h" 1
 971 00ce 83F31188 			msr basepri, r3	
 972              	@ 0 "" 2
 973              		.thumb
 974              		.syntax unified
 975              	.L62:
 976              	.LBE105:
 977              	.LBE104:
 978              	.LBE101:
 622:Generated_Source\PSoC6\pdl\rtos\FreeRTOS\10.0.1\Source/stream_buffer.c **** 		}
 623:Generated_Source\PSoC6\pdl\rtos\FreeRTOS\10.0.1\Source/stream_buffer.c **** 		else
 624:Generated_Source\PSoC6\pdl\rtos\FreeRTOS\10.0.1\Source/stream_buffer.c **** 		{
 625:Generated_Source\PSoC6\pdl\rtos\FreeRTOS\10.0.1\Source/stream_buffer.c **** 			mtCOVERAGE_TEST_MARKER();
 626:Generated_Source\PSoC6\pdl\rtos\FreeRTOS\10.0.1\Source/stream_buffer.c **** 		}
 627:Generated_Source\PSoC6\pdl\rtos\FreeRTOS\10.0.1\Source/stream_buffer.c **** 	}
 628:Generated_Source\PSoC6\pdl\rtos\FreeRTOS\10.0.1\Source/stream_buffer.c **** 	else
 629:Generated_Source\PSoC6\pdl\rtos\FreeRTOS\10.0.1\Source/stream_buffer.c **** 	{
 630:Generated_Source\PSoC6\pdl\rtos\FreeRTOS\10.0.1\Source/stream_buffer.c **** 		mtCOVERAGE_TEST_MARKER();
 631:Generated_Source\PSoC6\pdl\rtos\FreeRTOS\10.0.1\Source/stream_buffer.c **** 	}
 632:Generated_Source\PSoC6\pdl\rtos\FreeRTOS\10.0.1\Source/stream_buffer.c **** 
 633:Generated_Source\PSoC6\pdl\rtos\FreeRTOS\10.0.1\Source/stream_buffer.c **** 	traceSTREAM_BUFFER_SEND_FROM_ISR( xStreamBuffer, xReturn );
 634:Generated_Source\PSoC6\pdl\rtos\FreeRTOS\10.0.1\Source/stream_buffer.c **** 
 635:Generated_Source\PSoC6\pdl\rtos\FreeRTOS\10.0.1\Source/stream_buffer.c **** 	return xReturn;
 979              		.loc 1 635 0
 980 00d2 BB6A     		ldr	r3, [r7, #40]
 636:Generated_Source\PSoC6\pdl\rtos\FreeRTOS\10.0.1\Source/stream_buffer.c **** }
 981              		.loc 1 636 0
 982 00d4 1846     		mov	r0, r3
 983 00d6 3837     		adds	r7, r7, #56
 984              		.cfi_def_cfa_offset 8
 985 00d8 BD46     		mov	sp, r7
 986              		.cfi_def_cfa_register 13
 987              		@ sp needed
 988 00da 80BD     		pop	{r7, pc}
 989              		.cfi_endproc
 990              	.LFE143:
 991              		.size	xStreamBufferSendFromISR, .-xStreamBufferSendFromISR
 992              		.section	.text.prvWriteMessageToBuffer,"ax",%progbits
 993              		.align	2
 994              		.thumb
 995              		.thumb_func
 996              		.type	prvWriteMessageToBuffer, %function
 997              	prvWriteMessageToBuffer:
ARM GAS  C:\Users\stijn\AppData\Local\Temp\cccniDcZ.s 			page 33


 998              	.LFB144:
 637:Generated_Source\PSoC6\pdl\rtos\FreeRTOS\10.0.1\Source/stream_buffer.c **** /*-----------------------------------------------------------*/
 638:Generated_Source\PSoC6\pdl\rtos\FreeRTOS\10.0.1\Source/stream_buffer.c **** 
 639:Generated_Source\PSoC6\pdl\rtos\FreeRTOS\10.0.1\Source/stream_buffer.c **** static size_t prvWriteMessageToBuffer( StreamBuffer_t * const pxStreamBuffer,
 640:Generated_Source\PSoC6\pdl\rtos\FreeRTOS\10.0.1\Source/stream_buffer.c **** 									   const void * pvTxData,
 641:Generated_Source\PSoC6\pdl\rtos\FreeRTOS\10.0.1\Source/stream_buffer.c **** 									   size_t xDataLengthBytes,
 642:Generated_Source\PSoC6\pdl\rtos\FreeRTOS\10.0.1\Source/stream_buffer.c **** 									   size_t xSpace,
 643:Generated_Source\PSoC6\pdl\rtos\FreeRTOS\10.0.1\Source/stream_buffer.c **** 									   size_t xRequiredSpace )
 644:Generated_Source\PSoC6\pdl\rtos\FreeRTOS\10.0.1\Source/stream_buffer.c **** {
 999              		.loc 1 644 0
 1000              		.cfi_startproc
 1001              		@ args = 4, pretend = 0, frame = 24
 1002              		@ frame_needed = 1, uses_anonymous_args = 0
 1003 0000 80B5     		push	{r7, lr}
 1004              		.cfi_def_cfa_offset 8
 1005              		.cfi_offset 7, -8
 1006              		.cfi_offset 14, -4
 1007 0002 86B0     		sub	sp, sp, #24
 1008              		.cfi_def_cfa_offset 32
 1009 0004 00AF     		add	r7, sp, #0
 1010              		.cfi_def_cfa_register 7
 1011 0006 F860     		str	r0, [r7, #12]
 1012 0008 B960     		str	r1, [r7, #8]
 1013 000a 7A60     		str	r2, [r7, #4]
 1014 000c 3B60     		str	r3, [r7]
 645:Generated_Source\PSoC6\pdl\rtos\FreeRTOS\10.0.1\Source/stream_buffer.c **** 	BaseType_t xShouldWrite;
 646:Generated_Source\PSoC6\pdl\rtos\FreeRTOS\10.0.1\Source/stream_buffer.c **** 	size_t xReturn;
 647:Generated_Source\PSoC6\pdl\rtos\FreeRTOS\10.0.1\Source/stream_buffer.c **** 
 648:Generated_Source\PSoC6\pdl\rtos\FreeRTOS\10.0.1\Source/stream_buffer.c **** 	if( xSpace == ( size_t ) 0 )
 1015              		.loc 1 648 0
 1016 000e 3B68     		ldr	r3, [r7]
 1017 0010 002B     		cmp	r3, #0
 1018 0012 02D1     		bne	.L67
 649:Generated_Source\PSoC6\pdl\rtos\FreeRTOS\10.0.1\Source/stream_buffer.c **** 	{
 650:Generated_Source\PSoC6\pdl\rtos\FreeRTOS\10.0.1\Source/stream_buffer.c **** 		/* Doesn't matter if this is a stream buffer or a message buffer, there
 651:Generated_Source\PSoC6\pdl\rtos\FreeRTOS\10.0.1\Source/stream_buffer.c **** 		is no space to write. */
 652:Generated_Source\PSoC6\pdl\rtos\FreeRTOS\10.0.1\Source/stream_buffer.c **** 		xShouldWrite = pdFALSE;
 1019              		.loc 1 652 0
 1020 0014 0023     		movs	r3, #0
 1021 0016 7B61     		str	r3, [r7, #20]
 1022 0018 1DE0     		b	.L68
 1023              	.L67:
 653:Generated_Source\PSoC6\pdl\rtos\FreeRTOS\10.0.1\Source/stream_buffer.c **** 	}
 654:Generated_Source\PSoC6\pdl\rtos\FreeRTOS\10.0.1\Source/stream_buffer.c **** 	else if( ( pxStreamBuffer->ucFlags & sbFLAGS_IS_MESSAGE_BUFFER ) == ( uint8_t ) 0 )
 1024              		.loc 1 654 0
 1025 001a FB68     		ldr	r3, [r7, #12]
 1026 001c 1B7F     		ldrb	r3, [r3, #28]	@ zero_extendqisi2
 1027 001e 03F00103 		and	r3, r3, #1
 1028 0022 002B     		cmp	r3, #0
 1029 0024 08D1     		bne	.L69
 655:Generated_Source\PSoC6\pdl\rtos\FreeRTOS\10.0.1\Source/stream_buffer.c **** 	{
 656:Generated_Source\PSoC6\pdl\rtos\FreeRTOS\10.0.1\Source/stream_buffer.c **** 		/* This is a stream buffer, as opposed to a message buffer, so writing a
 657:Generated_Source\PSoC6\pdl\rtos\FreeRTOS\10.0.1\Source/stream_buffer.c **** 		stream of bytes rather than discrete messages.  Write as many bytes as
 658:Generated_Source\PSoC6\pdl\rtos\FreeRTOS\10.0.1\Source/stream_buffer.c **** 		possible. */
 659:Generated_Source\PSoC6\pdl\rtos\FreeRTOS\10.0.1\Source/stream_buffer.c **** 		xShouldWrite = pdTRUE;
 1030              		.loc 1 659 0
 1031 0026 0123     		movs	r3, #1
ARM GAS  C:\Users\stijn\AppData\Local\Temp\cccniDcZ.s 			page 34


 1032 0028 7B61     		str	r3, [r7, #20]
 660:Generated_Source\PSoC6\pdl\rtos\FreeRTOS\10.0.1\Source/stream_buffer.c **** 		xDataLengthBytes = configMIN( xDataLengthBytes, xSpace ); /*lint !e9044 Function parameter modifi
 1033              		.loc 1 660 0
 1034 002a 7A68     		ldr	r2, [r7, #4]
 1035 002c 3B68     		ldr	r3, [r7]
 1036 002e 9342     		cmp	r3, r2
 1037 0030 28BF     		it	cs
 1038 0032 1346     		movcs	r3, r2
 1039 0034 7B60     		str	r3, [r7, #4]
 1040 0036 0EE0     		b	.L68
 1041              	.L69:
 661:Generated_Source\PSoC6\pdl\rtos\FreeRTOS\10.0.1\Source/stream_buffer.c **** 	}
 662:Generated_Source\PSoC6\pdl\rtos\FreeRTOS\10.0.1\Source/stream_buffer.c **** 	else if( xSpace >= xRequiredSpace )
 1042              		.loc 1 662 0
 1043 0038 3A68     		ldr	r2, [r7]
 1044 003a 3B6A     		ldr	r3, [r7, #32]
 1045 003c 9A42     		cmp	r2, r3
 1046 003e 08D3     		bcc	.L70
 663:Generated_Source\PSoC6\pdl\rtos\FreeRTOS\10.0.1\Source/stream_buffer.c **** 	{
 664:Generated_Source\PSoC6\pdl\rtos\FreeRTOS\10.0.1\Source/stream_buffer.c **** 		/* This is a message buffer, as opposed to a stream buffer, and there
 665:Generated_Source\PSoC6\pdl\rtos\FreeRTOS\10.0.1\Source/stream_buffer.c **** 		is enough space to write both the message length and the message itself
 666:Generated_Source\PSoC6\pdl\rtos\FreeRTOS\10.0.1\Source/stream_buffer.c **** 		into the buffer.  Start by writing the length of the data, the data
 667:Generated_Source\PSoC6\pdl\rtos\FreeRTOS\10.0.1\Source/stream_buffer.c **** 		itself will be written later in this function. */
 668:Generated_Source\PSoC6\pdl\rtos\FreeRTOS\10.0.1\Source/stream_buffer.c **** 		xShouldWrite = pdTRUE;
 1047              		.loc 1 668 0
 1048 0040 0123     		movs	r3, #1
 1049 0042 7B61     		str	r3, [r7, #20]
 669:Generated_Source\PSoC6\pdl\rtos\FreeRTOS\10.0.1\Source/stream_buffer.c **** 		( void ) prvWriteBytesToBuffer( pxStreamBuffer, ( const uint8_t * ) &( xDataLengthBytes ), sbBYTE
 1050              		.loc 1 669 0
 1051 0044 3B1D     		adds	r3, r7, #4
 1052 0046 0422     		movs	r2, #4
 1053 0048 1946     		mov	r1, r3
 1054 004a F868     		ldr	r0, [r7, #12]
 1055 004c FFF7FEFF 		bl	prvWriteBytesToBuffer
 1056 0050 01E0     		b	.L68
 1057              	.L70:
 670:Generated_Source\PSoC6\pdl\rtos\FreeRTOS\10.0.1\Source/stream_buffer.c **** 	}
 671:Generated_Source\PSoC6\pdl\rtos\FreeRTOS\10.0.1\Source/stream_buffer.c **** 	else
 672:Generated_Source\PSoC6\pdl\rtos\FreeRTOS\10.0.1\Source/stream_buffer.c **** 	{
 673:Generated_Source\PSoC6\pdl\rtos\FreeRTOS\10.0.1\Source/stream_buffer.c **** 		/* There is space available, but not enough space. */
 674:Generated_Source\PSoC6\pdl\rtos\FreeRTOS\10.0.1\Source/stream_buffer.c **** 		xShouldWrite = pdFALSE;
 1058              		.loc 1 674 0
 1059 0052 0023     		movs	r3, #0
 1060 0054 7B61     		str	r3, [r7, #20]
 1061              	.L68:
 675:Generated_Source\PSoC6\pdl\rtos\FreeRTOS\10.0.1\Source/stream_buffer.c **** 	}
 676:Generated_Source\PSoC6\pdl\rtos\FreeRTOS\10.0.1\Source/stream_buffer.c **** 
 677:Generated_Source\PSoC6\pdl\rtos\FreeRTOS\10.0.1\Source/stream_buffer.c **** 	if( xShouldWrite != pdFALSE )
 1062              		.loc 1 677 0
 1063 0056 7B69     		ldr	r3, [r7, #20]
 1064 0058 002B     		cmp	r3, #0
 1065 005a 07D0     		beq	.L71
 678:Generated_Source\PSoC6\pdl\rtos\FreeRTOS\10.0.1\Source/stream_buffer.c **** 	{
 679:Generated_Source\PSoC6\pdl\rtos\FreeRTOS\10.0.1\Source/stream_buffer.c **** 		/* Writes the data itself. */
 680:Generated_Source\PSoC6\pdl\rtos\FreeRTOS\10.0.1\Source/stream_buffer.c **** 		xReturn = prvWriteBytesToBuffer( pxStreamBuffer, ( const uint8_t * ) pvTxData, xDataLengthBytes )
 1066              		.loc 1 680 0
 1067 005c 7B68     		ldr	r3, [r7, #4]
ARM GAS  C:\Users\stijn\AppData\Local\Temp\cccniDcZ.s 			page 35


 1068 005e 1A46     		mov	r2, r3
 1069 0060 B968     		ldr	r1, [r7, #8]
 1070 0062 F868     		ldr	r0, [r7, #12]
 1071 0064 FFF7FEFF 		bl	prvWriteBytesToBuffer
 1072 0068 3861     		str	r0, [r7, #16]
 1073 006a 01E0     		b	.L72
 1074              	.L71:
 681:Generated_Source\PSoC6\pdl\rtos\FreeRTOS\10.0.1\Source/stream_buffer.c **** 	}
 682:Generated_Source\PSoC6\pdl\rtos\FreeRTOS\10.0.1\Source/stream_buffer.c **** 	else
 683:Generated_Source\PSoC6\pdl\rtos\FreeRTOS\10.0.1\Source/stream_buffer.c **** 	{
 684:Generated_Source\PSoC6\pdl\rtos\FreeRTOS\10.0.1\Source/stream_buffer.c **** 		xReturn = 0;
 1075              		.loc 1 684 0
 1076 006c 0023     		movs	r3, #0
 1077 006e 3B61     		str	r3, [r7, #16]
 1078              	.L72:
 685:Generated_Source\PSoC6\pdl\rtos\FreeRTOS\10.0.1\Source/stream_buffer.c **** 	}
 686:Generated_Source\PSoC6\pdl\rtos\FreeRTOS\10.0.1\Source/stream_buffer.c **** 
 687:Generated_Source\PSoC6\pdl\rtos\FreeRTOS\10.0.1\Source/stream_buffer.c **** 	return xReturn;
 1079              		.loc 1 687 0
 1080 0070 3B69     		ldr	r3, [r7, #16]
 688:Generated_Source\PSoC6\pdl\rtos\FreeRTOS\10.0.1\Source/stream_buffer.c **** }
 1081              		.loc 1 688 0
 1082 0072 1846     		mov	r0, r3
 1083 0074 1837     		adds	r7, r7, #24
 1084              		.cfi_def_cfa_offset 8
 1085 0076 BD46     		mov	sp, r7
 1086              		.cfi_def_cfa_register 13
 1087              		@ sp needed
 1088 0078 80BD     		pop	{r7, pc}
 1089              		.cfi_endproc
 1090              	.LFE144:
 1091              		.size	prvWriteMessageToBuffer, .-prvWriteMessageToBuffer
 1092 007a 00BF     		.section	.text.xStreamBufferReceive,"ax",%progbits
 1093              		.align	2
 1094              		.global	xStreamBufferReceive
 1095              		.thumb
 1096              		.thumb_func
 1097              		.type	xStreamBufferReceive, %function
 1098              	xStreamBufferReceive:
 1099              	.LFB145:
 689:Generated_Source\PSoC6\pdl\rtos\FreeRTOS\10.0.1\Source/stream_buffer.c **** /*-----------------------------------------------------------*/
 690:Generated_Source\PSoC6\pdl\rtos\FreeRTOS\10.0.1\Source/stream_buffer.c **** 
 691:Generated_Source\PSoC6\pdl\rtos\FreeRTOS\10.0.1\Source/stream_buffer.c **** size_t xStreamBufferReceive( StreamBufferHandle_t xStreamBuffer,
 692:Generated_Source\PSoC6\pdl\rtos\FreeRTOS\10.0.1\Source/stream_buffer.c **** 							 void *pvRxData,
 693:Generated_Source\PSoC6\pdl\rtos\FreeRTOS\10.0.1\Source/stream_buffer.c **** 							 size_t xBufferLengthBytes,
 694:Generated_Source\PSoC6\pdl\rtos\FreeRTOS\10.0.1\Source/stream_buffer.c **** 							 TickType_t xTicksToWait )
 695:Generated_Source\PSoC6\pdl\rtos\FreeRTOS\10.0.1\Source/stream_buffer.c **** {
 1100              		.loc 1 695 0
 1101              		.cfi_startproc
 1102              		@ args = 0, pretend = 0, frame = 48
 1103              		@ frame_needed = 1, uses_anonymous_args = 0
 1104 0000 80B5     		push	{r7, lr}
 1105              		.cfi_def_cfa_offset 8
 1106              		.cfi_offset 7, -8
 1107              		.cfi_offset 14, -4
 1108 0002 8EB0     		sub	sp, sp, #56
 1109              		.cfi_def_cfa_offset 64
ARM GAS  C:\Users\stijn\AppData\Local\Temp\cccniDcZ.s 			page 36


 1110 0004 02AF     		add	r7, sp, #8
 1111              		.cfi_def_cfa 7, 56
 1112 0006 F860     		str	r0, [r7, #12]
 1113 0008 B960     		str	r1, [r7, #8]
 1114 000a 7A60     		str	r2, [r7, #4]
 1115 000c 3B60     		str	r3, [r7]
 696:Generated_Source\PSoC6\pdl\rtos\FreeRTOS\10.0.1\Source/stream_buffer.c **** StreamBuffer_t * const pxStreamBuffer = ( StreamBuffer_t * ) xStreamBuffer; /*lint !e9087 !e9079 Sa
 1116              		.loc 1 696 0
 1117 000e FB68     		ldr	r3, [r7, #12]
 1118 0010 3B62     		str	r3, [r7, #32]
 697:Generated_Source\PSoC6\pdl\rtos\FreeRTOS\10.0.1\Source/stream_buffer.c **** size_t xReceivedLength = 0, xBytesAvailable, xBytesToStoreMessageLength;
 1119              		.loc 1 697 0
 1120 0012 0023     		movs	r3, #0
 1121 0014 FB62     		str	r3, [r7, #44]
 698:Generated_Source\PSoC6\pdl\rtos\FreeRTOS\10.0.1\Source/stream_buffer.c **** 
 699:Generated_Source\PSoC6\pdl\rtos\FreeRTOS\10.0.1\Source/stream_buffer.c **** 	configASSERT( pvRxData );
 1122              		.loc 1 699 0
 1123 0016 BB68     		ldr	r3, [r7, #8]
 1124 0018 002B     		cmp	r3, #0
 1125 001a 09D1     		bne	.L75
 1126              	.LBB106:
 1127              	.LBB107:
 156:Generated_Source\PSoC6\pdl\rtos/FreeRTOS/10.0.1/Source/portable/GCC/CM4F/portmacro.h **** 	(
 1128              		.loc 2 156 0 discriminator 1
 1129              		.syntax unified
 1130              	@ 156 "Generated_Source\PSoC6\pdl\rtos/FreeRTOS/10.0.1/Source/portable/GCC/CM4F/portmacro.h" 1
 1131 001c 4FF03F03 			mov r3, #63												
 1132 0020 83F31188 		msr basepri, r3											
 1133 0024 BFF36F8F 		isb														
 1134 0028 BFF34F8F 		dsb														
 1135              	
 1136              	@ 0 "" 2
 1137              		.thumb
 1138              		.syntax unified
 1139 002c 7B61     		str	r3, [r7, #20]
 1140              	.L76:
 1141              	.LBE107:
 1142              	.LBE106:
 1143              		.loc 1 699 0 discriminator 1
 1144 002e FEE7     		b	.L76
 1145              	.L75:
 700:Generated_Source\PSoC6\pdl\rtos\FreeRTOS\10.0.1\Source/stream_buffer.c **** 	configASSERT( pxStreamBuffer );
 1146              		.loc 1 700 0
 1147 0030 3B6A     		ldr	r3, [r7, #32]
 1148 0032 002B     		cmp	r3, #0
 1149 0034 09D1     		bne	.L77
 1150              	.LBB108:
 1151              	.LBB109:
 156:Generated_Source\PSoC6\pdl\rtos/FreeRTOS/10.0.1/Source/portable/GCC/CM4F/portmacro.h **** 	(
 1152              		.loc 2 156 0 discriminator 1
 1153              		.syntax unified
 1154              	@ 156 "Generated_Source\PSoC6\pdl\rtos/FreeRTOS/10.0.1/Source/portable/GCC/CM4F/portmacro.h" 1
 1155 0036 4FF03F03 			mov r3, #63												
 1156 003a 83F31188 		msr basepri, r3											
 1157 003e BFF36F8F 		isb														
 1158 0042 BFF34F8F 		dsb														
 1159              	
ARM GAS  C:\Users\stijn\AppData\Local\Temp\cccniDcZ.s 			page 37


 1160              	@ 0 "" 2
 1161              		.thumb
 1162              		.syntax unified
 1163 0046 BB61     		str	r3, [r7, #24]
 1164              	.L78:
 1165              	.LBE109:
 1166              	.LBE108:
 1167              		.loc 1 700 0 discriminator 2
 1168 0048 FEE7     		b	.L78
 1169              	.L77:
 701:Generated_Source\PSoC6\pdl\rtos\FreeRTOS\10.0.1\Source/stream_buffer.c **** 
 702:Generated_Source\PSoC6\pdl\rtos\FreeRTOS\10.0.1\Source/stream_buffer.c **** 	/* This receive function is used by both message buffers, which store
 703:Generated_Source\PSoC6\pdl\rtos\FreeRTOS\10.0.1\Source/stream_buffer.c **** 	discrete messages, and stream buffers, which store a continuous stream of
 704:Generated_Source\PSoC6\pdl\rtos\FreeRTOS\10.0.1\Source/stream_buffer.c **** 	bytes.  Discrete messages include an additional
 705:Generated_Source\PSoC6\pdl\rtos\FreeRTOS\10.0.1\Source/stream_buffer.c **** 	sbBYTES_TO_STORE_MESSAGE_LENGTH bytes that hold the length of the
 706:Generated_Source\PSoC6\pdl\rtos\FreeRTOS\10.0.1\Source/stream_buffer.c **** 	message. */
 707:Generated_Source\PSoC6\pdl\rtos\FreeRTOS\10.0.1\Source/stream_buffer.c **** 	if( ( pxStreamBuffer->ucFlags & sbFLAGS_IS_MESSAGE_BUFFER ) != ( uint8_t ) 0 )
 1170              		.loc 1 707 0
 1171 004a 3B6A     		ldr	r3, [r7, #32]
 1172 004c 1B7F     		ldrb	r3, [r3, #28]	@ zero_extendqisi2
 1173 004e 03F00103 		and	r3, r3, #1
 1174 0052 002B     		cmp	r3, #0
 1175 0054 02D0     		beq	.L79
 708:Generated_Source\PSoC6\pdl\rtos\FreeRTOS\10.0.1\Source/stream_buffer.c **** 	{
 709:Generated_Source\PSoC6\pdl\rtos\FreeRTOS\10.0.1\Source/stream_buffer.c **** 		xBytesToStoreMessageLength = sbBYTES_TO_STORE_MESSAGE_LENGTH;
 1176              		.loc 1 709 0
 1177 0056 0423     		movs	r3, #4
 1178 0058 7B62     		str	r3, [r7, #36]
 1179 005a 01E0     		b	.L80
 1180              	.L79:
 710:Generated_Source\PSoC6\pdl\rtos\FreeRTOS\10.0.1\Source/stream_buffer.c **** 	}
 711:Generated_Source\PSoC6\pdl\rtos\FreeRTOS\10.0.1\Source/stream_buffer.c **** 	else
 712:Generated_Source\PSoC6\pdl\rtos\FreeRTOS\10.0.1\Source/stream_buffer.c **** 	{
 713:Generated_Source\PSoC6\pdl\rtos\FreeRTOS\10.0.1\Source/stream_buffer.c **** 		xBytesToStoreMessageLength = 0;
 1181              		.loc 1 713 0
 1182 005c 0023     		movs	r3, #0
 1183 005e 7B62     		str	r3, [r7, #36]
 1184              	.L80:
 714:Generated_Source\PSoC6\pdl\rtos\FreeRTOS\10.0.1\Source/stream_buffer.c **** 	}
 715:Generated_Source\PSoC6\pdl\rtos\FreeRTOS\10.0.1\Source/stream_buffer.c **** 
 716:Generated_Source\PSoC6\pdl\rtos\FreeRTOS\10.0.1\Source/stream_buffer.c **** 	if( xTicksToWait != ( TickType_t ) 0 )
 1185              		.loc 1 716 0
 1186 0060 3B68     		ldr	r3, [r7]
 1187 0062 002B     		cmp	r3, #0
 1188 0064 34D0     		beq	.L81
 717:Generated_Source\PSoC6\pdl\rtos\FreeRTOS\10.0.1\Source/stream_buffer.c **** 	{
 718:Generated_Source\PSoC6\pdl\rtos\FreeRTOS\10.0.1\Source/stream_buffer.c **** 		/* Checking if there is data and clearing the notification state must be
 719:Generated_Source\PSoC6\pdl\rtos\FreeRTOS\10.0.1\Source/stream_buffer.c **** 		performed atomically. */
 720:Generated_Source\PSoC6\pdl\rtos\FreeRTOS\10.0.1\Source/stream_buffer.c **** 		taskENTER_CRITICAL();
 1189              		.loc 1 720 0
 1190 0066 FFF7FEFF 		bl	vPortEnterCritical
 721:Generated_Source\PSoC6\pdl\rtos\FreeRTOS\10.0.1\Source/stream_buffer.c **** 		{
 722:Generated_Source\PSoC6\pdl\rtos\FreeRTOS\10.0.1\Source/stream_buffer.c **** 			xBytesAvailable = prvBytesInBuffer( pxStreamBuffer );
 1191              		.loc 1 722 0
 1192 006a 386A     		ldr	r0, [r7, #32]
 1193 006c FFF7FEFF 		bl	prvBytesInBuffer
 1194 0070 B862     		str	r0, [r7, #40]
ARM GAS  C:\Users\stijn\AppData\Local\Temp\cccniDcZ.s 			page 38


 723:Generated_Source\PSoC6\pdl\rtos\FreeRTOS\10.0.1\Source/stream_buffer.c **** 
 724:Generated_Source\PSoC6\pdl\rtos\FreeRTOS\10.0.1\Source/stream_buffer.c **** 			/* If this function was invoked by a message buffer read then
 725:Generated_Source\PSoC6\pdl\rtos\FreeRTOS\10.0.1\Source/stream_buffer.c **** 			xBytesToStoreMessageLength holds the number of bytes used to hold
 726:Generated_Source\PSoC6\pdl\rtos\FreeRTOS\10.0.1\Source/stream_buffer.c **** 			the length of the next discrete message.  If this function was
 727:Generated_Source\PSoC6\pdl\rtos\FreeRTOS\10.0.1\Source/stream_buffer.c **** 			invoked by a stream buffer read then xBytesToStoreMessageLength will
 728:Generated_Source\PSoC6\pdl\rtos\FreeRTOS\10.0.1\Source/stream_buffer.c **** 			be 0. */
 729:Generated_Source\PSoC6\pdl\rtos\FreeRTOS\10.0.1\Source/stream_buffer.c **** 			if( xBytesAvailable <= xBytesToStoreMessageLength )
 1195              		.loc 1 729 0
 1196 0072 BA6A     		ldr	r2, [r7, #40]
 1197 0074 7B6A     		ldr	r3, [r7, #36]
 1198 0076 9A42     		cmp	r2, r3
 1199 0078 15D8     		bhi	.L82
 730:Generated_Source\PSoC6\pdl\rtos\FreeRTOS\10.0.1\Source/stream_buffer.c **** 			{
 731:Generated_Source\PSoC6\pdl\rtos\FreeRTOS\10.0.1\Source/stream_buffer.c **** 				/* Clear notification state as going to wait for data. */
 732:Generated_Source\PSoC6\pdl\rtos\FreeRTOS\10.0.1\Source/stream_buffer.c **** 				( void ) xTaskNotifyStateClear( NULL );
 1200              		.loc 1 732 0
 1201 007a 0020     		movs	r0, #0
 1202 007c FFF7FEFF 		bl	xTaskNotifyStateClear
 733:Generated_Source\PSoC6\pdl\rtos\FreeRTOS\10.0.1\Source/stream_buffer.c **** 
 734:Generated_Source\PSoC6\pdl\rtos\FreeRTOS\10.0.1\Source/stream_buffer.c **** 				/* Should only be one reader. */
 735:Generated_Source\PSoC6\pdl\rtos\FreeRTOS\10.0.1\Source/stream_buffer.c **** 				configASSERT( pxStreamBuffer->xTaskWaitingToReceive == NULL );
 1203              		.loc 1 735 0
 1204 0080 3B6A     		ldr	r3, [r7, #32]
 1205 0082 1B69     		ldr	r3, [r3, #16]
 1206 0084 002B     		cmp	r3, #0
 1207 0086 09D0     		beq	.L83
 1208              	.LBB110:
 1209              	.LBB111:
 156:Generated_Source\PSoC6\pdl\rtos/FreeRTOS/10.0.1/Source/portable/GCC/CM4F/portmacro.h **** 	(
 1210              		.loc 2 156 0 discriminator 1
 1211              		.syntax unified
 1212              	@ 156 "Generated_Source\PSoC6\pdl\rtos/FreeRTOS/10.0.1/Source/portable/GCC/CM4F/portmacro.h" 1
 1213 0088 4FF03F03 			mov r3, #63												
 1214 008c 83F31188 		msr basepri, r3											
 1215 0090 BFF36F8F 		isb														
 1216 0094 BFF34F8F 		dsb														
 1217              	
 1218              	@ 0 "" 2
 1219              		.thumb
 1220              		.syntax unified
 1221 0098 FB61     		str	r3, [r7, #28]
 1222              	.L84:
 1223              	.LBE111:
 1224              	.LBE110:
 1225              		.loc 1 735 0 discriminator 3
 1226 009a FEE7     		b	.L84
 1227              	.L83:
 736:Generated_Source\PSoC6\pdl\rtos\FreeRTOS\10.0.1\Source/stream_buffer.c **** 				pxStreamBuffer->xTaskWaitingToReceive = xTaskGetCurrentTaskHandle();
 1228              		.loc 1 736 0
 1229 009c FFF7FEFF 		bl	xTaskGetCurrentTaskHandle
 1230 00a0 0246     		mov	r2, r0
 1231 00a2 3B6A     		ldr	r3, [r7, #32]
 1232 00a4 1A61     		str	r2, [r3, #16]
 1233              	.L82:
 737:Generated_Source\PSoC6\pdl\rtos\FreeRTOS\10.0.1\Source/stream_buffer.c **** 			}
 738:Generated_Source\PSoC6\pdl\rtos\FreeRTOS\10.0.1\Source/stream_buffer.c **** 			else
 739:Generated_Source\PSoC6\pdl\rtos\FreeRTOS\10.0.1\Source/stream_buffer.c **** 			{
ARM GAS  C:\Users\stijn\AppData\Local\Temp\cccniDcZ.s 			page 39


 740:Generated_Source\PSoC6\pdl\rtos\FreeRTOS\10.0.1\Source/stream_buffer.c **** 				mtCOVERAGE_TEST_MARKER();
 741:Generated_Source\PSoC6\pdl\rtos\FreeRTOS\10.0.1\Source/stream_buffer.c **** 			}
 742:Generated_Source\PSoC6\pdl\rtos\FreeRTOS\10.0.1\Source/stream_buffer.c **** 		}
 743:Generated_Source\PSoC6\pdl\rtos\FreeRTOS\10.0.1\Source/stream_buffer.c **** 		taskEXIT_CRITICAL();
 1234              		.loc 1 743 0
 1235 00a6 FFF7FEFF 		bl	vPortExitCritical
 744:Generated_Source\PSoC6\pdl\rtos\FreeRTOS\10.0.1\Source/stream_buffer.c **** 
 745:Generated_Source\PSoC6\pdl\rtos\FreeRTOS\10.0.1\Source/stream_buffer.c **** 		if( xBytesAvailable <= xBytesToStoreMessageLength )
 1236              		.loc 1 745 0
 1237 00aa BA6A     		ldr	r2, [r7, #40]
 1238 00ac 7B6A     		ldr	r3, [r7, #36]
 1239 00ae 9A42     		cmp	r2, r3
 1240 00b0 12D8     		bhi	.L85
 746:Generated_Source\PSoC6\pdl\rtos\FreeRTOS\10.0.1\Source/stream_buffer.c **** 		{
 747:Generated_Source\PSoC6\pdl\rtos\FreeRTOS\10.0.1\Source/stream_buffer.c **** 			/* Wait for data to be available. */
 748:Generated_Source\PSoC6\pdl\rtos\FreeRTOS\10.0.1\Source/stream_buffer.c **** 			traceBLOCKING_ON_STREAM_BUFFER_RECEIVE( xStreamBuffer );
 749:Generated_Source\PSoC6\pdl\rtos\FreeRTOS\10.0.1\Source/stream_buffer.c **** 			( void ) xTaskNotifyWait( ( uint32_t ) 0, UINT32_MAX, NULL, xTicksToWait );
 1241              		.loc 1 749 0
 1242 00b2 3B68     		ldr	r3, [r7]
 1243 00b4 0022     		movs	r2, #0
 1244 00b6 4FF0FF31 		mov	r1, #-1
 1245 00ba 0020     		movs	r0, #0
 1246 00bc FFF7FEFF 		bl	xTaskNotifyWait
 750:Generated_Source\PSoC6\pdl\rtos\FreeRTOS\10.0.1\Source/stream_buffer.c **** 			pxStreamBuffer->xTaskWaitingToReceive = NULL;
 1247              		.loc 1 750 0
 1248 00c0 3B6A     		ldr	r3, [r7, #32]
 1249 00c2 0022     		movs	r2, #0
 1250 00c4 1A61     		str	r2, [r3, #16]
 751:Generated_Source\PSoC6\pdl\rtos\FreeRTOS\10.0.1\Source/stream_buffer.c **** 
 752:Generated_Source\PSoC6\pdl\rtos\FreeRTOS\10.0.1\Source/stream_buffer.c **** 			/* Recheck the data available after blocking. */
 753:Generated_Source\PSoC6\pdl\rtos\FreeRTOS\10.0.1\Source/stream_buffer.c **** 			xBytesAvailable = prvBytesInBuffer( pxStreamBuffer );
 1251              		.loc 1 753 0
 1252 00c6 386A     		ldr	r0, [r7, #32]
 1253 00c8 FFF7FEFF 		bl	prvBytesInBuffer
 1254 00cc B862     		str	r0, [r7, #40]
 1255 00ce 03E0     		b	.L85
 1256              	.L81:
 754:Generated_Source\PSoC6\pdl\rtos\FreeRTOS\10.0.1\Source/stream_buffer.c **** 		}
 755:Generated_Source\PSoC6\pdl\rtos\FreeRTOS\10.0.1\Source/stream_buffer.c **** 		else
 756:Generated_Source\PSoC6\pdl\rtos\FreeRTOS\10.0.1\Source/stream_buffer.c **** 		{
 757:Generated_Source\PSoC6\pdl\rtos\FreeRTOS\10.0.1\Source/stream_buffer.c **** 			mtCOVERAGE_TEST_MARKER();
 758:Generated_Source\PSoC6\pdl\rtos\FreeRTOS\10.0.1\Source/stream_buffer.c **** 		}
 759:Generated_Source\PSoC6\pdl\rtos\FreeRTOS\10.0.1\Source/stream_buffer.c **** 	}
 760:Generated_Source\PSoC6\pdl\rtos\FreeRTOS\10.0.1\Source/stream_buffer.c **** 	else
 761:Generated_Source\PSoC6\pdl\rtos\FreeRTOS\10.0.1\Source/stream_buffer.c **** 	{
 762:Generated_Source\PSoC6\pdl\rtos\FreeRTOS\10.0.1\Source/stream_buffer.c **** 		xBytesAvailable = prvBytesInBuffer( pxStreamBuffer );
 1257              		.loc 1 762 0
 1258 00d0 386A     		ldr	r0, [r7, #32]
 1259 00d2 FFF7FEFF 		bl	prvBytesInBuffer
 1260 00d6 B862     		str	r0, [r7, #40]
 1261              	.L85:
 763:Generated_Source\PSoC6\pdl\rtos\FreeRTOS\10.0.1\Source/stream_buffer.c **** 	}
 764:Generated_Source\PSoC6\pdl\rtos\FreeRTOS\10.0.1\Source/stream_buffer.c **** 
 765:Generated_Source\PSoC6\pdl\rtos\FreeRTOS\10.0.1\Source/stream_buffer.c **** 	/* Whether receiving a discrete message (where xBytesToStoreMessageLength
 766:Generated_Source\PSoC6\pdl\rtos\FreeRTOS\10.0.1\Source/stream_buffer.c **** 	holds the number of bytes used to store the message length) or a stream of
 767:Generated_Source\PSoC6\pdl\rtos\FreeRTOS\10.0.1\Source/stream_buffer.c **** 	bytes (where xBytesToStoreMessageLength is zero), the number of bytes
 768:Generated_Source\PSoC6\pdl\rtos\FreeRTOS\10.0.1\Source/stream_buffer.c **** 	available must be greater than xBytesToStoreMessageLength to be able to
ARM GAS  C:\Users\stijn\AppData\Local\Temp\cccniDcZ.s 			page 40


 769:Generated_Source\PSoC6\pdl\rtos\FreeRTOS\10.0.1\Source/stream_buffer.c **** 	read bytes from the buffer. */
 770:Generated_Source\PSoC6\pdl\rtos\FreeRTOS\10.0.1\Source/stream_buffer.c **** 	if( xBytesAvailable > xBytesToStoreMessageLength )
 1262              		.loc 1 770 0
 1263 00d8 BA6A     		ldr	r2, [r7, #40]
 1264 00da 7B6A     		ldr	r3, [r7, #36]
 1265 00dc 9A42     		cmp	r2, r3
 1266 00de 1DD9     		bls	.L86
 771:Generated_Source\PSoC6\pdl\rtos\FreeRTOS\10.0.1\Source/stream_buffer.c **** 	{
 772:Generated_Source\PSoC6\pdl\rtos\FreeRTOS\10.0.1\Source/stream_buffer.c **** 		xReceivedLength = prvReadMessageFromBuffer( pxStreamBuffer, pvRxData, xBufferLengthBytes, xBytesA
 1267              		.loc 1 772 0
 1268 00e0 7B6A     		ldr	r3, [r7, #36]
 1269 00e2 0093     		str	r3, [sp]
 1270 00e4 BB6A     		ldr	r3, [r7, #40]
 1271 00e6 7A68     		ldr	r2, [r7, #4]
 1272 00e8 B968     		ldr	r1, [r7, #8]
 1273 00ea 386A     		ldr	r0, [r7, #32]
 1274 00ec FFF7FEFF 		bl	prvReadMessageFromBuffer
 1275 00f0 F862     		str	r0, [r7, #44]
 773:Generated_Source\PSoC6\pdl\rtos\FreeRTOS\10.0.1\Source/stream_buffer.c **** 
 774:Generated_Source\PSoC6\pdl\rtos\FreeRTOS\10.0.1\Source/stream_buffer.c **** 		/* Was a task waiting for space in the buffer? */
 775:Generated_Source\PSoC6\pdl\rtos\FreeRTOS\10.0.1\Source/stream_buffer.c **** 		if( xReceivedLength != ( size_t ) 0 )
 1276              		.loc 1 775 0
 1277 00f2 FB6A     		ldr	r3, [r7, #44]
 1278 00f4 002B     		cmp	r3, #0
 1279 00f6 11D0     		beq	.L86
 776:Generated_Source\PSoC6\pdl\rtos\FreeRTOS\10.0.1\Source/stream_buffer.c **** 		{
 777:Generated_Source\PSoC6\pdl\rtos\FreeRTOS\10.0.1\Source/stream_buffer.c **** 			traceSTREAM_BUFFER_RECEIVE( xStreamBuffer, xReceivedLength );
 778:Generated_Source\PSoC6\pdl\rtos\FreeRTOS\10.0.1\Source/stream_buffer.c **** 			sbRECEIVE_COMPLETED( pxStreamBuffer );
 1280              		.loc 1 778 0
 1281 00f8 FFF7FEFF 		bl	vTaskSuspendAll
 1282 00fc 3B6A     		ldr	r3, [r7, #32]
 1283 00fe 5B69     		ldr	r3, [r3, #20]
 1284 0100 002B     		cmp	r3, #0
 1285 0102 09D0     		beq	.L87
 1286              		.loc 1 778 0 is_stmt 0 discriminator 1
 1287 0104 3B6A     		ldr	r3, [r7, #32]
 1288 0106 5869     		ldr	r0, [r3, #20]
 1289 0108 0023     		movs	r3, #0
 1290 010a 0022     		movs	r2, #0
 1291 010c 0021     		movs	r1, #0
 1292 010e FFF7FEFF 		bl	xTaskGenericNotify
 1293 0112 3B6A     		ldr	r3, [r7, #32]
 1294 0114 0022     		movs	r2, #0
 1295 0116 5A61     		str	r2, [r3, #20]
 1296              	.L87:
 1297              		.loc 1 778 0 discriminator 3
 1298 0118 FFF7FEFF 		bl	xTaskResumeAll
 1299              	.L86:
 779:Generated_Source\PSoC6\pdl\rtos\FreeRTOS\10.0.1\Source/stream_buffer.c **** 		}
 780:Generated_Source\PSoC6\pdl\rtos\FreeRTOS\10.0.1\Source/stream_buffer.c **** 		else
 781:Generated_Source\PSoC6\pdl\rtos\FreeRTOS\10.0.1\Source/stream_buffer.c **** 		{
 782:Generated_Source\PSoC6\pdl\rtos\FreeRTOS\10.0.1\Source/stream_buffer.c **** 			mtCOVERAGE_TEST_MARKER();
 783:Generated_Source\PSoC6\pdl\rtos\FreeRTOS\10.0.1\Source/stream_buffer.c **** 		}
 784:Generated_Source\PSoC6\pdl\rtos\FreeRTOS\10.0.1\Source/stream_buffer.c **** 	}
 785:Generated_Source\PSoC6\pdl\rtos\FreeRTOS\10.0.1\Source/stream_buffer.c **** 	else
 786:Generated_Source\PSoC6\pdl\rtos\FreeRTOS\10.0.1\Source/stream_buffer.c **** 	{
 787:Generated_Source\PSoC6\pdl\rtos\FreeRTOS\10.0.1\Source/stream_buffer.c **** 		traceSTREAM_BUFFER_RECEIVE_FAILED( xStreamBuffer );
ARM GAS  C:\Users\stijn\AppData\Local\Temp\cccniDcZ.s 			page 41


 788:Generated_Source\PSoC6\pdl\rtos\FreeRTOS\10.0.1\Source/stream_buffer.c **** 		mtCOVERAGE_TEST_MARKER();
 789:Generated_Source\PSoC6\pdl\rtos\FreeRTOS\10.0.1\Source/stream_buffer.c **** 	}
 790:Generated_Source\PSoC6\pdl\rtos\FreeRTOS\10.0.1\Source/stream_buffer.c **** 
 791:Generated_Source\PSoC6\pdl\rtos\FreeRTOS\10.0.1\Source/stream_buffer.c **** 	return xReceivedLength;
 1300              		.loc 1 791 0 is_stmt 1
 1301 011c FB6A     		ldr	r3, [r7, #44]
 792:Generated_Source\PSoC6\pdl\rtos\FreeRTOS\10.0.1\Source/stream_buffer.c **** }
 1302              		.loc 1 792 0
 1303 011e 1846     		mov	r0, r3
 1304 0120 3037     		adds	r7, r7, #48
 1305              		.cfi_def_cfa_offset 8
 1306 0122 BD46     		mov	sp, r7
 1307              		.cfi_def_cfa_register 13
 1308              		@ sp needed
 1309 0124 80BD     		pop	{r7, pc}
 1310              		.cfi_endproc
 1311              	.LFE145:
 1312              		.size	xStreamBufferReceive, .-xStreamBufferReceive
 1313 0126 00BF     		.section	.text.xStreamBufferReceiveFromISR,"ax",%progbits
 1314              		.align	2
 1315              		.global	xStreamBufferReceiveFromISR
 1316              		.thumb
 1317              		.thumb_func
 1318              		.type	xStreamBufferReceiveFromISR, %function
 1319              	xStreamBufferReceiveFromISR:
 1320              	.LFB146:
 793:Generated_Source\PSoC6\pdl\rtos\FreeRTOS\10.0.1\Source/stream_buffer.c **** /*-----------------------------------------------------------*/
 794:Generated_Source\PSoC6\pdl\rtos\FreeRTOS\10.0.1\Source/stream_buffer.c **** 
 795:Generated_Source\PSoC6\pdl\rtos\FreeRTOS\10.0.1\Source/stream_buffer.c **** size_t xStreamBufferReceiveFromISR( StreamBufferHandle_t xStreamBuffer,
 796:Generated_Source\PSoC6\pdl\rtos\FreeRTOS\10.0.1\Source/stream_buffer.c **** 									void *pvRxData,
 797:Generated_Source\PSoC6\pdl\rtos\FreeRTOS\10.0.1\Source/stream_buffer.c **** 									size_t xBufferLengthBytes,
 798:Generated_Source\PSoC6\pdl\rtos\FreeRTOS\10.0.1\Source/stream_buffer.c **** 									BaseType_t * const pxHigherPriorityTaskWoken )
 799:Generated_Source\PSoC6\pdl\rtos\FreeRTOS\10.0.1\Source/stream_buffer.c **** {
 1321              		.loc 1 799 0
 1322              		.cfi_startproc
 1323              		@ args = 0, pretend = 0, frame = 56
 1324              		@ frame_needed = 1, uses_anonymous_args = 0
 1325 0000 80B5     		push	{r7, lr}
 1326              		.cfi_def_cfa_offset 8
 1327              		.cfi_offset 7, -8
 1328              		.cfi_offset 14, -4
 1329 0002 90B0     		sub	sp, sp, #64
 1330              		.cfi_def_cfa_offset 72
 1331 0004 02AF     		add	r7, sp, #8
 1332              		.cfi_def_cfa 7, 64
 1333 0006 F860     		str	r0, [r7, #12]
 1334 0008 B960     		str	r1, [r7, #8]
 1335 000a 7A60     		str	r2, [r7, #4]
 1336 000c 3B60     		str	r3, [r7]
 800:Generated_Source\PSoC6\pdl\rtos\FreeRTOS\10.0.1\Source/stream_buffer.c **** StreamBuffer_t * const pxStreamBuffer = ( StreamBuffer_t * ) xStreamBuffer; /*lint !e9087 !e9079 Sa
 1337              		.loc 1 800 0
 1338 000e FB68     		ldr	r3, [r7, #12]
 1339 0010 FB62     		str	r3, [r7, #44]
 801:Generated_Source\PSoC6\pdl\rtos\FreeRTOS\10.0.1\Source/stream_buffer.c **** size_t xReceivedLength = 0, xBytesAvailable, xBytesToStoreMessageLength;
 1340              		.loc 1 801 0
 1341 0012 0023     		movs	r3, #0
 1342 0014 7B63     		str	r3, [r7, #52]
ARM GAS  C:\Users\stijn\AppData\Local\Temp\cccniDcZ.s 			page 42


 802:Generated_Source\PSoC6\pdl\rtos\FreeRTOS\10.0.1\Source/stream_buffer.c **** 
 803:Generated_Source\PSoC6\pdl\rtos\FreeRTOS\10.0.1\Source/stream_buffer.c **** 	configASSERT( pvRxData );
 1343              		.loc 1 803 0
 1344 0016 BB68     		ldr	r3, [r7, #8]
 1345 0018 002B     		cmp	r3, #0
 1346 001a 09D1     		bne	.L90
 1347              	.LBB112:
 1348              	.LBB113:
 156:Generated_Source\PSoC6\pdl\rtos/FreeRTOS/10.0.1/Source/portable/GCC/CM4F/portmacro.h **** 	(
 1349              		.loc 2 156 0 discriminator 1
 1350              		.syntax unified
 1351              	@ 156 "Generated_Source\PSoC6\pdl\rtos/FreeRTOS/10.0.1/Source/portable/GCC/CM4F/portmacro.h" 1
 1352 001c 4FF03F03 			mov r3, #63												
 1353 0020 83F31188 		msr basepri, r3											
 1354 0024 BFF36F8F 		isb														
 1355 0028 BFF34F8F 		dsb														
 1356              	
 1357              	@ 0 "" 2
 1358              		.thumb
 1359              		.syntax unified
 1360 002c 7B61     		str	r3, [r7, #20]
 1361              	.L91:
 1362              	.LBE113:
 1363              	.LBE112:
 1364              		.loc 1 803 0 discriminator 1
 1365 002e FEE7     		b	.L91
 1366              	.L90:
 804:Generated_Source\PSoC6\pdl\rtos\FreeRTOS\10.0.1\Source/stream_buffer.c **** 	configASSERT( pxStreamBuffer );
 1367              		.loc 1 804 0
 1368 0030 FB6A     		ldr	r3, [r7, #44]
 1369 0032 002B     		cmp	r3, #0
 1370 0034 09D1     		bne	.L92
 1371              	.LBB114:
 1372              	.LBB115:
 156:Generated_Source\PSoC6\pdl\rtos/FreeRTOS/10.0.1/Source/portable/GCC/CM4F/portmacro.h **** 	(
 1373              		.loc 2 156 0 discriminator 1
 1374              		.syntax unified
 1375              	@ 156 "Generated_Source\PSoC6\pdl\rtos/FreeRTOS/10.0.1/Source/portable/GCC/CM4F/portmacro.h" 1
 1376 0036 4FF03F03 			mov r3, #63												
 1377 003a 83F31188 		msr basepri, r3											
 1378 003e BFF36F8F 		isb														
 1379 0042 BFF34F8F 		dsb														
 1380              	
 1381              	@ 0 "" 2
 1382              		.thumb
 1383              		.syntax unified
 1384 0046 BB61     		str	r3, [r7, #24]
 1385              	.L93:
 1386              	.LBE115:
 1387              	.LBE114:
 1388              		.loc 1 804 0 discriminator 2
 1389 0048 FEE7     		b	.L93
 1390              	.L92:
 805:Generated_Source\PSoC6\pdl\rtos\FreeRTOS\10.0.1\Source/stream_buffer.c **** 
 806:Generated_Source\PSoC6\pdl\rtos\FreeRTOS\10.0.1\Source/stream_buffer.c **** 	/* This receive function is used by both message buffers, which store
 807:Generated_Source\PSoC6\pdl\rtos\FreeRTOS\10.0.1\Source/stream_buffer.c **** 	discrete messages, and stream buffers, which store a continuous stream of
 808:Generated_Source\PSoC6\pdl\rtos\FreeRTOS\10.0.1\Source/stream_buffer.c **** 	bytes.  Discrete messages include an additional
ARM GAS  C:\Users\stijn\AppData\Local\Temp\cccniDcZ.s 			page 43


 809:Generated_Source\PSoC6\pdl\rtos\FreeRTOS\10.0.1\Source/stream_buffer.c **** 	sbBYTES_TO_STORE_MESSAGE_LENGTH bytes that hold the length of the
 810:Generated_Source\PSoC6\pdl\rtos\FreeRTOS\10.0.1\Source/stream_buffer.c **** 	message. */
 811:Generated_Source\PSoC6\pdl\rtos\FreeRTOS\10.0.1\Source/stream_buffer.c **** 	if( ( pxStreamBuffer->ucFlags & sbFLAGS_IS_MESSAGE_BUFFER ) != ( uint8_t ) 0 )
 1391              		.loc 1 811 0
 1392 004a FB6A     		ldr	r3, [r7, #44]
 1393 004c 1B7F     		ldrb	r3, [r3, #28]	@ zero_extendqisi2
 1394 004e 03F00103 		and	r3, r3, #1
 1395 0052 002B     		cmp	r3, #0
 1396 0054 02D0     		beq	.L94
 812:Generated_Source\PSoC6\pdl\rtos\FreeRTOS\10.0.1\Source/stream_buffer.c **** 	{
 813:Generated_Source\PSoC6\pdl\rtos\FreeRTOS\10.0.1\Source/stream_buffer.c **** 		xBytesToStoreMessageLength = sbBYTES_TO_STORE_MESSAGE_LENGTH;
 1397              		.loc 1 813 0
 1398 0056 0423     		movs	r3, #4
 1399 0058 3B63     		str	r3, [r7, #48]
 1400 005a 01E0     		b	.L95
 1401              	.L94:
 814:Generated_Source\PSoC6\pdl\rtos\FreeRTOS\10.0.1\Source/stream_buffer.c **** 	}
 815:Generated_Source\PSoC6\pdl\rtos\FreeRTOS\10.0.1\Source/stream_buffer.c **** 	else
 816:Generated_Source\PSoC6\pdl\rtos\FreeRTOS\10.0.1\Source/stream_buffer.c **** 	{
 817:Generated_Source\PSoC6\pdl\rtos\FreeRTOS\10.0.1\Source/stream_buffer.c **** 		xBytesToStoreMessageLength = 0;
 1402              		.loc 1 817 0
 1403 005c 0023     		movs	r3, #0
 1404 005e 3B63     		str	r3, [r7, #48]
 1405              	.L95:
 818:Generated_Source\PSoC6\pdl\rtos\FreeRTOS\10.0.1\Source/stream_buffer.c **** 	}
 819:Generated_Source\PSoC6\pdl\rtos\FreeRTOS\10.0.1\Source/stream_buffer.c **** 
 820:Generated_Source\PSoC6\pdl\rtos\FreeRTOS\10.0.1\Source/stream_buffer.c **** 	xBytesAvailable = prvBytesInBuffer( pxStreamBuffer );
 1406              		.loc 1 820 0
 1407 0060 F86A     		ldr	r0, [r7, #44]
 1408 0062 FFF7FEFF 		bl	prvBytesInBuffer
 1409 0066 B862     		str	r0, [r7, #40]
 821:Generated_Source\PSoC6\pdl\rtos\FreeRTOS\10.0.1\Source/stream_buffer.c **** 
 822:Generated_Source\PSoC6\pdl\rtos\FreeRTOS\10.0.1\Source/stream_buffer.c **** 	/* Whether receiving a discrete message (where xBytesToStoreMessageLength
 823:Generated_Source\PSoC6\pdl\rtos\FreeRTOS\10.0.1\Source/stream_buffer.c **** 	holds the number of bytes used to store the message length) or a stream of
 824:Generated_Source\PSoC6\pdl\rtos\FreeRTOS\10.0.1\Source/stream_buffer.c **** 	bytes (where xBytesToStoreMessageLength is zero), the number of bytes
 825:Generated_Source\PSoC6\pdl\rtos\FreeRTOS\10.0.1\Source/stream_buffer.c **** 	available must be greater than xBytesToStoreMessageLength to be able to
 826:Generated_Source\PSoC6\pdl\rtos\FreeRTOS\10.0.1\Source/stream_buffer.c **** 	read bytes from the buffer. */
 827:Generated_Source\PSoC6\pdl\rtos\FreeRTOS\10.0.1\Source/stream_buffer.c **** 	if( xBytesAvailable > xBytesToStoreMessageLength )
 1410              		.loc 1 827 0
 1411 0068 BA6A     		ldr	r2, [r7, #40]
 1412 006a 3B6B     		ldr	r3, [r7, #48]
 1413 006c 9A42     		cmp	r2, r3
 1414 006e 2ED9     		bls	.L96
 828:Generated_Source\PSoC6\pdl\rtos\FreeRTOS\10.0.1\Source/stream_buffer.c **** 	{
 829:Generated_Source\PSoC6\pdl\rtos\FreeRTOS\10.0.1\Source/stream_buffer.c **** 		xReceivedLength = prvReadMessageFromBuffer( pxStreamBuffer, pvRxData, xBufferLengthBytes, xBytesA
 1415              		.loc 1 829 0
 1416 0070 3B6B     		ldr	r3, [r7, #48]
 1417 0072 0093     		str	r3, [sp]
 1418 0074 BB6A     		ldr	r3, [r7, #40]
 1419 0076 7A68     		ldr	r2, [r7, #4]
 1420 0078 B968     		ldr	r1, [r7, #8]
 1421 007a F86A     		ldr	r0, [r7, #44]
 1422 007c FFF7FEFF 		bl	prvReadMessageFromBuffer
 1423 0080 7863     		str	r0, [r7, #52]
 830:Generated_Source\PSoC6\pdl\rtos\FreeRTOS\10.0.1\Source/stream_buffer.c **** 
 831:Generated_Source\PSoC6\pdl\rtos\FreeRTOS\10.0.1\Source/stream_buffer.c **** 		/* Was a task waiting for space in the buffer? */
 832:Generated_Source\PSoC6\pdl\rtos\FreeRTOS\10.0.1\Source/stream_buffer.c **** 		if( xReceivedLength != ( size_t ) 0 )
ARM GAS  C:\Users\stijn\AppData\Local\Temp\cccniDcZ.s 			page 44


 1424              		.loc 1 832 0
 1425 0082 7B6B     		ldr	r3, [r7, #52]
 1426 0084 002B     		cmp	r3, #0
 1427 0086 22D0     		beq	.L96
 1428              	.LBB116:
 1429              	.LBB117:
 1430              	.LBB118:
 172:Generated_Source\PSoC6\pdl\rtos/FreeRTOS/10.0.1/Source/portable/GCC/CM4F/portmacro.h **** 	(
 1431              		.loc 2 172 0
 1432              		.syntax unified
 1433              	@ 172 "Generated_Source\PSoC6\pdl\rtos/FreeRTOS/10.0.1/Source/portable/GCC/CM4F/portmacro.h" 1
 1434 0088 EFF31182 			mrs r2, basepri											
 1435 008c 4FF03F03 		mov r3, #63												
 1436 0090 83F31188 		msr basepri, r3											
 1437 0094 BFF36F8F 		isb														
 1438 0098 BFF34F8F 		dsb														
 1439              	
 1440              	@ 0 "" 2
 1441              		.thumb
 1442              		.syntax unified
 1443 009c FA61     		str	r2, [r7, #28]
 1444 009e 3B61     		str	r3, [r7, #16]
 184:Generated_Source\PSoC6\pdl\rtos/FreeRTOS/10.0.1/Source/portable/GCC/CM4F/portmacro.h **** }
 1445              		.loc 2 184 0
 1446 00a0 FB69     		ldr	r3, [r7, #28]
 1447              	.LBE118:
 1448              	.LBE117:
 833:Generated_Source\PSoC6\pdl\rtos\FreeRTOS\10.0.1\Source/stream_buffer.c **** 		{
 834:Generated_Source\PSoC6\pdl\rtos\FreeRTOS\10.0.1\Source/stream_buffer.c **** 			sbRECEIVE_COMPLETED_FROM_ISR( pxStreamBuffer, pxHigherPriorityTaskWoken );
 1449              		.loc 1 834 0
 1450 00a2 3B62     		str	r3, [r7, #32]
 1451 00a4 FB6A     		ldr	r3, [r7, #44]
 1452 00a6 5B69     		ldr	r3, [r3, #20]
 1453 00a8 002B     		cmp	r3, #0
 1454 00aa 0BD0     		beq	.L98
 1455              		.loc 1 834 0 is_stmt 0 discriminator 1
 1456 00ac FB6A     		ldr	r3, [r7, #44]
 1457 00ae 5869     		ldr	r0, [r3, #20]
 1458 00b0 3B68     		ldr	r3, [r7]
 1459 00b2 0093     		str	r3, [sp]
 1460 00b4 0023     		movs	r3, #0
 1461 00b6 0022     		movs	r2, #0
 1462 00b8 0021     		movs	r1, #0
 1463 00ba FFF7FEFF 		bl	xTaskGenericNotifyFromISR
 1464 00be FB6A     		ldr	r3, [r7, #44]
 1465 00c0 0022     		movs	r2, #0
 1466 00c2 5A61     		str	r2, [r3, #20]
 1467              	.L98:
 1468 00c4 3B6A     		ldr	r3, [r7, #32]
 1469 00c6 7B62     		str	r3, [r7, #36]
 1470              	.LBB119:
 1471              	.LBB120:
 1472              		.loc 2 190 0 is_stmt 1 discriminator 3
 1473 00c8 7B6A     		ldr	r3, [r7, #36]
 1474              		.syntax unified
 1475              	@ 190 "Generated_Source\PSoC6\pdl\rtos/FreeRTOS/10.0.1/Source/portable/GCC/CM4F/portmacro.h" 1
 1476 00ca 83F31188 			msr basepri, r3	
ARM GAS  C:\Users\stijn\AppData\Local\Temp\cccniDcZ.s 			page 45


 1477              	@ 0 "" 2
 1478              		.thumb
 1479              		.syntax unified
 1480              	.L96:
 1481              	.LBE120:
 1482              	.LBE119:
 1483              	.LBE116:
 835:Generated_Source\PSoC6\pdl\rtos\FreeRTOS\10.0.1\Source/stream_buffer.c **** 		}
 836:Generated_Source\PSoC6\pdl\rtos\FreeRTOS\10.0.1\Source/stream_buffer.c **** 		else
 837:Generated_Source\PSoC6\pdl\rtos\FreeRTOS\10.0.1\Source/stream_buffer.c **** 		{
 838:Generated_Source\PSoC6\pdl\rtos\FreeRTOS\10.0.1\Source/stream_buffer.c **** 			mtCOVERAGE_TEST_MARKER();
 839:Generated_Source\PSoC6\pdl\rtos\FreeRTOS\10.0.1\Source/stream_buffer.c **** 		}
 840:Generated_Source\PSoC6\pdl\rtos\FreeRTOS\10.0.1\Source/stream_buffer.c **** 	}
 841:Generated_Source\PSoC6\pdl\rtos\FreeRTOS\10.0.1\Source/stream_buffer.c **** 	else
 842:Generated_Source\PSoC6\pdl\rtos\FreeRTOS\10.0.1\Source/stream_buffer.c **** 	{
 843:Generated_Source\PSoC6\pdl\rtos\FreeRTOS\10.0.1\Source/stream_buffer.c **** 		mtCOVERAGE_TEST_MARKER();
 844:Generated_Source\PSoC6\pdl\rtos\FreeRTOS\10.0.1\Source/stream_buffer.c **** 	}
 845:Generated_Source\PSoC6\pdl\rtos\FreeRTOS\10.0.1\Source/stream_buffer.c **** 
 846:Generated_Source\PSoC6\pdl\rtos\FreeRTOS\10.0.1\Source/stream_buffer.c **** 	traceSTREAM_BUFFER_RECEIVE_FROM_ISR( xStreamBuffer, xReceivedLength );
 847:Generated_Source\PSoC6\pdl\rtos\FreeRTOS\10.0.1\Source/stream_buffer.c **** 
 848:Generated_Source\PSoC6\pdl\rtos\FreeRTOS\10.0.1\Source/stream_buffer.c **** 	return xReceivedLength;
 1484              		.loc 1 848 0
 1485 00ce 7B6B     		ldr	r3, [r7, #52]
 849:Generated_Source\PSoC6\pdl\rtos\FreeRTOS\10.0.1\Source/stream_buffer.c **** }
 1486              		.loc 1 849 0
 1487 00d0 1846     		mov	r0, r3
 1488 00d2 3837     		adds	r7, r7, #56
 1489              		.cfi_def_cfa_offset 8
 1490 00d4 BD46     		mov	sp, r7
 1491              		.cfi_def_cfa_register 13
 1492              		@ sp needed
 1493 00d6 80BD     		pop	{r7, pc}
 1494              		.cfi_endproc
 1495              	.LFE146:
 1496              		.size	xStreamBufferReceiveFromISR, .-xStreamBufferReceiveFromISR
 1497              		.section	.text.prvReadMessageFromBuffer,"ax",%progbits
 1498              		.align	2
 1499              		.thumb
 1500              		.thumb_func
 1501              		.type	prvReadMessageFromBuffer, %function
 1502              	prvReadMessageFromBuffer:
 1503              	.LFB147:
 850:Generated_Source\PSoC6\pdl\rtos\FreeRTOS\10.0.1\Source/stream_buffer.c **** /*-----------------------------------------------------------*/
 851:Generated_Source\PSoC6\pdl\rtos\FreeRTOS\10.0.1\Source/stream_buffer.c **** 
 852:Generated_Source\PSoC6\pdl\rtos\FreeRTOS\10.0.1\Source/stream_buffer.c **** static size_t prvReadMessageFromBuffer( StreamBuffer_t *pxStreamBuffer,
 853:Generated_Source\PSoC6\pdl\rtos\FreeRTOS\10.0.1\Source/stream_buffer.c **** 										void *pvRxData,
 854:Generated_Source\PSoC6\pdl\rtos\FreeRTOS\10.0.1\Source/stream_buffer.c **** 										size_t xBufferLengthBytes,
 855:Generated_Source\PSoC6\pdl\rtos\FreeRTOS\10.0.1\Source/stream_buffer.c **** 										size_t xBytesAvailable,
 856:Generated_Source\PSoC6\pdl\rtos\FreeRTOS\10.0.1\Source/stream_buffer.c **** 										size_t xBytesToStoreMessageLength )
 857:Generated_Source\PSoC6\pdl\rtos\FreeRTOS\10.0.1\Source/stream_buffer.c **** {
 1504              		.loc 1 857 0
 1505              		.cfi_startproc
 1506              		@ args = 4, pretend = 0, frame = 32
 1507              		@ frame_needed = 1, uses_anonymous_args = 0
 1508 0000 80B5     		push	{r7, lr}
 1509              		.cfi_def_cfa_offset 8
 1510              		.cfi_offset 7, -8
ARM GAS  C:\Users\stijn\AppData\Local\Temp\cccniDcZ.s 			page 46


 1511              		.cfi_offset 14, -4
 1512 0002 88B0     		sub	sp, sp, #32
 1513              		.cfi_def_cfa_offset 40
 1514 0004 00AF     		add	r7, sp, #0
 1515              		.cfi_def_cfa_register 7
 1516 0006 F860     		str	r0, [r7, #12]
 1517 0008 B960     		str	r1, [r7, #8]
 1518 000a 7A60     		str	r2, [r7, #4]
 1519 000c 3B60     		str	r3, [r7]
 858:Generated_Source\PSoC6\pdl\rtos\FreeRTOS\10.0.1\Source/stream_buffer.c **** size_t xOriginalTail, xReceivedLength, xNextMessageLength;
 859:Generated_Source\PSoC6\pdl\rtos\FreeRTOS\10.0.1\Source/stream_buffer.c **** 
 860:Generated_Source\PSoC6\pdl\rtos\FreeRTOS\10.0.1\Source/stream_buffer.c **** 	if( xBytesToStoreMessageLength != ( size_t ) 0 )
 1520              		.loc 1 860 0
 1521 000e BB6A     		ldr	r3, [r7, #40]
 1522 0010 002B     		cmp	r3, #0
 1523 0012 17D0     		beq	.L101
 861:Generated_Source\PSoC6\pdl\rtos\FreeRTOS\10.0.1\Source/stream_buffer.c **** 	{
 862:Generated_Source\PSoC6\pdl\rtos\FreeRTOS\10.0.1\Source/stream_buffer.c **** 		/* A discrete message is being received.  First receive the length
 863:Generated_Source\PSoC6\pdl\rtos\FreeRTOS\10.0.1\Source/stream_buffer.c **** 		of the message.  A copy of the tail is stored so the buffer can be
 864:Generated_Source\PSoC6\pdl\rtos\FreeRTOS\10.0.1\Source/stream_buffer.c **** 		returned to its prior state if the length of the message is too
 865:Generated_Source\PSoC6\pdl\rtos\FreeRTOS\10.0.1\Source/stream_buffer.c **** 		large for the provided buffer. */
 866:Generated_Source\PSoC6\pdl\rtos\FreeRTOS\10.0.1\Source/stream_buffer.c **** 		xOriginalTail = pxStreamBuffer->xTail;
 1524              		.loc 1 866 0
 1525 0014 FB68     		ldr	r3, [r7, #12]
 1526 0016 1B68     		ldr	r3, [r3]
 1527 0018 FB61     		str	r3, [r7, #28]
 867:Generated_Source\PSoC6\pdl\rtos\FreeRTOS\10.0.1\Source/stream_buffer.c **** 		( void ) prvReadBytesFromBuffer( pxStreamBuffer, ( uint8_t * ) &xNextMessageLength, xBytesToStore
 1528              		.loc 1 867 0
 1529 001a 07F11401 		add	r1, r7, #20
 1530 001e 3B68     		ldr	r3, [r7]
 1531 0020 BA6A     		ldr	r2, [r7, #40]
 1532 0022 F868     		ldr	r0, [r7, #12]
 1533 0024 FFF7FEFF 		bl	prvReadBytesFromBuffer
 868:Generated_Source\PSoC6\pdl\rtos\FreeRTOS\10.0.1\Source/stream_buffer.c **** 
 869:Generated_Source\PSoC6\pdl\rtos\FreeRTOS\10.0.1\Source/stream_buffer.c **** 		/* Reduce the number of bytes available by the number of bytes just
 870:Generated_Source\PSoC6\pdl\rtos\FreeRTOS\10.0.1\Source/stream_buffer.c **** 		read out. */
 871:Generated_Source\PSoC6\pdl\rtos\FreeRTOS\10.0.1\Source/stream_buffer.c **** 		xBytesAvailable -= xBytesToStoreMessageLength;
 1534              		.loc 1 871 0
 1535 0028 3A68     		ldr	r2, [r7]
 1536 002a BB6A     		ldr	r3, [r7, #40]
 1537 002c D31A     		subs	r3, r2, r3
 1538 002e 3B60     		str	r3, [r7]
 872:Generated_Source\PSoC6\pdl\rtos\FreeRTOS\10.0.1\Source/stream_buffer.c **** 
 873:Generated_Source\PSoC6\pdl\rtos\FreeRTOS\10.0.1\Source/stream_buffer.c **** 		/* Check there is enough space in the buffer provided by the
 874:Generated_Source\PSoC6\pdl\rtos\FreeRTOS\10.0.1\Source/stream_buffer.c **** 		user. */
 875:Generated_Source\PSoC6\pdl\rtos\FreeRTOS\10.0.1\Source/stream_buffer.c **** 		if( xNextMessageLength > xBufferLengthBytes )
 1539              		.loc 1 875 0
 1540 0030 7A69     		ldr	r2, [r7, #20]
 1541 0032 7B68     		ldr	r3, [r7, #4]
 1542 0034 9A42     		cmp	r2, r3
 1543 0036 07D9     		bls	.L102
 876:Generated_Source\PSoC6\pdl\rtos\FreeRTOS\10.0.1\Source/stream_buffer.c **** 		{
 877:Generated_Source\PSoC6\pdl\rtos\FreeRTOS\10.0.1\Source/stream_buffer.c **** 			/* The user has provided insufficient space to read the message
 878:Generated_Source\PSoC6\pdl\rtos\FreeRTOS\10.0.1\Source/stream_buffer.c **** 			so return the buffer to its previous state (so the length of
 879:Generated_Source\PSoC6\pdl\rtos\FreeRTOS\10.0.1\Source/stream_buffer.c **** 			the message is in the buffer again). */
 880:Generated_Source\PSoC6\pdl\rtos\FreeRTOS\10.0.1\Source/stream_buffer.c **** 			pxStreamBuffer->xTail = xOriginalTail;
 1544              		.loc 1 880 0
ARM GAS  C:\Users\stijn\AppData\Local\Temp\cccniDcZ.s 			page 47


 1545 0038 FB68     		ldr	r3, [r7, #12]
 1546 003a FA69     		ldr	r2, [r7, #28]
 1547 003c 1A60     		str	r2, [r3]
 881:Generated_Source\PSoC6\pdl\rtos\FreeRTOS\10.0.1\Source/stream_buffer.c **** 			xNextMessageLength = 0;
 1548              		.loc 1 881 0
 1549 003e 0023     		movs	r3, #0
 1550 0040 7B61     		str	r3, [r7, #20]
 1551 0042 01E0     		b	.L102
 1552              	.L101:
 882:Generated_Source\PSoC6\pdl\rtos\FreeRTOS\10.0.1\Source/stream_buffer.c **** 		}
 883:Generated_Source\PSoC6\pdl\rtos\FreeRTOS\10.0.1\Source/stream_buffer.c **** 		else
 884:Generated_Source\PSoC6\pdl\rtos\FreeRTOS\10.0.1\Source/stream_buffer.c **** 		{
 885:Generated_Source\PSoC6\pdl\rtos\FreeRTOS\10.0.1\Source/stream_buffer.c **** 			mtCOVERAGE_TEST_MARKER();
 886:Generated_Source\PSoC6\pdl\rtos\FreeRTOS\10.0.1\Source/stream_buffer.c **** 		}
 887:Generated_Source\PSoC6\pdl\rtos\FreeRTOS\10.0.1\Source/stream_buffer.c **** 	}
 888:Generated_Source\PSoC6\pdl\rtos\FreeRTOS\10.0.1\Source/stream_buffer.c **** 	else
 889:Generated_Source\PSoC6\pdl\rtos\FreeRTOS\10.0.1\Source/stream_buffer.c **** 	{
 890:Generated_Source\PSoC6\pdl\rtos\FreeRTOS\10.0.1\Source/stream_buffer.c **** 		/* A stream of bytes is being received (as opposed to a discrete
 891:Generated_Source\PSoC6\pdl\rtos\FreeRTOS\10.0.1\Source/stream_buffer.c **** 		message), so read as many bytes as possible. */
 892:Generated_Source\PSoC6\pdl\rtos\FreeRTOS\10.0.1\Source/stream_buffer.c **** 		xNextMessageLength = xBufferLengthBytes;
 1553              		.loc 1 892 0
 1554 0044 7B68     		ldr	r3, [r7, #4]
 1555 0046 7B61     		str	r3, [r7, #20]
 1556              	.L102:
 893:Generated_Source\PSoC6\pdl\rtos\FreeRTOS\10.0.1\Source/stream_buffer.c **** 	}
 894:Generated_Source\PSoC6\pdl\rtos\FreeRTOS\10.0.1\Source/stream_buffer.c **** 
 895:Generated_Source\PSoC6\pdl\rtos\FreeRTOS\10.0.1\Source/stream_buffer.c **** 	/* Read the actual data. */
 896:Generated_Source\PSoC6\pdl\rtos\FreeRTOS\10.0.1\Source/stream_buffer.c **** 	xReceivedLength = prvReadBytesFromBuffer( pxStreamBuffer, ( uint8_t * ) pvRxData, xNextMessageLeng
 1557              		.loc 1 896 0
 1558 0048 7A69     		ldr	r2, [r7, #20]
 1559 004a 3B68     		ldr	r3, [r7]
 1560 004c B968     		ldr	r1, [r7, #8]
 1561 004e F868     		ldr	r0, [r7, #12]
 1562 0050 FFF7FEFF 		bl	prvReadBytesFromBuffer
 1563 0054 B861     		str	r0, [r7, #24]
 897:Generated_Source\PSoC6\pdl\rtos\FreeRTOS\10.0.1\Source/stream_buffer.c **** 
 898:Generated_Source\PSoC6\pdl\rtos\FreeRTOS\10.0.1\Source/stream_buffer.c **** 	return xReceivedLength;
 1564              		.loc 1 898 0
 1565 0056 BB69     		ldr	r3, [r7, #24]
 899:Generated_Source\PSoC6\pdl\rtos\FreeRTOS\10.0.1\Source/stream_buffer.c **** }
 1566              		.loc 1 899 0
 1567 0058 1846     		mov	r0, r3
 1568 005a 2037     		adds	r7, r7, #32
 1569              		.cfi_def_cfa_offset 8
 1570 005c BD46     		mov	sp, r7
 1571              		.cfi_def_cfa_register 13
 1572              		@ sp needed
 1573 005e 80BD     		pop	{r7, pc}
 1574              		.cfi_endproc
 1575              	.LFE147:
 1576              		.size	prvReadMessageFromBuffer, .-prvReadMessageFromBuffer
 1577              		.section	.text.xStreamBufferIsEmpty,"ax",%progbits
 1578              		.align	2
 1579              		.global	xStreamBufferIsEmpty
 1580              		.thumb
 1581              		.thumb_func
 1582              		.type	xStreamBufferIsEmpty, %function
ARM GAS  C:\Users\stijn\AppData\Local\Temp\cccniDcZ.s 			page 48


 1583              	xStreamBufferIsEmpty:
 1584              	.LFB148:
 900:Generated_Source\PSoC6\pdl\rtos\FreeRTOS\10.0.1\Source/stream_buffer.c **** /*-----------------------------------------------------------*/
 901:Generated_Source\PSoC6\pdl\rtos\FreeRTOS\10.0.1\Source/stream_buffer.c **** 
 902:Generated_Source\PSoC6\pdl\rtos\FreeRTOS\10.0.1\Source/stream_buffer.c **** BaseType_t xStreamBufferIsEmpty( StreamBufferHandle_t xStreamBuffer )
 903:Generated_Source\PSoC6\pdl\rtos\FreeRTOS\10.0.1\Source/stream_buffer.c **** {
 1585              		.loc 1 903 0
 1586              		.cfi_startproc
 1587              		@ args = 0, pretend = 0, frame = 24
 1588              		@ frame_needed = 1, uses_anonymous_args = 0
 1589              		@ link register save eliminated.
 1590 0000 80B4     		push	{r7}
 1591              		.cfi_def_cfa_offset 4
 1592              		.cfi_offset 7, -4
 1593 0002 87B0     		sub	sp, sp, #28
 1594              		.cfi_def_cfa_offset 32
 1595 0004 00AF     		add	r7, sp, #0
 1596              		.cfi_def_cfa_register 7
 1597 0006 7860     		str	r0, [r7, #4]
 904:Generated_Source\PSoC6\pdl\rtos\FreeRTOS\10.0.1\Source/stream_buffer.c **** const StreamBuffer_t * const pxStreamBuffer = ( StreamBuffer_t * ) xStreamBuffer; /*lint !e9087 !e9
 1598              		.loc 1 904 0
 1599 0008 7B68     		ldr	r3, [r7, #4]
 1600 000a 3B61     		str	r3, [r7, #16]
 905:Generated_Source\PSoC6\pdl\rtos\FreeRTOS\10.0.1\Source/stream_buffer.c **** BaseType_t xReturn;
 906:Generated_Source\PSoC6\pdl\rtos\FreeRTOS\10.0.1\Source/stream_buffer.c **** size_t xTail;
 907:Generated_Source\PSoC6\pdl\rtos\FreeRTOS\10.0.1\Source/stream_buffer.c **** 
 908:Generated_Source\PSoC6\pdl\rtos\FreeRTOS\10.0.1\Source/stream_buffer.c **** 	configASSERT( pxStreamBuffer );
 1601              		.loc 1 908 0
 1602 000c 3B69     		ldr	r3, [r7, #16]
 1603 000e 002B     		cmp	r3, #0
 1604 0010 09D1     		bne	.L105
 1605              	.LBB121:
 1606              	.LBB122:
 156:Generated_Source\PSoC6\pdl\rtos/FreeRTOS/10.0.1/Source/portable/GCC/CM4F/portmacro.h **** 	(
 1607              		.loc 2 156 0 discriminator 1
 1608              		.syntax unified
 1609              	@ 156 "Generated_Source\PSoC6\pdl\rtos/FreeRTOS/10.0.1/Source/portable/GCC/CM4F/portmacro.h" 1
 1610 0012 4FF03F03 			mov r3, #63												
 1611 0016 83F31188 		msr basepri, r3											
 1612 001a BFF36F8F 		isb														
 1613 001e BFF34F8F 		dsb														
 1614              	
 1615              	@ 0 "" 2
 1616              		.thumb
 1617              		.syntax unified
 1618 0022 BB60     		str	r3, [r7, #8]
 1619              	.L106:
 1620              	.LBE122:
 1621              	.LBE121:
 1622              		.loc 1 908 0 discriminator 1
 1623 0024 FEE7     		b	.L106
 1624              	.L105:
 909:Generated_Source\PSoC6\pdl\rtos\FreeRTOS\10.0.1\Source/stream_buffer.c **** 
 910:Generated_Source\PSoC6\pdl\rtos\FreeRTOS\10.0.1\Source/stream_buffer.c **** 	/* True if no bytes are available. */
 911:Generated_Source\PSoC6\pdl\rtos\FreeRTOS\10.0.1\Source/stream_buffer.c **** 	xTail = pxStreamBuffer->xTail;
 1625              		.loc 1 911 0
 1626 0026 3B69     		ldr	r3, [r7, #16]
ARM GAS  C:\Users\stijn\AppData\Local\Temp\cccniDcZ.s 			page 49


 1627 0028 1B68     		ldr	r3, [r3]
 1628 002a FB60     		str	r3, [r7, #12]
 912:Generated_Source\PSoC6\pdl\rtos\FreeRTOS\10.0.1\Source/stream_buffer.c **** 	if( pxStreamBuffer->xHead == xTail )
 1629              		.loc 1 912 0
 1630 002c 3B69     		ldr	r3, [r7, #16]
 1631 002e 5A68     		ldr	r2, [r3, #4]
 1632 0030 FB68     		ldr	r3, [r7, #12]
 1633 0032 9A42     		cmp	r2, r3
 1634 0034 02D1     		bne	.L107
 913:Generated_Source\PSoC6\pdl\rtos\FreeRTOS\10.0.1\Source/stream_buffer.c **** 	{
 914:Generated_Source\PSoC6\pdl\rtos\FreeRTOS\10.0.1\Source/stream_buffer.c **** 		xReturn = pdTRUE;
 1635              		.loc 1 914 0
 1636 0036 0123     		movs	r3, #1
 1637 0038 7B61     		str	r3, [r7, #20]
 1638 003a 01E0     		b	.L108
 1639              	.L107:
 915:Generated_Source\PSoC6\pdl\rtos\FreeRTOS\10.0.1\Source/stream_buffer.c **** 	}
 916:Generated_Source\PSoC6\pdl\rtos\FreeRTOS\10.0.1\Source/stream_buffer.c **** 	else
 917:Generated_Source\PSoC6\pdl\rtos\FreeRTOS\10.0.1\Source/stream_buffer.c **** 	{
 918:Generated_Source\PSoC6\pdl\rtos\FreeRTOS\10.0.1\Source/stream_buffer.c **** 		xReturn = pdFALSE;
 1640              		.loc 1 918 0
 1641 003c 0023     		movs	r3, #0
 1642 003e 7B61     		str	r3, [r7, #20]
 1643              	.L108:
 919:Generated_Source\PSoC6\pdl\rtos\FreeRTOS\10.0.1\Source/stream_buffer.c **** 	}
 920:Generated_Source\PSoC6\pdl\rtos\FreeRTOS\10.0.1\Source/stream_buffer.c **** 
 921:Generated_Source\PSoC6\pdl\rtos\FreeRTOS\10.0.1\Source/stream_buffer.c **** 	return xReturn;
 1644              		.loc 1 921 0
 1645 0040 7B69     		ldr	r3, [r7, #20]
 922:Generated_Source\PSoC6\pdl\rtos\FreeRTOS\10.0.1\Source/stream_buffer.c **** }
 1646              		.loc 1 922 0
 1647 0042 1846     		mov	r0, r3
 1648 0044 1C37     		adds	r7, r7, #28
 1649              		.cfi_def_cfa_offset 4
 1650 0046 BD46     		mov	sp, r7
 1651              		.cfi_def_cfa_register 13
 1652              		@ sp needed
 1653 0048 5DF8047B 		ldr	r7, [sp], #4
 1654              		.cfi_restore 7
 1655              		.cfi_def_cfa_offset 0
 1656 004c 7047     		bx	lr
 1657              		.cfi_endproc
 1658              	.LFE148:
 1659              		.size	xStreamBufferIsEmpty, .-xStreamBufferIsEmpty
 1660 004e 00BF     		.section	.text.xStreamBufferIsFull,"ax",%progbits
 1661              		.align	2
 1662              		.global	xStreamBufferIsFull
 1663              		.thumb
 1664              		.thumb_func
 1665              		.type	xStreamBufferIsFull, %function
 1666              	xStreamBufferIsFull:
 1667              	.LFB149:
 923:Generated_Source\PSoC6\pdl\rtos\FreeRTOS\10.0.1\Source/stream_buffer.c **** /*-----------------------------------------------------------*/
 924:Generated_Source\PSoC6\pdl\rtos\FreeRTOS\10.0.1\Source/stream_buffer.c **** 
 925:Generated_Source\PSoC6\pdl\rtos\FreeRTOS\10.0.1\Source/stream_buffer.c **** BaseType_t xStreamBufferIsFull( StreamBufferHandle_t xStreamBuffer )
 926:Generated_Source\PSoC6\pdl\rtos\FreeRTOS\10.0.1\Source/stream_buffer.c **** {
 1668              		.loc 1 926 0
ARM GAS  C:\Users\stijn\AppData\Local\Temp\cccniDcZ.s 			page 50


 1669              		.cfi_startproc
 1670              		@ args = 0, pretend = 0, frame = 24
 1671              		@ frame_needed = 1, uses_anonymous_args = 0
 1672 0000 80B5     		push	{r7, lr}
 1673              		.cfi_def_cfa_offset 8
 1674              		.cfi_offset 7, -8
 1675              		.cfi_offset 14, -4
 1676 0002 86B0     		sub	sp, sp, #24
 1677              		.cfi_def_cfa_offset 32
 1678 0004 00AF     		add	r7, sp, #0
 1679              		.cfi_def_cfa_register 7
 1680 0006 7860     		str	r0, [r7, #4]
 927:Generated_Source\PSoC6\pdl\rtos\FreeRTOS\10.0.1\Source/stream_buffer.c **** BaseType_t xReturn;
 928:Generated_Source\PSoC6\pdl\rtos\FreeRTOS\10.0.1\Source/stream_buffer.c **** size_t xBytesToStoreMessageLength;
 929:Generated_Source\PSoC6\pdl\rtos\FreeRTOS\10.0.1\Source/stream_buffer.c **** const StreamBuffer_t * const pxStreamBuffer = ( StreamBuffer_t * ) xStreamBuffer; /*lint !e9087 !e9
 1681              		.loc 1 929 0
 1682 0008 7B68     		ldr	r3, [r7, #4]
 1683 000a FB60     		str	r3, [r7, #12]
 930:Generated_Source\PSoC6\pdl\rtos\FreeRTOS\10.0.1\Source/stream_buffer.c **** 
 931:Generated_Source\PSoC6\pdl\rtos\FreeRTOS\10.0.1\Source/stream_buffer.c **** 	configASSERT( pxStreamBuffer );
 1684              		.loc 1 931 0
 1685 000c FB68     		ldr	r3, [r7, #12]
 1686 000e 002B     		cmp	r3, #0
 1687 0010 09D1     		bne	.L111
 1688              	.LBB123:
 1689              	.LBB124:
 156:Generated_Source\PSoC6\pdl\rtos/FreeRTOS/10.0.1/Source/portable/GCC/CM4F/portmacro.h **** 	(
 1690              		.loc 2 156 0 discriminator 1
 1691              		.syntax unified
 1692              	@ 156 "Generated_Source\PSoC6\pdl\rtos/FreeRTOS/10.0.1/Source/portable/GCC/CM4F/portmacro.h" 1
 1693 0012 4FF03F03 			mov r3, #63												
 1694 0016 83F31188 		msr basepri, r3											
 1695 001a BFF36F8F 		isb														
 1696 001e BFF34F8F 		dsb														
 1697              	
 1698              	@ 0 "" 2
 1699              		.thumb
 1700              		.syntax unified
 1701 0022 BB60     		str	r3, [r7, #8]
 1702              	.L112:
 1703              	.LBE124:
 1704              	.LBE123:
 1705              		.loc 1 931 0 discriminator 1
 1706 0024 FEE7     		b	.L112
 1707              	.L111:
 932:Generated_Source\PSoC6\pdl\rtos\FreeRTOS\10.0.1\Source/stream_buffer.c **** 
 933:Generated_Source\PSoC6\pdl\rtos\FreeRTOS\10.0.1\Source/stream_buffer.c **** 	/* This generic version of the receive function is used by both message
 934:Generated_Source\PSoC6\pdl\rtos\FreeRTOS\10.0.1\Source/stream_buffer.c **** 	buffers, which store discrete messages, and stream buffers, which store a
 935:Generated_Source\PSoC6\pdl\rtos\FreeRTOS\10.0.1\Source/stream_buffer.c **** 	continuous stream of bytes.  Discrete messages include an additional
 936:Generated_Source\PSoC6\pdl\rtos\FreeRTOS\10.0.1\Source/stream_buffer.c **** 	sbBYTES_TO_STORE_MESSAGE_LENGTH bytes that hold the length of the message. */
 937:Generated_Source\PSoC6\pdl\rtos\FreeRTOS\10.0.1\Source/stream_buffer.c **** 	if( ( pxStreamBuffer->ucFlags & sbFLAGS_IS_MESSAGE_BUFFER ) != ( uint8_t ) 0 )
 1708              		.loc 1 937 0
 1709 0026 FB68     		ldr	r3, [r7, #12]
 1710 0028 1B7F     		ldrb	r3, [r3, #28]	@ zero_extendqisi2
 1711 002a 03F00103 		and	r3, r3, #1
 1712 002e 002B     		cmp	r3, #0
 1713 0030 02D0     		beq	.L113
ARM GAS  C:\Users\stijn\AppData\Local\Temp\cccniDcZ.s 			page 51


 938:Generated_Source\PSoC6\pdl\rtos\FreeRTOS\10.0.1\Source/stream_buffer.c **** 	{
 939:Generated_Source\PSoC6\pdl\rtos\FreeRTOS\10.0.1\Source/stream_buffer.c **** 		xBytesToStoreMessageLength = sbBYTES_TO_STORE_MESSAGE_LENGTH;
 1714              		.loc 1 939 0
 1715 0032 0423     		movs	r3, #4
 1716 0034 3B61     		str	r3, [r7, #16]
 1717 0036 01E0     		b	.L114
 1718              	.L113:
 940:Generated_Source\PSoC6\pdl\rtos\FreeRTOS\10.0.1\Source/stream_buffer.c **** 	}
 941:Generated_Source\PSoC6\pdl\rtos\FreeRTOS\10.0.1\Source/stream_buffer.c **** 	else
 942:Generated_Source\PSoC6\pdl\rtos\FreeRTOS\10.0.1\Source/stream_buffer.c **** 	{
 943:Generated_Source\PSoC6\pdl\rtos\FreeRTOS\10.0.1\Source/stream_buffer.c **** 		xBytesToStoreMessageLength = 0;
 1719              		.loc 1 943 0
 1720 0038 0023     		movs	r3, #0
 1721 003a 3B61     		str	r3, [r7, #16]
 1722              	.L114:
 944:Generated_Source\PSoC6\pdl\rtos\FreeRTOS\10.0.1\Source/stream_buffer.c **** 	}
 945:Generated_Source\PSoC6\pdl\rtos\FreeRTOS\10.0.1\Source/stream_buffer.c **** 
 946:Generated_Source\PSoC6\pdl\rtos\FreeRTOS\10.0.1\Source/stream_buffer.c **** 	/* True if the available space equals zero. */
 947:Generated_Source\PSoC6\pdl\rtos\FreeRTOS\10.0.1\Source/stream_buffer.c **** 	if( xStreamBufferSpacesAvailable( xStreamBuffer ) <= xBytesToStoreMessageLength )
 1723              		.loc 1 947 0
 1724 003c 7868     		ldr	r0, [r7, #4]
 1725 003e FFF7FEFF 		bl	xStreamBufferSpacesAvailable
 1726 0042 0246     		mov	r2, r0
 1727 0044 3B69     		ldr	r3, [r7, #16]
 1728 0046 9A42     		cmp	r2, r3
 1729 0048 02D8     		bhi	.L115
 948:Generated_Source\PSoC6\pdl\rtos\FreeRTOS\10.0.1\Source/stream_buffer.c **** 	{
 949:Generated_Source\PSoC6\pdl\rtos\FreeRTOS\10.0.1\Source/stream_buffer.c **** 		xReturn = pdTRUE;
 1730              		.loc 1 949 0
 1731 004a 0123     		movs	r3, #1
 1732 004c 7B61     		str	r3, [r7, #20]
 1733 004e 01E0     		b	.L116
 1734              	.L115:
 950:Generated_Source\PSoC6\pdl\rtos\FreeRTOS\10.0.1\Source/stream_buffer.c **** 	}
 951:Generated_Source\PSoC6\pdl\rtos\FreeRTOS\10.0.1\Source/stream_buffer.c **** 	else
 952:Generated_Source\PSoC6\pdl\rtos\FreeRTOS\10.0.1\Source/stream_buffer.c **** 	{
 953:Generated_Source\PSoC6\pdl\rtos\FreeRTOS\10.0.1\Source/stream_buffer.c **** 		xReturn = pdFALSE;
 1735              		.loc 1 953 0
 1736 0050 0023     		movs	r3, #0
 1737 0052 7B61     		str	r3, [r7, #20]
 1738              	.L116:
 954:Generated_Source\PSoC6\pdl\rtos\FreeRTOS\10.0.1\Source/stream_buffer.c **** 	}
 955:Generated_Source\PSoC6\pdl\rtos\FreeRTOS\10.0.1\Source/stream_buffer.c **** 
 956:Generated_Source\PSoC6\pdl\rtos\FreeRTOS\10.0.1\Source/stream_buffer.c **** 	return xReturn;
 1739              		.loc 1 956 0
 1740 0054 7B69     		ldr	r3, [r7, #20]
 957:Generated_Source\PSoC6\pdl\rtos\FreeRTOS\10.0.1\Source/stream_buffer.c **** }
 1741              		.loc 1 957 0
 1742 0056 1846     		mov	r0, r3
 1743 0058 1837     		adds	r7, r7, #24
 1744              		.cfi_def_cfa_offset 8
 1745 005a BD46     		mov	sp, r7
 1746              		.cfi_def_cfa_register 13
 1747              		@ sp needed
 1748 005c 80BD     		pop	{r7, pc}
 1749              		.cfi_endproc
 1750              	.LFE149:
ARM GAS  C:\Users\stijn\AppData\Local\Temp\cccniDcZ.s 			page 52


 1751              		.size	xStreamBufferIsFull, .-xStreamBufferIsFull
 1752 005e 00BF     		.section	.text.xStreamBufferSendCompletedFromISR,"ax",%progbits
 1753              		.align	2
 1754              		.global	xStreamBufferSendCompletedFromISR
 1755              		.thumb
 1756              		.thumb_func
 1757              		.type	xStreamBufferSendCompletedFromISR, %function
 1758              	xStreamBufferSendCompletedFromISR:
 1759              	.LFB150:
 958:Generated_Source\PSoC6\pdl\rtos\FreeRTOS\10.0.1\Source/stream_buffer.c **** /*-----------------------------------------------------------*/
 959:Generated_Source\PSoC6\pdl\rtos\FreeRTOS\10.0.1\Source/stream_buffer.c **** 
 960:Generated_Source\PSoC6\pdl\rtos\FreeRTOS\10.0.1\Source/stream_buffer.c **** BaseType_t xStreamBufferSendCompletedFromISR( StreamBufferHandle_t xStreamBuffer, BaseType_t *pxHig
 961:Generated_Source\PSoC6\pdl\rtos\FreeRTOS\10.0.1\Source/stream_buffer.c **** {
 1760              		.loc 1 961 0
 1761              		.cfi_startproc
 1762              		@ args = 0, pretend = 0, frame = 40
 1763              		@ frame_needed = 1, uses_anonymous_args = 0
 1764 0000 80B5     		push	{r7, lr}
 1765              		.cfi_def_cfa_offset 8
 1766              		.cfi_offset 7, -8
 1767              		.cfi_offset 14, -4
 1768 0002 8CB0     		sub	sp, sp, #48
 1769              		.cfi_def_cfa_offset 56
 1770 0004 02AF     		add	r7, sp, #8
 1771              		.cfi_def_cfa 7, 48
 1772 0006 7860     		str	r0, [r7, #4]
 1773 0008 3960     		str	r1, [r7]
 962:Generated_Source\PSoC6\pdl\rtos\FreeRTOS\10.0.1\Source/stream_buffer.c **** StreamBuffer_t * const pxStreamBuffer = ( StreamBuffer_t * ) xStreamBuffer; /*lint !e9087 !e9079 Sa
 1774              		.loc 1 962 0
 1775 000a 7B68     		ldr	r3, [r7, #4]
 1776 000c 3B62     		str	r3, [r7, #32]
 963:Generated_Source\PSoC6\pdl\rtos\FreeRTOS\10.0.1\Source/stream_buffer.c **** BaseType_t xReturn;
 964:Generated_Source\PSoC6\pdl\rtos\FreeRTOS\10.0.1\Source/stream_buffer.c **** UBaseType_t uxSavedInterruptStatus;
 965:Generated_Source\PSoC6\pdl\rtos\FreeRTOS\10.0.1\Source/stream_buffer.c **** 
 966:Generated_Source\PSoC6\pdl\rtos\FreeRTOS\10.0.1\Source/stream_buffer.c **** 	configASSERT( pxStreamBuffer );
 1777              		.loc 1 966 0
 1778 000e 3B6A     		ldr	r3, [r7, #32]
 1779 0010 002B     		cmp	r3, #0
 1780 0012 09D1     		bne	.L119
 1781              	.LBB125:
 1782              	.LBB126:
 156:Generated_Source\PSoC6\pdl\rtos/FreeRTOS/10.0.1/Source/portable/GCC/CM4F/portmacro.h **** 	(
 1783              		.loc 2 156 0 discriminator 1
 1784              		.syntax unified
 1785              	@ 156 "Generated_Source\PSoC6\pdl\rtos/FreeRTOS/10.0.1/Source/portable/GCC/CM4F/portmacro.h" 1
 1786 0014 4FF03F03 			mov r3, #63												
 1787 0018 83F31188 		msr basepri, r3											
 1788 001c BFF36F8F 		isb														
 1789 0020 BFF34F8F 		dsb														
 1790              	
 1791              	@ 0 "" 2
 1792              		.thumb
 1793              		.syntax unified
 1794 0024 3B61     		str	r3, [r7, #16]
 1795              	.L120:
 1796              	.LBE126:
 1797              	.LBE125:
ARM GAS  C:\Users\stijn\AppData\Local\Temp\cccniDcZ.s 			page 53


 1798              		.loc 1 966 0 discriminator 1
 1799 0026 FEE7     		b	.L120
 1800              	.L119:
 1801              	.LBB127:
 1802              	.LBB128:
 172:Generated_Source\PSoC6\pdl\rtos/FreeRTOS/10.0.1/Source/portable/GCC/CM4F/portmacro.h **** 	(
 1803              		.loc 2 172 0
 1804              		.syntax unified
 1805              	@ 172 "Generated_Source\PSoC6\pdl\rtos/FreeRTOS/10.0.1/Source/portable/GCC/CM4F/portmacro.h" 1
 1806 0028 EFF31182 			mrs r2, basepri											
 1807 002c 4FF03F03 		mov r3, #63												
 1808 0030 83F31188 		msr basepri, r3											
 1809 0034 BFF36F8F 		isb														
 1810 0038 BFF34F8F 		dsb														
 1811              	
 1812              	@ 0 "" 2
 1813              		.thumb
 1814              		.syntax unified
 1815 003c 7A61     		str	r2, [r7, #20]
 1816 003e FB60     		str	r3, [r7, #12]
 184:Generated_Source\PSoC6\pdl\rtos/FreeRTOS/10.0.1/Source/portable/GCC/CM4F/portmacro.h **** }
 1817              		.loc 2 184 0
 1818 0040 7B69     		ldr	r3, [r7, #20]
 1819              	.LBE128:
 1820              	.LBE127:
 967:Generated_Source\PSoC6\pdl\rtos\FreeRTOS\10.0.1\Source/stream_buffer.c **** 
 968:Generated_Source\PSoC6\pdl\rtos\FreeRTOS\10.0.1\Source/stream_buffer.c **** 	uxSavedInterruptStatus = ( UBaseType_t ) portSET_INTERRUPT_MASK_FROM_ISR();
 1821              		.loc 1 968 0
 1822 0042 BB61     		str	r3, [r7, #24]
 969:Generated_Source\PSoC6\pdl\rtos\FreeRTOS\10.0.1\Source/stream_buffer.c **** 	{
 970:Generated_Source\PSoC6\pdl\rtos\FreeRTOS\10.0.1\Source/stream_buffer.c **** 		if( ( pxStreamBuffer )->xTaskWaitingToReceive != NULL )
 1823              		.loc 1 970 0
 1824 0044 3B6A     		ldr	r3, [r7, #32]
 1825 0046 1B69     		ldr	r3, [r3, #16]
 1826 0048 002B     		cmp	r3, #0
 1827 004a 0ED0     		beq	.L122
 971:Generated_Source\PSoC6\pdl\rtos\FreeRTOS\10.0.1\Source/stream_buffer.c **** 		{
 972:Generated_Source\PSoC6\pdl\rtos\FreeRTOS\10.0.1\Source/stream_buffer.c **** 			( void ) xTaskNotifyFromISR( ( pxStreamBuffer )->xTaskWaitingToReceive,
 1828              		.loc 1 972 0
 1829 004c 3B6A     		ldr	r3, [r7, #32]
 1830 004e 1869     		ldr	r0, [r3, #16]
 1831 0050 3B68     		ldr	r3, [r7]
 1832 0052 0093     		str	r3, [sp]
 1833 0054 0023     		movs	r3, #0
 1834 0056 0022     		movs	r2, #0
 1835 0058 0021     		movs	r1, #0
 1836 005a FFF7FEFF 		bl	xTaskGenericNotifyFromISR
 973:Generated_Source\PSoC6\pdl\rtos\FreeRTOS\10.0.1\Source/stream_buffer.c **** 										 ( uint32_t ) 0,
 974:Generated_Source\PSoC6\pdl\rtos\FreeRTOS\10.0.1\Source/stream_buffer.c **** 										 eNoAction,
 975:Generated_Source\PSoC6\pdl\rtos\FreeRTOS\10.0.1\Source/stream_buffer.c **** 										 pxHigherPriorityTaskWoken );
 976:Generated_Source\PSoC6\pdl\rtos\FreeRTOS\10.0.1\Source/stream_buffer.c **** 			( pxStreamBuffer )->xTaskWaitingToReceive = NULL;
 1837              		.loc 1 976 0
 1838 005e 3B6A     		ldr	r3, [r7, #32]
 1839 0060 0022     		movs	r2, #0
 1840 0062 1A61     		str	r2, [r3, #16]
 977:Generated_Source\PSoC6\pdl\rtos\FreeRTOS\10.0.1\Source/stream_buffer.c **** 			xReturn = pdTRUE;
 1841              		.loc 1 977 0
ARM GAS  C:\Users\stijn\AppData\Local\Temp\cccniDcZ.s 			page 54


 1842 0064 0123     		movs	r3, #1
 1843 0066 7B62     		str	r3, [r7, #36]
 1844 0068 01E0     		b	.L123
 1845              	.L122:
 978:Generated_Source\PSoC6\pdl\rtos\FreeRTOS\10.0.1\Source/stream_buffer.c **** 		}
 979:Generated_Source\PSoC6\pdl\rtos\FreeRTOS\10.0.1\Source/stream_buffer.c **** 		else
 980:Generated_Source\PSoC6\pdl\rtos\FreeRTOS\10.0.1\Source/stream_buffer.c **** 		{
 981:Generated_Source\PSoC6\pdl\rtos\FreeRTOS\10.0.1\Source/stream_buffer.c **** 			xReturn = pdFALSE;
 1846              		.loc 1 981 0
 1847 006a 0023     		movs	r3, #0
 1848 006c 7B62     		str	r3, [r7, #36]
 1849              	.L123:
 1850 006e BB69     		ldr	r3, [r7, #24]
 1851 0070 FB61     		str	r3, [r7, #28]
 1852              	.LBB129:
 1853              	.LBB130:
 1854              		.loc 2 190 0
 1855 0072 FB69     		ldr	r3, [r7, #28]
 1856              		.syntax unified
 1857              	@ 190 "Generated_Source\PSoC6\pdl\rtos/FreeRTOS/10.0.1/Source/portable/GCC/CM4F/portmacro.h" 1
 1858 0074 83F31188 			msr basepri, r3	
 1859              	@ 0 "" 2
 1860              		.thumb
 1861              		.syntax unified
 1862              	.LBE130:
 1863              	.LBE129:
 982:Generated_Source\PSoC6\pdl\rtos\FreeRTOS\10.0.1\Source/stream_buffer.c **** 		}
 983:Generated_Source\PSoC6\pdl\rtos\FreeRTOS\10.0.1\Source/stream_buffer.c **** 	}
 984:Generated_Source\PSoC6\pdl\rtos\FreeRTOS\10.0.1\Source/stream_buffer.c **** 	portCLEAR_INTERRUPT_MASK_FROM_ISR( uxSavedInterruptStatus );
 985:Generated_Source\PSoC6\pdl\rtos\FreeRTOS\10.0.1\Source/stream_buffer.c **** 
 986:Generated_Source\PSoC6\pdl\rtos\FreeRTOS\10.0.1\Source/stream_buffer.c **** 	return xReturn;
 1864              		.loc 1 986 0
 1865 0078 7B6A     		ldr	r3, [r7, #36]
 987:Generated_Source\PSoC6\pdl\rtos\FreeRTOS\10.0.1\Source/stream_buffer.c **** }
 1866              		.loc 1 987 0
 1867 007a 1846     		mov	r0, r3
 1868 007c 2837     		adds	r7, r7, #40
 1869              		.cfi_def_cfa_offset 8
 1870 007e BD46     		mov	sp, r7
 1871              		.cfi_def_cfa_register 13
 1872              		@ sp needed
 1873 0080 80BD     		pop	{r7, pc}
 1874              		.cfi_endproc
 1875              	.LFE150:
 1876              		.size	xStreamBufferSendCompletedFromISR, .-xStreamBufferSendCompletedFromISR
 1877 0082 00BF     		.section	.text.xStreamBufferReceiveCompletedFromISR,"ax",%progbits
 1878              		.align	2
 1879              		.global	xStreamBufferReceiveCompletedFromISR
 1880              		.thumb
 1881              		.thumb_func
 1882              		.type	xStreamBufferReceiveCompletedFromISR, %function
 1883              	xStreamBufferReceiveCompletedFromISR:
 1884              	.LFB151:
 988:Generated_Source\PSoC6\pdl\rtos\FreeRTOS\10.0.1\Source/stream_buffer.c **** /*-----------------------------------------------------------*/
 989:Generated_Source\PSoC6\pdl\rtos\FreeRTOS\10.0.1\Source/stream_buffer.c **** 
 990:Generated_Source\PSoC6\pdl\rtos\FreeRTOS\10.0.1\Source/stream_buffer.c **** BaseType_t xStreamBufferReceiveCompletedFromISR( StreamBufferHandle_t xStreamBuffer, BaseType_t *px
 991:Generated_Source\PSoC6\pdl\rtos\FreeRTOS\10.0.1\Source/stream_buffer.c **** {
ARM GAS  C:\Users\stijn\AppData\Local\Temp\cccniDcZ.s 			page 55


 1885              		.loc 1 991 0
 1886              		.cfi_startproc
 1887              		@ args = 0, pretend = 0, frame = 40
 1888              		@ frame_needed = 1, uses_anonymous_args = 0
 1889 0000 80B5     		push	{r7, lr}
 1890              		.cfi_def_cfa_offset 8
 1891              		.cfi_offset 7, -8
 1892              		.cfi_offset 14, -4
 1893 0002 8CB0     		sub	sp, sp, #48
 1894              		.cfi_def_cfa_offset 56
 1895 0004 02AF     		add	r7, sp, #8
 1896              		.cfi_def_cfa 7, 48
 1897 0006 7860     		str	r0, [r7, #4]
 1898 0008 3960     		str	r1, [r7]
 992:Generated_Source\PSoC6\pdl\rtos\FreeRTOS\10.0.1\Source/stream_buffer.c **** StreamBuffer_t * const pxStreamBuffer = ( StreamBuffer_t * ) xStreamBuffer; /*lint !e9087 !e9079 Sa
 1899              		.loc 1 992 0
 1900 000a 7B68     		ldr	r3, [r7, #4]
 1901 000c 3B62     		str	r3, [r7, #32]
 993:Generated_Source\PSoC6\pdl\rtos\FreeRTOS\10.0.1\Source/stream_buffer.c **** BaseType_t xReturn;
 994:Generated_Source\PSoC6\pdl\rtos\FreeRTOS\10.0.1\Source/stream_buffer.c **** UBaseType_t uxSavedInterruptStatus;
 995:Generated_Source\PSoC6\pdl\rtos\FreeRTOS\10.0.1\Source/stream_buffer.c **** 
 996:Generated_Source\PSoC6\pdl\rtos\FreeRTOS\10.0.1\Source/stream_buffer.c **** 	configASSERT( pxStreamBuffer );
 1902              		.loc 1 996 0
 1903 000e 3B6A     		ldr	r3, [r7, #32]
 1904 0010 002B     		cmp	r3, #0
 1905 0012 09D1     		bne	.L126
 1906              	.LBB131:
 1907              	.LBB132:
 156:Generated_Source\PSoC6\pdl\rtos/FreeRTOS/10.0.1/Source/portable/GCC/CM4F/portmacro.h **** 	(
 1908              		.loc 2 156 0 discriminator 1
 1909              		.syntax unified
 1910              	@ 156 "Generated_Source\PSoC6\pdl\rtos/FreeRTOS/10.0.1/Source/portable/GCC/CM4F/portmacro.h" 1
 1911 0014 4FF03F03 			mov r3, #63												
 1912 0018 83F31188 		msr basepri, r3											
 1913 001c BFF36F8F 		isb														
 1914 0020 BFF34F8F 		dsb														
 1915              	
 1916              	@ 0 "" 2
 1917              		.thumb
 1918              		.syntax unified
 1919 0024 3B61     		str	r3, [r7, #16]
 1920              	.L127:
 1921              	.LBE132:
 1922              	.LBE131:
 1923              		.loc 1 996 0 discriminator 1
 1924 0026 FEE7     		b	.L127
 1925              	.L126:
 1926              	.LBB133:
 1927              	.LBB134:
 172:Generated_Source\PSoC6\pdl\rtos/FreeRTOS/10.0.1/Source/portable/GCC/CM4F/portmacro.h **** 	(
 1928              		.loc 2 172 0
 1929              		.syntax unified
 1930              	@ 172 "Generated_Source\PSoC6\pdl\rtos/FreeRTOS/10.0.1/Source/portable/GCC/CM4F/portmacro.h" 1
 1931 0028 EFF31182 			mrs r2, basepri											
 1932 002c 4FF03F03 		mov r3, #63												
 1933 0030 83F31188 		msr basepri, r3											
 1934 0034 BFF36F8F 		isb														
ARM GAS  C:\Users\stijn\AppData\Local\Temp\cccniDcZ.s 			page 56


 1935 0038 BFF34F8F 		dsb														
 1936              	
 1937              	@ 0 "" 2
 1938              		.thumb
 1939              		.syntax unified
 1940 003c 7A61     		str	r2, [r7, #20]
 1941 003e FB60     		str	r3, [r7, #12]
 184:Generated_Source\PSoC6\pdl\rtos/FreeRTOS/10.0.1/Source/portable/GCC/CM4F/portmacro.h **** }
 1942              		.loc 2 184 0
 1943 0040 7B69     		ldr	r3, [r7, #20]
 1944              	.LBE134:
 1945              	.LBE133:
 997:Generated_Source\PSoC6\pdl\rtos\FreeRTOS\10.0.1\Source/stream_buffer.c **** 
 998:Generated_Source\PSoC6\pdl\rtos\FreeRTOS\10.0.1\Source/stream_buffer.c **** 	uxSavedInterruptStatus = ( UBaseType_t ) portSET_INTERRUPT_MASK_FROM_ISR();
 1946              		.loc 1 998 0
 1947 0042 BB61     		str	r3, [r7, #24]
 999:Generated_Source\PSoC6\pdl\rtos\FreeRTOS\10.0.1\Source/stream_buffer.c **** 	{
1000:Generated_Source\PSoC6\pdl\rtos\FreeRTOS\10.0.1\Source/stream_buffer.c **** 		if( ( pxStreamBuffer )->xTaskWaitingToSend != NULL )
 1948              		.loc 1 1000 0
 1949 0044 3B6A     		ldr	r3, [r7, #32]
 1950 0046 5B69     		ldr	r3, [r3, #20]
 1951 0048 002B     		cmp	r3, #0
 1952 004a 0ED0     		beq	.L129
1001:Generated_Source\PSoC6\pdl\rtos\FreeRTOS\10.0.1\Source/stream_buffer.c **** 		{
1002:Generated_Source\PSoC6\pdl\rtos\FreeRTOS\10.0.1\Source/stream_buffer.c **** 			( void ) xTaskNotifyFromISR( ( pxStreamBuffer )->xTaskWaitingToSend,
 1953              		.loc 1 1002 0
 1954 004c 3B6A     		ldr	r3, [r7, #32]
 1955 004e 5869     		ldr	r0, [r3, #20]
 1956 0050 3B68     		ldr	r3, [r7]
 1957 0052 0093     		str	r3, [sp]
 1958 0054 0023     		movs	r3, #0
 1959 0056 0022     		movs	r2, #0
 1960 0058 0021     		movs	r1, #0
 1961 005a FFF7FEFF 		bl	xTaskGenericNotifyFromISR
1003:Generated_Source\PSoC6\pdl\rtos\FreeRTOS\10.0.1\Source/stream_buffer.c **** 										 ( uint32_t ) 0,
1004:Generated_Source\PSoC6\pdl\rtos\FreeRTOS\10.0.1\Source/stream_buffer.c **** 										 eNoAction,
1005:Generated_Source\PSoC6\pdl\rtos\FreeRTOS\10.0.1\Source/stream_buffer.c **** 										 pxHigherPriorityTaskWoken );
1006:Generated_Source\PSoC6\pdl\rtos\FreeRTOS\10.0.1\Source/stream_buffer.c **** 			( pxStreamBuffer )->xTaskWaitingToSend = NULL;
 1962              		.loc 1 1006 0
 1963 005e 3B6A     		ldr	r3, [r7, #32]
 1964 0060 0022     		movs	r2, #0
 1965 0062 5A61     		str	r2, [r3, #20]
1007:Generated_Source\PSoC6\pdl\rtos\FreeRTOS\10.0.1\Source/stream_buffer.c **** 			xReturn = pdTRUE;
 1966              		.loc 1 1007 0
 1967 0064 0123     		movs	r3, #1
 1968 0066 7B62     		str	r3, [r7, #36]
 1969 0068 01E0     		b	.L130
 1970              	.L129:
1008:Generated_Source\PSoC6\pdl\rtos\FreeRTOS\10.0.1\Source/stream_buffer.c **** 		}
1009:Generated_Source\PSoC6\pdl\rtos\FreeRTOS\10.0.1\Source/stream_buffer.c **** 		else
1010:Generated_Source\PSoC6\pdl\rtos\FreeRTOS\10.0.1\Source/stream_buffer.c **** 		{
1011:Generated_Source\PSoC6\pdl\rtos\FreeRTOS\10.0.1\Source/stream_buffer.c **** 			xReturn = pdFALSE;
 1971              		.loc 1 1011 0
 1972 006a 0023     		movs	r3, #0
 1973 006c 7B62     		str	r3, [r7, #36]
 1974              	.L130:
 1975 006e BB69     		ldr	r3, [r7, #24]
ARM GAS  C:\Users\stijn\AppData\Local\Temp\cccniDcZ.s 			page 57


 1976 0070 FB61     		str	r3, [r7, #28]
 1977              	.LBB135:
 1978              	.LBB136:
 1979              		.loc 2 190 0
 1980 0072 FB69     		ldr	r3, [r7, #28]
 1981              		.syntax unified
 1982              	@ 190 "Generated_Source\PSoC6\pdl\rtos/FreeRTOS/10.0.1/Source/portable/GCC/CM4F/portmacro.h" 1
 1983 0074 83F31188 			msr basepri, r3	
 1984              	@ 0 "" 2
 1985              		.thumb
 1986              		.syntax unified
 1987              	.LBE136:
 1988              	.LBE135:
1012:Generated_Source\PSoC6\pdl\rtos\FreeRTOS\10.0.1\Source/stream_buffer.c **** 		}
1013:Generated_Source\PSoC6\pdl\rtos\FreeRTOS\10.0.1\Source/stream_buffer.c **** 	}
1014:Generated_Source\PSoC6\pdl\rtos\FreeRTOS\10.0.1\Source/stream_buffer.c **** 	portCLEAR_INTERRUPT_MASK_FROM_ISR( uxSavedInterruptStatus );
1015:Generated_Source\PSoC6\pdl\rtos\FreeRTOS\10.0.1\Source/stream_buffer.c **** 
1016:Generated_Source\PSoC6\pdl\rtos\FreeRTOS\10.0.1\Source/stream_buffer.c **** 	return xReturn;
 1989              		.loc 1 1016 0
 1990 0078 7B6A     		ldr	r3, [r7, #36]
1017:Generated_Source\PSoC6\pdl\rtos\FreeRTOS\10.0.1\Source/stream_buffer.c **** }
 1991              		.loc 1 1017 0
 1992 007a 1846     		mov	r0, r3
 1993 007c 2837     		adds	r7, r7, #40
 1994              		.cfi_def_cfa_offset 8
 1995 007e BD46     		mov	sp, r7
 1996              		.cfi_def_cfa_register 13
 1997              		@ sp needed
 1998 0080 80BD     		pop	{r7, pc}
 1999              		.cfi_endproc
 2000              	.LFE151:
 2001              		.size	xStreamBufferReceiveCompletedFromISR, .-xStreamBufferReceiveCompletedFromISR
 2002 0082 00BF     		.section	.text.prvWriteBytesToBuffer,"ax",%progbits
 2003              		.align	2
 2004              		.thumb
 2005              		.thumb_func
 2006              		.type	prvWriteBytesToBuffer, %function
 2007              	prvWriteBytesToBuffer:
 2008              	.LFB152:
1018:Generated_Source\PSoC6\pdl\rtos\FreeRTOS\10.0.1\Source/stream_buffer.c **** /*-----------------------------------------------------------*/
1019:Generated_Source\PSoC6\pdl\rtos\FreeRTOS\10.0.1\Source/stream_buffer.c **** 
1020:Generated_Source\PSoC6\pdl\rtos\FreeRTOS\10.0.1\Source/stream_buffer.c **** static size_t prvWriteBytesToBuffer( StreamBuffer_t * const pxStreamBuffer, const uint8_t *pucData,
1021:Generated_Source\PSoC6\pdl\rtos\FreeRTOS\10.0.1\Source/stream_buffer.c **** {
 2009              		.loc 1 1021 0
 2010              		.cfi_startproc
 2011              		@ args = 0, pretend = 0, frame = 40
 2012              		@ frame_needed = 1, uses_anonymous_args = 0
 2013 0000 80B5     		push	{r7, lr}
 2014              		.cfi_def_cfa_offset 8
 2015              		.cfi_offset 7, -8
 2016              		.cfi_offset 14, -4
 2017 0002 8AB0     		sub	sp, sp, #40
 2018              		.cfi_def_cfa_offset 48
 2019 0004 00AF     		add	r7, sp, #0
 2020              		.cfi_def_cfa_register 7
 2021 0006 F860     		str	r0, [r7, #12]
 2022 0008 B960     		str	r1, [r7, #8]
ARM GAS  C:\Users\stijn\AppData\Local\Temp\cccniDcZ.s 			page 58


 2023 000a 7A60     		str	r2, [r7, #4]
1022:Generated_Source\PSoC6\pdl\rtos\FreeRTOS\10.0.1\Source/stream_buffer.c **** size_t xNextHead, xFirstLength;
1023:Generated_Source\PSoC6\pdl\rtos\FreeRTOS\10.0.1\Source/stream_buffer.c **** 
1024:Generated_Source\PSoC6\pdl\rtos\FreeRTOS\10.0.1\Source/stream_buffer.c **** 	configASSERT( xCount > ( size_t ) 0 );
 2024              		.loc 1 1024 0
 2025 000c 7B68     		ldr	r3, [r7, #4]
 2026 000e 002B     		cmp	r3, #0
 2027 0010 09D1     		bne	.L133
 2028              	.LBB137:
 2029              	.LBB138:
 156:Generated_Source\PSoC6\pdl\rtos/FreeRTOS/10.0.1/Source/portable/GCC/CM4F/portmacro.h **** 	(
 2030              		.loc 2 156 0 discriminator 1
 2031              		.syntax unified
 2032              	@ 156 "Generated_Source\PSoC6\pdl\rtos/FreeRTOS/10.0.1/Source/portable/GCC/CM4F/portmacro.h" 1
 2033 0012 4FF03F03 			mov r3, #63												
 2034 0016 83F31188 		msr basepri, r3											
 2035 001a BFF36F8F 		isb														
 2036 001e BFF34F8F 		dsb														
 2037              	
 2038              	@ 0 "" 2
 2039              		.thumb
 2040              		.syntax unified
 2041 0022 7B61     		str	r3, [r7, #20]
 2042              	.L134:
 2043              	.LBE138:
 2044              	.LBE137:
 2045              		.loc 1 1024 0 discriminator 1
 2046 0024 FEE7     		b	.L134
 2047              	.L133:
1025:Generated_Source\PSoC6\pdl\rtos\FreeRTOS\10.0.1\Source/stream_buffer.c **** 
1026:Generated_Source\PSoC6\pdl\rtos\FreeRTOS\10.0.1\Source/stream_buffer.c **** 	xNextHead = pxStreamBuffer->xHead;
 2048              		.loc 1 1026 0
 2049 0026 FB68     		ldr	r3, [r7, #12]
 2050 0028 5B68     		ldr	r3, [r3, #4]
 2051 002a 7B62     		str	r3, [r7, #36]
1027:Generated_Source\PSoC6\pdl\rtos\FreeRTOS\10.0.1\Source/stream_buffer.c **** 
1028:Generated_Source\PSoC6\pdl\rtos\FreeRTOS\10.0.1\Source/stream_buffer.c **** 	/* Calculate the number of bytes that can be added in the first write -
1029:Generated_Source\PSoC6\pdl\rtos\FreeRTOS\10.0.1\Source/stream_buffer.c **** 	which may be less than the total number of bytes that need to be added if
1030:Generated_Source\PSoC6\pdl\rtos\FreeRTOS\10.0.1\Source/stream_buffer.c **** 	the buffer will wrap back to the beginning. */
1031:Generated_Source\PSoC6\pdl\rtos\FreeRTOS\10.0.1\Source/stream_buffer.c **** 	xFirstLength = configMIN( pxStreamBuffer->xLength - xNextHead, xCount );
 2052              		.loc 1 1031 0
 2053 002c FB68     		ldr	r3, [r7, #12]
 2054 002e 9A68     		ldr	r2, [r3, #8]
 2055 0030 7B6A     		ldr	r3, [r7, #36]
 2056 0032 D21A     		subs	r2, r2, r3
 2057 0034 7B68     		ldr	r3, [r7, #4]
 2058 0036 9342     		cmp	r3, r2
 2059 0038 28BF     		it	cs
 2060 003a 1346     		movcs	r3, r2
 2061 003c 3B62     		str	r3, [r7, #32]
1032:Generated_Source\PSoC6\pdl\rtos\FreeRTOS\10.0.1\Source/stream_buffer.c **** 
1033:Generated_Source\PSoC6\pdl\rtos\FreeRTOS\10.0.1\Source/stream_buffer.c **** 	/* Write as many bytes as can be written in the first write. */
1034:Generated_Source\PSoC6\pdl\rtos\FreeRTOS\10.0.1\Source/stream_buffer.c **** 	configASSERT( ( xNextHead + xFirstLength ) <= pxStreamBuffer->xLength );
 2062              		.loc 1 1034 0
 2063 003e 7A6A     		ldr	r2, [r7, #36]
 2064 0040 3B6A     		ldr	r3, [r7, #32]
 2065 0042 1A44     		add	r2, r2, r3
ARM GAS  C:\Users\stijn\AppData\Local\Temp\cccniDcZ.s 			page 59


 2066 0044 FB68     		ldr	r3, [r7, #12]
 2067 0046 9B68     		ldr	r3, [r3, #8]
 2068 0048 9A42     		cmp	r2, r3
 2069 004a 09D9     		bls	.L135
 2070              	.LBB139:
 2071              	.LBB140:
 156:Generated_Source\PSoC6\pdl\rtos/FreeRTOS/10.0.1/Source/portable/GCC/CM4F/portmacro.h **** 	(
 2072              		.loc 2 156 0 discriminator 1
 2073              		.syntax unified
 2074              	@ 156 "Generated_Source\PSoC6\pdl\rtos/FreeRTOS/10.0.1/Source/portable/GCC/CM4F/portmacro.h" 1
 2075 004c 4FF03F03 			mov r3, #63												
 2076 0050 83F31188 		msr basepri, r3											
 2077 0054 BFF36F8F 		isb														
 2078 0058 BFF34F8F 		dsb														
 2079              	
 2080              	@ 0 "" 2
 2081              		.thumb
 2082              		.syntax unified
 2083 005c BB61     		str	r3, [r7, #24]
 2084              	.L136:
 2085              	.LBE140:
 2086              	.LBE139:
 2087              		.loc 1 1034 0 discriminator 2
 2088 005e FEE7     		b	.L136
 2089              	.L135:
1035:Generated_Source\PSoC6\pdl\rtos\FreeRTOS\10.0.1\Source/stream_buffer.c **** 	memcpy( ( void* ) ( &( pxStreamBuffer->pucBuffer[ xNextHead ] ) ), ( const void * ) pucData, xFirs
 2090              		.loc 1 1035 0
 2091 0060 FB68     		ldr	r3, [r7, #12]
 2092 0062 9A69     		ldr	r2, [r3, #24]
 2093 0064 7B6A     		ldr	r3, [r7, #36]
 2094 0066 1344     		add	r3, r3, r2
 2095 0068 3A6A     		ldr	r2, [r7, #32]
 2096 006a B968     		ldr	r1, [r7, #8]
 2097 006c 1846     		mov	r0, r3
 2098 006e FFF7FEFF 		bl	memcpy
1036:Generated_Source\PSoC6\pdl\rtos\FreeRTOS\10.0.1\Source/stream_buffer.c **** 
1037:Generated_Source\PSoC6\pdl\rtos\FreeRTOS\10.0.1\Source/stream_buffer.c **** 	/* If the number of bytes written was less than the number that could be
1038:Generated_Source\PSoC6\pdl\rtos\FreeRTOS\10.0.1\Source/stream_buffer.c **** 	written in the first write... */
1039:Generated_Source\PSoC6\pdl\rtos\FreeRTOS\10.0.1\Source/stream_buffer.c **** 	if( xCount > xFirstLength )
 2099              		.loc 1 1039 0
 2100 0072 7A68     		ldr	r2, [r7, #4]
 2101 0074 3B6A     		ldr	r3, [r7, #32]
 2102 0076 9A42     		cmp	r2, r3
 2103 0078 1BD9     		bls	.L137
1040:Generated_Source\PSoC6\pdl\rtos\FreeRTOS\10.0.1\Source/stream_buffer.c **** 	{
1041:Generated_Source\PSoC6\pdl\rtos\FreeRTOS\10.0.1\Source/stream_buffer.c **** 		/* ...then write the remaining bytes to the start of the buffer. */
1042:Generated_Source\PSoC6\pdl\rtos\FreeRTOS\10.0.1\Source/stream_buffer.c **** 		configASSERT( ( xCount - xFirstLength ) <= pxStreamBuffer->xLength );
 2104              		.loc 1 1042 0
 2105 007a 7A68     		ldr	r2, [r7, #4]
 2106 007c 3B6A     		ldr	r3, [r7, #32]
 2107 007e D21A     		subs	r2, r2, r3
 2108 0080 FB68     		ldr	r3, [r7, #12]
 2109 0082 9B68     		ldr	r3, [r3, #8]
 2110 0084 9A42     		cmp	r2, r3
 2111 0086 09D9     		bls	.L138
 2112              	.LBB141:
 2113              	.LBB142:
ARM GAS  C:\Users\stijn\AppData\Local\Temp\cccniDcZ.s 			page 60


 156:Generated_Source\PSoC6\pdl\rtos/FreeRTOS/10.0.1/Source/portable/GCC/CM4F/portmacro.h **** 	(
 2114              		.loc 2 156 0 discriminator 1
 2115              		.syntax unified
 2116              	@ 156 "Generated_Source\PSoC6\pdl\rtos/FreeRTOS/10.0.1/Source/portable/GCC/CM4F/portmacro.h" 1
 2117 0088 4FF03F03 			mov r3, #63												
 2118 008c 83F31188 		msr basepri, r3											
 2119 0090 BFF36F8F 		isb														
 2120 0094 BFF34F8F 		dsb														
 2121              	
 2122              	@ 0 "" 2
 2123              		.thumb
 2124              		.syntax unified
 2125 0098 FB61     		str	r3, [r7, #28]
 2126              	.L139:
 2127              	.LBE142:
 2128              	.LBE141:
 2129              		.loc 1 1042 0 discriminator 3
 2130 009a FEE7     		b	.L139
 2131              	.L138:
1043:Generated_Source\PSoC6\pdl\rtos\FreeRTOS\10.0.1\Source/stream_buffer.c **** 		memcpy( ( void * ) pxStreamBuffer->pucBuffer, ( const void * ) &( pucData[ xFirstLength ] ), xCou
 2132              		.loc 1 1043 0
 2133 009c FB68     		ldr	r3, [r7, #12]
 2134 009e 9869     		ldr	r0, [r3, #24]
 2135 00a0 BA68     		ldr	r2, [r7, #8]
 2136 00a2 3B6A     		ldr	r3, [r7, #32]
 2137 00a4 D118     		adds	r1, r2, r3
 2138 00a6 7A68     		ldr	r2, [r7, #4]
 2139 00a8 3B6A     		ldr	r3, [r7, #32]
 2140 00aa D31A     		subs	r3, r2, r3
 2141 00ac 1A46     		mov	r2, r3
 2142 00ae FFF7FEFF 		bl	memcpy
 2143              	.L137:
1044:Generated_Source\PSoC6\pdl\rtos\FreeRTOS\10.0.1\Source/stream_buffer.c **** 	}
1045:Generated_Source\PSoC6\pdl\rtos\FreeRTOS\10.0.1\Source/stream_buffer.c **** 	else
1046:Generated_Source\PSoC6\pdl\rtos\FreeRTOS\10.0.1\Source/stream_buffer.c **** 	{
1047:Generated_Source\PSoC6\pdl\rtos\FreeRTOS\10.0.1\Source/stream_buffer.c **** 		mtCOVERAGE_TEST_MARKER();
1048:Generated_Source\PSoC6\pdl\rtos\FreeRTOS\10.0.1\Source/stream_buffer.c **** 	}
1049:Generated_Source\PSoC6\pdl\rtos\FreeRTOS\10.0.1\Source/stream_buffer.c **** 
1050:Generated_Source\PSoC6\pdl\rtos\FreeRTOS\10.0.1\Source/stream_buffer.c **** 	xNextHead += xCount;
 2144              		.loc 1 1050 0
 2145 00b2 7A6A     		ldr	r2, [r7, #36]
 2146 00b4 7B68     		ldr	r3, [r7, #4]
 2147 00b6 1344     		add	r3, r3, r2
 2148 00b8 7B62     		str	r3, [r7, #36]
1051:Generated_Source\PSoC6\pdl\rtos\FreeRTOS\10.0.1\Source/stream_buffer.c **** 	if( xNextHead >= pxStreamBuffer->xLength )
 2149              		.loc 1 1051 0
 2150 00ba FB68     		ldr	r3, [r7, #12]
 2151 00bc 9A68     		ldr	r2, [r3, #8]
 2152 00be 7B6A     		ldr	r3, [r7, #36]
 2153 00c0 9A42     		cmp	r2, r3
 2154 00c2 04D8     		bhi	.L140
1052:Generated_Source\PSoC6\pdl\rtos\FreeRTOS\10.0.1\Source/stream_buffer.c **** 	{
1053:Generated_Source\PSoC6\pdl\rtos\FreeRTOS\10.0.1\Source/stream_buffer.c **** 		xNextHead -= pxStreamBuffer->xLength;
 2155              		.loc 1 1053 0
 2156 00c4 FB68     		ldr	r3, [r7, #12]
 2157 00c6 9B68     		ldr	r3, [r3, #8]
 2158 00c8 7A6A     		ldr	r2, [r7, #36]
ARM GAS  C:\Users\stijn\AppData\Local\Temp\cccniDcZ.s 			page 61


 2159 00ca D31A     		subs	r3, r2, r3
 2160 00cc 7B62     		str	r3, [r7, #36]
 2161              	.L140:
1054:Generated_Source\PSoC6\pdl\rtos\FreeRTOS\10.0.1\Source/stream_buffer.c **** 	}
1055:Generated_Source\PSoC6\pdl\rtos\FreeRTOS\10.0.1\Source/stream_buffer.c **** 	else
1056:Generated_Source\PSoC6\pdl\rtos\FreeRTOS\10.0.1\Source/stream_buffer.c **** 	{
1057:Generated_Source\PSoC6\pdl\rtos\FreeRTOS\10.0.1\Source/stream_buffer.c **** 		mtCOVERAGE_TEST_MARKER();
1058:Generated_Source\PSoC6\pdl\rtos\FreeRTOS\10.0.1\Source/stream_buffer.c **** 	}
1059:Generated_Source\PSoC6\pdl\rtos\FreeRTOS\10.0.1\Source/stream_buffer.c **** 
1060:Generated_Source\PSoC6\pdl\rtos\FreeRTOS\10.0.1\Source/stream_buffer.c **** 	pxStreamBuffer->xHead = xNextHead;
 2162              		.loc 1 1060 0
 2163 00ce FB68     		ldr	r3, [r7, #12]
 2164 00d0 7A6A     		ldr	r2, [r7, #36]
 2165 00d2 5A60     		str	r2, [r3, #4]
1061:Generated_Source\PSoC6\pdl\rtos\FreeRTOS\10.0.1\Source/stream_buffer.c **** 
1062:Generated_Source\PSoC6\pdl\rtos\FreeRTOS\10.0.1\Source/stream_buffer.c **** 	return xCount;
 2166              		.loc 1 1062 0
 2167 00d4 7B68     		ldr	r3, [r7, #4]
1063:Generated_Source\PSoC6\pdl\rtos\FreeRTOS\10.0.1\Source/stream_buffer.c **** }
 2168              		.loc 1 1063 0
 2169 00d6 1846     		mov	r0, r3
 2170 00d8 2837     		adds	r7, r7, #40
 2171              		.cfi_def_cfa_offset 8
 2172 00da BD46     		mov	sp, r7
 2173              		.cfi_def_cfa_register 13
 2174              		@ sp needed
 2175 00dc 80BD     		pop	{r7, pc}
 2176              		.cfi_endproc
 2177              	.LFE152:
 2178              		.size	prvWriteBytesToBuffer, .-prvWriteBytesToBuffer
 2179 00de 00BF     		.section	.text.prvReadBytesFromBuffer,"ax",%progbits
 2180              		.align	2
 2181              		.thumb
 2182              		.thumb_func
 2183              		.type	prvReadBytesFromBuffer, %function
 2184              	prvReadBytesFromBuffer:
 2185              	.LFB153:
1064:Generated_Source\PSoC6\pdl\rtos\FreeRTOS\10.0.1\Source/stream_buffer.c **** /*-----------------------------------------------------------*/
1065:Generated_Source\PSoC6\pdl\rtos\FreeRTOS\10.0.1\Source/stream_buffer.c **** 
1066:Generated_Source\PSoC6\pdl\rtos\FreeRTOS\10.0.1\Source/stream_buffer.c **** static size_t prvReadBytesFromBuffer( StreamBuffer_t *pxStreamBuffer, uint8_t *pucData, size_t xMax
1067:Generated_Source\PSoC6\pdl\rtos\FreeRTOS\10.0.1\Source/stream_buffer.c **** {
 2186              		.loc 1 1067 0
 2187              		.cfi_startproc
 2188              		@ args = 0, pretend = 0, frame = 40
 2189              		@ frame_needed = 1, uses_anonymous_args = 0
 2190 0000 80B5     		push	{r7, lr}
 2191              		.cfi_def_cfa_offset 8
 2192              		.cfi_offset 7, -8
 2193              		.cfi_offset 14, -4
 2194 0002 8AB0     		sub	sp, sp, #40
 2195              		.cfi_def_cfa_offset 48
 2196 0004 00AF     		add	r7, sp, #0
 2197              		.cfi_def_cfa_register 7
 2198 0006 F860     		str	r0, [r7, #12]
 2199 0008 B960     		str	r1, [r7, #8]
 2200 000a 7A60     		str	r2, [r7, #4]
 2201 000c 3B60     		str	r3, [r7]
ARM GAS  C:\Users\stijn\AppData\Local\Temp\cccniDcZ.s 			page 62


1068:Generated_Source\PSoC6\pdl\rtos\FreeRTOS\10.0.1\Source/stream_buffer.c **** size_t xCount, xFirstLength, xNextTail;
1069:Generated_Source\PSoC6\pdl\rtos\FreeRTOS\10.0.1\Source/stream_buffer.c **** 
1070:Generated_Source\PSoC6\pdl\rtos\FreeRTOS\10.0.1\Source/stream_buffer.c **** 	/* Use the minimum of the wanted bytes and the available bytes. */
1071:Generated_Source\PSoC6\pdl\rtos\FreeRTOS\10.0.1\Source/stream_buffer.c **** 	xCount = configMIN( xBytesAvailable, xMaxCount );
 2202              		.loc 1 1071 0
 2203 000e 7A68     		ldr	r2, [r7, #4]
 2204 0010 3B68     		ldr	r3, [r7]
 2205 0012 9342     		cmp	r3, r2
 2206 0014 28BF     		it	cs
 2207 0016 1346     		movcs	r3, r2
 2208 0018 3B62     		str	r3, [r7, #32]
1072:Generated_Source\PSoC6\pdl\rtos\FreeRTOS\10.0.1\Source/stream_buffer.c **** 
1073:Generated_Source\PSoC6\pdl\rtos\FreeRTOS\10.0.1\Source/stream_buffer.c **** 	if( xCount > ( size_t ) 0 )
 2209              		.loc 1 1073 0
 2210 001a 3B6A     		ldr	r3, [r7, #32]
 2211 001c 002B     		cmp	r3, #0
 2212 001e 61D0     		beq	.L143
1074:Generated_Source\PSoC6\pdl\rtos\FreeRTOS\10.0.1\Source/stream_buffer.c **** 	{
1075:Generated_Source\PSoC6\pdl\rtos\FreeRTOS\10.0.1\Source/stream_buffer.c **** 		xNextTail = pxStreamBuffer->xTail;
 2213              		.loc 1 1075 0
 2214 0020 FB68     		ldr	r3, [r7, #12]
 2215 0022 1B68     		ldr	r3, [r3]
 2216 0024 7B62     		str	r3, [r7, #36]
1076:Generated_Source\PSoC6\pdl\rtos\FreeRTOS\10.0.1\Source/stream_buffer.c **** 
1077:Generated_Source\PSoC6\pdl\rtos\FreeRTOS\10.0.1\Source/stream_buffer.c **** 		/* Calculate the number of bytes that can be read - which may be
1078:Generated_Source\PSoC6\pdl\rtos\FreeRTOS\10.0.1\Source/stream_buffer.c **** 		less than the number wanted if the data wraps around to the start of
1079:Generated_Source\PSoC6\pdl\rtos\FreeRTOS\10.0.1\Source/stream_buffer.c **** 		the buffer. */
1080:Generated_Source\PSoC6\pdl\rtos\FreeRTOS\10.0.1\Source/stream_buffer.c **** 		xFirstLength = configMIN( pxStreamBuffer->xLength - xNextTail, xCount );
 2217              		.loc 1 1080 0
 2218 0026 FB68     		ldr	r3, [r7, #12]
 2219 0028 9A68     		ldr	r2, [r3, #8]
 2220 002a 7B6A     		ldr	r3, [r7, #36]
 2221 002c D21A     		subs	r2, r2, r3
 2222 002e 3B6A     		ldr	r3, [r7, #32]
 2223 0030 9342     		cmp	r3, r2
 2224 0032 28BF     		it	cs
 2225 0034 1346     		movcs	r3, r2
 2226 0036 FB61     		str	r3, [r7, #28]
1081:Generated_Source\PSoC6\pdl\rtos\FreeRTOS\10.0.1\Source/stream_buffer.c **** 
1082:Generated_Source\PSoC6\pdl\rtos\FreeRTOS\10.0.1\Source/stream_buffer.c **** 		/* Obtain the number of bytes it is possible to obtain in the first
1083:Generated_Source\PSoC6\pdl\rtos\FreeRTOS\10.0.1\Source/stream_buffer.c **** 		read.  Asserts check bounds of read and write. */
1084:Generated_Source\PSoC6\pdl\rtos\FreeRTOS\10.0.1\Source/stream_buffer.c **** 		configASSERT( xFirstLength <= xMaxCount );
 2227              		.loc 1 1084 0
 2228 0038 FA69     		ldr	r2, [r7, #28]
 2229 003a 7B68     		ldr	r3, [r7, #4]
 2230 003c 9A42     		cmp	r2, r3
 2231 003e 09D9     		bls	.L144
 2232              	.LBB143:
 2233              	.LBB144:
 156:Generated_Source\PSoC6\pdl\rtos/FreeRTOS/10.0.1/Source/portable/GCC/CM4F/portmacro.h **** 	(
 2234              		.loc 2 156 0 discriminator 1
 2235              		.syntax unified
 2236              	@ 156 "Generated_Source\PSoC6\pdl\rtos/FreeRTOS/10.0.1/Source/portable/GCC/CM4F/portmacro.h" 1
 2237 0040 4FF03F03 			mov r3, #63												
 2238 0044 83F31188 		msr basepri, r3											
 2239 0048 BFF36F8F 		isb														
 2240 004c BFF34F8F 		dsb														
ARM GAS  C:\Users\stijn\AppData\Local\Temp\cccniDcZ.s 			page 63


 2241              	
 2242              	@ 0 "" 2
 2243              		.thumb
 2244              		.syntax unified
 2245 0050 3B61     		str	r3, [r7, #16]
 2246              	.L145:
 2247              	.LBE144:
 2248              	.LBE143:
 2249              		.loc 1 1084 0 discriminator 1
 2250 0052 FEE7     		b	.L145
 2251              	.L144:
1085:Generated_Source\PSoC6\pdl\rtos\FreeRTOS\10.0.1\Source/stream_buffer.c **** 		configASSERT( ( xNextTail + xFirstLength ) <= pxStreamBuffer->xLength );
 2252              		.loc 1 1085 0
 2253 0054 7A6A     		ldr	r2, [r7, #36]
 2254 0056 FB69     		ldr	r3, [r7, #28]
 2255 0058 1A44     		add	r2, r2, r3
 2256 005a FB68     		ldr	r3, [r7, #12]
 2257 005c 9B68     		ldr	r3, [r3, #8]
 2258 005e 9A42     		cmp	r2, r3
 2259 0060 09D9     		bls	.L146
 2260              	.LBB145:
 2261              	.LBB146:
 156:Generated_Source\PSoC6\pdl\rtos/FreeRTOS/10.0.1/Source/portable/GCC/CM4F/portmacro.h **** 	(
 2262              		.loc 2 156 0 discriminator 1
 2263              		.syntax unified
 2264              	@ 156 "Generated_Source\PSoC6\pdl\rtos/FreeRTOS/10.0.1/Source/portable/GCC/CM4F/portmacro.h" 1
 2265 0062 4FF03F03 			mov r3, #63												
 2266 0066 83F31188 		msr basepri, r3											
 2267 006a BFF36F8F 		isb														
 2268 006e BFF34F8F 		dsb														
 2269              	
 2270              	@ 0 "" 2
 2271              		.thumb
 2272              		.syntax unified
 2273 0072 7B61     		str	r3, [r7, #20]
 2274              	.L147:
 2275              	.LBE146:
 2276              	.LBE145:
 2277              		.loc 1 1085 0 discriminator 2
 2278 0074 FEE7     		b	.L147
 2279              	.L146:
1086:Generated_Source\PSoC6\pdl\rtos\FreeRTOS\10.0.1\Source/stream_buffer.c **** 		memcpy( ( void * ) pucData, ( const void * ) &( pxStreamBuffer->pucBuffer[ xNextTail ] ), xFirstL
 2280              		.loc 1 1086 0
 2281 0076 FB68     		ldr	r3, [r7, #12]
 2282 0078 9A69     		ldr	r2, [r3, #24]
 2283 007a 7B6A     		ldr	r3, [r7, #36]
 2284 007c 1344     		add	r3, r3, r2
 2285 007e FA69     		ldr	r2, [r7, #28]
 2286 0080 1946     		mov	r1, r3
 2287 0082 B868     		ldr	r0, [r7, #8]
 2288 0084 FFF7FEFF 		bl	memcpy
1087:Generated_Source\PSoC6\pdl\rtos\FreeRTOS\10.0.1\Source/stream_buffer.c **** 
1088:Generated_Source\PSoC6\pdl\rtos\FreeRTOS\10.0.1\Source/stream_buffer.c **** 		/* If the total number of wanted bytes is greater than the number
1089:Generated_Source\PSoC6\pdl\rtos\FreeRTOS\10.0.1\Source/stream_buffer.c **** 		that could be read in the first read... */
1090:Generated_Source\PSoC6\pdl\rtos\FreeRTOS\10.0.1\Source/stream_buffer.c **** 		if( xCount > xFirstLength )
 2289              		.loc 1 1090 0
 2290 0088 3A6A     		ldr	r2, [r7, #32]
ARM GAS  C:\Users\stijn\AppData\Local\Temp\cccniDcZ.s 			page 64


 2291 008a FB69     		ldr	r3, [r7, #28]
 2292 008c 9A42     		cmp	r2, r3
 2293 008e 18D9     		bls	.L148
1091:Generated_Source\PSoC6\pdl\rtos\FreeRTOS\10.0.1\Source/stream_buffer.c **** 		{
1092:Generated_Source\PSoC6\pdl\rtos\FreeRTOS\10.0.1\Source/stream_buffer.c **** 			/*...then read the remaining bytes from the start of the buffer. */
1093:Generated_Source\PSoC6\pdl\rtos\FreeRTOS\10.0.1\Source/stream_buffer.c **** 			configASSERT( xCount <= xMaxCount );
 2294              		.loc 1 1093 0
 2295 0090 3A6A     		ldr	r2, [r7, #32]
 2296 0092 7B68     		ldr	r3, [r7, #4]
 2297 0094 9A42     		cmp	r2, r3
 2298 0096 09D9     		bls	.L149
 2299              	.LBB147:
 2300              	.LBB148:
 156:Generated_Source\PSoC6\pdl\rtos/FreeRTOS/10.0.1/Source/portable/GCC/CM4F/portmacro.h **** 	(
 2301              		.loc 2 156 0 discriminator 1
 2302              		.syntax unified
 2303              	@ 156 "Generated_Source\PSoC6\pdl\rtos/FreeRTOS/10.0.1/Source/portable/GCC/CM4F/portmacro.h" 1
 2304 0098 4FF03F03 			mov r3, #63												
 2305 009c 83F31188 		msr basepri, r3											
 2306 00a0 BFF36F8F 		isb														
 2307 00a4 BFF34F8F 		dsb														
 2308              	
 2309              	@ 0 "" 2
 2310              		.thumb
 2311              		.syntax unified
 2312 00a8 BB61     		str	r3, [r7, #24]
 2313              	.L150:
 2314              	.LBE148:
 2315              	.LBE147:
 2316              		.loc 1 1093 0 discriminator 3
 2317 00aa FEE7     		b	.L150
 2318              	.L149:
1094:Generated_Source\PSoC6\pdl\rtos\FreeRTOS\10.0.1\Source/stream_buffer.c **** 			memcpy( ( void * ) &( pucData[ xFirstLength ] ), ( void * ) ( pxStreamBuffer->pucBuffer ), xCoun
 2319              		.loc 1 1094 0
 2320 00ac BA68     		ldr	r2, [r7, #8]
 2321 00ae FB69     		ldr	r3, [r7, #28]
 2322 00b0 D018     		adds	r0, r2, r3
 2323 00b2 FB68     		ldr	r3, [r7, #12]
 2324 00b4 9969     		ldr	r1, [r3, #24]
 2325 00b6 3A6A     		ldr	r2, [r7, #32]
 2326 00b8 FB69     		ldr	r3, [r7, #28]
 2327 00ba D31A     		subs	r3, r2, r3
 2328 00bc 1A46     		mov	r2, r3
 2329 00be FFF7FEFF 		bl	memcpy
 2330              	.L148:
1095:Generated_Source\PSoC6\pdl\rtos\FreeRTOS\10.0.1\Source/stream_buffer.c **** 		}
1096:Generated_Source\PSoC6\pdl\rtos\FreeRTOS\10.0.1\Source/stream_buffer.c **** 		else
1097:Generated_Source\PSoC6\pdl\rtos\FreeRTOS\10.0.1\Source/stream_buffer.c **** 		{
1098:Generated_Source\PSoC6\pdl\rtos\FreeRTOS\10.0.1\Source/stream_buffer.c **** 			mtCOVERAGE_TEST_MARKER();
1099:Generated_Source\PSoC6\pdl\rtos\FreeRTOS\10.0.1\Source/stream_buffer.c **** 		}
1100:Generated_Source\PSoC6\pdl\rtos\FreeRTOS\10.0.1\Source/stream_buffer.c **** 
1101:Generated_Source\PSoC6\pdl\rtos\FreeRTOS\10.0.1\Source/stream_buffer.c **** 		/* Move the tail pointer to effectively remove the data read from
1102:Generated_Source\PSoC6\pdl\rtos\FreeRTOS\10.0.1\Source/stream_buffer.c **** 		the buffer. */
1103:Generated_Source\PSoC6\pdl\rtos\FreeRTOS\10.0.1\Source/stream_buffer.c **** 		xNextTail += xCount;
 2331              		.loc 1 1103 0
 2332 00c2 7A6A     		ldr	r2, [r7, #36]
 2333 00c4 3B6A     		ldr	r3, [r7, #32]
ARM GAS  C:\Users\stijn\AppData\Local\Temp\cccniDcZ.s 			page 65


 2334 00c6 1344     		add	r3, r3, r2
 2335 00c8 7B62     		str	r3, [r7, #36]
1104:Generated_Source\PSoC6\pdl\rtos\FreeRTOS\10.0.1\Source/stream_buffer.c **** 
1105:Generated_Source\PSoC6\pdl\rtos\FreeRTOS\10.0.1\Source/stream_buffer.c **** 		if( xNextTail >= pxStreamBuffer->xLength )
 2336              		.loc 1 1105 0
 2337 00ca FB68     		ldr	r3, [r7, #12]
 2338 00cc 9A68     		ldr	r2, [r3, #8]
 2339 00ce 7B6A     		ldr	r3, [r7, #36]
 2340 00d0 9A42     		cmp	r2, r3
 2341 00d2 04D8     		bhi	.L151
1106:Generated_Source\PSoC6\pdl\rtos\FreeRTOS\10.0.1\Source/stream_buffer.c **** 		{
1107:Generated_Source\PSoC6\pdl\rtos\FreeRTOS\10.0.1\Source/stream_buffer.c **** 			xNextTail -= pxStreamBuffer->xLength;
 2342              		.loc 1 1107 0
 2343 00d4 FB68     		ldr	r3, [r7, #12]
 2344 00d6 9B68     		ldr	r3, [r3, #8]
 2345 00d8 7A6A     		ldr	r2, [r7, #36]
 2346 00da D31A     		subs	r3, r2, r3
 2347 00dc 7B62     		str	r3, [r7, #36]
 2348              	.L151:
1108:Generated_Source\PSoC6\pdl\rtos\FreeRTOS\10.0.1\Source/stream_buffer.c **** 		}
1109:Generated_Source\PSoC6\pdl\rtos\FreeRTOS\10.0.1\Source/stream_buffer.c **** 
1110:Generated_Source\PSoC6\pdl\rtos\FreeRTOS\10.0.1\Source/stream_buffer.c **** 		pxStreamBuffer->xTail = xNextTail;
 2349              		.loc 1 1110 0
 2350 00de FB68     		ldr	r3, [r7, #12]
 2351 00e0 7A6A     		ldr	r2, [r7, #36]
 2352 00e2 1A60     		str	r2, [r3]
 2353              	.L143:
1111:Generated_Source\PSoC6\pdl\rtos\FreeRTOS\10.0.1\Source/stream_buffer.c **** 	}
1112:Generated_Source\PSoC6\pdl\rtos\FreeRTOS\10.0.1\Source/stream_buffer.c **** 	else
1113:Generated_Source\PSoC6\pdl\rtos\FreeRTOS\10.0.1\Source/stream_buffer.c **** 	{
1114:Generated_Source\PSoC6\pdl\rtos\FreeRTOS\10.0.1\Source/stream_buffer.c **** 		mtCOVERAGE_TEST_MARKER();
1115:Generated_Source\PSoC6\pdl\rtos\FreeRTOS\10.0.1\Source/stream_buffer.c **** 	}
1116:Generated_Source\PSoC6\pdl\rtos\FreeRTOS\10.0.1\Source/stream_buffer.c **** 
1117:Generated_Source\PSoC6\pdl\rtos\FreeRTOS\10.0.1\Source/stream_buffer.c **** 	return xCount;
 2354              		.loc 1 1117 0
 2355 00e4 3B6A     		ldr	r3, [r7, #32]
1118:Generated_Source\PSoC6\pdl\rtos\FreeRTOS\10.0.1\Source/stream_buffer.c **** }
 2356              		.loc 1 1118 0
 2357 00e6 1846     		mov	r0, r3
 2358 00e8 2837     		adds	r7, r7, #40
 2359              		.cfi_def_cfa_offset 8
 2360 00ea BD46     		mov	sp, r7
 2361              		.cfi_def_cfa_register 13
 2362              		@ sp needed
 2363 00ec 80BD     		pop	{r7, pc}
 2364              		.cfi_endproc
 2365              	.LFE153:
 2366              		.size	prvReadBytesFromBuffer, .-prvReadBytesFromBuffer
 2367 00ee 00BF     		.section	.text.prvBytesInBuffer,"ax",%progbits
 2368              		.align	2
 2369              		.thumb
 2370              		.thumb_func
 2371              		.type	prvBytesInBuffer, %function
 2372              	prvBytesInBuffer:
 2373              	.LFB154:
1119:Generated_Source\PSoC6\pdl\rtos\FreeRTOS\10.0.1\Source/stream_buffer.c **** /*-----------------------------------------------------------*/
1120:Generated_Source\PSoC6\pdl\rtos\FreeRTOS\10.0.1\Source/stream_buffer.c **** 
ARM GAS  C:\Users\stijn\AppData\Local\Temp\cccniDcZ.s 			page 66


1121:Generated_Source\PSoC6\pdl\rtos\FreeRTOS\10.0.1\Source/stream_buffer.c **** static size_t prvBytesInBuffer( const StreamBuffer_t * const pxStreamBuffer )
1122:Generated_Source\PSoC6\pdl\rtos\FreeRTOS\10.0.1\Source/stream_buffer.c **** {
 2374              		.loc 1 1122 0
 2375              		.cfi_startproc
 2376              		@ args = 0, pretend = 0, frame = 16
 2377              		@ frame_needed = 1, uses_anonymous_args = 0
 2378              		@ link register save eliminated.
 2379 0000 80B4     		push	{r7}
 2380              		.cfi_def_cfa_offset 4
 2381              		.cfi_offset 7, -4
 2382 0002 85B0     		sub	sp, sp, #20
 2383              		.cfi_def_cfa_offset 24
 2384 0004 00AF     		add	r7, sp, #0
 2385              		.cfi_def_cfa_register 7
 2386 0006 7860     		str	r0, [r7, #4]
1123:Generated_Source\PSoC6\pdl\rtos\FreeRTOS\10.0.1\Source/stream_buffer.c **** /* Returns the distance between xTail and xHead. */
1124:Generated_Source\PSoC6\pdl\rtos\FreeRTOS\10.0.1\Source/stream_buffer.c **** size_t xCount;
1125:Generated_Source\PSoC6\pdl\rtos\FreeRTOS\10.0.1\Source/stream_buffer.c **** 
1126:Generated_Source\PSoC6\pdl\rtos\FreeRTOS\10.0.1\Source/stream_buffer.c **** 	xCount = pxStreamBuffer->xLength + pxStreamBuffer->xHead;
 2387              		.loc 1 1126 0
 2388 0008 7B68     		ldr	r3, [r7, #4]
 2389 000a 9A68     		ldr	r2, [r3, #8]
 2390 000c 7B68     		ldr	r3, [r7, #4]
 2391 000e 5B68     		ldr	r3, [r3, #4]
 2392 0010 1344     		add	r3, r3, r2
 2393 0012 FB60     		str	r3, [r7, #12]
1127:Generated_Source\PSoC6\pdl\rtos\FreeRTOS\10.0.1\Source/stream_buffer.c **** 	xCount -= pxStreamBuffer->xTail;
 2394              		.loc 1 1127 0
 2395 0014 7B68     		ldr	r3, [r7, #4]
 2396 0016 1B68     		ldr	r3, [r3]
 2397 0018 FA68     		ldr	r2, [r7, #12]
 2398 001a D31A     		subs	r3, r2, r3
 2399 001c FB60     		str	r3, [r7, #12]
1128:Generated_Source\PSoC6\pdl\rtos\FreeRTOS\10.0.1\Source/stream_buffer.c **** 	if ( xCount >= pxStreamBuffer->xLength )
 2400              		.loc 1 1128 0
 2401 001e 7B68     		ldr	r3, [r7, #4]
 2402 0020 9A68     		ldr	r2, [r3, #8]
 2403 0022 FB68     		ldr	r3, [r7, #12]
 2404 0024 9A42     		cmp	r2, r3
 2405 0026 04D8     		bhi	.L154
1129:Generated_Source\PSoC6\pdl\rtos\FreeRTOS\10.0.1\Source/stream_buffer.c **** 	{
1130:Generated_Source\PSoC6\pdl\rtos\FreeRTOS\10.0.1\Source/stream_buffer.c **** 		xCount -= pxStreamBuffer->xLength;
 2406              		.loc 1 1130 0
 2407 0028 7B68     		ldr	r3, [r7, #4]
 2408 002a 9B68     		ldr	r3, [r3, #8]
 2409 002c FA68     		ldr	r2, [r7, #12]
 2410 002e D31A     		subs	r3, r2, r3
 2411 0030 FB60     		str	r3, [r7, #12]
 2412              	.L154:
1131:Generated_Source\PSoC6\pdl\rtos\FreeRTOS\10.0.1\Source/stream_buffer.c **** 	}
1132:Generated_Source\PSoC6\pdl\rtos\FreeRTOS\10.0.1\Source/stream_buffer.c **** 	else
1133:Generated_Source\PSoC6\pdl\rtos\FreeRTOS\10.0.1\Source/stream_buffer.c **** 	{
1134:Generated_Source\PSoC6\pdl\rtos\FreeRTOS\10.0.1\Source/stream_buffer.c **** 		mtCOVERAGE_TEST_MARKER();
1135:Generated_Source\PSoC6\pdl\rtos\FreeRTOS\10.0.1\Source/stream_buffer.c **** 	}
1136:Generated_Source\PSoC6\pdl\rtos\FreeRTOS\10.0.1\Source/stream_buffer.c **** 
1137:Generated_Source\PSoC6\pdl\rtos\FreeRTOS\10.0.1\Source/stream_buffer.c **** 	return xCount;
 2413              		.loc 1 1137 0
ARM GAS  C:\Users\stijn\AppData\Local\Temp\cccniDcZ.s 			page 67


 2414 0032 FB68     		ldr	r3, [r7, #12]
1138:Generated_Source\PSoC6\pdl\rtos\FreeRTOS\10.0.1\Source/stream_buffer.c **** }
 2415              		.loc 1 1138 0
 2416 0034 1846     		mov	r0, r3
 2417 0036 1437     		adds	r7, r7, #20
 2418              		.cfi_def_cfa_offset 4
 2419 0038 BD46     		mov	sp, r7
 2420              		.cfi_def_cfa_register 13
 2421              		@ sp needed
 2422 003a 5DF8047B 		ldr	r7, [sp], #4
 2423              		.cfi_restore 7
 2424              		.cfi_def_cfa_offset 0
 2425 003e 7047     		bx	lr
 2426              		.cfi_endproc
 2427              	.LFE154:
 2428              		.size	prvBytesInBuffer, .-prvBytesInBuffer
 2429              		.section	.text.prvInitialiseNewStreamBuffer,"ax",%progbits
 2430              		.align	2
 2431              		.thumb
 2432              		.thumb_func
 2433              		.type	prvInitialiseNewStreamBuffer, %function
 2434              	prvInitialiseNewStreamBuffer:
 2435              	.LFB155:
1139:Generated_Source\PSoC6\pdl\rtos\FreeRTOS\10.0.1\Source/stream_buffer.c **** /*-----------------------------------------------------------*/
1140:Generated_Source\PSoC6\pdl\rtos\FreeRTOS\10.0.1\Source/stream_buffer.c **** 
1141:Generated_Source\PSoC6\pdl\rtos\FreeRTOS\10.0.1\Source/stream_buffer.c **** static void prvInitialiseNewStreamBuffer( StreamBuffer_t * const pxStreamBuffer,
1142:Generated_Source\PSoC6\pdl\rtos\FreeRTOS\10.0.1\Source/stream_buffer.c **** 										  uint8_t * const pucBuffer,
1143:Generated_Source\PSoC6\pdl\rtos\FreeRTOS\10.0.1\Source/stream_buffer.c **** 										  size_t xBufferSizeBytes,
1144:Generated_Source\PSoC6\pdl\rtos\FreeRTOS\10.0.1\Source/stream_buffer.c **** 										  size_t xTriggerLevelBytes,
1145:Generated_Source\PSoC6\pdl\rtos\FreeRTOS\10.0.1\Source/stream_buffer.c **** 										  BaseType_t xIsMessageBuffer )
1146:Generated_Source\PSoC6\pdl\rtos\FreeRTOS\10.0.1\Source/stream_buffer.c **** {
 2436              		.loc 1 1146 0
 2437              		.cfi_startproc
 2438              		@ args = 4, pretend = 0, frame = 24
 2439              		@ frame_needed = 1, uses_anonymous_args = 0
 2440 0000 80B5     		push	{r7, lr}
 2441              		.cfi_def_cfa_offset 8
 2442              		.cfi_offset 7, -8
 2443              		.cfi_offset 14, -4
 2444 0002 86B0     		sub	sp, sp, #24
 2445              		.cfi_def_cfa_offset 32
 2446 0004 00AF     		add	r7, sp, #0
 2447              		.cfi_def_cfa_register 7
 2448 0006 F860     		str	r0, [r7, #12]
 2449 0008 B960     		str	r1, [r7, #8]
 2450 000a 7A60     		str	r2, [r7, #4]
 2451 000c 3B60     		str	r3, [r7]
 2452              	.LBB149:
1147:Generated_Source\PSoC6\pdl\rtos\FreeRTOS\10.0.1\Source/stream_buffer.c **** 	/* Assert here is deliberately writing to the entire buffer to ensure it can
1148:Generated_Source\PSoC6\pdl\rtos\FreeRTOS\10.0.1\Source/stream_buffer.c **** 	be written to without generating exceptions, and is setting the buffer to a
1149:Generated_Source\PSoC6\pdl\rtos\FreeRTOS\10.0.1\Source/stream_buffer.c **** 	known value to assist in development/debugging. */
1150:Generated_Source\PSoC6\pdl\rtos\FreeRTOS\10.0.1\Source/stream_buffer.c **** 	#if( configASSERT_DEFINED == 1 )
1151:Generated_Source\PSoC6\pdl\rtos\FreeRTOS\10.0.1\Source/stream_buffer.c **** 	{
1152:Generated_Source\PSoC6\pdl\rtos\FreeRTOS\10.0.1\Source/stream_buffer.c **** 		/* The value written just has to be identifiable when looking at the
1153:Generated_Source\PSoC6\pdl\rtos\FreeRTOS\10.0.1\Source/stream_buffer.c **** 		memory.  Don't use 0xA5 as that is the stack fill value and could
1154:Generated_Source\PSoC6\pdl\rtos\FreeRTOS\10.0.1\Source/stream_buffer.c **** 		result in confusion as to what is actually being observed. */
1155:Generated_Source\PSoC6\pdl\rtos\FreeRTOS\10.0.1\Source/stream_buffer.c **** 		const BaseType_t xWriteValue = 0x55;
ARM GAS  C:\Users\stijn\AppData\Local\Temp\cccniDcZ.s 			page 68


 2453              		.loc 1 1155 0
 2454 000e 5523     		movs	r3, #85
 2455 0010 7B61     		str	r3, [r7, #20]
1156:Generated_Source\PSoC6\pdl\rtos\FreeRTOS\10.0.1\Source/stream_buffer.c **** 		configASSERT( memset( pucBuffer, ( int ) xWriteValue, xBufferSizeBytes ) == pucBuffer );
 2456              		.loc 1 1156 0
 2457 0012 7A68     		ldr	r2, [r7, #4]
 2458 0014 7969     		ldr	r1, [r7, #20]
 2459 0016 B868     		ldr	r0, [r7, #8]
 2460 0018 FFF7FEFF 		bl	memset
 2461 001c 0246     		mov	r2, r0
 2462 001e BB68     		ldr	r3, [r7, #8]
 2463 0020 9A42     		cmp	r2, r3
 2464 0022 09D0     		beq	.L157
 2465              	.LBB150:
 2466              	.LBB151:
 156:Generated_Source\PSoC6\pdl\rtos/FreeRTOS/10.0.1/Source/portable/GCC/CM4F/portmacro.h **** 	(
 2467              		.loc 2 156 0 discriminator 1
 2468              		.syntax unified
 2469              	@ 156 "Generated_Source\PSoC6\pdl\rtos/FreeRTOS/10.0.1/Source/portable/GCC/CM4F/portmacro.h" 1
 2470 0024 4FF03F03 			mov r3, #63												
 2471 0028 83F31188 		msr basepri, r3											
 2472 002c BFF36F8F 		isb														
 2473 0030 BFF34F8F 		dsb														
 2474              	
 2475              	@ 0 "" 2
 2476              		.thumb
 2477              		.syntax unified
 2478 0034 3B61     		str	r3, [r7, #16]
 2479              	.L158:
 2480              	.LBE151:
 2481              	.LBE150:
 2482              		.loc 1 1156 0 discriminator 1
 2483 0036 FEE7     		b	.L158
 2484              	.L157:
 2485              	.LBE149:
1157:Generated_Source\PSoC6\pdl\rtos\FreeRTOS\10.0.1\Source/stream_buffer.c **** 	}
1158:Generated_Source\PSoC6\pdl\rtos\FreeRTOS\10.0.1\Source/stream_buffer.c **** 	#endif
1159:Generated_Source\PSoC6\pdl\rtos\FreeRTOS\10.0.1\Source/stream_buffer.c **** 
1160:Generated_Source\PSoC6\pdl\rtos\FreeRTOS\10.0.1\Source/stream_buffer.c **** 	memset( ( void * ) pxStreamBuffer, 0x00, sizeof( StreamBuffer_t ) ); /*lint !e9087 memset() requir
 2486              		.loc 1 1160 0
 2487 0038 2022     		movs	r2, #32
 2488 003a 0021     		movs	r1, #0
 2489 003c F868     		ldr	r0, [r7, #12]
 2490 003e FFF7FEFF 		bl	memset
1161:Generated_Source\PSoC6\pdl\rtos\FreeRTOS\10.0.1\Source/stream_buffer.c **** 	pxStreamBuffer->pucBuffer = pucBuffer;
 2491              		.loc 1 1161 0
 2492 0042 FB68     		ldr	r3, [r7, #12]
 2493 0044 BA68     		ldr	r2, [r7, #8]
 2494 0046 9A61     		str	r2, [r3, #24]
1162:Generated_Source\PSoC6\pdl\rtos\FreeRTOS\10.0.1\Source/stream_buffer.c **** 	pxStreamBuffer->xLength = xBufferSizeBytes;
 2495              		.loc 1 1162 0
 2496 0048 FB68     		ldr	r3, [r7, #12]
 2497 004a 7A68     		ldr	r2, [r7, #4]
 2498 004c 9A60     		str	r2, [r3, #8]
1163:Generated_Source\PSoC6\pdl\rtos\FreeRTOS\10.0.1\Source/stream_buffer.c **** 	pxStreamBuffer->xTriggerLevelBytes = xTriggerLevelBytes;
 2499              		.loc 1 1163 0
 2500 004e FB68     		ldr	r3, [r7, #12]
ARM GAS  C:\Users\stijn\AppData\Local\Temp\cccniDcZ.s 			page 69


 2501 0050 3A68     		ldr	r2, [r7]
 2502 0052 DA60     		str	r2, [r3, #12]
1164:Generated_Source\PSoC6\pdl\rtos\FreeRTOS\10.0.1\Source/stream_buffer.c **** 
1165:Generated_Source\PSoC6\pdl\rtos\FreeRTOS\10.0.1\Source/stream_buffer.c **** 	if( xIsMessageBuffer != pdFALSE )
 2503              		.loc 1 1165 0
 2504 0054 3B6A     		ldr	r3, [r7, #32]
 2505 0056 002B     		cmp	r3, #0
 2506 0058 06D0     		beq	.L160
1166:Generated_Source\PSoC6\pdl\rtos\FreeRTOS\10.0.1\Source/stream_buffer.c **** 	{
1167:Generated_Source\PSoC6\pdl\rtos\FreeRTOS\10.0.1\Source/stream_buffer.c **** 		pxStreamBuffer->ucFlags |= sbFLAGS_IS_MESSAGE_BUFFER;
 2507              		.loc 1 1167 0
 2508 005a FB68     		ldr	r3, [r7, #12]
 2509 005c 1B7F     		ldrb	r3, [r3, #28]	@ zero_extendqisi2
 2510 005e 43F00103 		orr	r3, r3, #1
 2511 0062 DAB2     		uxtb	r2, r3
 2512 0064 FB68     		ldr	r3, [r7, #12]
 2513 0066 1A77     		strb	r2, [r3, #28]
 2514              	.L160:
1168:Generated_Source\PSoC6\pdl\rtos\FreeRTOS\10.0.1\Source/stream_buffer.c **** 	}
1169:Generated_Source\PSoC6\pdl\rtos\FreeRTOS\10.0.1\Source/stream_buffer.c **** }
 2515              		.loc 1 1169 0
 2516 0068 00BF     		nop
 2517 006a 1837     		adds	r7, r7, #24
 2518              		.cfi_def_cfa_offset 8
 2519 006c BD46     		mov	sp, r7
 2520              		.cfi_def_cfa_register 13
 2521              		@ sp needed
 2522 006e 80BD     		pop	{r7, pc}
 2523              		.cfi_endproc
 2524              	.LFE155:
 2525              		.size	prvInitialiseNewStreamBuffer, .-prvInitialiseNewStreamBuffer
 2526              		.text
 2527              	.Letext0:
 2528              		.file 3 "c:\\program files (x86)\\cypress\\psoc creator\\4.2\\psoc creator\\import\\gnu\\arm\\5.4.
 2529              		.file 4 "c:\\program files (x86)\\cypress\\psoc creator\\4.2\\psoc creator\\import\\gnu\\arm\\5.4.
 2530              		.file 5 "c:\\program files (x86)\\cypress\\psoc creator\\4.2\\psoc creator\\import\\gnu\\arm\\5.4.
 2531              		.file 6 "Generated_Source\\PSoC6\\pdl\\rtos/FreeRTOS/10.0.1/Source/include/task.h"
 2532              		.file 7 "Generated_Source\\PSoC6\\pdl\\rtos/FreeRTOS/10.0.1/Source/include/stream_buffer.h"
 2533              		.file 8 "Generated_Source\\PSoC6\\pdl\\cmsis/include/core_cm4.h"
 2534              		.section	.debug_info,"",%progbits
 2535              	.Ldebug_info0:
 2536 0000 4D100000 		.4byte	0x104d
 2537 0004 0400     		.2byte	0x4
 2538 0006 00000000 		.4byte	.Ldebug_abbrev0
 2539 000a 04       		.byte	0x4
 2540 000b 01       		.uleb128 0x1
 2541 000c 5E010000 		.4byte	.LASF97
 2542 0010 0C       		.byte	0xc
 2543 0011 3C050000 		.4byte	.LASF98
 2544 0015 85020000 		.4byte	.LASF99
 2545 0019 00000000 		.4byte	.Ldebug_ranges0+0
 2546 001d 00000000 		.4byte	0
 2547 0021 00000000 		.4byte	.Ldebug_line0
 2548 0025 02       		.uleb128 0x2
 2549 0026 01       		.byte	0x1
 2550 0027 06       		.byte	0x6
 2551 0028 65040000 		.4byte	.LASF0
ARM GAS  C:\Users\stijn\AppData\Local\Temp\cccniDcZ.s 			page 70


 2552 002c 03       		.uleb128 0x3
 2553 002d 76030000 		.4byte	.LASF4
 2554 0031 03       		.byte	0x3
 2555 0032 1D       		.byte	0x1d
 2556 0033 37000000 		.4byte	0x37
 2557 0037 02       		.uleb128 0x2
 2558 0038 01       		.byte	0x1
 2559 0039 08       		.byte	0x8
 2560 003a F1030000 		.4byte	.LASF1
 2561 003e 02       		.uleb128 0x2
 2562 003f 02       		.byte	0x2
 2563 0040 05       		.byte	0x5
 2564 0041 92000000 		.4byte	.LASF2
 2565 0045 02       		.uleb128 0x2
 2566 0046 02       		.byte	0x2
 2567 0047 07       		.byte	0x7
 2568 0048 13050000 		.4byte	.LASF3
 2569 004c 03       		.uleb128 0x3
 2570 004d 67060000 		.4byte	.LASF5
 2571 0051 03       		.byte	0x3
 2572 0052 3F       		.byte	0x3f
 2573 0053 57000000 		.4byte	0x57
 2574 0057 02       		.uleb128 0x2
 2575 0058 04       		.byte	0x4
 2576 0059 05       		.byte	0x5
 2577 005a 3B030000 		.4byte	.LASF6
 2578 005e 03       		.uleb128 0x3
 2579 005f 22010000 		.4byte	.LASF7
 2580 0063 03       		.byte	0x3
 2581 0064 41       		.byte	0x41
 2582 0065 69000000 		.4byte	0x69
 2583 0069 02       		.uleb128 0x2
 2584 006a 04       		.byte	0x4
 2585 006b 07       		.byte	0x7
 2586 006c F4050000 		.4byte	.LASF8
 2587 0070 02       		.uleb128 0x2
 2588 0071 08       		.byte	0x8
 2589 0072 05       		.byte	0x5
 2590 0073 F1020000 		.4byte	.LASF9
 2591 0077 02       		.uleb128 0x2
 2592 0078 08       		.byte	0x8
 2593 0079 07       		.byte	0x7
 2594 007a 8E040000 		.4byte	.LASF10
 2595 007e 04       		.uleb128 0x4
 2596 007f 04       		.byte	0x4
 2597 0080 05       		.byte	0x5
 2598 0081 696E7400 		.ascii	"int\000"
 2599 0085 02       		.uleb128 0x2
 2600 0086 04       		.byte	0x4
 2601 0087 07       		.byte	0x7
 2602 0088 D6040000 		.4byte	.LASF11
 2603 008c 03       		.uleb128 0x3
 2604 008d 11020000 		.4byte	.LASF12
 2605 0091 04       		.byte	0x4
 2606 0092 18       		.byte	0x18
 2607 0093 2C000000 		.4byte	0x2c
 2608 0097 03       		.uleb128 0x3
ARM GAS  C:\Users\stijn\AppData\Local\Temp\cccniDcZ.s 			page 71


 2609 0098 9A050000 		.4byte	.LASF13
 2610 009c 04       		.byte	0x4
 2611 009d 2C       		.byte	0x2c
 2612 009e 4C000000 		.4byte	0x4c
 2613 00a2 03       		.uleb128 0x3
 2614 00a3 B4040000 		.4byte	.LASF14
 2615 00a7 04       		.byte	0x4
 2616 00a8 30       		.byte	0x30
 2617 00a9 5E000000 		.4byte	0x5e
 2618 00ad 03       		.uleb128 0x3
 2619 00ae 9C000000 		.4byte	.LASF15
 2620 00b2 05       		.byte	0x5
 2621 00b3 D8       		.byte	0xd8
 2622 00b4 85000000 		.4byte	0x85
 2623 00b8 02       		.uleb128 0x2
 2624 00b9 08       		.byte	0x8
 2625 00ba 04       		.byte	0x4
 2626 00bb DD030000 		.4byte	.LASF16
 2627 00bf 02       		.uleb128 0x2
 2628 00c0 04       		.byte	0x4
 2629 00c1 07       		.byte	0x7
 2630 00c2 A3000000 		.4byte	.LASF17
 2631 00c6 05       		.uleb128 0x5
 2632 00c7 04       		.byte	0x4
 2633 00c8 02       		.uleb128 0x2
 2634 00c9 01       		.byte	0x1
 2635 00ca 08       		.byte	0x8
 2636 00cb 2A030000 		.4byte	.LASF18
 2637 00cf 02       		.uleb128 0x2
 2638 00d0 04       		.byte	0x4
 2639 00d1 04       		.byte	0x4
 2640 00d2 7F020000 		.4byte	.LASF19
 2641 00d6 02       		.uleb128 0x2
 2642 00d7 08       		.byte	0x8
 2643 00d8 04       		.byte	0x4
 2644 00d9 21060000 		.4byte	.LASF20
 2645 00dd 03       		.uleb128 0x3
 2646 00de E3040000 		.4byte	.LASF21
 2647 00e2 02       		.byte	0x2
 2648 00e3 38       		.byte	0x38
 2649 00e4 57000000 		.4byte	0x57
 2650 00e8 03       		.uleb128 0x3
 2651 00e9 B3050000 		.4byte	.LASF22
 2652 00ed 02       		.byte	0x2
 2653 00ee 39       		.byte	0x39
 2654 00ef 69000000 		.4byte	0x69
 2655 00f3 03       		.uleb128 0x3
 2656 00f4 08050000 		.4byte	.LASF23
 2657 00f8 02       		.byte	0x2
 2658 00f9 3F       		.byte	0x3f
 2659 00fa A2000000 		.4byte	0xa2
 2660 00fe 06       		.uleb128 0x6
 2661 00ff 04       		.byte	0x4
 2662 0100 8C000000 		.4byte	0x8c
 2663 0104 03       		.uleb128 0x3
 2664 0105 C3000000 		.4byte	.LASF24
 2665 0109 06       		.byte	0x6
ARM GAS  C:\Users\stijn\AppData\Local\Temp\cccniDcZ.s 			page 72


 2666 010a 3D       		.byte	0x3d
 2667 010b C6000000 		.4byte	0xc6
 2668 010f 07       		.uleb128 0x7
 2669 0110 01       		.byte	0x1
 2670 0111 37000000 		.4byte	0x37
 2671 0115 06       		.byte	0x6
 2672 0116 52       		.byte	0x52
 2673 0117 3A010000 		.4byte	0x13a
 2674 011b 08       		.uleb128 0x8
 2675 011c 20000000 		.4byte	.LASF25
 2676 0120 00       		.byte	0
 2677 0121 08       		.uleb128 0x8
 2678 0122 68020000 		.4byte	.LASF26
 2679 0126 01       		.byte	0x1
 2680 0127 08       		.uleb128 0x8
 2681 0128 6C070000 		.4byte	.LASF27
 2682 012c 02       		.byte	0x2
 2683 012d 08       		.uleb128 0x8
 2684 012e 83050000 		.4byte	.LASF28
 2685 0132 03       		.byte	0x3
 2686 0133 08       		.uleb128 0x8
 2687 0134 4D060000 		.4byte	.LASF29
 2688 0138 04       		.byte	0x4
 2689 0139 00       		.byte	0
 2690 013a 09       		.uleb128 0x9
 2691 013b 60000000 		.4byte	.LASF34
 2692 013f 08       		.byte	0x8
 2693 0140 06       		.byte	0x6
 2694 0141 5D       		.byte	0x5d
 2695 0142 5F010000 		.4byte	0x15f
 2696 0146 0A       		.uleb128 0xa
 2697 0147 A5040000 		.4byte	.LASF30
 2698 014b 06       		.byte	0x6
 2699 014c 5F       		.byte	0x5f
 2700 014d DD000000 		.4byte	0xdd
 2701 0151 00       		.byte	0
 2702 0152 0A       		.uleb128 0xa
 2703 0153 FF030000 		.4byte	.LASF31
 2704 0157 06       		.byte	0x6
 2705 0158 60       		.byte	0x60
 2706 0159 F3000000 		.4byte	0xf3
 2707 015d 04       		.byte	0x4
 2708 015e 00       		.byte	0
 2709 015f 03       		.uleb128 0x3
 2710 0160 88000000 		.4byte	.LASF32
 2711 0164 06       		.byte	0x6
 2712 0165 61       		.byte	0x61
 2713 0166 3A010000 		.4byte	0x13a
 2714 016a 03       		.uleb128 0x3
 2715 016b 84060000 		.4byte	.LASF33
 2716 016f 07       		.byte	0x7
 2717 0170 40       		.byte	0x40
 2718 0171 C6000000 		.4byte	0xc6
 2719 0175 09       		.uleb128 0x9
 2720 0176 D5020000 		.4byte	.LASF35
 2721 017a 20       		.byte	0x20
 2722 017b 01       		.byte	0x1
ARM GAS  C:\Users\stijn\AppData\Local\Temp\cccniDcZ.s 			page 73


 2723 017c 8D       		.byte	0x8d
 2724 017d E2010000 		.4byte	0x1e2
 2725 0181 0A       		.uleb128 0xa
 2726 0182 36050000 		.4byte	.LASF36
 2727 0186 01       		.byte	0x1
 2728 0187 8F       		.byte	0x8f
 2729 0188 E2010000 		.4byte	0x1e2
 2730 018c 00       		.byte	0
 2731 018d 0A       		.uleb128 0xa
 2732 018e F8060000 		.4byte	.LASF37
 2733 0192 01       		.byte	0x1
 2734 0193 90       		.byte	0x90
 2735 0194 E2010000 		.4byte	0x1e2
 2736 0198 04       		.byte	0x4
 2737 0199 0A       		.uleb128 0xa
 2738 019a E9030000 		.4byte	.LASF38
 2739 019e 01       		.byte	0x1
 2740 019f 91       		.byte	0x91
 2741 01a0 AD000000 		.4byte	0xad
 2742 01a4 08       		.byte	0x8
 2743 01a5 0A       		.uleb128 0xa
 2744 01a6 D0050000 		.4byte	.LASF39
 2745 01aa 01       		.byte	0x1
 2746 01ab 92       		.byte	0x92
 2747 01ac AD000000 		.4byte	0xad
 2748 01b0 0C       		.byte	0xc
 2749 01b1 0A       		.uleb128 0xa
 2750 01b2 4F040000 		.4byte	.LASF40
 2751 01b6 01       		.byte	0x1
 2752 01b7 93       		.byte	0x93
 2753 01b8 E7010000 		.4byte	0x1e7
 2754 01bc 10       		.byte	0x10
 2755 01bd 0A       		.uleb128 0xa
 2756 01be 71060000 		.4byte	.LASF41
 2757 01c2 01       		.byte	0x1
 2758 01c3 94       		.byte	0x94
 2759 01c4 E7010000 		.4byte	0x1e7
 2760 01c8 14       		.byte	0x14
 2761 01c9 0A       		.uleb128 0xa
 2762 01ca 3E010000 		.4byte	.LASF42
 2763 01ce 01       		.byte	0x1
 2764 01cf 95       		.byte	0x95
 2765 01d0 FE000000 		.4byte	0xfe
 2766 01d4 18       		.byte	0x18
 2767 01d5 0A       		.uleb128 0xa
 2768 01d6 EE040000 		.4byte	.LASF43
 2769 01da 01       		.byte	0x1
 2770 01db 96       		.byte	0x96
 2771 01dc 8C000000 		.4byte	0x8c
 2772 01e0 1C       		.byte	0x1c
 2773 01e1 00       		.byte	0
 2774 01e2 0B       		.uleb128 0xb
 2775 01e3 AD000000 		.4byte	0xad
 2776 01e7 0B       		.uleb128 0xb
 2777 01e8 04010000 		.4byte	0x104
 2778 01ec 03       		.uleb128 0x3
 2779 01ed 52030000 		.4byte	.LASF44
ARM GAS  C:\Users\stijn\AppData\Local\Temp\cccniDcZ.s 			page 74


 2780 01f1 01       		.byte	0x1
 2781 01f2 9B       		.byte	0x9b
 2782 01f3 75010000 		.4byte	0x175
 2783 01f7 0C       		.uleb128 0xc
 2784 01f8 FE060000 		.4byte	.LASF47
 2785 01fc 02       		.byte	0x2
 2786 01fd 98       		.byte	0x98
 2787 01fe 03       		.byte	0x3
 2788 01ff 0F020000 		.4byte	0x20f
 2789 0203 0D       		.uleb128 0xd
 2790 0204 77070000 		.4byte	.LASF45
 2791 0208 02       		.byte	0x2
 2792 0209 9A       		.byte	0x9a
 2793 020a A2000000 		.4byte	0xa2
 2794 020e 00       		.byte	0
 2795 020f 0E       		.uleb128 0xe
 2796 0210 42020000 		.4byte	.LASF100
 2797 0214 02       		.byte	0x2
 2798 0215 A8       		.byte	0xa8
 2799 0216 A2000000 		.4byte	0xa2
 2800 021a 03       		.byte	0x3
 2801 021b 36020000 		.4byte	0x236
 2802 021f 0D       		.uleb128 0xd
 2803 0220 20040000 		.4byte	.LASF46
 2804 0224 02       		.byte	0x2
 2805 0225 AA       		.byte	0xaa
 2806 0226 A2000000 		.4byte	0xa2
 2807 022a 0D       		.uleb128 0xd
 2808 022b 77070000 		.4byte	.LASF45
 2809 022f 02       		.byte	0x2
 2810 0230 AA       		.byte	0xaa
 2811 0231 A2000000 		.4byte	0xa2
 2812 0235 00       		.byte	0
 2813 0236 0C       		.uleb128 0xc
 2814 0237 26050000 		.4byte	.LASF48
 2815 023b 02       		.byte	0x2
 2816 023c BC       		.byte	0xbc
 2817 023d 03       		.byte	0x3
 2818 023e 4E020000 		.4byte	0x24e
 2819 0242 0F       		.uleb128 0xf
 2820 0243 3E060000 		.4byte	.LASF101
 2821 0247 02       		.byte	0x2
 2822 0248 BC       		.byte	0xbc
 2823 0249 A2000000 		.4byte	0xa2
 2824 024d 00       		.byte	0
 2825 024e 10       		.uleb128 0x10
 2826 024f 2A000000 		.4byte	.LASF54
 2827 0253 01       		.byte	0x1
 2828 0254 DB       		.byte	0xdb
 2829 0255 6A010000 		.4byte	0x16a
 2830 0259 00000000 		.4byte	.LFB136
 2831 025d 82000000 		.4byte	.LFE136-.LFB136
 2832 0261 01       		.uleb128 0x1
 2833 0262 9C       		.byte	0x9c
 2834 0263 E8020000 		.4byte	0x2e8
 2835 0267 11       		.uleb128 0x11
 2836 0268 0F040000 		.4byte	.LASF49
ARM GAS  C:\Users\stijn\AppData\Local\Temp\cccniDcZ.s 			page 75


 2837 026c 01       		.byte	0x1
 2838 026d DB       		.byte	0xdb
 2839 026e AD000000 		.4byte	0xad
 2840 0272 02       		.uleb128 0x2
 2841 0273 91       		.byte	0x91
 2842 0274 64       		.sleb128 -28
 2843 0275 11       		.uleb128 0x11
 2844 0276 D0050000 		.4byte	.LASF39
 2845 027a 01       		.byte	0x1
 2846 027b DB       		.byte	0xdb
 2847 027c AD000000 		.4byte	0xad
 2848 0280 02       		.uleb128 0x2
 2849 0281 91       		.byte	0x91
 2850 0282 60       		.sleb128 -32
 2851 0283 11       		.uleb128 0x11
 2852 0284 A2050000 		.4byte	.LASF50
 2853 0288 01       		.byte	0x1
 2854 0289 DB       		.byte	0xdb
 2855 028a DD000000 		.4byte	0xdd
 2856 028e 02       		.uleb128 0x2
 2857 028f 91       		.byte	0x91
 2858 0290 5C       		.sleb128 -36
 2859 0291 12       		.uleb128 0x12
 2860 0292 80030000 		.4byte	.LASF52
 2861 0296 01       		.byte	0x1
 2862 0297 DD       		.byte	0xdd
 2863 0298 FE000000 		.4byte	0xfe
 2864 029c 02       		.uleb128 0x2
 2865 029d 91       		.byte	0x91
 2866 029e 74       		.sleb128 -12
 2867 029f 13       		.uleb128 0x13
 2868 02a0 F7010000 		.4byte	0x1f7
 2869 02a4 12000000 		.4byte	.LBB77
 2870 02a8 12000000 		.4byte	.LBE77-.LBB77
 2871 02ac 01       		.byte	0x1
 2872 02ad E3       		.byte	0xe3
 2873 02ae C5020000 		.4byte	0x2c5
 2874 02b2 14       		.uleb128 0x14
 2875 02b3 12000000 		.4byte	.LBB78
 2876 02b7 12000000 		.4byte	.LBE78-.LBB78
 2877 02bb 15       		.uleb128 0x15
 2878 02bc 03020000 		.4byte	0x203
 2879 02c0 02       		.uleb128 0x2
 2880 02c1 91       		.byte	0x91
 2881 02c2 6C       		.sleb128 -20
 2882 02c3 00       		.byte	0
 2883 02c4 00       		.byte	0
 2884 02c5 16       		.uleb128 0x16
 2885 02c6 F7010000 		.4byte	0x1f7
 2886 02ca 2E000000 		.4byte	.LBB79
 2887 02ce 12000000 		.4byte	.LBE79-.LBB79
 2888 02d2 01       		.byte	0x1
 2889 02d3 E4       		.byte	0xe4
 2890 02d4 14       		.uleb128 0x14
 2891 02d5 2E000000 		.4byte	.LBB80
 2892 02d9 12000000 		.4byte	.LBE80-.LBB80
 2893 02dd 15       		.uleb128 0x15
ARM GAS  C:\Users\stijn\AppData\Local\Temp\cccniDcZ.s 			page 76


 2894 02de 03020000 		.4byte	0x203
 2895 02e2 02       		.uleb128 0x2
 2896 02e3 91       		.byte	0x91
 2897 02e4 70       		.sleb128 -16
 2898 02e5 00       		.byte	0
 2899 02e6 00       		.byte	0
 2900 02e7 00       		.byte	0
 2901 02e8 17       		.uleb128 0x17
 2902 02e9 4C000000 		.4byte	.LASF102
 2903 02ed 01       		.byte	0x1
 2904 02ee 4F01     		.2byte	0x14f
 2905 02f0 00000000 		.4byte	.LFB137
 2906 02f4 4C000000 		.4byte	.LFE137-.LFB137
 2907 02f8 01       		.uleb128 0x1
 2908 02f9 9C       		.byte	0x9c
 2909 02fa 40030000 		.4byte	0x340
 2910 02fe 18       		.uleb128 0x18
 2911 02ff 71020000 		.4byte	.LASF51
 2912 0303 01       		.byte	0x1
 2913 0304 4F01     		.2byte	0x14f
 2914 0306 6A010000 		.4byte	0x16a
 2915 030a 02       		.uleb128 0x2
 2916 030b 91       		.byte	0x91
 2917 030c 6C       		.sleb128 -20
 2918 030d 19       		.uleb128 0x19
 2919 030e 93030000 		.4byte	.LASF53
 2920 0312 01       		.byte	0x1
 2921 0313 5101     		.2byte	0x151
 2922 0315 40030000 		.4byte	0x340
 2923 0319 02       		.uleb128 0x2
 2924 031a 91       		.byte	0x91
 2925 031b 74       		.sleb128 -12
 2926 031c 1A       		.uleb128 0x1a
 2927 031d F7010000 		.4byte	0x1f7
 2928 0321 12000000 		.4byte	.LBB81
 2929 0325 12000000 		.4byte	.LBE81-.LBB81
 2930 0329 01       		.byte	0x1
 2931 032a 5301     		.2byte	0x153
 2932 032c 14       		.uleb128 0x14
 2933 032d 12000000 		.4byte	.LBB82
 2934 0331 12000000 		.4byte	.LBE82-.LBB82
 2935 0335 15       		.uleb128 0x15
 2936 0336 03020000 		.4byte	0x203
 2937 033a 02       		.uleb128 0x2
 2938 033b 91       		.byte	0x91
 2939 033c 70       		.sleb128 -16
 2940 033d 00       		.byte	0
 2941 033e 00       		.byte	0
 2942 033f 00       		.byte	0
 2943 0340 06       		.uleb128 0x6
 2944 0341 04       		.byte	0x4
 2945 0342 EC010000 		.4byte	0x1ec
 2946 0346 1B       		.uleb128 0x1b
 2947 0347 55020000 		.4byte	.LASF55
 2948 034b 01       		.byte	0x1
 2949 034c 7001     		.2byte	0x170
 2950 034e DD000000 		.4byte	0xdd
ARM GAS  C:\Users\stijn\AppData\Local\Temp\cccniDcZ.s 			page 77


 2951 0352 00000000 		.4byte	.LFB138
 2952 0356 76000000 		.4byte	.LFE138-.LFB138
 2953 035a 01       		.uleb128 0x1
 2954 035b 9C       		.byte	0x9c
 2955 035c C0030000 		.4byte	0x3c0
 2956 0360 18       		.uleb128 0x18
 2957 0361 71020000 		.4byte	.LASF51
 2958 0365 01       		.byte	0x1
 2959 0366 7001     		.2byte	0x170
 2960 0368 6A010000 		.4byte	0x16a
 2961 036c 02       		.uleb128 0x2
 2962 036d 91       		.byte	0x91
 2963 036e 64       		.sleb128 -28
 2964 036f 19       		.uleb128 0x19
 2965 0370 93030000 		.4byte	.LASF53
 2966 0374 01       		.byte	0x1
 2967 0375 7201     		.2byte	0x172
 2968 0377 C0030000 		.4byte	0x3c0
 2969 037b 02       		.uleb128 0x2
 2970 037c 91       		.byte	0x91
 2971 037d 6C       		.sleb128 -20
 2972 037e 19       		.uleb128 0x19
 2973 037f C4060000 		.4byte	.LASF56
 2974 0383 01       		.byte	0x1
 2975 0384 7301     		.2byte	0x173
 2976 0386 DD000000 		.4byte	0xdd
 2977 038a 02       		.uleb128 0x2
 2978 038b 91       		.byte	0x91
 2979 038c 74       		.sleb128 -12
 2980 038d 19       		.uleb128 0x19
 2981 038e A2050000 		.4byte	.LASF50
 2982 0392 01       		.byte	0x1
 2983 0393 7301     		.2byte	0x173
 2984 0395 DD000000 		.4byte	0xdd
 2985 0399 02       		.uleb128 0x2
 2986 039a 91       		.byte	0x91
 2987 039b 70       		.sleb128 -16
 2988 039c 1A       		.uleb128 0x1a
 2989 039d F7010000 		.4byte	0x1f7
 2990 03a1 16000000 		.4byte	.LBB83
 2991 03a5 12000000 		.4byte	.LBE83-.LBB83
 2992 03a9 01       		.byte	0x1
 2993 03aa 7901     		.2byte	0x179
 2994 03ac 14       		.uleb128 0x14
 2995 03ad 16000000 		.4byte	.LBB84
 2996 03b1 12000000 		.4byte	.LBE84-.LBB84
 2997 03b5 15       		.uleb128 0x15
 2998 03b6 03020000 		.4byte	0x203
 2999 03ba 02       		.uleb128 0x2
 3000 03bb 91       		.byte	0x91
 3001 03bc 68       		.sleb128 -24
 3002 03bd 00       		.byte	0
 3003 03be 00       		.byte	0
 3004 03bf 00       		.byte	0
 3005 03c0 1C       		.uleb128 0x1c
 3006 03c1 40030000 		.4byte	0x340
 3007 03c5 1D       		.uleb128 0x1d
ARM GAS  C:\Users\stijn\AppData\Local\Temp\cccniDcZ.s 			page 78


 3008 03c6 32040000 		.4byte	.LASF57
 3009 03ca 01       		.byte	0x1
 3010 03cb A601     		.2byte	0x1a6
 3011 03cd DD000000 		.4byte	0xdd
 3012 03d1 00000000 		.4byte	.LFB139
 3013 03d5 5A000000 		.4byte	.LFE139-.LFB139
 3014 03d9 01       		.uleb128 0x1
 3015 03da 9C       		.byte	0x9c
 3016 03db 3F040000 		.4byte	0x43f
 3017 03df 18       		.uleb128 0x18
 3018 03e0 71020000 		.4byte	.LASF51
 3019 03e4 01       		.byte	0x1
 3020 03e5 A601     		.2byte	0x1a6
 3021 03e7 6A010000 		.4byte	0x16a
 3022 03eb 02       		.uleb128 0x2
 3023 03ec 91       		.byte	0x91
 3024 03ed 64       		.sleb128 -28
 3025 03ee 18       		.uleb128 0x18
 3026 03ef 44030000 		.4byte	.LASF58
 3027 03f3 01       		.byte	0x1
 3028 03f4 A601     		.2byte	0x1a6
 3029 03f6 AD000000 		.4byte	0xad
 3030 03fa 02       		.uleb128 0x2
 3031 03fb 91       		.byte	0x91
 3032 03fc 60       		.sleb128 -32
 3033 03fd 19       		.uleb128 0x19
 3034 03fe 93030000 		.4byte	.LASF53
 3035 0402 01       		.byte	0x1
 3036 0403 A801     		.2byte	0x1a8
 3037 0405 C0030000 		.4byte	0x3c0
 3038 0409 02       		.uleb128 0x2
 3039 040a 91       		.byte	0x91
 3040 040b 70       		.sleb128 -16
 3041 040c 19       		.uleb128 0x19
 3042 040d C4060000 		.4byte	.LASF56
 3043 0411 01       		.byte	0x1
 3044 0412 A901     		.2byte	0x1a9
 3045 0414 DD000000 		.4byte	0xdd
 3046 0418 02       		.uleb128 0x2
 3047 0419 91       		.byte	0x91
 3048 041a 74       		.sleb128 -12
 3049 041b 1A       		.uleb128 0x1a
 3050 041c F7010000 		.4byte	0x1f7
 3051 0420 14000000 		.4byte	.LBB85
 3052 0424 12000000 		.4byte	.LBE85-.LBB85
 3053 0428 01       		.byte	0x1
 3054 0429 AB01     		.2byte	0x1ab
 3055 042b 14       		.uleb128 0x14
 3056 042c 14000000 		.4byte	.LBB86
 3057 0430 12000000 		.4byte	.LBE86-.LBB86
 3058 0434 15       		.uleb128 0x15
 3059 0435 03020000 		.4byte	0x203
 3060 0439 02       		.uleb128 0x2
 3061 043a 91       		.byte	0x91
 3062 043b 6C       		.sleb128 -20
 3063 043c 00       		.byte	0
 3064 043d 00       		.byte	0
ARM GAS  C:\Users\stijn\AppData\Local\Temp\cccniDcZ.s 			page 79


 3065 043e 00       		.byte	0
 3066 043f 1D       		.uleb128 0x1d
 3067 0440 71040000 		.4byte	.LASF59
 3068 0444 01       		.byte	0x1
 3069 0445 C301     		.2byte	0x1c3
 3070 0447 AD000000 		.4byte	0xad
 3071 044b 00000000 		.4byte	.LFB140
 3072 044f 64000000 		.4byte	.LFE140-.LFB140
 3073 0453 01       		.uleb128 0x1
 3074 0454 9C       		.byte	0x9c
 3075 0455 AA040000 		.4byte	0x4aa
 3076 0459 18       		.uleb128 0x18
 3077 045a 71020000 		.4byte	.LASF51
 3078 045e 01       		.byte	0x1
 3079 045f C301     		.2byte	0x1c3
 3080 0461 6A010000 		.4byte	0x16a
 3081 0465 02       		.uleb128 0x2
 3082 0466 91       		.byte	0x91
 3083 0467 64       		.sleb128 -28
 3084 0468 19       		.uleb128 0x19
 3085 0469 93030000 		.4byte	.LASF53
 3086 046d 01       		.byte	0x1
 3087 046e C501     		.2byte	0x1c5
 3088 0470 B5040000 		.4byte	0x4b5
 3089 0474 02       		.uleb128 0x2
 3090 0475 91       		.byte	0x91
 3091 0476 70       		.sleb128 -16
 3092 0477 19       		.uleb128 0x19
 3093 0478 E3050000 		.4byte	.LASF60
 3094 047c 01       		.byte	0x1
 3095 047d C601     		.2byte	0x1c6
 3096 047f AD000000 		.4byte	0xad
 3097 0483 02       		.uleb128 0x2
 3098 0484 91       		.byte	0x91
 3099 0485 74       		.sleb128 -12
 3100 0486 1A       		.uleb128 0x1a
 3101 0487 F7010000 		.4byte	0x1f7
 3102 048b 12000000 		.4byte	.LBB87
 3103 048f 12000000 		.4byte	.LBE87-.LBB87
 3104 0493 01       		.byte	0x1
 3105 0494 C801     		.2byte	0x1c8
 3106 0496 14       		.uleb128 0x14
 3107 0497 12000000 		.4byte	.LBB88
 3108 049b 12000000 		.4byte	.LBE88-.LBB88
 3109 049f 15       		.uleb128 0x15
 3110 04a0 03020000 		.4byte	0x203
 3111 04a4 02       		.uleb128 0x2
 3112 04a5 91       		.byte	0x91
 3113 04a6 6C       		.sleb128 -20
 3114 04a7 00       		.byte	0
 3115 04a8 00       		.byte	0
 3116 04a9 00       		.byte	0
 3117 04aa 06       		.uleb128 0x6
 3118 04ab 04       		.byte	0x4
 3119 04ac B0040000 		.4byte	0x4b0
 3120 04b0 1C       		.uleb128 0x1c
 3121 04b1 EC010000 		.4byte	0x1ec
ARM GAS  C:\Users\stijn\AppData\Local\Temp\cccniDcZ.s 			page 80


 3122 04b5 1C       		.uleb128 0x1c
 3123 04b6 AA040000 		.4byte	0x4aa
 3124 04ba 1B       		.uleb128 0x1b
 3125 04bb 48070000 		.4byte	.LASF61
 3126 04bf 01       		.byte	0x1
 3127 04c0 DB01     		.2byte	0x1db
 3128 04c2 AD000000 		.4byte	0xad
 3129 04c6 00000000 		.4byte	.LFB141
 3130 04ca 38000000 		.4byte	.LFE141-.LFB141
 3131 04ce 01       		.uleb128 0x1
 3132 04cf 9C       		.byte	0x9c
 3133 04d0 25050000 		.4byte	0x525
 3134 04d4 18       		.uleb128 0x18
 3135 04d5 71020000 		.4byte	.LASF51
 3136 04d9 01       		.byte	0x1
 3137 04da DB01     		.2byte	0x1db
 3138 04dc 6A010000 		.4byte	0x16a
 3139 04e0 02       		.uleb128 0x2
 3140 04e1 91       		.byte	0x91
 3141 04e2 64       		.sleb128 -28
 3142 04e3 19       		.uleb128 0x19
 3143 04e4 93030000 		.4byte	.LASF53
 3144 04e8 01       		.byte	0x1
 3145 04e9 DD01     		.2byte	0x1dd
 3146 04eb B5040000 		.4byte	0x4b5
 3147 04ef 02       		.uleb128 0x2
 3148 04f0 91       		.byte	0x91
 3149 04f1 74       		.sleb128 -12
 3150 04f2 19       		.uleb128 0x19
 3151 04f3 C4060000 		.4byte	.LASF56
 3152 04f7 01       		.byte	0x1
 3153 04f8 DE01     		.2byte	0x1de
 3154 04fa AD000000 		.4byte	0xad
 3155 04fe 02       		.uleb128 0x2
 3156 04ff 91       		.byte	0x91
 3157 0500 70       		.sleb128 -16
 3158 0501 1A       		.uleb128 0x1a
 3159 0502 F7010000 		.4byte	0x1f7
 3160 0506 12000000 		.4byte	.LBB89
 3161 050a 12000000 		.4byte	.LBE89-.LBB89
 3162 050e 01       		.byte	0x1
 3163 050f E001     		.2byte	0x1e0
 3164 0511 14       		.uleb128 0x14
 3165 0512 12000000 		.4byte	.LBB90
 3166 0516 12000000 		.4byte	.LBE90-.LBB90
 3167 051a 15       		.uleb128 0x15
 3168 051b 03020000 		.4byte	0x203
 3169 051f 02       		.uleb128 0x2
 3170 0520 91       		.byte	0x91
 3171 0521 6C       		.sleb128 -20
 3172 0522 00       		.byte	0
 3173 0523 00       		.byte	0
 3174 0524 00       		.byte	0
 3175 0525 1B       		.uleb128 0x1b
 3176 0526 F6040000 		.4byte	.LASF62
 3177 052a 01       		.byte	0x1
 3178 052b E701     		.2byte	0x1e7
ARM GAS  C:\Users\stijn\AppData\Local\Temp\cccniDcZ.s 			page 81


 3179 052d AD000000 		.4byte	0xad
 3180 0531 00000000 		.4byte	.LFB142
 3181 0535 48010000 		.4byte	.LFE142-.LFB142
 3182 0539 01       		.uleb128 0x1
 3183 053a 9C       		.byte	0x9c
 3184 053b 38060000 		.4byte	0x638
 3185 053f 18       		.uleb128 0x18
 3186 0540 71020000 		.4byte	.LASF51
 3187 0544 01       		.byte	0x1
 3188 0545 E701     		.2byte	0x1e7
 3189 0547 6A010000 		.4byte	0x16a
 3190 054b 02       		.uleb128 0x2
 3191 054c 91       		.byte	0x91
 3192 054d 4C       		.sleb128 -52
 3193 054e 18       		.uleb128 0x18
 3194 054f 7F000000 		.4byte	.LASF63
 3195 0553 01       		.byte	0x1
 3196 0554 E801     		.2byte	0x1e8
 3197 0556 38060000 		.4byte	0x638
 3198 055a 02       		.uleb128 0x2
 3199 055b 91       		.byte	0x91
 3200 055c 48       		.sleb128 -56
 3201 055d 18       		.uleb128 0x18
 3202 055e 2D010000 		.4byte	.LASF64
 3203 0562 01       		.byte	0x1
 3204 0563 E901     		.2byte	0x1e9
 3205 0565 AD000000 		.4byte	0xad
 3206 0569 02       		.uleb128 0x2
 3207 056a 91       		.byte	0x91
 3208 056b 44       		.sleb128 -60
 3209 056c 18       		.uleb128 0x18
 3210 056d E4020000 		.4byte	.LASF65
 3211 0571 01       		.byte	0x1
 3212 0572 EA01     		.2byte	0x1ea
 3213 0574 F3000000 		.4byte	0xf3
 3214 0578 02       		.uleb128 0x2
 3215 0579 91       		.byte	0x91
 3216 057a 40       		.sleb128 -64
 3217 057b 19       		.uleb128 0x19
 3218 057c 93030000 		.4byte	.LASF53
 3219 0580 01       		.byte	0x1
 3220 0581 EC01     		.2byte	0x1ec
 3221 0583 C0030000 		.4byte	0x3c0
 3222 0587 02       		.uleb128 0x2
 3223 0588 91       		.byte	0x91
 3224 0589 6C       		.sleb128 -20
 3225 058a 19       		.uleb128 0x19
 3226 058b C4060000 		.4byte	.LASF56
 3227 058f 01       		.byte	0x1
 3228 0590 ED01     		.2byte	0x1ed
 3229 0592 AD000000 		.4byte	0xad
 3230 0596 02       		.uleb128 0x2
 3231 0597 91       		.byte	0x91
 3232 0598 68       		.sleb128 -24
 3233 0599 19       		.uleb128 0x19
 3234 059a E3050000 		.4byte	.LASF60
 3235 059e 01       		.byte	0x1
ARM GAS  C:\Users\stijn\AppData\Local\Temp\cccniDcZ.s 			page 82


 3236 059f ED01     		.2byte	0x1ed
 3237 05a1 AD000000 		.4byte	0xad
 3238 05a5 02       		.uleb128 0x2
 3239 05a6 91       		.byte	0x91
 3240 05a7 74       		.sleb128 -12
 3241 05a8 19       		.uleb128 0x19
 3242 05a9 FF020000 		.4byte	.LASF66
 3243 05ad 01       		.byte	0x1
 3244 05ae EE01     		.2byte	0x1ee
 3245 05b0 AD000000 		.4byte	0xad
 3246 05b4 02       		.uleb128 0x2
 3247 05b5 91       		.byte	0x91
 3248 05b6 70       		.sleb128 -16
 3249 05b7 19       		.uleb128 0x19
 3250 05b8 55010000 		.4byte	.LASF67
 3251 05bc 01       		.byte	0x1
 3252 05bd EF01     		.2byte	0x1ef
 3253 05bf 5F010000 		.4byte	0x15f
 3254 05c3 02       		.uleb128 0x2
 3255 05c4 91       		.byte	0x91
 3256 05c5 54       		.sleb128 -44
 3257 05c6 1E       		.uleb128 0x1e
 3258 05c7 F7010000 		.4byte	0x1f7
 3259 05cb 20000000 		.4byte	.LBB91
 3260 05cf 12000000 		.4byte	.LBE91-.LBB91
 3261 05d3 01       		.byte	0x1
 3262 05d4 F101     		.2byte	0x1f1
 3263 05d6 ED050000 		.4byte	0x5ed
 3264 05da 14       		.uleb128 0x14
 3265 05db 20000000 		.4byte	.LBB92
 3266 05df 12000000 		.4byte	.LBE92-.LBB92
 3267 05e3 15       		.uleb128 0x15
 3268 05e4 03020000 		.4byte	0x203
 3269 05e8 02       		.uleb128 0x2
 3270 05e9 91       		.byte	0x91
 3271 05ea 5C       		.sleb128 -36
 3272 05eb 00       		.byte	0
 3273 05ec 00       		.byte	0
 3274 05ed 1E       		.uleb128 0x1e
 3275 05ee F7010000 		.4byte	0x1f7
 3276 05f2 3A000000 		.4byte	.LBB93
 3277 05f6 12000000 		.4byte	.LBE93-.LBB93
 3278 05fa 01       		.byte	0x1
 3279 05fb F201     		.2byte	0x1f2
 3280 05fd 14060000 		.4byte	0x614
 3281 0601 14       		.uleb128 0x14
 3282 0602 3A000000 		.4byte	.LBB94
 3283 0606 12000000 		.4byte	.LBE94-.LBB94
 3284 060a 15       		.uleb128 0x15
 3285 060b 03020000 		.4byte	0x203
 3286 060f 02       		.uleb128 0x2
 3287 0610 91       		.byte	0x91
 3288 0611 60       		.sleb128 -32
 3289 0612 00       		.byte	0
 3290 0613 00       		.byte	0
 3291 0614 1A       		.uleb128 0x1a
 3292 0615 F7010000 		.4byte	0x1f7
ARM GAS  C:\Users\stijn\AppData\Local\Temp\cccniDcZ.s 			page 83


 3293 0619 92000000 		.4byte	.LBB95
 3294 061d 12000000 		.4byte	.LBE95-.LBB95
 3295 0621 01       		.byte	0x1
 3296 0622 1302     		.2byte	0x213
 3297 0624 14       		.uleb128 0x14
 3298 0625 92000000 		.4byte	.LBB96
 3299 0629 12000000 		.4byte	.LBE96-.LBB96
 3300 062d 15       		.uleb128 0x15
 3301 062e 03020000 		.4byte	0x203
 3302 0632 02       		.uleb128 0x2
 3303 0633 91       		.byte	0x91
 3304 0634 64       		.sleb128 -28
 3305 0635 00       		.byte	0
 3306 0636 00       		.byte	0
 3307 0637 00       		.byte	0
 3308 0638 06       		.uleb128 0x6
 3309 0639 04       		.byte	0x4
 3310 063a 3E060000 		.4byte	0x63e
 3311 063e 1F       		.uleb128 0x1f
 3312 063f 1B       		.uleb128 0x1b
 3313 0640 BD040000 		.4byte	.LASF68
 3314 0644 01       		.byte	0x1
 3315 0645 4C02     		.2byte	0x24c
 3316 0647 AD000000 		.4byte	0xad
 3317 064b 00000000 		.4byte	.LFB143
 3318 064f DC000000 		.4byte	.LFE143-.LFB143
 3319 0653 01       		.uleb128 0x1
 3320 0654 9C       		.byte	0x9c
 3321 0655 81070000 		.4byte	0x781
 3322 0659 18       		.uleb128 0x18
 3323 065a 71020000 		.4byte	.LASF51
 3324 065e 01       		.byte	0x1
 3325 065f 4C02     		.2byte	0x24c
 3326 0661 6A010000 		.4byte	0x16a
 3327 0665 02       		.uleb128 0x2
 3328 0666 91       		.byte	0x91
 3329 0667 4C       		.sleb128 -52
 3330 0668 18       		.uleb128 0x18
 3331 0669 7F000000 		.4byte	.LASF63
 3332 066d 01       		.byte	0x1
 3333 066e 4D02     		.2byte	0x24d
 3334 0670 38060000 		.4byte	0x638
 3335 0674 02       		.uleb128 0x2
 3336 0675 91       		.byte	0x91
 3337 0676 48       		.sleb128 -56
 3338 0677 18       		.uleb128 0x18
 3339 0678 2D010000 		.4byte	.LASF64
 3340 067c 01       		.byte	0x1
 3341 067d 4E02     		.2byte	0x24e
 3342 067f AD000000 		.4byte	0xad
 3343 0683 02       		.uleb128 0x2
 3344 0684 91       		.byte	0x91
 3345 0685 44       		.sleb128 -60
 3346 0686 18       		.uleb128 0x18
 3347 0687 BA030000 		.4byte	.LASF69
 3348 068b 01       		.byte	0x1
 3349 068c 4F02     		.2byte	0x24f
ARM GAS  C:\Users\stijn\AppData\Local\Temp\cccniDcZ.s 			page 84


 3350 068e 87070000 		.4byte	0x787
 3351 0692 02       		.uleb128 0x2
 3352 0693 91       		.byte	0x91
 3353 0694 40       		.sleb128 -64
 3354 0695 19       		.uleb128 0x19
 3355 0696 93030000 		.4byte	.LASF53
 3356 069a 01       		.byte	0x1
 3357 069b 5102     		.2byte	0x251
 3358 069d C0030000 		.4byte	0x3c0
 3359 06a1 02       		.uleb128 0x2
 3360 06a2 91       		.byte	0x91
 3361 06a3 70       		.sleb128 -16
 3362 06a4 19       		.uleb128 0x19
 3363 06a5 C4060000 		.4byte	.LASF56
 3364 06a9 01       		.byte	0x1
 3365 06aa 5202     		.2byte	0x252
 3366 06ac AD000000 		.4byte	0xad
 3367 06b0 02       		.uleb128 0x2
 3368 06b1 91       		.byte	0x91
 3369 06b2 68       		.sleb128 -24
 3370 06b3 19       		.uleb128 0x19
 3371 06b4 E3050000 		.4byte	.LASF60
 3372 06b8 01       		.byte	0x1
 3373 06b9 5202     		.2byte	0x252
 3374 06bb AD000000 		.4byte	0xad
 3375 06bf 02       		.uleb128 0x2
 3376 06c0 91       		.byte	0x91
 3377 06c1 6C       		.sleb128 -20
 3378 06c2 19       		.uleb128 0x19
 3379 06c3 FF020000 		.4byte	.LASF66
 3380 06c7 01       		.byte	0x1
 3381 06c8 5302     		.2byte	0x253
 3382 06ca AD000000 		.4byte	0xad
 3383 06ce 02       		.uleb128 0x2
 3384 06cf 91       		.byte	0x91
 3385 06d0 74       		.sleb128 -12
 3386 06d1 1E       		.uleb128 0x1e
 3387 06d2 F7010000 		.4byte	0x1f7
 3388 06d6 1C000000 		.4byte	.LBB97
 3389 06da 12000000 		.4byte	.LBE97-.LBB97
 3390 06de 01       		.byte	0x1
 3391 06df 5502     		.2byte	0x255
 3392 06e1 F8060000 		.4byte	0x6f8
 3393 06e5 14       		.uleb128 0x14
 3394 06e6 1C000000 		.4byte	.LBB98
 3395 06ea 12000000 		.4byte	.LBE98-.LBB98
 3396 06ee 15       		.uleb128 0x15
 3397 06ef 03020000 		.4byte	0x203
 3398 06f3 02       		.uleb128 0x2
 3399 06f4 91       		.byte	0x91
 3400 06f5 54       		.sleb128 -44
 3401 06f6 00       		.byte	0
 3402 06f7 00       		.byte	0
 3403 06f8 1E       		.uleb128 0x1e
 3404 06f9 F7010000 		.4byte	0x1f7
 3405 06fd 36000000 		.4byte	.LBB99
 3406 0701 12000000 		.4byte	.LBE99-.LBB99
ARM GAS  C:\Users\stijn\AppData\Local\Temp\cccniDcZ.s 			page 85


 3407 0705 01       		.byte	0x1
 3408 0706 5602     		.2byte	0x256
 3409 0708 1F070000 		.4byte	0x71f
 3410 070c 14       		.uleb128 0x14
 3411 070d 36000000 		.4byte	.LBB100
 3412 0711 12000000 		.4byte	.LBE100-.LBB100
 3413 0715 15       		.uleb128 0x15
 3414 0716 03020000 		.4byte	0x203
 3415 071a 02       		.uleb128 0x2
 3416 071b 91       		.byte	0x91
 3417 071c 58       		.sleb128 -40
 3418 071d 00       		.byte	0
 3419 071e 00       		.byte	0
 3420 071f 14       		.uleb128 0x14
 3421 0720 8C000000 		.4byte	.LBB101
 3422 0724 46000000 		.4byte	.LBE101-.LBB101
 3423 0728 19       		.uleb128 0x19
 3424 0729 99060000 		.4byte	.LASF70
 3425 072d 01       		.byte	0x1
 3426 072e 6D02     		.2byte	0x26d
 3427 0730 E8000000 		.4byte	0xe8
 3428 0734 02       		.uleb128 0x2
 3429 0735 91       		.byte	0x91
 3430 0736 60       		.sleb128 -32
 3431 0737 1E       		.uleb128 0x1e
 3432 0738 0F020000 		.4byte	0x20f
 3433 073c 8C000000 		.4byte	.LBB102
 3434 0740 1A000000 		.4byte	.LBE102-.LBB102
 3435 0744 01       		.byte	0x1
 3436 0745 6D02     		.2byte	0x26d
 3437 0747 66070000 		.4byte	0x766
 3438 074b 14       		.uleb128 0x14
 3439 074c 8C000000 		.4byte	.LBB103
 3440 0750 1A000000 		.4byte	.LBE103-.LBB103
 3441 0754 15       		.uleb128 0x15
 3442 0755 1F020000 		.4byte	0x21f
 3443 0759 02       		.uleb128 0x2
 3444 075a 91       		.byte	0x91
 3445 075b 5C       		.sleb128 -36
 3446 075c 15       		.uleb128 0x15
 3447 075d 2A020000 		.4byte	0x22a
 3448 0761 02       		.uleb128 0x2
 3449 0762 91       		.byte	0x91
 3450 0763 50       		.sleb128 -48
 3451 0764 00       		.byte	0
 3452 0765 00       		.byte	0
 3453 0766 1A       		.uleb128 0x1a
 3454 0767 36020000 		.4byte	0x236
 3455 076b CC000000 		.4byte	.LBB104
 3456 076f 06000000 		.4byte	.LBE104-.LBB104
 3457 0773 01       		.byte	0x1
 3458 0774 6D02     		.2byte	0x26d
 3459 0776 20       		.uleb128 0x20
 3460 0777 42020000 		.4byte	0x242
 3461 077b 02       		.uleb128 0x2
 3462 077c 91       		.byte	0x91
 3463 077d 64       		.sleb128 -28
ARM GAS  C:\Users\stijn\AppData\Local\Temp\cccniDcZ.s 			page 86


 3464 077e 00       		.byte	0
 3465 077f 00       		.byte	0
 3466 0780 00       		.byte	0
 3467 0781 06       		.uleb128 0x6
 3468 0782 04       		.byte	0x4
 3469 0783 DD000000 		.4byte	0xdd
 3470 0787 1C       		.uleb128 0x1c
 3471 0788 81070000 		.4byte	0x781
 3472 078c 21       		.uleb128 0x21
 3473 078d A2030000 		.4byte	.LASF79
 3474 0791 01       		.byte	0x1
 3475 0792 7F02     		.2byte	0x27f
 3476 0794 AD000000 		.4byte	0xad
 3477 0798 00000000 		.4byte	.LFB144
 3478 079c 7A000000 		.4byte	.LFE144-.LFB144
 3479 07a0 01       		.uleb128 0x1
 3480 07a1 9C       		.byte	0x9c
 3481 07a2 10080000 		.4byte	0x810
 3482 07a6 18       		.uleb128 0x18
 3483 07a7 93030000 		.4byte	.LASF53
 3484 07ab 01       		.byte	0x1
 3485 07ac 7F02     		.2byte	0x27f
 3486 07ae C0030000 		.4byte	0x3c0
 3487 07b2 02       		.uleb128 0x2
 3488 07b3 91       		.byte	0x91
 3489 07b4 6C       		.sleb128 -20
 3490 07b5 18       		.uleb128 0x18
 3491 07b6 7F000000 		.4byte	.LASF63
 3492 07ba 01       		.byte	0x1
 3493 07bb 8002     		.2byte	0x280
 3494 07bd 38060000 		.4byte	0x638
 3495 07c1 02       		.uleb128 0x2
 3496 07c2 91       		.byte	0x91
 3497 07c3 68       		.sleb128 -24
 3498 07c4 18       		.uleb128 0x18
 3499 07c5 2D010000 		.4byte	.LASF64
 3500 07c9 01       		.byte	0x1
 3501 07ca 8102     		.2byte	0x281
 3502 07cc AD000000 		.4byte	0xad
 3503 07d0 02       		.uleb128 0x2
 3504 07d1 91       		.byte	0x91
 3505 07d2 64       		.sleb128 -28
 3506 07d3 18       		.uleb128 0x18
 3507 07d4 E3050000 		.4byte	.LASF60
 3508 07d8 01       		.byte	0x1
 3509 07d9 8202     		.2byte	0x282
 3510 07db AD000000 		.4byte	0xad
 3511 07df 02       		.uleb128 0x2
 3512 07e0 91       		.byte	0x91
 3513 07e1 60       		.sleb128 -32
 3514 07e2 18       		.uleb128 0x18
 3515 07e3 FF020000 		.4byte	.LASF66
 3516 07e7 01       		.byte	0x1
 3517 07e8 8302     		.2byte	0x283
 3518 07ea AD000000 		.4byte	0xad
 3519 07ee 02       		.uleb128 0x2
 3520 07ef 91       		.byte	0x91
ARM GAS  C:\Users\stijn\AppData\Local\Temp\cccniDcZ.s 			page 87


 3521 07f0 00       		.sleb128 0
 3522 07f1 19       		.uleb128 0x19
 3523 07f2 00000000 		.4byte	.LASF71
 3524 07f6 01       		.byte	0x1
 3525 07f7 8502     		.2byte	0x285
 3526 07f9 DD000000 		.4byte	0xdd
 3527 07fd 02       		.uleb128 0x2
 3528 07fe 91       		.byte	0x91
 3529 07ff 74       		.sleb128 -12
 3530 0800 19       		.uleb128 0x19
 3531 0801 C4060000 		.4byte	.LASF56
 3532 0805 01       		.byte	0x1
 3533 0806 8602     		.2byte	0x286
 3534 0808 AD000000 		.4byte	0xad
 3535 080c 02       		.uleb128 0x2
 3536 080d 91       		.byte	0x91
 3537 080e 70       		.sleb128 -16
 3538 080f 00       		.byte	0
 3539 0810 1B       		.uleb128 0x1b
 3540 0811 6A000000 		.4byte	.LASF72
 3541 0815 01       		.byte	0x1
 3542 0816 B302     		.2byte	0x2b3
 3543 0818 AD000000 		.4byte	0xad
 3544 081c 00000000 		.4byte	.LFB145
 3545 0820 26010000 		.4byte	.LFE145-.LFB145
 3546 0824 01       		.uleb128 0x1
 3547 0825 9C       		.byte	0x9c
 3548 0826 14090000 		.4byte	0x914
 3549 082a 18       		.uleb128 0x18
 3550 082b 71020000 		.4byte	.LASF51
 3551 082f 01       		.byte	0x1
 3552 0830 B302     		.2byte	0x2b3
 3553 0832 6A010000 		.4byte	0x16a
 3554 0836 02       		.uleb128 0x2
 3555 0837 91       		.byte	0x91
 3556 0838 54       		.sleb128 -44
 3557 0839 18       		.uleb128 0x18
 3558 083a D4030000 		.4byte	.LASF73
 3559 083e 01       		.byte	0x1
 3560 083f B402     		.2byte	0x2b4
 3561 0841 C6000000 		.4byte	0xc6
 3562 0845 02       		.uleb128 0x2
 3563 0846 91       		.byte	0x91
 3564 0847 50       		.sleb128 -48
 3565 0848 18       		.uleb128 0x18
 3566 0849 0D000000 		.4byte	.LASF74
 3567 084d 01       		.byte	0x1
 3568 084e B502     		.2byte	0x2b5
 3569 0850 AD000000 		.4byte	0xad
 3570 0854 02       		.uleb128 0x2
 3571 0855 91       		.byte	0x91
 3572 0856 4C       		.sleb128 -52
 3573 0857 18       		.uleb128 0x18
 3574 0858 E4020000 		.4byte	.LASF65
 3575 085c 01       		.byte	0x1
 3576 085d B602     		.2byte	0x2b6
 3577 085f F3000000 		.4byte	0xf3
ARM GAS  C:\Users\stijn\AppData\Local\Temp\cccniDcZ.s 			page 88


 3578 0863 02       		.uleb128 0x2
 3579 0864 91       		.byte	0x91
 3580 0865 48       		.sleb128 -56
 3581 0866 19       		.uleb128 0x19
 3582 0867 93030000 		.4byte	.LASF53
 3583 086b 01       		.byte	0x1
 3584 086c B802     		.2byte	0x2b8
 3585 086e C0030000 		.4byte	0x3c0
 3586 0872 02       		.uleb128 0x2
 3587 0873 91       		.byte	0x91
 3588 0874 68       		.sleb128 -24
 3589 0875 19       		.uleb128 0x19
 3590 0876 32020000 		.4byte	.LASF75
 3591 087a 01       		.byte	0x1
 3592 087b B902     		.2byte	0x2b9
 3593 087d AD000000 		.4byte	0xad
 3594 0881 02       		.uleb128 0x2
 3595 0882 91       		.byte	0x91
 3596 0883 74       		.sleb128 -12
 3597 0884 19       		.uleb128 0x19
 3598 0885 F5000000 		.4byte	.LASF76
 3599 0889 01       		.byte	0x1
 3600 088a B902     		.2byte	0x2b9
 3601 088c AD000000 		.4byte	0xad
 3602 0890 02       		.uleb128 0x2
 3603 0891 91       		.byte	0x91
 3604 0892 70       		.sleb128 -16
 3605 0893 19       		.uleb128 0x19
 3606 0894 06060000 		.4byte	.LASF77
 3607 0898 01       		.byte	0x1
 3608 0899 B902     		.2byte	0x2b9
 3609 089b AD000000 		.4byte	0xad
 3610 089f 02       		.uleb128 0x2
 3611 08a0 91       		.byte	0x91
 3612 08a1 6C       		.sleb128 -20
 3613 08a2 1E       		.uleb128 0x1e
 3614 08a3 F7010000 		.4byte	0x1f7
 3615 08a7 1C000000 		.4byte	.LBB106
 3616 08ab 12000000 		.4byte	.LBE106-.LBB106
 3617 08af 01       		.byte	0x1
 3618 08b0 BB02     		.2byte	0x2bb
 3619 08b2 C9080000 		.4byte	0x8c9
 3620 08b6 14       		.uleb128 0x14
 3621 08b7 1C000000 		.4byte	.LBB107
 3622 08bb 12000000 		.4byte	.LBE107-.LBB107
 3623 08bf 15       		.uleb128 0x15
 3624 08c0 03020000 		.4byte	0x203
 3625 08c4 02       		.uleb128 0x2
 3626 08c5 91       		.byte	0x91
 3627 08c6 5C       		.sleb128 -36
 3628 08c7 00       		.byte	0
 3629 08c8 00       		.byte	0
 3630 08c9 1E       		.uleb128 0x1e
 3631 08ca F7010000 		.4byte	0x1f7
 3632 08ce 36000000 		.4byte	.LBB108
 3633 08d2 12000000 		.4byte	.LBE108-.LBB108
 3634 08d6 01       		.byte	0x1
ARM GAS  C:\Users\stijn\AppData\Local\Temp\cccniDcZ.s 			page 89


 3635 08d7 BC02     		.2byte	0x2bc
 3636 08d9 F0080000 		.4byte	0x8f0
 3637 08dd 14       		.uleb128 0x14
 3638 08de 36000000 		.4byte	.LBB109
 3639 08e2 12000000 		.4byte	.LBE109-.LBB109
 3640 08e6 15       		.uleb128 0x15
 3641 08e7 03020000 		.4byte	0x203
 3642 08eb 02       		.uleb128 0x2
 3643 08ec 91       		.byte	0x91
 3644 08ed 60       		.sleb128 -32
 3645 08ee 00       		.byte	0
 3646 08ef 00       		.byte	0
 3647 08f0 1A       		.uleb128 0x1a
 3648 08f1 F7010000 		.4byte	0x1f7
 3649 08f5 88000000 		.4byte	.LBB110
 3650 08f9 12000000 		.4byte	.LBE110-.LBB110
 3651 08fd 01       		.byte	0x1
 3652 08fe DF02     		.2byte	0x2df
 3653 0900 14       		.uleb128 0x14
 3654 0901 88000000 		.4byte	.LBB111
 3655 0905 12000000 		.4byte	.LBE111-.LBB111
 3656 0909 15       		.uleb128 0x15
 3657 090a 03020000 		.4byte	0x203
 3658 090e 02       		.uleb128 0x2
 3659 090f 91       		.byte	0x91
 3660 0910 64       		.sleb128 -28
 3661 0911 00       		.byte	0
 3662 0912 00       		.byte	0
 3663 0913 00       		.byte	0
 3664 0914 1B       		.uleb128 0x1b
 3665 0915 0E030000 		.4byte	.LASF78
 3666 0919 01       		.byte	0x1
 3667 091a 1B03     		.2byte	0x31b
 3668 091c AD000000 		.4byte	0xad
 3669 0920 00000000 		.4byte	.LFB146
 3670 0924 D8000000 		.4byte	.LFE146-.LFB146
 3671 0928 01       		.uleb128 0x1
 3672 0929 9C       		.byte	0x9c
 3673 092a 560A0000 		.4byte	0xa56
 3674 092e 18       		.uleb128 0x18
 3675 092f 71020000 		.4byte	.LASF51
 3676 0933 01       		.byte	0x1
 3677 0934 1B03     		.2byte	0x31b
 3678 0936 6A010000 		.4byte	0x16a
 3679 093a 02       		.uleb128 0x2
 3680 093b 91       		.byte	0x91
 3681 093c 4C       		.sleb128 -52
 3682 093d 18       		.uleb128 0x18
 3683 093e D4030000 		.4byte	.LASF73
 3684 0942 01       		.byte	0x1
 3685 0943 1C03     		.2byte	0x31c
 3686 0945 C6000000 		.4byte	0xc6
 3687 0949 02       		.uleb128 0x2
 3688 094a 91       		.byte	0x91
 3689 094b 48       		.sleb128 -56
 3690 094c 18       		.uleb128 0x18
 3691 094d 0D000000 		.4byte	.LASF74
ARM GAS  C:\Users\stijn\AppData\Local\Temp\cccniDcZ.s 			page 90


 3692 0951 01       		.byte	0x1
 3693 0952 1D03     		.2byte	0x31d
 3694 0954 AD000000 		.4byte	0xad
 3695 0958 02       		.uleb128 0x2
 3696 0959 91       		.byte	0x91
 3697 095a 44       		.sleb128 -60
 3698 095b 18       		.uleb128 0x18
 3699 095c BA030000 		.4byte	.LASF69
 3700 0960 01       		.byte	0x1
 3701 0961 1E03     		.2byte	0x31e
 3702 0963 87070000 		.4byte	0x787
 3703 0967 02       		.uleb128 0x2
 3704 0968 91       		.byte	0x91
 3705 0969 40       		.sleb128 -64
 3706 096a 19       		.uleb128 0x19
 3707 096b 93030000 		.4byte	.LASF53
 3708 096f 01       		.byte	0x1
 3709 0970 2003     		.2byte	0x320
 3710 0972 C0030000 		.4byte	0x3c0
 3711 0976 02       		.uleb128 0x2
 3712 0977 91       		.byte	0x91
 3713 0978 6C       		.sleb128 -20
 3714 0979 19       		.uleb128 0x19
 3715 097a 32020000 		.4byte	.LASF75
 3716 097e 01       		.byte	0x1
 3717 097f 2103     		.2byte	0x321
 3718 0981 AD000000 		.4byte	0xad
 3719 0985 02       		.uleb128 0x2
 3720 0986 91       		.byte	0x91
 3721 0987 74       		.sleb128 -12
 3722 0988 19       		.uleb128 0x19
 3723 0989 F5000000 		.4byte	.LASF76
 3724 098d 01       		.byte	0x1
 3725 098e 2103     		.2byte	0x321
 3726 0990 AD000000 		.4byte	0xad
 3727 0994 02       		.uleb128 0x2
 3728 0995 91       		.byte	0x91
 3729 0996 68       		.sleb128 -24
 3730 0997 19       		.uleb128 0x19
 3731 0998 06060000 		.4byte	.LASF77
 3732 099c 01       		.byte	0x1
 3733 099d 2103     		.2byte	0x321
 3734 099f AD000000 		.4byte	0xad
 3735 09a3 02       		.uleb128 0x2
 3736 09a4 91       		.byte	0x91
 3737 09a5 70       		.sleb128 -16
 3738 09a6 1E       		.uleb128 0x1e
 3739 09a7 F7010000 		.4byte	0x1f7
 3740 09ab 1C000000 		.4byte	.LBB112
 3741 09af 12000000 		.4byte	.LBE112-.LBB112
 3742 09b3 01       		.byte	0x1
 3743 09b4 2303     		.2byte	0x323
 3744 09b6 CD090000 		.4byte	0x9cd
 3745 09ba 14       		.uleb128 0x14
 3746 09bb 1C000000 		.4byte	.LBB113
 3747 09bf 12000000 		.4byte	.LBE113-.LBB113
 3748 09c3 15       		.uleb128 0x15
ARM GAS  C:\Users\stijn\AppData\Local\Temp\cccniDcZ.s 			page 91


 3749 09c4 03020000 		.4byte	0x203
 3750 09c8 02       		.uleb128 0x2
 3751 09c9 91       		.byte	0x91
 3752 09ca 54       		.sleb128 -44
 3753 09cb 00       		.byte	0
 3754 09cc 00       		.byte	0
 3755 09cd 1E       		.uleb128 0x1e
 3756 09ce F7010000 		.4byte	0x1f7
 3757 09d2 36000000 		.4byte	.LBB114
 3758 09d6 12000000 		.4byte	.LBE114-.LBB114
 3759 09da 01       		.byte	0x1
 3760 09db 2403     		.2byte	0x324
 3761 09dd F4090000 		.4byte	0x9f4
 3762 09e1 14       		.uleb128 0x14
 3763 09e2 36000000 		.4byte	.LBB115
 3764 09e6 12000000 		.4byte	.LBE115-.LBB115
 3765 09ea 15       		.uleb128 0x15
 3766 09eb 03020000 		.4byte	0x203
 3767 09ef 02       		.uleb128 0x2
 3768 09f0 91       		.byte	0x91
 3769 09f1 58       		.sleb128 -40
 3770 09f2 00       		.byte	0
 3771 09f3 00       		.byte	0
 3772 09f4 14       		.uleb128 0x14
 3773 09f5 88000000 		.4byte	.LBB116
 3774 09f9 46000000 		.4byte	.LBE116-.LBB116
 3775 09fd 19       		.uleb128 0x19
 3776 09fe 99060000 		.4byte	.LASF70
 3777 0a02 01       		.byte	0x1
 3778 0a03 4203     		.2byte	0x342
 3779 0a05 E8000000 		.4byte	0xe8
 3780 0a09 02       		.uleb128 0x2
 3781 0a0a 91       		.byte	0x91
 3782 0a0b 60       		.sleb128 -32
 3783 0a0c 1E       		.uleb128 0x1e
 3784 0a0d 0F020000 		.4byte	0x20f
 3785 0a11 88000000 		.4byte	.LBB117
 3786 0a15 1A000000 		.4byte	.LBE117-.LBB117
 3787 0a19 01       		.byte	0x1
 3788 0a1a 4203     		.2byte	0x342
 3789 0a1c 3B0A0000 		.4byte	0xa3b
 3790 0a20 14       		.uleb128 0x14
 3791 0a21 88000000 		.4byte	.LBB118
 3792 0a25 1A000000 		.4byte	.LBE118-.LBB118
 3793 0a29 15       		.uleb128 0x15
 3794 0a2a 1F020000 		.4byte	0x21f
 3795 0a2e 02       		.uleb128 0x2
 3796 0a2f 91       		.byte	0x91
 3797 0a30 5C       		.sleb128 -36
 3798 0a31 15       		.uleb128 0x15
 3799 0a32 2A020000 		.4byte	0x22a
 3800 0a36 02       		.uleb128 0x2
 3801 0a37 91       		.byte	0x91
 3802 0a38 50       		.sleb128 -48
 3803 0a39 00       		.byte	0
 3804 0a3a 00       		.byte	0
 3805 0a3b 1A       		.uleb128 0x1a
ARM GAS  C:\Users\stijn\AppData\Local\Temp\cccniDcZ.s 			page 92


 3806 0a3c 36020000 		.4byte	0x236
 3807 0a40 C8000000 		.4byte	.LBB119
 3808 0a44 06000000 		.4byte	.LBE119-.LBB119
 3809 0a48 01       		.byte	0x1
 3810 0a49 4203     		.2byte	0x342
 3811 0a4b 20       		.uleb128 0x20
 3812 0a4c 42020000 		.4byte	0x242
 3813 0a50 02       		.uleb128 0x2
 3814 0a51 91       		.byte	0x91
 3815 0a52 64       		.sleb128 -28
 3816 0a53 00       		.byte	0
 3817 0a54 00       		.byte	0
 3818 0a55 00       		.byte	0
 3819 0a56 21       		.uleb128 0x21
 3820 0a57 19020000 		.4byte	.LASF80
 3821 0a5b 01       		.byte	0x1
 3822 0a5c 5403     		.2byte	0x354
 3823 0a5e AD000000 		.4byte	0xad
 3824 0a62 00000000 		.4byte	.LFB147
 3825 0a66 60000000 		.4byte	.LFE147-.LFB147
 3826 0a6a 01       		.uleb128 0x1
 3827 0a6b 9C       		.byte	0x9c
 3828 0a6c E90A0000 		.4byte	0xae9
 3829 0a70 18       		.uleb128 0x18
 3830 0a71 93030000 		.4byte	.LASF53
 3831 0a75 01       		.byte	0x1
 3832 0a76 5403     		.2byte	0x354
 3833 0a78 40030000 		.4byte	0x340
 3834 0a7c 02       		.uleb128 0x2
 3835 0a7d 91       		.byte	0x91
 3836 0a7e 64       		.sleb128 -28
 3837 0a7f 18       		.uleb128 0x18
 3838 0a80 D4030000 		.4byte	.LASF73
 3839 0a84 01       		.byte	0x1
 3840 0a85 5503     		.2byte	0x355
 3841 0a87 C6000000 		.4byte	0xc6
 3842 0a8b 02       		.uleb128 0x2
 3843 0a8c 91       		.byte	0x91
 3844 0a8d 60       		.sleb128 -32
 3845 0a8e 18       		.uleb128 0x18
 3846 0a8f 0D000000 		.4byte	.LASF74
 3847 0a93 01       		.byte	0x1
 3848 0a94 5603     		.2byte	0x356
 3849 0a96 AD000000 		.4byte	0xad
 3850 0a9a 02       		.uleb128 0x2
 3851 0a9b 91       		.byte	0x91
 3852 0a9c 5C       		.sleb128 -36
 3853 0a9d 18       		.uleb128 0x18
 3854 0a9e F5000000 		.4byte	.LASF76
 3855 0aa2 01       		.byte	0x1
 3856 0aa3 5703     		.2byte	0x357
 3857 0aa5 AD000000 		.4byte	0xad
 3858 0aa9 02       		.uleb128 0x2
 3859 0aaa 91       		.byte	0x91
 3860 0aab 58       		.sleb128 -40
 3861 0aac 18       		.uleb128 0x18
 3862 0aad 06060000 		.4byte	.LASF77
ARM GAS  C:\Users\stijn\AppData\Local\Temp\cccniDcZ.s 			page 93


 3863 0ab1 01       		.byte	0x1
 3864 0ab2 5803     		.2byte	0x358
 3865 0ab4 AD000000 		.4byte	0xad
 3866 0ab8 02       		.uleb128 0x2
 3867 0ab9 91       		.byte	0x91
 3868 0aba 00       		.sleb128 0
 3869 0abb 19       		.uleb128 0x19
 3870 0abc 10070000 		.4byte	.LASF81
 3871 0ac0 01       		.byte	0x1
 3872 0ac1 5A03     		.2byte	0x35a
 3873 0ac3 AD000000 		.4byte	0xad
 3874 0ac7 02       		.uleb128 0x2
 3875 0ac8 91       		.byte	0x91
 3876 0ac9 74       		.sleb128 -12
 3877 0aca 19       		.uleb128 0x19
 3878 0acb 32020000 		.4byte	.LASF75
 3879 0acf 01       		.byte	0x1
 3880 0ad0 5A03     		.2byte	0x35a
 3881 0ad2 AD000000 		.4byte	0xad
 3882 0ad6 02       		.uleb128 0x2
 3883 0ad7 91       		.byte	0x91
 3884 0ad8 70       		.sleb128 -16
 3885 0ad9 19       		.uleb128 0x19
 3886 0ada 05010000 		.4byte	.LASF82
 3887 0ade 01       		.byte	0x1
 3888 0adf 5A03     		.2byte	0x35a
 3889 0ae1 AD000000 		.4byte	0xad
 3890 0ae5 02       		.uleb128 0x2
 3891 0ae6 91       		.byte	0x91
 3892 0ae7 6C       		.sleb128 -20
 3893 0ae8 00       		.byte	0
 3894 0ae9 1D       		.uleb128 0x1d
 3895 0aea 61030000 		.4byte	.LASF83
 3896 0aee 01       		.byte	0x1
 3897 0aef 8603     		.2byte	0x386
 3898 0af1 DD000000 		.4byte	0xdd
 3899 0af5 00000000 		.4byte	.LFB148
 3900 0af9 4E000000 		.4byte	.LFE148-.LFB148
 3901 0afd 01       		.uleb128 0x1
 3902 0afe 9C       		.byte	0x9c
 3903 0aff 630B0000 		.4byte	0xb63
 3904 0b03 18       		.uleb128 0x18
 3905 0b04 71020000 		.4byte	.LASF51
 3906 0b08 01       		.byte	0x1
 3907 0b09 8603     		.2byte	0x386
 3908 0b0b 6A010000 		.4byte	0x16a
 3909 0b0f 02       		.uleb128 0x2
 3910 0b10 91       		.byte	0x91
 3911 0b11 64       		.sleb128 -28
 3912 0b12 19       		.uleb128 0x19
 3913 0b13 93030000 		.4byte	.LASF53
 3914 0b17 01       		.byte	0x1
 3915 0b18 8803     		.2byte	0x388
 3916 0b1a B5040000 		.4byte	0x4b5
 3917 0b1e 02       		.uleb128 0x2
 3918 0b1f 91       		.byte	0x91
 3919 0b20 70       		.sleb128 -16
ARM GAS  C:\Users\stijn\AppData\Local\Temp\cccniDcZ.s 			page 94


 3920 0b21 19       		.uleb128 0x19
 3921 0b22 C4060000 		.4byte	.LASF56
 3922 0b26 01       		.byte	0x1
 3923 0b27 8903     		.2byte	0x389
 3924 0b29 DD000000 		.4byte	0xdd
 3925 0b2d 02       		.uleb128 0x2
 3926 0b2e 91       		.byte	0x91
 3927 0b2f 74       		.sleb128 -12
 3928 0b30 19       		.uleb128 0x19
 3929 0b31 36050000 		.4byte	.LASF36
 3930 0b35 01       		.byte	0x1
 3931 0b36 8A03     		.2byte	0x38a
 3932 0b38 AD000000 		.4byte	0xad
 3933 0b3c 02       		.uleb128 0x2
 3934 0b3d 91       		.byte	0x91
 3935 0b3e 6C       		.sleb128 -20
 3936 0b3f 1A       		.uleb128 0x1a
 3937 0b40 F7010000 		.4byte	0x1f7
 3938 0b44 12000000 		.4byte	.LBB121
 3939 0b48 12000000 		.4byte	.LBE121-.LBB121
 3940 0b4c 01       		.byte	0x1
 3941 0b4d 8C03     		.2byte	0x38c
 3942 0b4f 14       		.uleb128 0x14
 3943 0b50 12000000 		.4byte	.LBB122
 3944 0b54 12000000 		.4byte	.LBE122-.LBB122
 3945 0b58 15       		.uleb128 0x15
 3946 0b59 03020000 		.4byte	0x203
 3947 0b5d 02       		.uleb128 0x2
 3948 0b5e 91       		.byte	0x91
 3949 0b5f 68       		.sleb128 -24
 3950 0b60 00       		.byte	0
 3951 0b61 00       		.byte	0
 3952 0b62 00       		.byte	0
 3953 0b63 1B       		.uleb128 0x1b
 3954 0b64 B0060000 		.4byte	.LASF84
 3955 0b68 01       		.byte	0x1
 3956 0b69 9D03     		.2byte	0x39d
 3957 0b6b DD000000 		.4byte	0xdd
 3958 0b6f 00000000 		.4byte	.LFB149
 3959 0b73 5E000000 		.4byte	.LFE149-.LFB149
 3960 0b77 01       		.uleb128 0x1
 3961 0b78 9C       		.byte	0x9c
 3962 0b79 DD0B0000 		.4byte	0xbdd
 3963 0b7d 18       		.uleb128 0x18
 3964 0b7e 71020000 		.4byte	.LASF51
 3965 0b82 01       		.byte	0x1
 3966 0b83 9D03     		.2byte	0x39d
 3967 0b85 6A010000 		.4byte	0x16a
 3968 0b89 02       		.uleb128 0x2
 3969 0b8a 91       		.byte	0x91
 3970 0b8b 64       		.sleb128 -28
 3971 0b8c 19       		.uleb128 0x19
 3972 0b8d C4060000 		.4byte	.LASF56
 3973 0b91 01       		.byte	0x1
 3974 0b92 9F03     		.2byte	0x39f
 3975 0b94 DD000000 		.4byte	0xdd
 3976 0b98 02       		.uleb128 0x2
ARM GAS  C:\Users\stijn\AppData\Local\Temp\cccniDcZ.s 			page 95


 3977 0b99 91       		.byte	0x91
 3978 0b9a 74       		.sleb128 -12
 3979 0b9b 19       		.uleb128 0x19
 3980 0b9c 06060000 		.4byte	.LASF77
 3981 0ba0 01       		.byte	0x1
 3982 0ba1 A003     		.2byte	0x3a0
 3983 0ba3 AD000000 		.4byte	0xad
 3984 0ba7 02       		.uleb128 0x2
 3985 0ba8 91       		.byte	0x91
 3986 0ba9 70       		.sleb128 -16
 3987 0baa 19       		.uleb128 0x19
 3988 0bab 93030000 		.4byte	.LASF53
 3989 0baf 01       		.byte	0x1
 3990 0bb0 A103     		.2byte	0x3a1
 3991 0bb2 B5040000 		.4byte	0x4b5
 3992 0bb6 02       		.uleb128 0x2
 3993 0bb7 91       		.byte	0x91
 3994 0bb8 6C       		.sleb128 -20
 3995 0bb9 1A       		.uleb128 0x1a
 3996 0bba F7010000 		.4byte	0x1f7
 3997 0bbe 12000000 		.4byte	.LBB123
 3998 0bc2 12000000 		.4byte	.LBE123-.LBB123
 3999 0bc6 01       		.byte	0x1
 4000 0bc7 A303     		.2byte	0x3a3
 4001 0bc9 14       		.uleb128 0x14
 4002 0bca 12000000 		.4byte	.LBB124
 4003 0bce 12000000 		.4byte	.LBE124-.LBB124
 4004 0bd2 15       		.uleb128 0x15
 4005 0bd3 03020000 		.4byte	0x203
 4006 0bd7 02       		.uleb128 0x2
 4007 0bd8 91       		.byte	0x91
 4008 0bd9 68       		.sleb128 -24
 4009 0bda 00       		.byte	0
 4010 0bdb 00       		.byte	0
 4011 0bdc 00       		.byte	0
 4012 0bdd 1B       		.uleb128 0x1b
 4013 0bde CC060000 		.4byte	.LASF85
 4014 0be2 01       		.byte	0x1
 4015 0be3 C003     		.2byte	0x3c0
 4016 0be5 DD000000 		.4byte	0xdd
 4017 0be9 00000000 		.4byte	.LFB150
 4018 0bed 82000000 		.4byte	.LFE150-.LFB150
 4019 0bf1 01       		.uleb128 0x1
 4020 0bf2 9C       		.byte	0x9c
 4021 0bf3 B20C0000 		.4byte	0xcb2
 4022 0bf7 18       		.uleb128 0x18
 4023 0bf8 71020000 		.4byte	.LASF51
 4024 0bfc 01       		.byte	0x1
 4025 0bfd C003     		.2byte	0x3c0
 4026 0bff 6A010000 		.4byte	0x16a
 4027 0c03 02       		.uleb128 0x2
 4028 0c04 91       		.byte	0x91
 4029 0c05 54       		.sleb128 -44
 4030 0c06 18       		.uleb128 0x18
 4031 0c07 BA030000 		.4byte	.LASF69
 4032 0c0b 01       		.byte	0x1
 4033 0c0c C003     		.2byte	0x3c0
ARM GAS  C:\Users\stijn\AppData\Local\Temp\cccniDcZ.s 			page 96


 4034 0c0e 81070000 		.4byte	0x781
 4035 0c12 02       		.uleb128 0x2
 4036 0c13 91       		.byte	0x91
 4037 0c14 50       		.sleb128 -48
 4038 0c15 19       		.uleb128 0x19
 4039 0c16 93030000 		.4byte	.LASF53
 4040 0c1a 01       		.byte	0x1
 4041 0c1b C203     		.2byte	0x3c2
 4042 0c1d C0030000 		.4byte	0x3c0
 4043 0c21 02       		.uleb128 0x2
 4044 0c22 91       		.byte	0x91
 4045 0c23 70       		.sleb128 -16
 4046 0c24 19       		.uleb128 0x19
 4047 0c25 C4060000 		.4byte	.LASF56
 4048 0c29 01       		.byte	0x1
 4049 0c2a C303     		.2byte	0x3c3
 4050 0c2c DD000000 		.4byte	0xdd
 4051 0c30 02       		.uleb128 0x2
 4052 0c31 91       		.byte	0x91
 4053 0c32 74       		.sleb128 -12
 4054 0c33 19       		.uleb128 0x19
 4055 0c34 99060000 		.4byte	.LASF70
 4056 0c38 01       		.byte	0x1
 4057 0c39 C403     		.2byte	0x3c4
 4058 0c3b E8000000 		.4byte	0xe8
 4059 0c3f 02       		.uleb128 0x2
 4060 0c40 91       		.byte	0x91
 4061 0c41 68       		.sleb128 -24
 4062 0c42 1E       		.uleb128 0x1e
 4063 0c43 F7010000 		.4byte	0x1f7
 4064 0c47 14000000 		.4byte	.LBB125
 4065 0c4b 12000000 		.4byte	.LBE125-.LBB125
 4066 0c4f 01       		.byte	0x1
 4067 0c50 C603     		.2byte	0x3c6
 4068 0c52 690C0000 		.4byte	0xc69
 4069 0c56 14       		.uleb128 0x14
 4070 0c57 14000000 		.4byte	.LBB126
 4071 0c5b 12000000 		.4byte	.LBE126-.LBB126
 4072 0c5f 15       		.uleb128 0x15
 4073 0c60 03020000 		.4byte	0x203
 4074 0c64 02       		.uleb128 0x2
 4075 0c65 91       		.byte	0x91
 4076 0c66 60       		.sleb128 -32
 4077 0c67 00       		.byte	0
 4078 0c68 00       		.byte	0
 4079 0c69 1E       		.uleb128 0x1e
 4080 0c6a 0F020000 		.4byte	0x20f
 4081 0c6e 28000000 		.4byte	.LBB127
 4082 0c72 1A000000 		.4byte	.LBE127-.LBB127
 4083 0c76 01       		.byte	0x1
 4084 0c77 C803     		.2byte	0x3c8
 4085 0c79 980C0000 		.4byte	0xc98
 4086 0c7d 14       		.uleb128 0x14
 4087 0c7e 28000000 		.4byte	.LBB128
 4088 0c82 1A000000 		.4byte	.LBE128-.LBB128
 4089 0c86 15       		.uleb128 0x15
 4090 0c87 1F020000 		.4byte	0x21f
ARM GAS  C:\Users\stijn\AppData\Local\Temp\cccniDcZ.s 			page 97


 4091 0c8b 02       		.uleb128 0x2
 4092 0c8c 91       		.byte	0x91
 4093 0c8d 64       		.sleb128 -28
 4094 0c8e 15       		.uleb128 0x15
 4095 0c8f 2A020000 		.4byte	0x22a
 4096 0c93 02       		.uleb128 0x2
 4097 0c94 91       		.byte	0x91
 4098 0c95 5C       		.sleb128 -36
 4099 0c96 00       		.byte	0
 4100 0c97 00       		.byte	0
 4101 0c98 1A       		.uleb128 0x1a
 4102 0c99 36020000 		.4byte	0x236
 4103 0c9d 72000000 		.4byte	.LBB129
 4104 0ca1 06000000 		.4byte	.LBE129-.LBB129
 4105 0ca5 01       		.byte	0x1
 4106 0ca6 D803     		.2byte	0x3d8
 4107 0ca8 20       		.uleb128 0x20
 4108 0ca9 42020000 		.4byte	0x242
 4109 0cad 02       		.uleb128 0x2
 4110 0cae 91       		.byte	0x91
 4111 0caf 6C       		.sleb128 -20
 4112 0cb0 00       		.byte	0
 4113 0cb1 00       		.byte	0
 4114 0cb2 1B       		.uleb128 0x1b
 4115 0cb3 D0000000 		.4byte	.LASF86
 4116 0cb7 01       		.byte	0x1
 4117 0cb8 DE03     		.2byte	0x3de
 4118 0cba DD000000 		.4byte	0xdd
 4119 0cbe 00000000 		.4byte	.LFB151
 4120 0cc2 82000000 		.4byte	.LFE151-.LFB151
 4121 0cc6 01       		.uleb128 0x1
 4122 0cc7 9C       		.byte	0x9c
 4123 0cc8 870D0000 		.4byte	0xd87
 4124 0ccc 18       		.uleb128 0x18
 4125 0ccd 71020000 		.4byte	.LASF51
 4126 0cd1 01       		.byte	0x1
 4127 0cd2 DE03     		.2byte	0x3de
 4128 0cd4 6A010000 		.4byte	0x16a
 4129 0cd8 02       		.uleb128 0x2
 4130 0cd9 91       		.byte	0x91
 4131 0cda 54       		.sleb128 -44
 4132 0cdb 18       		.uleb128 0x18
 4133 0cdc BA030000 		.4byte	.LASF69
 4134 0ce0 01       		.byte	0x1
 4135 0ce1 DE03     		.2byte	0x3de
 4136 0ce3 81070000 		.4byte	0x781
 4137 0ce7 02       		.uleb128 0x2
 4138 0ce8 91       		.byte	0x91
 4139 0ce9 50       		.sleb128 -48
 4140 0cea 19       		.uleb128 0x19
 4141 0ceb 93030000 		.4byte	.LASF53
 4142 0cef 01       		.byte	0x1
 4143 0cf0 E003     		.2byte	0x3e0
 4144 0cf2 C0030000 		.4byte	0x3c0
 4145 0cf6 02       		.uleb128 0x2
 4146 0cf7 91       		.byte	0x91
 4147 0cf8 70       		.sleb128 -16
ARM GAS  C:\Users\stijn\AppData\Local\Temp\cccniDcZ.s 			page 98


 4148 0cf9 19       		.uleb128 0x19
 4149 0cfa C4060000 		.4byte	.LASF56
 4150 0cfe 01       		.byte	0x1
 4151 0cff E103     		.2byte	0x3e1
 4152 0d01 DD000000 		.4byte	0xdd
 4153 0d05 02       		.uleb128 0x2
 4154 0d06 91       		.byte	0x91
 4155 0d07 74       		.sleb128 -12
 4156 0d08 19       		.uleb128 0x19
 4157 0d09 99060000 		.4byte	.LASF70
 4158 0d0d 01       		.byte	0x1
 4159 0d0e E203     		.2byte	0x3e2
 4160 0d10 E8000000 		.4byte	0xe8
 4161 0d14 02       		.uleb128 0x2
 4162 0d15 91       		.byte	0x91
 4163 0d16 68       		.sleb128 -24
 4164 0d17 1E       		.uleb128 0x1e
 4165 0d18 F7010000 		.4byte	0x1f7
 4166 0d1c 14000000 		.4byte	.LBB131
 4167 0d20 12000000 		.4byte	.LBE131-.LBB131
 4168 0d24 01       		.byte	0x1
 4169 0d25 E403     		.2byte	0x3e4
 4170 0d27 3E0D0000 		.4byte	0xd3e
 4171 0d2b 14       		.uleb128 0x14
 4172 0d2c 14000000 		.4byte	.LBB132
 4173 0d30 12000000 		.4byte	.LBE132-.LBB132
 4174 0d34 15       		.uleb128 0x15
 4175 0d35 03020000 		.4byte	0x203
 4176 0d39 02       		.uleb128 0x2
 4177 0d3a 91       		.byte	0x91
 4178 0d3b 60       		.sleb128 -32
 4179 0d3c 00       		.byte	0
 4180 0d3d 00       		.byte	0
 4181 0d3e 1E       		.uleb128 0x1e
 4182 0d3f 0F020000 		.4byte	0x20f
 4183 0d43 28000000 		.4byte	.LBB133
 4184 0d47 1A000000 		.4byte	.LBE133-.LBB133
 4185 0d4b 01       		.byte	0x1
 4186 0d4c E603     		.2byte	0x3e6
 4187 0d4e 6D0D0000 		.4byte	0xd6d
 4188 0d52 14       		.uleb128 0x14
 4189 0d53 28000000 		.4byte	.LBB134
 4190 0d57 1A000000 		.4byte	.LBE134-.LBB134
 4191 0d5b 15       		.uleb128 0x15
 4192 0d5c 1F020000 		.4byte	0x21f
 4193 0d60 02       		.uleb128 0x2
 4194 0d61 91       		.byte	0x91
 4195 0d62 64       		.sleb128 -28
 4196 0d63 15       		.uleb128 0x15
 4197 0d64 2A020000 		.4byte	0x22a
 4198 0d68 02       		.uleb128 0x2
 4199 0d69 91       		.byte	0x91
 4200 0d6a 5C       		.sleb128 -36
 4201 0d6b 00       		.byte	0
 4202 0d6c 00       		.byte	0
 4203 0d6d 1A       		.uleb128 0x1a
 4204 0d6e 36020000 		.4byte	0x236
ARM GAS  C:\Users\stijn\AppData\Local\Temp\cccniDcZ.s 			page 99


 4205 0d72 72000000 		.4byte	.LBB135
 4206 0d76 06000000 		.4byte	.LBE135-.LBB135
 4207 0d7a 01       		.byte	0x1
 4208 0d7b F603     		.2byte	0x3f6
 4209 0d7d 20       		.uleb128 0x20
 4210 0d7e 42020000 		.4byte	0x242
 4211 0d82 02       		.uleb128 0x2
 4212 0d83 91       		.byte	0x91
 4213 0d84 6C       		.sleb128 -20
 4214 0d85 00       		.byte	0
 4215 0d86 00       		.byte	0
 4216 0d87 21       		.uleb128 0x21
 4217 0d88 28060000 		.4byte	.LASF87
 4218 0d8c 01       		.byte	0x1
 4219 0d8d FC03     		.2byte	0x3fc
 4220 0d8f AD000000 		.4byte	0xad
 4221 0d93 00000000 		.4byte	.LFB152
 4222 0d97 DE000000 		.4byte	.LFE152-.LFB152
 4223 0d9b 01       		.uleb128 0x1
 4224 0d9c 9C       		.byte	0x9c
 4225 0d9d 5E0E0000 		.4byte	0xe5e
 4226 0da1 18       		.uleb128 0x18
 4227 0da2 93030000 		.4byte	.LASF53
 4228 0da6 01       		.byte	0x1
 4229 0da7 FC03     		.2byte	0x3fc
 4230 0da9 C0030000 		.4byte	0x3c0
 4231 0dad 02       		.uleb128 0x2
 4232 0dae 91       		.byte	0x91
 4233 0daf 5C       		.sleb128 -36
 4234 0db0 18       		.uleb128 0x18
 4235 0db1 64070000 		.4byte	.LASF88
 4236 0db5 01       		.byte	0x1
 4237 0db6 FC03     		.2byte	0x3fc
 4238 0db8 5E0E0000 		.4byte	0xe5e
 4239 0dbc 02       		.uleb128 0x2
 4240 0dbd 91       		.byte	0x91
 4241 0dbe 58       		.sleb128 -40
 4242 0dbf 18       		.uleb128 0x18
 4243 0dc0 45000000 		.4byte	.LASF89
 4244 0dc4 01       		.byte	0x1
 4245 0dc5 FC03     		.2byte	0x3fc
 4246 0dc7 AD000000 		.4byte	0xad
 4247 0dcb 02       		.uleb128 0x2
 4248 0dcc 91       		.byte	0x91
 4249 0dcd 54       		.sleb128 -44
 4250 0dce 19       		.uleb128 0x19
 4251 0dcf 18010000 		.4byte	.LASF90
 4252 0dd3 01       		.byte	0x1
 4253 0dd4 FE03     		.2byte	0x3fe
 4254 0dd6 AD000000 		.4byte	0xad
 4255 0dda 02       		.uleb128 0x2
 4256 0ddb 91       		.byte	0x91
 4257 0ddc 74       		.sleb128 -12
 4258 0ddd 19       		.uleb128 0x19
 4259 0dde 48010000 		.4byte	.LASF91
 4260 0de2 01       		.byte	0x1
 4261 0de3 FE03     		.2byte	0x3fe
ARM GAS  C:\Users\stijn\AppData\Local\Temp\cccniDcZ.s 			page 100


 4262 0de5 AD000000 		.4byte	0xad
 4263 0de9 02       		.uleb128 0x2
 4264 0dea 91       		.byte	0x91
 4265 0deb 70       		.sleb128 -16
 4266 0dec 1E       		.uleb128 0x1e
 4267 0ded F7010000 		.4byte	0x1f7
 4268 0df1 12000000 		.4byte	.LBB137
 4269 0df5 12000000 		.4byte	.LBE137-.LBB137
 4270 0df9 01       		.byte	0x1
 4271 0dfa 0004     		.2byte	0x400
 4272 0dfc 130E0000 		.4byte	0xe13
 4273 0e00 14       		.uleb128 0x14
 4274 0e01 12000000 		.4byte	.LBB138
 4275 0e05 12000000 		.4byte	.LBE138-.LBB138
 4276 0e09 15       		.uleb128 0x15
 4277 0e0a 03020000 		.4byte	0x203
 4278 0e0e 02       		.uleb128 0x2
 4279 0e0f 91       		.byte	0x91
 4280 0e10 64       		.sleb128 -28
 4281 0e11 00       		.byte	0
 4282 0e12 00       		.byte	0
 4283 0e13 1E       		.uleb128 0x1e
 4284 0e14 F7010000 		.4byte	0x1f7
 4285 0e18 4C000000 		.4byte	.LBB139
 4286 0e1c 12000000 		.4byte	.LBE139-.LBB139
 4287 0e20 01       		.byte	0x1
 4288 0e21 0A04     		.2byte	0x40a
 4289 0e23 3A0E0000 		.4byte	0xe3a
 4290 0e27 14       		.uleb128 0x14
 4291 0e28 4C000000 		.4byte	.LBB140
 4292 0e2c 12000000 		.4byte	.LBE140-.LBB140
 4293 0e30 15       		.uleb128 0x15
 4294 0e31 03020000 		.4byte	0x203
 4295 0e35 02       		.uleb128 0x2
 4296 0e36 91       		.byte	0x91
 4297 0e37 68       		.sleb128 -24
 4298 0e38 00       		.byte	0
 4299 0e39 00       		.byte	0
 4300 0e3a 1A       		.uleb128 0x1a
 4301 0e3b F7010000 		.4byte	0x1f7
 4302 0e3f 88000000 		.4byte	.LBB141
 4303 0e43 12000000 		.4byte	.LBE141-.LBB141
 4304 0e47 01       		.byte	0x1
 4305 0e48 1204     		.2byte	0x412
 4306 0e4a 14       		.uleb128 0x14
 4307 0e4b 88000000 		.4byte	.LBB142
 4308 0e4f 12000000 		.4byte	.LBE142-.LBB142
 4309 0e53 15       		.uleb128 0x15
 4310 0e54 03020000 		.4byte	0x203
 4311 0e58 02       		.uleb128 0x2
 4312 0e59 91       		.byte	0x91
 4313 0e5a 6C       		.sleb128 -20
 4314 0e5b 00       		.byte	0
 4315 0e5c 00       		.byte	0
 4316 0e5d 00       		.byte	0
 4317 0e5e 06       		.uleb128 0x6
 4318 0e5f 04       		.byte	0x4
ARM GAS  C:\Users\stijn\AppData\Local\Temp\cccniDcZ.s 			page 101


 4319 0e60 640E0000 		.4byte	0xe64
 4320 0e64 1C       		.uleb128 0x1c
 4321 0e65 8C000000 		.4byte	0x8c
 4322 0e69 21       		.uleb128 0x21
 4323 0e6a AC000000 		.4byte	.LASF92
 4324 0e6e 01       		.byte	0x1
 4325 0e6f 2A04     		.2byte	0x42a
 4326 0e71 AD000000 		.4byte	0xad
 4327 0e75 00000000 		.4byte	.LFB153
 4328 0e79 EE000000 		.4byte	.LFE153-.LFB153
 4329 0e7d 01       		.uleb128 0x1
 4330 0e7e 9C       		.byte	0x9c
 4331 0e7f 5E0F0000 		.4byte	0xf5e
 4332 0e83 18       		.uleb128 0x18
 4333 0e84 93030000 		.4byte	.LASF53
 4334 0e88 01       		.byte	0x1
 4335 0e89 2A04     		.2byte	0x42a
 4336 0e8b 40030000 		.4byte	0x340
 4337 0e8f 02       		.uleb128 0x2
 4338 0e90 91       		.byte	0x91
 4339 0e91 5C       		.sleb128 -36
 4340 0e92 18       		.uleb128 0x18
 4341 0e93 64070000 		.4byte	.LASF88
 4342 0e97 01       		.byte	0x1
 4343 0e98 2A04     		.2byte	0x42a
 4344 0e9a FE000000 		.4byte	0xfe
 4345 0e9e 02       		.uleb128 0x2
 4346 0e9f 91       		.byte	0x91
 4347 0ea0 58       		.sleb128 -40
 4348 0ea1 18       		.uleb128 0x18
 4349 0ea2 EA050000 		.4byte	.LASF93
 4350 0ea6 01       		.byte	0x1
 4351 0ea7 2A04     		.2byte	0x42a
 4352 0ea9 AD000000 		.4byte	0xad
 4353 0ead 02       		.uleb128 0x2
 4354 0eae 91       		.byte	0x91
 4355 0eaf 54       		.sleb128 -44
 4356 0eb0 18       		.uleb128 0x18
 4357 0eb1 F5000000 		.4byte	.LASF76
 4358 0eb5 01       		.byte	0x1
 4359 0eb6 2A04     		.2byte	0x42a
 4360 0eb8 AD000000 		.4byte	0xad
 4361 0ebc 02       		.uleb128 0x2
 4362 0ebd 91       		.byte	0x91
 4363 0ebe 50       		.sleb128 -48
 4364 0ebf 19       		.uleb128 0x19
 4365 0ec0 45000000 		.4byte	.LASF89
 4366 0ec4 01       		.byte	0x1
 4367 0ec5 2C04     		.2byte	0x42c
 4368 0ec7 AD000000 		.4byte	0xad
 4369 0ecb 02       		.uleb128 0x2
 4370 0ecc 91       		.byte	0x91
 4371 0ecd 70       		.sleb128 -16
 4372 0ece 19       		.uleb128 0x19
 4373 0ecf 48010000 		.4byte	.LASF91
 4374 0ed3 01       		.byte	0x1
 4375 0ed4 2C04     		.2byte	0x42c
ARM GAS  C:\Users\stijn\AppData\Local\Temp\cccniDcZ.s 			page 102


 4376 0ed6 AD000000 		.4byte	0xad
 4377 0eda 02       		.uleb128 0x2
 4378 0edb 91       		.byte	0x91
 4379 0edc 6C       		.sleb128 -20
 4380 0edd 19       		.uleb128 0x19
 4381 0ede EE060000 		.4byte	.LASF94
 4382 0ee2 01       		.byte	0x1
 4383 0ee3 2C04     		.2byte	0x42c
 4384 0ee5 AD000000 		.4byte	0xad
 4385 0ee9 02       		.uleb128 0x2
 4386 0eea 91       		.byte	0x91
 4387 0eeb 74       		.sleb128 -12
 4388 0eec 1E       		.uleb128 0x1e
 4389 0eed F7010000 		.4byte	0x1f7
 4390 0ef1 40000000 		.4byte	.LBB143
 4391 0ef5 12000000 		.4byte	.LBE143-.LBB143
 4392 0ef9 01       		.byte	0x1
 4393 0efa 3C04     		.2byte	0x43c
 4394 0efc 130F0000 		.4byte	0xf13
 4395 0f00 14       		.uleb128 0x14
 4396 0f01 40000000 		.4byte	.LBB144
 4397 0f05 12000000 		.4byte	.LBE144-.LBB144
 4398 0f09 15       		.uleb128 0x15
 4399 0f0a 03020000 		.4byte	0x203
 4400 0f0e 02       		.uleb128 0x2
 4401 0f0f 91       		.byte	0x91
 4402 0f10 60       		.sleb128 -32
 4403 0f11 00       		.byte	0
 4404 0f12 00       		.byte	0
 4405 0f13 1E       		.uleb128 0x1e
 4406 0f14 F7010000 		.4byte	0x1f7
 4407 0f18 62000000 		.4byte	.LBB145
 4408 0f1c 12000000 		.4byte	.LBE145-.LBB145
 4409 0f20 01       		.byte	0x1
 4410 0f21 3D04     		.2byte	0x43d
 4411 0f23 3A0F0000 		.4byte	0xf3a
 4412 0f27 14       		.uleb128 0x14
 4413 0f28 62000000 		.4byte	.LBB146
 4414 0f2c 12000000 		.4byte	.LBE146-.LBB146
 4415 0f30 15       		.uleb128 0x15
 4416 0f31 03020000 		.4byte	0x203
 4417 0f35 02       		.uleb128 0x2
 4418 0f36 91       		.byte	0x91
 4419 0f37 64       		.sleb128 -28
 4420 0f38 00       		.byte	0
 4421 0f39 00       		.byte	0
 4422 0f3a 1A       		.uleb128 0x1a
 4423 0f3b F7010000 		.4byte	0x1f7
 4424 0f3f 98000000 		.4byte	.LBB147
 4425 0f43 12000000 		.4byte	.LBE147-.LBB147
 4426 0f47 01       		.byte	0x1
 4427 0f48 4504     		.2byte	0x445
 4428 0f4a 14       		.uleb128 0x14
 4429 0f4b 98000000 		.4byte	.LBB148
 4430 0f4f 12000000 		.4byte	.LBE148-.LBB148
 4431 0f53 15       		.uleb128 0x15
 4432 0f54 03020000 		.4byte	0x203
ARM GAS  C:\Users\stijn\AppData\Local\Temp\cccniDcZ.s 			page 103


 4433 0f58 02       		.uleb128 0x2
 4434 0f59 91       		.byte	0x91
 4435 0f5a 68       		.sleb128 -24
 4436 0f5b 00       		.byte	0
 4437 0f5c 00       		.byte	0
 4438 0f5d 00       		.byte	0
 4439 0f5e 22       		.uleb128 0x22
 4440 0f5f BF050000 		.4byte	.LASF95
 4441 0f63 01       		.byte	0x1
 4442 0f64 6104     		.2byte	0x461
 4443 0f66 AD000000 		.4byte	0xad
 4444 0f6a 00000000 		.4byte	.LFB154
 4445 0f6e 40000000 		.4byte	.LFE154-.LFB154
 4446 0f72 01       		.uleb128 0x1
 4447 0f73 9C       		.byte	0x9c
 4448 0f74 970F0000 		.4byte	0xf97
 4449 0f78 18       		.uleb128 0x18
 4450 0f79 93030000 		.4byte	.LASF53
 4451 0f7d 01       		.byte	0x1
 4452 0f7e 6104     		.2byte	0x461
 4453 0f80 B5040000 		.4byte	0x4b5
 4454 0f84 02       		.uleb128 0x2
 4455 0f85 91       		.byte	0x91
 4456 0f86 6C       		.sleb128 -20
 4457 0f87 19       		.uleb128 0x19
 4458 0f88 45000000 		.4byte	.LASF89
 4459 0f8c 01       		.byte	0x1
 4460 0f8d 6404     		.2byte	0x464
 4461 0f8f AD000000 		.4byte	0xad
 4462 0f93 02       		.uleb128 0x2
 4463 0f94 91       		.byte	0x91
 4464 0f95 74       		.sleb128 -12
 4465 0f96 00       		.byte	0
 4466 0f97 23       		.uleb128 0x23
 4467 0f98 2B070000 		.4byte	.LASF103
 4468 0f9c 01       		.byte	0x1
 4469 0f9d 7504     		.2byte	0x475
 4470 0f9f 00000000 		.4byte	.LFB155
 4471 0fa3 70000000 		.4byte	.LFE155-.LFB155
 4472 0fa7 01       		.uleb128 0x1
 4473 0fa8 9C       		.byte	0x9c
 4474 0fa9 35100000 		.4byte	0x1035
 4475 0fad 18       		.uleb128 0x18
 4476 0fae 93030000 		.4byte	.LASF53
 4477 0fb2 01       		.byte	0x1
 4478 0fb3 7504     		.2byte	0x475
 4479 0fb5 C0030000 		.4byte	0x3c0
 4480 0fb9 02       		.uleb128 0x2
 4481 0fba 91       		.byte	0x91
 4482 0fbb 6C       		.sleb128 -20
 4483 0fbc 18       		.uleb128 0x18
 4484 0fbd 3E010000 		.4byte	.LASF42
 4485 0fc1 01       		.byte	0x1
 4486 0fc2 7604     		.2byte	0x476
 4487 0fc4 35100000 		.4byte	0x1035
 4488 0fc8 02       		.uleb128 0x2
 4489 0fc9 91       		.byte	0x91
ARM GAS  C:\Users\stijn\AppData\Local\Temp\cccniDcZ.s 			page 104


 4490 0fca 68       		.sleb128 -24
 4491 0fcb 18       		.uleb128 0x18
 4492 0fcc 0F040000 		.4byte	.LASF49
 4493 0fd0 01       		.byte	0x1
 4494 0fd1 7704     		.2byte	0x477
 4495 0fd3 AD000000 		.4byte	0xad
 4496 0fd7 02       		.uleb128 0x2
 4497 0fd8 91       		.byte	0x91
 4498 0fd9 64       		.sleb128 -28
 4499 0fda 18       		.uleb128 0x18
 4500 0fdb D0050000 		.4byte	.LASF39
 4501 0fdf 01       		.byte	0x1
 4502 0fe0 7804     		.2byte	0x478
 4503 0fe2 AD000000 		.4byte	0xad
 4504 0fe6 02       		.uleb128 0x2
 4505 0fe7 91       		.byte	0x91
 4506 0fe8 60       		.sleb128 -32
 4507 0fe9 18       		.uleb128 0x18
 4508 0fea A2050000 		.4byte	.LASF50
 4509 0fee 01       		.byte	0x1
 4510 0fef 7904     		.2byte	0x479
 4511 0ff1 DD000000 		.4byte	0xdd
 4512 0ff5 02       		.uleb128 0x2
 4513 0ff6 91       		.byte	0x91
 4514 0ff7 00       		.sleb128 0
 4515 0ff8 14       		.uleb128 0x14
 4516 0ff9 0E000000 		.4byte	.LBB149
 4517 0ffd 2A000000 		.4byte	.LBE149-.LBB149
 4518 1001 19       		.uleb128 0x19
 4519 1002 2F030000 		.4byte	.LASF96
 4520 1006 01       		.byte	0x1
 4521 1007 8304     		.2byte	0x483
 4522 1009 3A100000 		.4byte	0x103a
 4523 100d 02       		.uleb128 0x2
 4524 100e 91       		.byte	0x91
 4525 100f 74       		.sleb128 -12
 4526 1010 1A       		.uleb128 0x1a
 4527 1011 F7010000 		.4byte	0x1f7
 4528 1015 24000000 		.4byte	.LBB150
 4529 1019 12000000 		.4byte	.LBE150-.LBB150
 4530 101d 01       		.byte	0x1
 4531 101e 8404     		.2byte	0x484
 4532 1020 14       		.uleb128 0x14
 4533 1021 24000000 		.4byte	.LBB151
 4534 1025 12000000 		.4byte	.LBE151-.LBB151
 4535 1029 15       		.uleb128 0x15
 4536 102a 03020000 		.4byte	0x203
 4537 102e 02       		.uleb128 0x2
 4538 102f 91       		.byte	0x91
 4539 1030 70       		.sleb128 -16
 4540 1031 00       		.byte	0
 4541 1032 00       		.byte	0
 4542 1033 00       		.byte	0
 4543 1034 00       		.byte	0
 4544 1035 1C       		.uleb128 0x1c
 4545 1036 FE000000 		.4byte	0xfe
 4546 103a 1C       		.uleb128 0x1c
ARM GAS  C:\Users\stijn\AppData\Local\Temp\cccniDcZ.s 			page 105


 4547 103b DD000000 		.4byte	0xdd
 4548 103f 24       		.uleb128 0x24
 4549 1040 1E070000 		.4byte	.LASF104
 4550 1044 08       		.byte	0x8
 4551 1045 F907     		.2byte	0x7f9
 4552 1047 4B100000 		.4byte	0x104b
 4553 104b 0B       		.uleb128 0xb
 4554 104c 97000000 		.4byte	0x97
 4555 1050 00       		.byte	0
 4556              		.section	.debug_abbrev,"",%progbits
 4557              	.Ldebug_abbrev0:
 4558 0000 01       		.uleb128 0x1
 4559 0001 11       		.uleb128 0x11
 4560 0002 01       		.byte	0x1
 4561 0003 25       		.uleb128 0x25
 4562 0004 0E       		.uleb128 0xe
 4563 0005 13       		.uleb128 0x13
 4564 0006 0B       		.uleb128 0xb
 4565 0007 03       		.uleb128 0x3
 4566 0008 0E       		.uleb128 0xe
 4567 0009 1B       		.uleb128 0x1b
 4568 000a 0E       		.uleb128 0xe
 4569 000b 55       		.uleb128 0x55
 4570 000c 17       		.uleb128 0x17
 4571 000d 11       		.uleb128 0x11
 4572 000e 01       		.uleb128 0x1
 4573 000f 10       		.uleb128 0x10
 4574 0010 17       		.uleb128 0x17
 4575 0011 00       		.byte	0
 4576 0012 00       		.byte	0
 4577 0013 02       		.uleb128 0x2
 4578 0014 24       		.uleb128 0x24
 4579 0015 00       		.byte	0
 4580 0016 0B       		.uleb128 0xb
 4581 0017 0B       		.uleb128 0xb
 4582 0018 3E       		.uleb128 0x3e
 4583 0019 0B       		.uleb128 0xb
 4584 001a 03       		.uleb128 0x3
 4585 001b 0E       		.uleb128 0xe
 4586 001c 00       		.byte	0
 4587 001d 00       		.byte	0
 4588 001e 03       		.uleb128 0x3
 4589 001f 16       		.uleb128 0x16
 4590 0020 00       		.byte	0
 4591 0021 03       		.uleb128 0x3
 4592 0022 0E       		.uleb128 0xe
 4593 0023 3A       		.uleb128 0x3a
 4594 0024 0B       		.uleb128 0xb
 4595 0025 3B       		.uleb128 0x3b
 4596 0026 0B       		.uleb128 0xb
 4597 0027 49       		.uleb128 0x49
 4598 0028 13       		.uleb128 0x13
 4599 0029 00       		.byte	0
 4600 002a 00       		.byte	0
 4601 002b 04       		.uleb128 0x4
 4602 002c 24       		.uleb128 0x24
 4603 002d 00       		.byte	0
ARM GAS  C:\Users\stijn\AppData\Local\Temp\cccniDcZ.s 			page 106


 4604 002e 0B       		.uleb128 0xb
 4605 002f 0B       		.uleb128 0xb
 4606 0030 3E       		.uleb128 0x3e
 4607 0031 0B       		.uleb128 0xb
 4608 0032 03       		.uleb128 0x3
 4609 0033 08       		.uleb128 0x8
 4610 0034 00       		.byte	0
 4611 0035 00       		.byte	0
 4612 0036 05       		.uleb128 0x5
 4613 0037 0F       		.uleb128 0xf
 4614 0038 00       		.byte	0
 4615 0039 0B       		.uleb128 0xb
 4616 003a 0B       		.uleb128 0xb
 4617 003b 00       		.byte	0
 4618 003c 00       		.byte	0
 4619 003d 06       		.uleb128 0x6
 4620 003e 0F       		.uleb128 0xf
 4621 003f 00       		.byte	0
 4622 0040 0B       		.uleb128 0xb
 4623 0041 0B       		.uleb128 0xb
 4624 0042 49       		.uleb128 0x49
 4625 0043 13       		.uleb128 0x13
 4626 0044 00       		.byte	0
 4627 0045 00       		.byte	0
 4628 0046 07       		.uleb128 0x7
 4629 0047 04       		.uleb128 0x4
 4630 0048 01       		.byte	0x1
 4631 0049 0B       		.uleb128 0xb
 4632 004a 0B       		.uleb128 0xb
 4633 004b 49       		.uleb128 0x49
 4634 004c 13       		.uleb128 0x13
 4635 004d 3A       		.uleb128 0x3a
 4636 004e 0B       		.uleb128 0xb
 4637 004f 3B       		.uleb128 0x3b
 4638 0050 0B       		.uleb128 0xb
 4639 0051 01       		.uleb128 0x1
 4640 0052 13       		.uleb128 0x13
 4641 0053 00       		.byte	0
 4642 0054 00       		.byte	0
 4643 0055 08       		.uleb128 0x8
 4644 0056 28       		.uleb128 0x28
 4645 0057 00       		.byte	0
 4646 0058 03       		.uleb128 0x3
 4647 0059 0E       		.uleb128 0xe
 4648 005a 1C       		.uleb128 0x1c
 4649 005b 0B       		.uleb128 0xb
 4650 005c 00       		.byte	0
 4651 005d 00       		.byte	0
 4652 005e 09       		.uleb128 0x9
 4653 005f 13       		.uleb128 0x13
 4654 0060 01       		.byte	0x1
 4655 0061 03       		.uleb128 0x3
 4656 0062 0E       		.uleb128 0xe
 4657 0063 0B       		.uleb128 0xb
 4658 0064 0B       		.uleb128 0xb
 4659 0065 3A       		.uleb128 0x3a
 4660 0066 0B       		.uleb128 0xb
ARM GAS  C:\Users\stijn\AppData\Local\Temp\cccniDcZ.s 			page 107


 4661 0067 3B       		.uleb128 0x3b
 4662 0068 0B       		.uleb128 0xb
 4663 0069 01       		.uleb128 0x1
 4664 006a 13       		.uleb128 0x13
 4665 006b 00       		.byte	0
 4666 006c 00       		.byte	0
 4667 006d 0A       		.uleb128 0xa
 4668 006e 0D       		.uleb128 0xd
 4669 006f 00       		.byte	0
 4670 0070 03       		.uleb128 0x3
 4671 0071 0E       		.uleb128 0xe
 4672 0072 3A       		.uleb128 0x3a
 4673 0073 0B       		.uleb128 0xb
 4674 0074 3B       		.uleb128 0x3b
 4675 0075 0B       		.uleb128 0xb
 4676 0076 49       		.uleb128 0x49
 4677 0077 13       		.uleb128 0x13
 4678 0078 38       		.uleb128 0x38
 4679 0079 0B       		.uleb128 0xb
 4680 007a 00       		.byte	0
 4681 007b 00       		.byte	0
 4682 007c 0B       		.uleb128 0xb
 4683 007d 35       		.uleb128 0x35
 4684 007e 00       		.byte	0
 4685 007f 49       		.uleb128 0x49
 4686 0080 13       		.uleb128 0x13
 4687 0081 00       		.byte	0
 4688 0082 00       		.byte	0
 4689 0083 0C       		.uleb128 0xc
 4690 0084 2E       		.uleb128 0x2e
 4691 0085 01       		.byte	0x1
 4692 0086 03       		.uleb128 0x3
 4693 0087 0E       		.uleb128 0xe
 4694 0088 3A       		.uleb128 0x3a
 4695 0089 0B       		.uleb128 0xb
 4696 008a 3B       		.uleb128 0x3b
 4697 008b 0B       		.uleb128 0xb
 4698 008c 27       		.uleb128 0x27
 4699 008d 19       		.uleb128 0x19
 4700 008e 20       		.uleb128 0x20
 4701 008f 0B       		.uleb128 0xb
 4702 0090 01       		.uleb128 0x1
 4703 0091 13       		.uleb128 0x13
 4704 0092 00       		.byte	0
 4705 0093 00       		.byte	0
 4706 0094 0D       		.uleb128 0xd
 4707 0095 34       		.uleb128 0x34
 4708 0096 00       		.byte	0
 4709 0097 03       		.uleb128 0x3
 4710 0098 0E       		.uleb128 0xe
 4711 0099 3A       		.uleb128 0x3a
 4712 009a 0B       		.uleb128 0xb
 4713 009b 3B       		.uleb128 0x3b
 4714 009c 0B       		.uleb128 0xb
 4715 009d 49       		.uleb128 0x49
 4716 009e 13       		.uleb128 0x13
 4717 009f 00       		.byte	0
ARM GAS  C:\Users\stijn\AppData\Local\Temp\cccniDcZ.s 			page 108


 4718 00a0 00       		.byte	0
 4719 00a1 0E       		.uleb128 0xe
 4720 00a2 2E       		.uleb128 0x2e
 4721 00a3 01       		.byte	0x1
 4722 00a4 03       		.uleb128 0x3
 4723 00a5 0E       		.uleb128 0xe
 4724 00a6 3A       		.uleb128 0x3a
 4725 00a7 0B       		.uleb128 0xb
 4726 00a8 3B       		.uleb128 0x3b
 4727 00a9 0B       		.uleb128 0xb
 4728 00aa 27       		.uleb128 0x27
 4729 00ab 19       		.uleb128 0x19
 4730 00ac 49       		.uleb128 0x49
 4731 00ad 13       		.uleb128 0x13
 4732 00ae 20       		.uleb128 0x20
 4733 00af 0B       		.uleb128 0xb
 4734 00b0 01       		.uleb128 0x1
 4735 00b1 13       		.uleb128 0x13
 4736 00b2 00       		.byte	0
 4737 00b3 00       		.byte	0
 4738 00b4 0F       		.uleb128 0xf
 4739 00b5 05       		.uleb128 0x5
 4740 00b6 00       		.byte	0
 4741 00b7 03       		.uleb128 0x3
 4742 00b8 0E       		.uleb128 0xe
 4743 00b9 3A       		.uleb128 0x3a
 4744 00ba 0B       		.uleb128 0xb
 4745 00bb 3B       		.uleb128 0x3b
 4746 00bc 0B       		.uleb128 0xb
 4747 00bd 49       		.uleb128 0x49
 4748 00be 13       		.uleb128 0x13
 4749 00bf 00       		.byte	0
 4750 00c0 00       		.byte	0
 4751 00c1 10       		.uleb128 0x10
 4752 00c2 2E       		.uleb128 0x2e
 4753 00c3 01       		.byte	0x1
 4754 00c4 3F       		.uleb128 0x3f
 4755 00c5 19       		.uleb128 0x19
 4756 00c6 03       		.uleb128 0x3
 4757 00c7 0E       		.uleb128 0xe
 4758 00c8 3A       		.uleb128 0x3a
 4759 00c9 0B       		.uleb128 0xb
 4760 00ca 3B       		.uleb128 0x3b
 4761 00cb 0B       		.uleb128 0xb
 4762 00cc 27       		.uleb128 0x27
 4763 00cd 19       		.uleb128 0x19
 4764 00ce 49       		.uleb128 0x49
 4765 00cf 13       		.uleb128 0x13
 4766 00d0 11       		.uleb128 0x11
 4767 00d1 01       		.uleb128 0x1
 4768 00d2 12       		.uleb128 0x12
 4769 00d3 06       		.uleb128 0x6
 4770 00d4 40       		.uleb128 0x40
 4771 00d5 18       		.uleb128 0x18
 4772 00d6 9642     		.uleb128 0x2116
 4773 00d8 19       		.uleb128 0x19
 4774 00d9 01       		.uleb128 0x1
ARM GAS  C:\Users\stijn\AppData\Local\Temp\cccniDcZ.s 			page 109


 4775 00da 13       		.uleb128 0x13
 4776 00db 00       		.byte	0
 4777 00dc 00       		.byte	0
 4778 00dd 11       		.uleb128 0x11
 4779 00de 05       		.uleb128 0x5
 4780 00df 00       		.byte	0
 4781 00e0 03       		.uleb128 0x3
 4782 00e1 0E       		.uleb128 0xe
 4783 00e2 3A       		.uleb128 0x3a
 4784 00e3 0B       		.uleb128 0xb
 4785 00e4 3B       		.uleb128 0x3b
 4786 00e5 0B       		.uleb128 0xb
 4787 00e6 49       		.uleb128 0x49
 4788 00e7 13       		.uleb128 0x13
 4789 00e8 02       		.uleb128 0x2
 4790 00e9 18       		.uleb128 0x18
 4791 00ea 00       		.byte	0
 4792 00eb 00       		.byte	0
 4793 00ec 12       		.uleb128 0x12
 4794 00ed 34       		.uleb128 0x34
 4795 00ee 00       		.byte	0
 4796 00ef 03       		.uleb128 0x3
 4797 00f0 0E       		.uleb128 0xe
 4798 00f1 3A       		.uleb128 0x3a
 4799 00f2 0B       		.uleb128 0xb
 4800 00f3 3B       		.uleb128 0x3b
 4801 00f4 0B       		.uleb128 0xb
 4802 00f5 49       		.uleb128 0x49
 4803 00f6 13       		.uleb128 0x13
 4804 00f7 02       		.uleb128 0x2
 4805 00f8 18       		.uleb128 0x18
 4806 00f9 00       		.byte	0
 4807 00fa 00       		.byte	0
 4808 00fb 13       		.uleb128 0x13
 4809 00fc 1D       		.uleb128 0x1d
 4810 00fd 01       		.byte	0x1
 4811 00fe 31       		.uleb128 0x31
 4812 00ff 13       		.uleb128 0x13
 4813 0100 11       		.uleb128 0x11
 4814 0101 01       		.uleb128 0x1
 4815 0102 12       		.uleb128 0x12
 4816 0103 06       		.uleb128 0x6
 4817 0104 58       		.uleb128 0x58
 4818 0105 0B       		.uleb128 0xb
 4819 0106 59       		.uleb128 0x59
 4820 0107 0B       		.uleb128 0xb
 4821 0108 01       		.uleb128 0x1
 4822 0109 13       		.uleb128 0x13
 4823 010a 00       		.byte	0
 4824 010b 00       		.byte	0
 4825 010c 14       		.uleb128 0x14
 4826 010d 0B       		.uleb128 0xb
 4827 010e 01       		.byte	0x1
 4828 010f 11       		.uleb128 0x11
 4829 0110 01       		.uleb128 0x1
 4830 0111 12       		.uleb128 0x12
 4831 0112 06       		.uleb128 0x6
ARM GAS  C:\Users\stijn\AppData\Local\Temp\cccniDcZ.s 			page 110


 4832 0113 00       		.byte	0
 4833 0114 00       		.byte	0
 4834 0115 15       		.uleb128 0x15
 4835 0116 34       		.uleb128 0x34
 4836 0117 00       		.byte	0
 4837 0118 31       		.uleb128 0x31
 4838 0119 13       		.uleb128 0x13
 4839 011a 02       		.uleb128 0x2
 4840 011b 18       		.uleb128 0x18
 4841 011c 00       		.byte	0
 4842 011d 00       		.byte	0
 4843 011e 16       		.uleb128 0x16
 4844 011f 1D       		.uleb128 0x1d
 4845 0120 01       		.byte	0x1
 4846 0121 31       		.uleb128 0x31
 4847 0122 13       		.uleb128 0x13
 4848 0123 11       		.uleb128 0x11
 4849 0124 01       		.uleb128 0x1
 4850 0125 12       		.uleb128 0x12
 4851 0126 06       		.uleb128 0x6
 4852 0127 58       		.uleb128 0x58
 4853 0128 0B       		.uleb128 0xb
 4854 0129 59       		.uleb128 0x59
 4855 012a 0B       		.uleb128 0xb
 4856 012b 00       		.byte	0
 4857 012c 00       		.byte	0
 4858 012d 17       		.uleb128 0x17
 4859 012e 2E       		.uleb128 0x2e
 4860 012f 01       		.byte	0x1
 4861 0130 3F       		.uleb128 0x3f
 4862 0131 19       		.uleb128 0x19
 4863 0132 03       		.uleb128 0x3
 4864 0133 0E       		.uleb128 0xe
 4865 0134 3A       		.uleb128 0x3a
 4866 0135 0B       		.uleb128 0xb
 4867 0136 3B       		.uleb128 0x3b
 4868 0137 05       		.uleb128 0x5
 4869 0138 27       		.uleb128 0x27
 4870 0139 19       		.uleb128 0x19
 4871 013a 11       		.uleb128 0x11
 4872 013b 01       		.uleb128 0x1
 4873 013c 12       		.uleb128 0x12
 4874 013d 06       		.uleb128 0x6
 4875 013e 40       		.uleb128 0x40
 4876 013f 18       		.uleb128 0x18
 4877 0140 9642     		.uleb128 0x2116
 4878 0142 19       		.uleb128 0x19
 4879 0143 01       		.uleb128 0x1
 4880 0144 13       		.uleb128 0x13
 4881 0145 00       		.byte	0
 4882 0146 00       		.byte	0
 4883 0147 18       		.uleb128 0x18
 4884 0148 05       		.uleb128 0x5
 4885 0149 00       		.byte	0
 4886 014a 03       		.uleb128 0x3
 4887 014b 0E       		.uleb128 0xe
 4888 014c 3A       		.uleb128 0x3a
ARM GAS  C:\Users\stijn\AppData\Local\Temp\cccniDcZ.s 			page 111


 4889 014d 0B       		.uleb128 0xb
 4890 014e 3B       		.uleb128 0x3b
 4891 014f 05       		.uleb128 0x5
 4892 0150 49       		.uleb128 0x49
 4893 0151 13       		.uleb128 0x13
 4894 0152 02       		.uleb128 0x2
 4895 0153 18       		.uleb128 0x18
 4896 0154 00       		.byte	0
 4897 0155 00       		.byte	0
 4898 0156 19       		.uleb128 0x19
 4899 0157 34       		.uleb128 0x34
 4900 0158 00       		.byte	0
 4901 0159 03       		.uleb128 0x3
 4902 015a 0E       		.uleb128 0xe
 4903 015b 3A       		.uleb128 0x3a
 4904 015c 0B       		.uleb128 0xb
 4905 015d 3B       		.uleb128 0x3b
 4906 015e 05       		.uleb128 0x5
 4907 015f 49       		.uleb128 0x49
 4908 0160 13       		.uleb128 0x13
 4909 0161 02       		.uleb128 0x2
 4910 0162 18       		.uleb128 0x18
 4911 0163 00       		.byte	0
 4912 0164 00       		.byte	0
 4913 0165 1A       		.uleb128 0x1a
 4914 0166 1D       		.uleb128 0x1d
 4915 0167 01       		.byte	0x1
 4916 0168 31       		.uleb128 0x31
 4917 0169 13       		.uleb128 0x13
 4918 016a 11       		.uleb128 0x11
 4919 016b 01       		.uleb128 0x1
 4920 016c 12       		.uleb128 0x12
 4921 016d 06       		.uleb128 0x6
 4922 016e 58       		.uleb128 0x58
 4923 016f 0B       		.uleb128 0xb
 4924 0170 59       		.uleb128 0x59
 4925 0171 05       		.uleb128 0x5
 4926 0172 00       		.byte	0
 4927 0173 00       		.byte	0
 4928 0174 1B       		.uleb128 0x1b
 4929 0175 2E       		.uleb128 0x2e
 4930 0176 01       		.byte	0x1
 4931 0177 3F       		.uleb128 0x3f
 4932 0178 19       		.uleb128 0x19
 4933 0179 03       		.uleb128 0x3
 4934 017a 0E       		.uleb128 0xe
 4935 017b 3A       		.uleb128 0x3a
 4936 017c 0B       		.uleb128 0xb
 4937 017d 3B       		.uleb128 0x3b
 4938 017e 05       		.uleb128 0x5
 4939 017f 27       		.uleb128 0x27
 4940 0180 19       		.uleb128 0x19
 4941 0181 49       		.uleb128 0x49
 4942 0182 13       		.uleb128 0x13
 4943 0183 11       		.uleb128 0x11
 4944 0184 01       		.uleb128 0x1
 4945 0185 12       		.uleb128 0x12
ARM GAS  C:\Users\stijn\AppData\Local\Temp\cccniDcZ.s 			page 112


 4946 0186 06       		.uleb128 0x6
 4947 0187 40       		.uleb128 0x40
 4948 0188 18       		.uleb128 0x18
 4949 0189 9642     		.uleb128 0x2116
 4950 018b 19       		.uleb128 0x19
 4951 018c 01       		.uleb128 0x1
 4952 018d 13       		.uleb128 0x13
 4953 018e 00       		.byte	0
 4954 018f 00       		.byte	0
 4955 0190 1C       		.uleb128 0x1c
 4956 0191 26       		.uleb128 0x26
 4957 0192 00       		.byte	0
 4958 0193 49       		.uleb128 0x49
 4959 0194 13       		.uleb128 0x13
 4960 0195 00       		.byte	0
 4961 0196 00       		.byte	0
 4962 0197 1D       		.uleb128 0x1d
 4963 0198 2E       		.uleb128 0x2e
 4964 0199 01       		.byte	0x1
 4965 019a 3F       		.uleb128 0x3f
 4966 019b 19       		.uleb128 0x19
 4967 019c 03       		.uleb128 0x3
 4968 019d 0E       		.uleb128 0xe
 4969 019e 3A       		.uleb128 0x3a
 4970 019f 0B       		.uleb128 0xb
 4971 01a0 3B       		.uleb128 0x3b
 4972 01a1 05       		.uleb128 0x5
 4973 01a2 27       		.uleb128 0x27
 4974 01a3 19       		.uleb128 0x19
 4975 01a4 49       		.uleb128 0x49
 4976 01a5 13       		.uleb128 0x13
 4977 01a6 11       		.uleb128 0x11
 4978 01a7 01       		.uleb128 0x1
 4979 01a8 12       		.uleb128 0x12
 4980 01a9 06       		.uleb128 0x6
 4981 01aa 40       		.uleb128 0x40
 4982 01ab 18       		.uleb128 0x18
 4983 01ac 9742     		.uleb128 0x2117
 4984 01ae 19       		.uleb128 0x19
 4985 01af 01       		.uleb128 0x1
 4986 01b0 13       		.uleb128 0x13
 4987 01b1 00       		.byte	0
 4988 01b2 00       		.byte	0
 4989 01b3 1E       		.uleb128 0x1e
 4990 01b4 1D       		.uleb128 0x1d
 4991 01b5 01       		.byte	0x1
 4992 01b6 31       		.uleb128 0x31
 4993 01b7 13       		.uleb128 0x13
 4994 01b8 11       		.uleb128 0x11
 4995 01b9 01       		.uleb128 0x1
 4996 01ba 12       		.uleb128 0x12
 4997 01bb 06       		.uleb128 0x6
 4998 01bc 58       		.uleb128 0x58
 4999 01bd 0B       		.uleb128 0xb
 5000 01be 59       		.uleb128 0x59
 5001 01bf 05       		.uleb128 0x5
 5002 01c0 01       		.uleb128 0x1
ARM GAS  C:\Users\stijn\AppData\Local\Temp\cccniDcZ.s 			page 113


 5003 01c1 13       		.uleb128 0x13
 5004 01c2 00       		.byte	0
 5005 01c3 00       		.byte	0
 5006 01c4 1F       		.uleb128 0x1f
 5007 01c5 26       		.uleb128 0x26
 5008 01c6 00       		.byte	0
 5009 01c7 00       		.byte	0
 5010 01c8 00       		.byte	0
 5011 01c9 20       		.uleb128 0x20
 5012 01ca 05       		.uleb128 0x5
 5013 01cb 00       		.byte	0
 5014 01cc 31       		.uleb128 0x31
 5015 01cd 13       		.uleb128 0x13
 5016 01ce 02       		.uleb128 0x2
 5017 01cf 18       		.uleb128 0x18
 5018 01d0 00       		.byte	0
 5019 01d1 00       		.byte	0
 5020 01d2 21       		.uleb128 0x21
 5021 01d3 2E       		.uleb128 0x2e
 5022 01d4 01       		.byte	0x1
 5023 01d5 03       		.uleb128 0x3
 5024 01d6 0E       		.uleb128 0xe
 5025 01d7 3A       		.uleb128 0x3a
 5026 01d8 0B       		.uleb128 0xb
 5027 01d9 3B       		.uleb128 0x3b
 5028 01da 05       		.uleb128 0x5
 5029 01db 27       		.uleb128 0x27
 5030 01dc 19       		.uleb128 0x19
 5031 01dd 49       		.uleb128 0x49
 5032 01de 13       		.uleb128 0x13
 5033 01df 11       		.uleb128 0x11
 5034 01e0 01       		.uleb128 0x1
 5035 01e1 12       		.uleb128 0x12
 5036 01e2 06       		.uleb128 0x6
 5037 01e3 40       		.uleb128 0x40
 5038 01e4 18       		.uleb128 0x18
 5039 01e5 9642     		.uleb128 0x2116
 5040 01e7 19       		.uleb128 0x19
 5041 01e8 01       		.uleb128 0x1
 5042 01e9 13       		.uleb128 0x13
 5043 01ea 00       		.byte	0
 5044 01eb 00       		.byte	0
 5045 01ec 22       		.uleb128 0x22
 5046 01ed 2E       		.uleb128 0x2e
 5047 01ee 01       		.byte	0x1
 5048 01ef 03       		.uleb128 0x3
 5049 01f0 0E       		.uleb128 0xe
 5050 01f1 3A       		.uleb128 0x3a
 5051 01f2 0B       		.uleb128 0xb
 5052 01f3 3B       		.uleb128 0x3b
 5053 01f4 05       		.uleb128 0x5
 5054 01f5 27       		.uleb128 0x27
 5055 01f6 19       		.uleb128 0x19
 5056 01f7 49       		.uleb128 0x49
 5057 01f8 13       		.uleb128 0x13
 5058 01f9 11       		.uleb128 0x11
 5059 01fa 01       		.uleb128 0x1
ARM GAS  C:\Users\stijn\AppData\Local\Temp\cccniDcZ.s 			page 114


 5060 01fb 12       		.uleb128 0x12
 5061 01fc 06       		.uleb128 0x6
 5062 01fd 40       		.uleb128 0x40
 5063 01fe 18       		.uleb128 0x18
 5064 01ff 9742     		.uleb128 0x2117
 5065 0201 19       		.uleb128 0x19
 5066 0202 01       		.uleb128 0x1
 5067 0203 13       		.uleb128 0x13
 5068 0204 00       		.byte	0
 5069 0205 00       		.byte	0
 5070 0206 23       		.uleb128 0x23
 5071 0207 2E       		.uleb128 0x2e
 5072 0208 01       		.byte	0x1
 5073 0209 03       		.uleb128 0x3
 5074 020a 0E       		.uleb128 0xe
 5075 020b 3A       		.uleb128 0x3a
 5076 020c 0B       		.uleb128 0xb
 5077 020d 3B       		.uleb128 0x3b
 5078 020e 05       		.uleb128 0x5
 5079 020f 27       		.uleb128 0x27
 5080 0210 19       		.uleb128 0x19
 5081 0211 11       		.uleb128 0x11
 5082 0212 01       		.uleb128 0x1
 5083 0213 12       		.uleb128 0x12
 5084 0214 06       		.uleb128 0x6
 5085 0215 40       		.uleb128 0x40
 5086 0216 18       		.uleb128 0x18
 5087 0217 9642     		.uleb128 0x2116
 5088 0219 19       		.uleb128 0x19
 5089 021a 01       		.uleb128 0x1
 5090 021b 13       		.uleb128 0x13
 5091 021c 00       		.byte	0
 5092 021d 00       		.byte	0
 5093 021e 24       		.uleb128 0x24
 5094 021f 34       		.uleb128 0x34
 5095 0220 00       		.byte	0
 5096 0221 03       		.uleb128 0x3
 5097 0222 0E       		.uleb128 0xe
 5098 0223 3A       		.uleb128 0x3a
 5099 0224 0B       		.uleb128 0xb
 5100 0225 3B       		.uleb128 0x3b
 5101 0226 05       		.uleb128 0x5
 5102 0227 49       		.uleb128 0x49
 5103 0228 13       		.uleb128 0x13
 5104 0229 3F       		.uleb128 0x3f
 5105 022a 19       		.uleb128 0x19
 5106 022b 3C       		.uleb128 0x3c
 5107 022c 19       		.uleb128 0x19
 5108 022d 00       		.byte	0
 5109 022e 00       		.byte	0
 5110 022f 00       		.byte	0
 5111              		.section	.debug_aranges,"",%progbits
 5112 0000 B4000000 		.4byte	0xb4
 5113 0004 0200     		.2byte	0x2
 5114 0006 00000000 		.4byte	.Ldebug_info0
 5115 000a 04       		.byte	0x4
 5116 000b 00       		.byte	0
ARM GAS  C:\Users\stijn\AppData\Local\Temp\cccniDcZ.s 			page 115


 5117 000c 0000     		.2byte	0
 5118 000e 0000     		.2byte	0
 5119 0010 00000000 		.4byte	.LFB136
 5120 0014 82000000 		.4byte	.LFE136-.LFB136
 5121 0018 00000000 		.4byte	.LFB137
 5122 001c 4C000000 		.4byte	.LFE137-.LFB137
 5123 0020 00000000 		.4byte	.LFB138
 5124 0024 76000000 		.4byte	.LFE138-.LFB138
 5125 0028 00000000 		.4byte	.LFB139
 5126 002c 5A000000 		.4byte	.LFE139-.LFB139
 5127 0030 00000000 		.4byte	.LFB140
 5128 0034 64000000 		.4byte	.LFE140-.LFB140
 5129 0038 00000000 		.4byte	.LFB141
 5130 003c 38000000 		.4byte	.LFE141-.LFB141
 5131 0040 00000000 		.4byte	.LFB142
 5132 0044 48010000 		.4byte	.LFE142-.LFB142
 5133 0048 00000000 		.4byte	.LFB143
 5134 004c DC000000 		.4byte	.LFE143-.LFB143
 5135 0050 00000000 		.4byte	.LFB144
 5136 0054 7A000000 		.4byte	.LFE144-.LFB144
 5137 0058 00000000 		.4byte	.LFB145
 5138 005c 26010000 		.4byte	.LFE145-.LFB145
 5139 0060 00000000 		.4byte	.LFB146
 5140 0064 D8000000 		.4byte	.LFE146-.LFB146
 5141 0068 00000000 		.4byte	.LFB147
 5142 006c 60000000 		.4byte	.LFE147-.LFB147
 5143 0070 00000000 		.4byte	.LFB148
 5144 0074 4E000000 		.4byte	.LFE148-.LFB148
 5145 0078 00000000 		.4byte	.LFB149
 5146 007c 5E000000 		.4byte	.LFE149-.LFB149
 5147 0080 00000000 		.4byte	.LFB150
 5148 0084 82000000 		.4byte	.LFE150-.LFB150
 5149 0088 00000000 		.4byte	.LFB151
 5150 008c 82000000 		.4byte	.LFE151-.LFB151
 5151 0090 00000000 		.4byte	.LFB152
 5152 0094 DE000000 		.4byte	.LFE152-.LFB152
 5153 0098 00000000 		.4byte	.LFB153
 5154 009c EE000000 		.4byte	.LFE153-.LFB153
 5155 00a0 00000000 		.4byte	.LFB154
 5156 00a4 40000000 		.4byte	.LFE154-.LFB154
 5157 00a8 00000000 		.4byte	.LFB155
 5158 00ac 70000000 		.4byte	.LFE155-.LFB155
 5159 00b0 00000000 		.4byte	0
 5160 00b4 00000000 		.4byte	0
 5161              		.section	.debug_ranges,"",%progbits
 5162              	.Ldebug_ranges0:
 5163 0000 00000000 		.4byte	.LFB136
 5164 0004 82000000 		.4byte	.LFE136
 5165 0008 00000000 		.4byte	.LFB137
 5166 000c 4C000000 		.4byte	.LFE137
 5167 0010 00000000 		.4byte	.LFB138
 5168 0014 76000000 		.4byte	.LFE138
 5169 0018 00000000 		.4byte	.LFB139
 5170 001c 5A000000 		.4byte	.LFE139
 5171 0020 00000000 		.4byte	.LFB140
 5172 0024 64000000 		.4byte	.LFE140
 5173 0028 00000000 		.4byte	.LFB141
ARM GAS  C:\Users\stijn\AppData\Local\Temp\cccniDcZ.s 			page 116


 5174 002c 38000000 		.4byte	.LFE141
 5175 0030 00000000 		.4byte	.LFB142
 5176 0034 48010000 		.4byte	.LFE142
 5177 0038 00000000 		.4byte	.LFB143
 5178 003c DC000000 		.4byte	.LFE143
 5179 0040 00000000 		.4byte	.LFB144
 5180 0044 7A000000 		.4byte	.LFE144
 5181 0048 00000000 		.4byte	.LFB145
 5182 004c 26010000 		.4byte	.LFE145
 5183 0050 00000000 		.4byte	.LFB146
 5184 0054 D8000000 		.4byte	.LFE146
 5185 0058 00000000 		.4byte	.LFB147
 5186 005c 60000000 		.4byte	.LFE147
 5187 0060 00000000 		.4byte	.LFB148
 5188 0064 4E000000 		.4byte	.LFE148
 5189 0068 00000000 		.4byte	.LFB149
 5190 006c 5E000000 		.4byte	.LFE149
 5191 0070 00000000 		.4byte	.LFB150
 5192 0074 82000000 		.4byte	.LFE150
 5193 0078 00000000 		.4byte	.LFB151
 5194 007c 82000000 		.4byte	.LFE151
 5195 0080 00000000 		.4byte	.LFB152
 5196 0084 DE000000 		.4byte	.LFE152
 5197 0088 00000000 		.4byte	.LFB153
 5198 008c EE000000 		.4byte	.LFE153
 5199 0090 00000000 		.4byte	.LFB154
 5200 0094 40000000 		.4byte	.LFE154
 5201 0098 00000000 		.4byte	.LFB155
 5202 009c 70000000 		.4byte	.LFE155
 5203 00a0 00000000 		.4byte	0
 5204 00a4 00000000 		.4byte	0
 5205              		.section	.debug_line,"",%progbits
 5206              	.Ldebug_line0:
 5207 0000 D8070000 		.section	.debug_str,"MS",%progbits,1
 5207      0200C702 
 5207      00000201 
 5207      FB0E0D00 
 5207      01010101 
 5208              	.LASF71:
 5209 0000 7853686F 		.ascii	"xShouldWrite\000"
 5209      756C6457 
 5209      72697465 
 5209      00
 5210              	.LASF74:
 5211 000d 78427566 		.ascii	"xBufferLengthBytes\000"
 5211      6665724C 
 5211      656E6774 
 5211      68427974 
 5211      657300
 5212              	.LASF25:
 5213 0020 654E6F41 		.ascii	"eNoAction\000"
 5213      6374696F 
 5213      6E00
 5214              	.LASF54:
 5215 002a 78537472 		.ascii	"xStreamBufferGenericCreate\000"
 5215      65616D42 
 5215      75666665 
ARM GAS  C:\Users\stijn\AppData\Local\Temp\cccniDcZ.s 			page 117


 5215      7247656E 
 5215      65726963 
 5216              	.LASF89:
 5217 0045 78436F75 		.ascii	"xCount\000"
 5217      6E7400
 5218              	.LASF102:
 5219 004c 76537472 		.ascii	"vStreamBufferDelete\000"
 5219      65616D42 
 5219      75666665 
 5219      7244656C 
 5219      65746500 
 5220              	.LASF34:
 5221 0060 7854494D 		.ascii	"xTIME_OUT\000"
 5221      455F4F55 
 5221      5400
 5222              	.LASF72:
 5223 006a 78537472 		.ascii	"xStreamBufferReceive\000"
 5223      65616D42 
 5223      75666665 
 5223      72526563 
 5223      65697665 
 5224              	.LASF63:
 5225 007f 70765478 		.ascii	"pvTxData\000"
 5225      44617461 
 5225      00
 5226              	.LASF32:
 5227 0088 54696D65 		.ascii	"TimeOut_t\000"
 5227      4F75745F 
 5227      7400
 5228              	.LASF2:
 5229 0092 73686F72 		.ascii	"short int\000"
 5229      7420696E 
 5229      7400
 5230              	.LASF15:
 5231 009c 73697A65 		.ascii	"size_t\000"
 5231      5F7400
 5232              	.LASF17:
 5233 00a3 73697A65 		.ascii	"sizetype\000"
 5233      74797065 
 5233      00
 5234              	.LASF92:
 5235 00ac 70727652 		.ascii	"prvReadBytesFromBuffer\000"
 5235      65616442 
 5235      79746573 
 5235      46726F6D 
 5235      42756666 
 5236              	.LASF24:
 5237 00c3 5461736B 		.ascii	"TaskHandle_t\000"
 5237      48616E64 
 5237      6C655F74 
 5237      00
 5238              	.LASF86:
 5239 00d0 78537472 		.ascii	"xStreamBufferReceiveCompletedFromISR\000"
 5239      65616D42 
 5239      75666665 
 5239      72526563 
 5239      65697665 
ARM GAS  C:\Users\stijn\AppData\Local\Temp\cccniDcZ.s 			page 118


 5240              	.LASF76:
 5241 00f5 78427974 		.ascii	"xBytesAvailable\000"
 5241      65734176 
 5241      61696C61 
 5241      626C6500 
 5242              	.LASF82:
 5243 0105 784E6578 		.ascii	"xNextMessageLength\000"
 5243      744D6573 
 5243      73616765 
 5243      4C656E67 
 5243      746800
 5244              	.LASF90:
 5245 0118 784E6578 		.ascii	"xNextHead\000"
 5245      74486561 
 5245      6400
 5246              	.LASF7:
 5247 0122 5F5F7569 		.ascii	"__uint32_t\000"
 5247      6E743332 
 5247      5F7400
 5248              	.LASF64:
 5249 012d 78446174 		.ascii	"xDataLengthBytes\000"
 5249      614C656E 
 5249      67746842 
 5249      79746573 
 5249      00
 5250              	.LASF42:
 5251 013e 70756342 		.ascii	"pucBuffer\000"
 5251      75666665 
 5251      7200
 5252              	.LASF91:
 5253 0148 78466972 		.ascii	"xFirstLength\000"
 5253      73744C65 
 5253      6E677468 
 5253      00
 5254              	.LASF67:
 5255 0155 7854696D 		.ascii	"xTimeOut\000"
 5255      654F7574 
 5255      00
 5256              	.LASF97:
 5257 015e 474E5520 		.ascii	"GNU C11 5.4.1 20160609 (release) [ARM/embedded-5-br"
 5257      43313120 
 5257      352E342E 
 5257      31203230 
 5257      31363036 
 5258 0191 616E6368 		.ascii	"anch revision 237715] -mcpu=cortex-m4 -mfloat-abi=s"
 5258      20726576 
 5258      6973696F 
 5258      6E203233 
 5258      37373135 
 5259 01c4 6F667466 		.ascii	"oftfp -mfpu=fpv4-sp-d16 -mthumb -g -O0 -ffunction-s"
 5259      70202D6D 
 5259      6670753D 
 5259      66707634 
 5259      2D73702D 
 5260 01f7 65637469 		.ascii	"ections -ffat-lto-objects\000"
 5260      6F6E7320 
 5260      2D666661 
ARM GAS  C:\Users\stijn\AppData\Local\Temp\cccniDcZ.s 			page 119


 5260      742D6C74 
 5260      6F2D6F62 
 5261              	.LASF12:
 5262 0211 75696E74 		.ascii	"uint8_t\000"
 5262      385F7400 
 5263              	.LASF80:
 5264 0219 70727652 		.ascii	"prvReadMessageFromBuffer\000"
 5264      6561644D 
 5264      65737361 
 5264      67654672 
 5264      6F6D4275 
 5265              	.LASF75:
 5266 0232 78526563 		.ascii	"xReceivedLength\000"
 5266      65697665 
 5266      644C656E 
 5266      67746800 
 5267              	.LASF100:
 5268 0242 756C506F 		.ascii	"ulPortRaiseBASEPRI\000"
 5268      72745261 
 5268      69736542 
 5268      41534550 
 5268      524900
 5269              	.LASF55:
 5270 0255 78537472 		.ascii	"xStreamBufferReset\000"
 5270      65616D42 
 5270      75666665 
 5270      72526573 
 5270      657400
 5271              	.LASF26:
 5272 0268 65536574 		.ascii	"eSetBits\000"
 5272      42697473 
 5272      00
 5273              	.LASF51:
 5274 0271 78537472 		.ascii	"xStreamBuffer\000"
 5274      65616D42 
 5274      75666665 
 5274      7200
 5275              	.LASF19:
 5276 027f 666C6F61 		.ascii	"float\000"
 5276      7400
 5277              	.LASF99:
 5278 0285 433A5C55 		.ascii	"C:\\Users\\stijn\\OneDrive\\Documenten\\PSoC Creato"
 5278      73657273 
 5278      5C737469 
 5278      6A6E5C4F 
 5278      6E654472 
 5279 02b3 725C4144 		.ascii	"r\\ADC Klodden\\RTOS_I2C_Test.cydsn\000"
 5279      43204B6C 
 5279      6F646465 
 5279      6E5C5254 
 5279      4F535F49 
 5280              	.LASF35:
 5281 02d5 78535452 		.ascii	"xSTREAM_BUFFER\000"
 5281      45414D5F 
 5281      42554646 
 5281      455200
 5282              	.LASF65:
ARM GAS  C:\Users\stijn\AppData\Local\Temp\cccniDcZ.s 			page 120


 5283 02e4 78546963 		.ascii	"xTicksToWait\000"
 5283      6B73546F 
 5283      57616974 
 5283      00
 5284              	.LASF9:
 5285 02f1 6C6F6E67 		.ascii	"long long int\000"
 5285      206C6F6E 
 5285      6720696E 
 5285      7400
 5286              	.LASF66:
 5287 02ff 78526571 		.ascii	"xRequiredSpace\000"
 5287      75697265 
 5287      64537061 
 5287      636500
 5288              	.LASF78:
 5289 030e 78537472 		.ascii	"xStreamBufferReceiveFromISR\000"
 5289      65616D42 
 5289      75666665 
 5289      72526563 
 5289      65697665 
 5290              	.LASF18:
 5291 032a 63686172 		.ascii	"char\000"
 5291      00
 5292              	.LASF96:
 5293 032f 78577269 		.ascii	"xWriteValue\000"
 5293      74655661 
 5293      6C756500 
 5294              	.LASF6:
 5295 033b 6C6F6E67 		.ascii	"long int\000"
 5295      20696E74 
 5295      00
 5296              	.LASF58:
 5297 0344 78547269 		.ascii	"xTriggerLevel\000"
 5297      67676572 
 5297      4C657665 
 5297      6C00
 5298              	.LASF44:
 5299 0352 53747265 		.ascii	"StreamBuffer_t\000"
 5299      616D4275 
 5299      66666572 
 5299      5F7400
 5300              	.LASF83:
 5301 0361 78537472 		.ascii	"xStreamBufferIsEmpty\000"
 5301      65616D42 
 5301      75666665 
 5301      72497345 
 5301      6D707479 
 5302              	.LASF4:
 5303 0376 5F5F7569 		.ascii	"__uint8_t\000"
 5303      6E74385F 
 5303      7400
 5304              	.LASF52:
 5305 0380 70756341 		.ascii	"pucAllocatedMemory\000"
 5305      6C6C6F63 
 5305      61746564 
 5305      4D656D6F 
 5305      727900
ARM GAS  C:\Users\stijn\AppData\Local\Temp\cccniDcZ.s 			page 121


 5306              	.LASF53:
 5307 0393 70785374 		.ascii	"pxStreamBuffer\000"
 5307      7265616D 
 5307      42756666 
 5307      657200
 5308              	.LASF79:
 5309 03a2 70727657 		.ascii	"prvWriteMessageToBuffer\000"
 5309      72697465 
 5309      4D657373 
 5309      61676554 
 5309      6F427566 
 5310              	.LASF69:
 5311 03ba 70784869 		.ascii	"pxHigherPriorityTaskWoken\000"
 5311      67686572 
 5311      5072696F 
 5311      72697479 
 5311      5461736B 
 5312              	.LASF73:
 5313 03d4 70765278 		.ascii	"pvRxData\000"
 5313      44617461 
 5313      00
 5314              	.LASF16:
 5315 03dd 6C6F6E67 		.ascii	"long double\000"
 5315      20646F75 
 5315      626C6500 
 5316              	.LASF38:
 5317 03e9 784C656E 		.ascii	"xLength\000"
 5317      67746800 
 5318              	.LASF1:
 5319 03f1 756E7369 		.ascii	"unsigned char\000"
 5319      676E6564 
 5319      20636861 
 5319      7200
 5320              	.LASF31:
 5321 03ff 7854696D 		.ascii	"xTimeOnEntering\000"
 5321      654F6E45 
 5321      6E746572 
 5321      696E6700 
 5322              	.LASF49:
 5323 040f 78427566 		.ascii	"xBufferSizeBytes\000"
 5323      66657253 
 5323      697A6542 
 5323      79746573 
 5323      00
 5324              	.LASF46:
 5325 0420 756C4F72 		.ascii	"ulOriginalBASEPRI\000"
 5325      6967696E 
 5325      616C4241 
 5325      53455052 
 5325      4900
 5326              	.LASF57:
 5327 0432 78537472 		.ascii	"xStreamBufferSetTriggerLevel\000"
 5327      65616D42 
 5327      75666665 
 5327      72536574 
 5327      54726967 
 5328              	.LASF40:
ARM GAS  C:\Users\stijn\AppData\Local\Temp\cccniDcZ.s 			page 122


 5329 044f 78546173 		.ascii	"xTaskWaitingToReceive\000"
 5329      6B576169 
 5329      74696E67 
 5329      546F5265 
 5329      63656976 
 5330              	.LASF0:
 5331 0465 7369676E 		.ascii	"signed char\000"
 5331      65642063 
 5331      68617200 
 5332              	.LASF59:
 5333 0471 78537472 		.ascii	"xStreamBufferSpacesAvailable\000"
 5333      65616D42 
 5333      75666665 
 5333      72537061 
 5333      63657341 
 5334              	.LASF10:
 5335 048e 6C6F6E67 		.ascii	"long long unsigned int\000"
 5335      206C6F6E 
 5335      6720756E 
 5335      7369676E 
 5335      65642069 
 5336              	.LASF30:
 5337 04a5 784F7665 		.ascii	"xOverflowCount\000"
 5337      72666C6F 
 5337      77436F75 
 5337      6E7400
 5338              	.LASF14:
 5339 04b4 75696E74 		.ascii	"uint32_t\000"
 5339      33325F74 
 5339      00
 5340              	.LASF68:
 5341 04bd 78537472 		.ascii	"xStreamBufferSendFromISR\000"
 5341      65616D42 
 5341      75666665 
 5341      7253656E 
 5341      6446726F 
 5342              	.LASF11:
 5343 04d6 756E7369 		.ascii	"unsigned int\000"
 5343      676E6564 
 5343      20696E74 
 5343      00
 5344              	.LASF21:
 5345 04e3 42617365 		.ascii	"BaseType_t\000"
 5345      54797065 
 5345      5F7400
 5346              	.LASF43:
 5347 04ee 7563466C 		.ascii	"ucFlags\000"
 5347      61677300 
 5348              	.LASF62:
 5349 04f6 78537472 		.ascii	"xStreamBufferSend\000"
 5349      65616D42 
 5349      75666665 
 5349      7253656E 
 5349      6400
 5350              	.LASF23:
 5351 0508 5469636B 		.ascii	"TickType_t\000"
 5351      54797065 
ARM GAS  C:\Users\stijn\AppData\Local\Temp\cccniDcZ.s 			page 123


 5351      5F7400
 5352              	.LASF3:
 5353 0513 73686F72 		.ascii	"short unsigned int\000"
 5353      7420756E 
 5353      7369676E 
 5353      65642069 
 5353      6E7400
 5354              	.LASF48:
 5355 0526 76506F72 		.ascii	"vPortSetBASEPRI\000"
 5355      74536574 
 5355      42415345 
 5355      50524900 
 5356              	.LASF36:
 5357 0536 78546169 		.ascii	"xTail\000"
 5357      6C00
 5358              	.LASF98:
 5359 053c 47656E65 		.ascii	"Generated_Source\\PSoC6\\pdl\\rtos\\FreeRTOS\\10.0."
 5359      72617465 
 5359      645F536F 
 5359      75726365 
 5359      5C50536F 
 5360 056a 315C536F 		.ascii	"1\\Source\\stream_buffer.c\000"
 5360      75726365 
 5360      5C737472 
 5360      65616D5F 
 5360      62756666 
 5361              	.LASF28:
 5362 0583 65536574 		.ascii	"eSetValueWithOverwrite\000"
 5362      56616C75 
 5362      65576974 
 5362      684F7665 
 5362      72777269 
 5363              	.LASF13:
 5364 059a 696E7433 		.ascii	"int32_t\000"
 5364      325F7400 
 5365              	.LASF50:
 5366 05a2 7849734D 		.ascii	"xIsMessageBuffer\000"
 5366      65737361 
 5366      67654275 
 5366      66666572 
 5366      00
 5367              	.LASF22:
 5368 05b3 55426173 		.ascii	"UBaseType_t\000"
 5368      65547970 
 5368      655F7400 
 5369              	.LASF95:
 5370 05bf 70727642 		.ascii	"prvBytesInBuffer\000"
 5370      79746573 
 5370      496E4275 
 5370      66666572 
 5370      00
 5371              	.LASF39:
 5372 05d0 78547269 		.ascii	"xTriggerLevelBytes\000"
 5372      67676572 
 5372      4C657665 
 5372      6C427974 
 5372      657300
ARM GAS  C:\Users\stijn\AppData\Local\Temp\cccniDcZ.s 			page 124


 5373              	.LASF60:
 5374 05e3 78537061 		.ascii	"xSpace\000"
 5374      636500
 5375              	.LASF93:
 5376 05ea 784D6178 		.ascii	"xMaxCount\000"
 5376      436F756E 
 5376      7400
 5377              	.LASF8:
 5378 05f4 6C6F6E67 		.ascii	"long unsigned int\000"
 5378      20756E73 
 5378      69676E65 
 5378      6420696E 
 5378      7400
 5379              	.LASF77:
 5380 0606 78427974 		.ascii	"xBytesToStoreMessageLength\000"
 5380      6573546F 
 5380      53746F72 
 5380      654D6573 
 5380      73616765 
 5381              	.LASF20:
 5382 0621 646F7562 		.ascii	"double\000"
 5382      6C6500
 5383              	.LASF87:
 5384 0628 70727657 		.ascii	"prvWriteBytesToBuffer\000"
 5384      72697465 
 5384      42797465 
 5384      73546F42 
 5384      75666665 
 5385              	.LASF101:
 5386 063e 756C4E65 		.ascii	"ulNewMaskValue\000"
 5386      774D6173 
 5386      6B56616C 
 5386      756500
 5387              	.LASF29:
 5388 064d 65536574 		.ascii	"eSetValueWithoutOverwrite\000"
 5388      56616C75 
 5388      65576974 
 5388      686F7574 
 5388      4F766572 
 5389              	.LASF5:
 5390 0667 5F5F696E 		.ascii	"__int32_t\000"
 5390      7433325F 
 5390      7400
 5391              	.LASF41:
 5392 0671 78546173 		.ascii	"xTaskWaitingToSend\000"
 5392      6B576169 
 5392      74696E67 
 5392      546F5365 
 5392      6E6400
 5393              	.LASF33:
 5394 0684 53747265 		.ascii	"StreamBufferHandle_t\000"
 5394      616D4275 
 5394      66666572 
 5394      48616E64 
 5394      6C655F74 
 5395              	.LASF70:
 5396 0699 75785361 		.ascii	"uxSavedInterruptStatus\000"
ARM GAS  C:\Users\stijn\AppData\Local\Temp\cccniDcZ.s 			page 125


 5396      76656449 
 5396      6E746572 
 5396      72757074 
 5396      53746174 
 5397              	.LASF84:
 5398 06b0 78537472 		.ascii	"xStreamBufferIsFull\000"
 5398      65616D42 
 5398      75666665 
 5398      72497346 
 5398      756C6C00 
 5399              	.LASF56:
 5400 06c4 78526574 		.ascii	"xReturn\000"
 5400      75726E00 
 5401              	.LASF85:
 5402 06cc 78537472 		.ascii	"xStreamBufferSendCompletedFromISR\000"
 5402      65616D42 
 5402      75666665 
 5402      7253656E 
 5402      64436F6D 
 5403              	.LASF94:
 5404 06ee 784E6578 		.ascii	"xNextTail\000"
 5404      74546169 
 5404      6C00
 5405              	.LASF37:
 5406 06f8 78486561 		.ascii	"xHead\000"
 5406      6400
 5407              	.LASF47:
 5408 06fe 76506F72 		.ascii	"vPortRaiseBASEPRI\000"
 5408      74526169 
 5408      73654241 
 5408      53455052 
 5408      4900
 5409              	.LASF81:
 5410 0710 784F7269 		.ascii	"xOriginalTail\000"
 5410      67696E61 
 5410      6C546169 
 5410      6C00
 5411              	.LASF104:
 5412 071e 49544D5F 		.ascii	"ITM_RxBuffer\000"
 5412      52784275 
 5412      66666572 
 5412      00
 5413              	.LASF103:
 5414 072b 70727649 		.ascii	"prvInitialiseNewStreamBuffer\000"
 5414      6E697469 
 5414      616C6973 
 5414      654E6577 
 5414      53747265 
 5415              	.LASF61:
 5416 0748 78537472 		.ascii	"xStreamBufferBytesAvailable\000"
 5416      65616D42 
 5416      75666665 
 5416      72427974 
 5416      65734176 
 5417              	.LASF88:
 5418 0764 70756344 		.ascii	"pucData\000"
 5418      61746100 
ARM GAS  C:\Users\stijn\AppData\Local\Temp\cccniDcZ.s 			page 126


 5419              	.LASF27:
 5420 076c 65496E63 		.ascii	"eIncrement\000"
 5420      72656D65 
 5420      6E7400
 5421              	.LASF45:
 5422 0777 756C4E65 		.ascii	"ulNewBASEPRI\000"
 5422      77424153 
 5422      45505249 
 5422      00
 5423              		.ident	"GCC: (GNU Tools for ARM Embedded Processors) 5.4.1 20160609 (release) [ARM/embedded-5-bran
