ARM GAS  C:\Users\stijn\AppData\Local\Temp\ccUKNWPE.s 			page 1


   1              		.syntax unified
   2              		.cpu cortex-m4
   3              		.eabi_attribute 27, 1
   4              		.fpu fpv4-sp-d16
   5              		.eabi_attribute 20, 1
   6              		.eabi_attribute 21, 1
   7              		.eabi_attribute 23, 3
   8              		.eabi_attribute 24, 1
   9              		.eabi_attribute 25, 1
  10              		.eabi_attribute 26, 1
  11              		.eabi_attribute 30, 6
  12              		.eabi_attribute 34, 1
  13              		.eabi_attribute 18, 4
  14              		.thumb
  15              		.syntax unified
  16              		.file	"wait.c"
  17              		.text
  18              	.Ltext0:
  19              		.cfi_sections	.debug_frame
  20              		.section	.text.WaitOneUnit,"ax",%progbits
  21              		.align	2
  22              		.global	WaitOneUnit
  23              		.thumb
  24              		.thumb_func
  25              		.type	WaitOneUnit, %function
  26              	WaitOneUnit:
  27              	.LFB562:
  28              		.file 1 "wait.c"
   1:wait.c        **** /*  ____  ____      _    __  __  ____ ___
   2:wait.c        ****  * |  _ \|  _ \    / \  |  \/  |/ ___/ _ \
   3:wait.c        ****  * | | | | |_) |  / _ \ | |\/| | |  | | | |
   4:wait.c        ****  * | |_| |  _ <  / ___ \| |  | | |__| |_| |
   5:wait.c        ****  * |____/|_| \_\/_/   \_\_|  |_|\____\___/
   6:wait.c        ****  *                           research group
   7:wait.c        ****  *                             dramco.be/
   8:wait.c        ****  *
   9:wait.c        ****  *  KU Leuven - Technology Campus Gent,
  10:wait.c        ****  *  Gebroeders De Smetstraat 1,
  11:wait.c        ****  *  B-9000 Gent, Belgium
  12:wait.c        ****  *
  13:wait.c        ****  *         File: wait.c
  14:wait.c        ****  *      Created: 2019-04-11
  15:wait.c        ****  *       Author: Stijn Crul
  16:wait.c        ****  *      Version: 0.1
  17:wait.c        ****  *
  18:wait.c        ****  *  Description: wait library for PSOC6
  19:wait.c        ****  */
  20:wait.c        **** 
  21:wait.c        **** #include "wait.h"
  22:wait.c        **** #include "project.h"
  23:wait.c        **** 
  24:wait.c        **** bool WaitOneUnit(uint32_t *timeout){
  29              		.loc 1 24 0
  30              		.cfi_startproc
  31              		@ args = 0, pretend = 0, frame = 16
  32              		@ frame_needed = 1, uses_anonymous_args = 0
  33 0000 80B5     		push	{r7, lr}
ARM GAS  C:\Users\stijn\AppData\Local\Temp\ccUKNWPE.s 			page 2


  34              		.cfi_def_cfa_offset 8
  35              		.cfi_offset 7, -8
  36              		.cfi_offset 14, -4
  37 0002 84B0     		sub	sp, sp, #16
  38              		.cfi_def_cfa_offset 24
  39 0004 00AF     		add	r7, sp, #0
  40              		.cfi_def_cfa_register 7
  41 0006 7860     		str	r0, [r7, #4]
  25:wait.c        ****     uint32_t status = false;
  42              		.loc 1 25 0
  43 0008 0023     		movs	r3, #0
  44 000a FB60     		str	r3, [r7, #12]
  26:wait.c        **** 
  27:wait.c        ****     // If the timeout equal to 0. Ignore the timeout
  28:wait.c        ****     if (*timeout > 0UL){
  45              		.loc 1 28 0
  46 000c 7B68     		ldr	r3, [r7, #4]
  47 000e 1B68     		ldr	r3, [r3]
  48 0010 002B     		cmp	r3, #0
  49 0012 0DD0     		beq	.L2
  29:wait.c        ****         Cy_SysLib_DelayUs(CY_SCB_WAIT_1_UNIT);
  50              		.loc 1 29 0
  51 0014 0120     		movs	r0, #1
  52 0016 FFF7FEFF 		bl	Cy_SysLib_DelayUs
  30:wait.c        ****         --(*timeout);
  53              		.loc 1 30 0
  54 001a 7B68     		ldr	r3, [r7, #4]
  55 001c 1B68     		ldr	r3, [r3]
  56 001e 5A1E     		subs	r2, r3, #1
  57 0020 7B68     		ldr	r3, [r7, #4]
  58 0022 1A60     		str	r2, [r3]
  31:wait.c        **** 
  32:wait.c        ****         if (0UL == *timeout){
  59              		.loc 1 32 0
  60 0024 7B68     		ldr	r3, [r7, #4]
  61 0026 1B68     		ldr	r3, [r3]
  62 0028 002B     		cmp	r3, #0
  63 002a 01D1     		bne	.L2
  33:wait.c        ****             status = true;
  64              		.loc 1 33 0
  65 002c 0123     		movs	r3, #1
  66 002e FB60     		str	r3, [r7, #12]
  67              	.L2:
  34:wait.c        ****         }
  35:wait.c        ****     }
  36:wait.c        ****     return (status);
  68              		.loc 1 36 0
  69 0030 FB68     		ldr	r3, [r7, #12]
  70 0032 002B     		cmp	r3, #0
  71 0034 14BF     		ite	ne
  72 0036 0123     		movne	r3, #1
  73 0038 0023     		moveq	r3, #0
  74 003a DBB2     		uxtb	r3, r3
  37:wait.c        **** }
  75              		.loc 1 37 0
  76 003c 1846     		mov	r0, r3
  77 003e 1037     		adds	r7, r7, #16
ARM GAS  C:\Users\stijn\AppData\Local\Temp\ccUKNWPE.s 			page 3


  78              		.cfi_def_cfa_offset 8
  79 0040 BD46     		mov	sp, r7
  80              		.cfi_def_cfa_register 13
  81              		@ sp needed
  82 0042 80BD     		pop	{r7, pc}
  83              		.cfi_endproc
  84              	.LFE562:
  85              		.size	WaitOneUnit, .-WaitOneUnit
  86              		.text
  87              	.Letext0:
  88              		.file 2 "c:\\program files (x86)\\cypress\\psoc creator\\4.2\\psoc creator\\import\\gnu\\arm\\5.4.
  89              		.file 3 "c:\\program files (x86)\\cypress\\psoc creator\\4.2\\psoc creator\\import\\gnu\\arm\\5.4.
  90              		.file 4 "Generated_Source\\PSoC6\\pdl\\drivers/peripheral/device/cy_device.h"
  91              		.file 5 "Generated_Source\\PSoC6\\pdl\\drivers/peripheral/sar/cy_sar.h"
  92              		.file 6 "Generated_Source\\PSoC6\\pdl\\drivers/peripheral/scb/cy_scb_i2c.h"
  93              		.file 7 "Generated_Source\\PSoC6\\pdl\\drivers/peripheral/scb/cy_scb_uart.h"
  94              		.file 8 "Generated_Source\\PSoC6/ADC.h"
  95              		.file 9 "Generated_Source\\PSoC6\\pdl\\cmsis/include/core_cm4.h"
  96              		.file 10 "Generated_Source\\PSoC6/UART.h"
  97              		.file 11 "Generated_Source\\PSoC6/mI2C.h"